 IDTFConverter

 Timestamp is 458c06e7 (Fri Dec 22 19:25:11 2006)

 Preferred load address is 00400000

 Start         Length     Name                   Class
 0001:00000000 000682a1H .text                   CODE
 0002:00000000 0000a41cH .text1                  CODE
 0003:00000000 00000178H .idata$5                DATA
 0003:00000180 00011738H .rdata                  DATA
 0003:000118b8 00000044H .rdata$r                DATA
 0003:00011900 00000940H .rdata$sxdata           DATA
 0003:00012240 00000004H .rtc$IAA                DATA
 0003:00012244 00000004H .rtc$IZZ                DATA
 0003:00012248 00000004H .rtc$TAA                DATA
 0003:0001224c 00000004H .rtc$TZZ                DATA
 0003:00012250 0000003cH .idata$2                DATA
 0003:0001228c 00000014H .idata$3                DATA
 0003:000122a0 00000178H .idata$4                DATA
 0003:00012418 0000068cH .idata$6                DATA
 0003:00012aa4 00000000H .edata                  DATA
 0004:00000000 00000004H .CRT$XCA                DATA
 0004:00000004 00000004H .CRT$XCAA               DATA
 0004:00000008 00000008H .CRT$XCU                DATA
 0004:00000010 00000004H .CRT$XCZ                DATA
 0004:00000014 00000004H .CRT$XIA                DATA
 0004:00000018 0000000cH .CRT$XIC                DATA
 0004:00000024 00000004H .CRT$XIY                DATA
 0004:00000028 00000004H .CRT$XIZ                DATA
 0004:0000002c 00000004H .CRT$XPA                DATA
 0004:00000030 00000004H .CRT$XPX                DATA
 0004:00000034 00000004H .CRT$XPZ                DATA
 0004:00000038 00000004H .CRT$XTA                DATA
 0004:0000003c 00000004H .CRT$XTB                DATA
 0004:00000040 00000004H .CRT$XTZ                DATA
 0004:00000050 00005500H .data                   DATA
 0004:00005560 000022b8H .bss                    DATA
 0005:00000000 0000ba10H .data1                  DATA
 0006:00000000 000040ccH _RDATA                  DATA
 0007:00000000 00000118H .rsrc$01                DATA
 0007:00000120 00000d38H .rsrc$02                DATA

  Address         Publics by Value              Rva+Base     Lib:Object

 0000:00000000       __except_list              00000000     <absolute>
 0000:00000250       ___safe_se_handler_count   00000250     <absolute>
 0001:00000000       ??_EBlockParser@U3D_IDTF@@UAEPAXI@Z 00401000 f i BlockParser.obj
 0001:00000000       ??_GBlockParser@U3D_IDTF@@UAEPAXI@Z 00401000 f i BlockParser.obj
 0001:00000024       ??1BlockParser@U3D_IDTF@@UAE@XZ 00401024 f   BlockParser.obj
 0001:0000007c       ??0BlockParser@U3D_IDTF@@QAE@PAVFileScanner@1@@Z 0040107c f   BlockParser.obj
 0001:0000009c       ?ParseStarter@BlockParser@U3D_IDTF@@QAEHXZ 0040109c f   BlockParser.obj
 0001:000000a6       ?ParseTerminator@BlockParser@U3D_IDTF@@QAEHXZ 004010a6 f   BlockParser.obj
 0001:000000b0       ?BlockEnd@BlockParser@U3D_IDTF@@QAEHXZ 004010b0 f   BlockParser.obj
 0001:000000ba       ?BlockBegin@BlockParser@U3D_IDTF@@QAEHPBG@Z 004010ba f   BlockParser.obj
 0001:000000da       ?BlockBegin@BlockParser@U3D_IDTF@@QAEHPBGPAVIFXString@@@Z 004010da f   BlockParser.obj
 0001:000000fe       ?BlockBegin@BlockParser@U3D_IDTF@@QAEHPBGPAH@Z 004010fe f   BlockParser.obj
 0001:00000124       _wmain                     00401124 f   ConverterDriver.obj
 0001:00000346       ?mbs_to_wcs@@YAPAGPBD@Z    00401346 f   ConverterDriver.obj
 0001:000003a8       ??1FileOptions@U3D_IDTF@@QAE@XZ 004013a8 f i ConverterDriver.obj
 0001:0000040c       ??_EFile@U3D_IDTF@@UAEPAXI@Z 0040140c f i File.obj
 0001:0000040c       ??_GFile@U3D_IDTF@@UAEPAXI@Z 0040140c f i File.obj
 0001:00000430       ??1File@U3D_IDTF@@UAE@XZ   00401430 f   File.obj
 0001:0000044a       ?Close@File@U3D_IDTF@@QAEHXZ 0040144a f   File.obj
 0001:0000046e       ??0File@U3D_IDTF@@QAE@XZ   0040146e f   File.obj
 0001:00000480       ?IsEndOfFile@File@U3D_IDTF@@QAEHXZ 00401480 f   File.obj
 0001:0000048a       ?ReadCharacter@File@U3D_IDTF@@QAEEXZ 0040148a f   File.obj
 0001:00000498       ?GetPosition@File@U3D_IDTF@@QAEHPAI@Z 00401498 f   File.obj
 0001:000004ba       ?SetPosition@File@U3D_IDTF@@QAEHI@Z 004014ba f   File.obj
 0001:000004dc       ?Open@File@U3D_IDTF@@QAEHXZ 004014dc f   File.obj
 0001:000004fe       ?Initialize@File@U3D_IDTF@@QAEHPBG@Z 004014fe f   File.obj
 0001:0000051c       ??_EIFXCoreArray@@UAEPAXI@Z 0040151c f i FileParser.obj
 0001:0000051c       ??_GIFXCoreArray@@UAEPAXI@Z 0040151c f i FileParser.obj
 0001:00000538       ??_EFileParser@U3D_IDTF@@UAEPAXI@Z 00401538 f i FileParser.obj
 0001:00000538       ??_GFileParser@U3D_IDTF@@UAEPAXI@Z 00401538 f i FileParser.obj
 0001:0000055c       ??1FileParser@U3D_IDTF@@UAE@XZ 0040155c f   FileParser.obj
 0001:000005c6       ??0FileParser@U3D_IDTF@@QAE@XZ 004015c6 f   FileParser.obj
 0001:00000622       ?ParseFileHeader@FileParser@U3D_IDTF@@QAEHPAVIFXString@@PAH@Z 00401622 f   FileParser.obj
 0001:000006ee       ?ParseSceneData@FileParser@U3D_IDTF@@QAEHPAVSceneData@2@@Z 004016ee f   FileParser.obj
 0001:00000724       ?ParseFileReference@FileParser@U3D_IDTF@@QAEHPAVFileReference@2@@Z 00401724 f   FileParser.obj
 0001:0000079c       ?ParseNodes@FileParser@U3D_IDTF@@QAEHPAVNodeList@2@@Z 0040179c f   FileParser.obj
 0001:0000088e       ?MakeNode@U3D_IDTF@@YAPAVNode@1@ABVIFXString@@@Z 0040188e f   FileParser.obj
 0001:00000da8       ?ParseNode@FileParser@U3D_IDTF@@IAEHPAVNode@2@@Z 00401da8 f   FileParser.obj
 0001:00000e14       ?ParseResources@FileParser@U3D_IDTF@@QAEHPAVSceneResources@2@@Z 00401e14 f   FileParser.obj
 0001:00000eec       ?ParseResourceList@FileParser@U3D_IDTF@@IAEHPAVResourceList@2@@Z 00401eec f   FileParser.obj
 0001:00000f58       ?ParseModifiers@FileParser@U3D_IDTF@@QAEHPAVModifierList@2@@Z 00401f58 f   FileParser.obj
 0001:00001058       ?MakeModifier@U3D_IDTF@@YAPAVModifier@1@ABVIFXString@@@Z 00402058 f   FileParser.obj
 0001:00001766       ?ParseModifier@FileParser@U3D_IDTF@@IAEHPAVModifier@2@@Z 00402766 f   FileParser.obj
 0001:000017d2       ?Parse@FileParser@U3D_IDTF@@QAEHXZ 004027d2 f   FileParser.obj
 0001:000017d6       ?Initialize@FileParser@U3D_IDTF@@QAEHPBG@Z 004027d6 f   FileParser.obj
 0001:000017e8       ??_GViewNodeData@U3D_IDTF@@UAEPAXI@Z 004027e8 f i FileParser.obj
 0001:000017e8       ??_EViewNodeData@U3D_IDTF@@UAEPAXI@Z 004027e8 f i FileParser.obj
 0001:00001a38       ??1?$IFXArray@UViewTexture@U3D_IDTF@@@@UAE@XZ 00402a38 f i FileParser.obj
 0001:00001b40       ??1ViewNodeData@U3D_IDTF@@UAE@XZ 00402b40 f i FileParser.obj
 0001:00001d78       ??1?$IFXArray@VShaderList@U3D_IDTF@@@@UAE@XZ 00402d78 f i FileParser.obj
 0001:00001e80       ??1?$IFXArray@VIFXString@@@@UAE@XZ 00402e80 f i FileParser.obj
 0001:00001f88       ??1?$IFXArray@UMotionInfo@U3D_IDTF@@@@UAE@XZ 00402f88 f i FileParser.obj
 0001:00002090       ??_EBoneWeightList@U3D_IDTF@@UAEPAXI@Z 00403090 f i FileParser.obj
 0001:000022b8       ??1?$IFXArray@H@@UAE@XZ    004032b8 f i FileParser.obj
 0001:000023a8       ??1?$IFXArray@VBoneWeightList@U3D_IDTF@@@@UAE@XZ 004033a8 f i FileParser.obj
 0001:000024b0       ??_EGlyphCommand@U3D_IDTF@@UAEPAXI@Z 004034b0 f i FileParser.obj
 0001:0000254c       ??_EEndGlyph@U3D_IDTF@@UAEPAXI@Z 0040354c f i FileParser.obj
 0001:000025f8       ??_EMoveTo@U3D_IDTF@@UAEPAXI@Z 004035f8 f i FileParser.obj
 0001:000026a4       ??_ELineTo@U3D_IDTF@@UAEPAXI@Z 004036a4 f i FileParser.obj
 0001:00002750       ??_ECurveTo@U3D_IDTF@@UAEPAXI@Z 00403750 f i FileParser.obj
 0001:000027fc       ??_GGlyphCommandList@U3D_IDTF@@UAEPAXI@Z 004037fc f i FileParser.obj
 0001:000027fc       ??_EGlyphCommandList@U3D_IDTF@@UAEPAXI@Z 004037fc f i FileParser.obj
 0001:00002d98       ??1IFXCoreArray@@UAE@XZ    00403d98 f i FileParser.obj
 0001:00002da0       ??1GlyphCommand@U3D_IDTF@@UAE@XZ 00403da0 f i FileParser.obj
 0001:00002df4       ??1?$IFXArray@PAVGlyphCommand@U3D_IDTF@@@@UAE@XZ 00403df4 f i FileParser.obj
 0001:00002ee4       ??1?$IFXArray@VGlyphCommand@U3D_IDTF@@@@UAE@XZ 00403ee4 f i FileParser.obj
 0001:00002fec       ??1?$IFXArray@VEndGlyph@U3D_IDTF@@@@UAE@XZ 00403fec f i FileParser.obj
 0001:000030f4       ??1?$IFXArray@VMoveTo@U3D_IDTF@@@@UAE@XZ 004040f4 f i FileParser.obj
 0001:000031fc       ??1?$IFXArray@VLineTo@U3D_IDTF@@@@UAE@XZ 004041fc f i FileParser.obj
 0001:00003304       ??1?$IFXArray@VCurveTo@U3D_IDTF@@@@UAE@XZ 00404304 f i FileParser.obj
 0001:0000340c       ??1GlyphCommandList@U3D_IDTF@@UAE@XZ 0040440c f i FileParser.obj
 0001:0000397c       ??_E?$IFXArray@UViewTexture@U3D_IDTF@@@@UAEPAXI@Z 0040497c f i FileParser.obj
 0001:0000397c       ??_G?$IFXArray@UViewTexture@U3D_IDTF@@@@UAEPAXI@Z 0040497c f i FileParser.obj
 0001:00003a94       ??_G?$IFXArray@VIFXString@@@@UAEPAXI@Z 00404a94 f i FileParser.obj
 0001:00003a94       ??_E?$IFXArray@VIFXString@@@@UAEPAXI@Z 00404a94 f i FileParser.obj
 0001:00003bac       ??_E?$IFXArray@VShaderList@U3D_IDTF@@@@UAEPAXI@Z 00404bac f i FileParser.obj
 0001:00003bac       ??_G?$IFXArray@VShaderList@U3D_IDTF@@@@UAEPAXI@Z 00404bac f i FileParser.obj
 0001:00003cc4       ??_G?$IFXArray@UMotionInfo@U3D_IDTF@@@@UAEPAXI@Z 00404cc4 f i FileParser.obj
 0001:00003cc4       ??_E?$IFXArray@UMotionInfo@U3D_IDTF@@@@UAEPAXI@Z 00404cc4 f i FileParser.obj
 0001:00003ddc       ??_G?$IFXArray@H@@UAEPAXI@Z 00404ddc f i FileParser.obj
 0001:00003ddc       ??_E?$IFXArray@H@@UAEPAXI@Z 00404ddc f i FileParser.obj
 0001:00003ee0       ??_E?$IFXArray@VBoneWeightList@U3D_IDTF@@@@UAEPAXI@Z 00404ee0 f i FileParser.obj
 0001:00003ee0       ??_G?$IFXArray@VBoneWeightList@U3D_IDTF@@@@UAEPAXI@Z 00404ee0 f i FileParser.obj
 0001:00003ff8       ??_G?$IFXArray@PAVGlyphCommand@U3D_IDTF@@@@UAEPAXI@Z 00404ff8 f i FileParser.obj
 0001:00003ff8       ??_E?$IFXArray@PAVGlyphCommand@U3D_IDTF@@@@UAEPAXI@Z 00404ff8 f i FileParser.obj
 0001:000040fc       ??_G?$IFXArray@VGlyphCommand@U3D_IDTF@@@@UAEPAXI@Z 004050fc f i FileParser.obj
 0001:000040fc       ??_E?$IFXArray@VGlyphCommand@U3D_IDTF@@@@UAEPAXI@Z 004050fc f i FileParser.obj
 0001:00004214       ??_G?$IFXArray@VEndGlyph@U3D_IDTF@@@@UAEPAXI@Z 00405214 f i FileParser.obj
 0001:00004214       ??_E?$IFXArray@VEndGlyph@U3D_IDTF@@@@UAEPAXI@Z 00405214 f i FileParser.obj
 0001:0000432c       ??_E?$IFXArray@VMoveTo@U3D_IDTF@@@@UAEPAXI@Z 0040532c f i FileParser.obj
 0001:0000432c       ??_G?$IFXArray@VMoveTo@U3D_IDTF@@@@UAEPAXI@Z 0040532c f i FileParser.obj
 0001:00004444       ??_E?$IFXArray@VLineTo@U3D_IDTF@@@@UAEPAXI@Z 00405444 f i FileParser.obj
 0001:00004444       ??_G?$IFXArray@VLineTo@U3D_IDTF@@@@UAEPAXI@Z 00405444 f i FileParser.obj
 0001:0000455c       ??_G?$IFXArray@VCurveTo@U3D_IDTF@@@@UAEPAXI@Z 0040555c f i FileParser.obj
 0001:0000455c       ??_E?$IFXArray@VCurveTo@U3D_IDTF@@@@UAEPAXI@Z 0040555c f i FileParser.obj
 0001:00004674       ?GetElementName@IFXCoreArray@@UAE?AVIFXString@@I@Z 00405674 f i FileParser.obj
 0001:0000468c       ?GetElementSize@IFXCoreArray@@UAEII@Z 0040568c f i FileParser.obj
 0001:00004694       ??1ViewTexture@U3D_IDTF@@QAE@XZ 00405694 f i FileParser.obj
 0001:000046e0       ?Construct@?$IFXArray@UViewTexture@U3D_IDTF@@@@EAEXI@Z 004056e0 f i FileParser.obj
 0001:00004790       ?Destruct@?$IFXArray@UViewTexture@U3D_IDTF@@@@EAEXI@Z 00405790 f i FileParser.obj
 0001:00004830       ?DestructAll@?$IFXArray@UViewTexture@U3D_IDTF@@@@EAEXXZ 00405830 f i FileParser.obj
 0001:000048e0       ?Preallocate@?$IFXArray@UViewTexture@U3D_IDTF@@@@EAEXI@Z 004058e0 f i FileParser.obj
 0001:000049b8       ??0ShaderList@U3D_IDTF@@QAE@XZ 004059b8 f i FileParser.obj
 0001:00004ac0       ??1ShaderList@U3D_IDTF@@QAE@XZ 00405ac0 f i FileParser.obj
 0001:00004bdc       ?Construct@?$IFXArray@VIFXString@@@@EAEXI@Z 00405bdc f i FileParser.obj
 0001:00004c94       ?DestructAll@?$IFXArray@VIFXString@@@@EAEXXZ 00405c94 f i FileParser.obj
 0001:00004d00       ?Preallocate@?$IFXArray@VIFXString@@@@EAEXI@Z 00405d00 f i FileParser.obj
 0001:00004ddc       ?Construct@?$IFXArray@VShaderList@U3D_IDTF@@@@EAEXI@Z 00405ddc f i FileParser.obj
 0001:00004f7c       ?Destruct@?$IFXArray@VShaderList@U3D_IDTF@@@@EAEXI@Z 00405f7c f i FileParser.obj
 0001:000050f0       ?DestructAll@?$IFXArray@VShaderList@U3D_IDTF@@@@EAEXXZ 004060f0 f i FileParser.obj
 0001:000051a0       ?Preallocate@?$IFXArray@VShaderList@U3D_IDTF@@@@EAEXI@Z 004061a0 f i FileParser.obj
 0001:00005280       ??0ViewTexture@U3D_IDTF@@QAE@XZ 00406280 f i FileParser.obj
 0001:00005280       ??0MotionInfo@U3D_IDTF@@QAE@XZ 00406280 f i FileParser.obj
 0001:00005290       ??1MotionInfo@U3D_IDTF@@QAE@XZ 00406290 f i FileParser.obj
 0001:000052dc       ?Construct@?$IFXArray@UMotionInfo@U3D_IDTF@@@@EAEXI@Z 004062dc f i FileParser.obj
 0001:00005394       ?Destruct@?$IFXArray@UMotionInfo@U3D_IDTF@@@@EAEXI@Z 00406394 f i FileParser.obj
 0001:00005434       ?DestructAll@?$IFXArray@UMotionInfo@U3D_IDTF@@@@EAEXXZ 00406434 f i FileParser.obj
 0001:000054e4       ?Preallocate@?$IFXArray@UMotionInfo@U3D_IDTF@@@@EAEXI@Z 004064e4 f i FileParser.obj
 0001:000055c4       ??0BoneWeightList@U3D_IDTF@@QAE@XZ 004065c4 f i FileParser.obj
 0001:000056e4       ??1BoneWeightList@U3D_IDTF@@UAE@XZ 004066e4 f i FileParser.obj
 0001:000058bc       ?Construct@?$IFXArray@PAVGlyphCommand@U3D_IDTF@@@@EAEXI@Z 004068bc f i FileParser.obj
 0001:000058bc       ?Construct@?$IFXArray@PAVIFXString@@@@EAEXI@Z 004068bc f i TextureConverter.obj
 0001:000058bc       ?Construct@?$IFXArray@I@@EAEXI@Z 004068bc f i ModelResourceParser.obj
 0001:000058bc       ?Construct@?$IFXArray@PAVNode@U3D_IDTF@@@@EAEXI@Z 004068bc f i IDTFCommon:NodeList.obj
 0001:000058bc       ?Construct@?$IFXArray@PAVModelResource@U3D_IDTF@@@@EAEXI@Z 004068bc f i IDTFCommon:ModelResourceList.obj
 0001:000058bc       ?Construct@?$IFXArray@PAVModifier@U3D_IDTF@@@@EAEXI@Z 004068bc f i IDTFCommon:ModifierList.obj
 0001:000058bc       ?Construct@?$IFXArray@H@@EAEXI@Z 004068bc f i FileParser.obj
 0001:000058fc       ?Construct@?$IFXArray@VBoneWeightList@U3D_IDTF@@@@EAEXI@Z 004068fc f i FileParser.obj
 0001:00005aa4       ?DestructAll@?$IFXArray@VBoneWeightList@U3D_IDTF@@@@EAEXXZ 00406aa4 f i FileParser.obj
 0001:00005b54       ?Preallocate@?$IFXArray@VBoneWeightList@U3D_IDTF@@@@EAEXI@Z 00406b54 f i FileParser.obj
 0001:00005c34       ??0GlyphCommand@U3D_IDTF@@QAE@XZ 00406c34 f i FileParser.obj
 0001:00005c4c       ??0EndGlyph@U3D_IDTF@@QAE@XZ 00406c4c f i FileParser.obj
 0001:00005c6c       ??1EndGlyph@U3D_IDTF@@UAE@XZ 00406c6c f i FileParser.obj
 0001:00005cd0       ??0MoveTo@U3D_IDTF@@QAE@XZ 00406cd0 f i FileParser.obj
 0001:00005cf0       ??1MoveTo@U3D_IDTF@@UAE@XZ 00406cf0 f i FileParser.obj
 0001:00005d54       ??0LineTo@U3D_IDTF@@QAE@XZ 00406d54 f i FileParser.obj
 0001:00005d74       ??1LineTo@U3D_IDTF@@UAE@XZ 00406d74 f i FileParser.obj
 0001:00005dd8       ??0CurveTo@U3D_IDTF@@QAE@XZ 00406dd8 f i FileParser.obj
 0001:00005df8       ??1CurveTo@U3D_IDTF@@UAE@XZ 00406df8 f i FileParser.obj
 0001:00005e5c       ?Construct@?$IFXArray@VGlyphCommand@U3D_IDTF@@@@EAEXI@Z 00406e5c f i FileParser.obj
 0001:00005f14       ?DestructAll@?$IFXArray@VGlyphCommand@U3D_IDTF@@@@EAEXXZ 00406f14 f i FileParser.obj
 0001:00005fc4       ?Preallocate@?$IFXArray@VGlyphCommand@U3D_IDTF@@@@EAEXI@Z 00406fc4 f i FileParser.obj
 0001:00006094       ?Construct@?$IFXArray@VEndGlyph@U3D_IDTF@@@@EAEXI@Z 00407094 f i FileParser.obj
 0001:00006150       ?DestructAll@?$IFXArray@VEndGlyph@U3D_IDTF@@@@EAEXXZ 00407150 f i FileParser.obj
 0001:00006200       ?Preallocate@?$IFXArray@VEndGlyph@U3D_IDTF@@@@EAEXI@Z 00407200 f i FileParser.obj
 0001:000062dc       ?Construct@?$IFXArray@VMoveTo@U3D_IDTF@@@@EAEXI@Z 004072dc f i FileParser.obj
 0001:00006398       ?DestructAll@?$IFXArray@VMoveTo@U3D_IDTF@@@@EAEXXZ 00407398 f i FileParser.obj
 0001:00006448       ?Preallocate@?$IFXArray@VMoveTo@U3D_IDTF@@@@EAEXI@Z 00407448 f i FileParser.obj
 0001:00006524       ?Construct@?$IFXArray@VLineTo@U3D_IDTF@@@@EAEXI@Z 00407524 f i FileParser.obj
 0001:000065e0       ?DestructAll@?$IFXArray@VLineTo@U3D_IDTF@@@@EAEXXZ 004075e0 f i FileParser.obj
 0001:00006690       ?Preallocate@?$IFXArray@VLineTo@U3D_IDTF@@@@EAEXI@Z 00407690 f i FileParser.obj
 0001:0000676c       ?Construct@?$IFXArray@VCurveTo@U3D_IDTF@@@@EAEXI@Z 0040776c f i FileParser.obj
 0001:00006828       ?DestructAll@?$IFXArray@VCurveTo@U3D_IDTF@@@@EAEXXZ 00407828 f i FileParser.obj
 0001:000068d8       ?Preallocate@?$IFXArray@VCurveTo@U3D_IDTF@@@@EAEXI@Z 004078d8 f i FileParser.obj
 0001:000069b4       ??_EModifier@U3D_IDTF@@UAEPAXI@Z 004079b4 f i FileParser.obj
 0001:000069b4       ??_GModifier@U3D_IDTF@@UAEPAXI@Z 004079b4 f i FileParser.obj
 0001:00006a6c       ??_EIFXString@@UAEPAXI@Z   00407a6c f i FileParser.obj
 0001:00006ac0       ??1Node@U3D_IDTF@@UAE@XZ   00407ac0 f i FileParser.obj
 0001:00006b78       ??1Modifier@U3D_IDTF@@UAE@XZ 00407b78 f i FileParser.obj
 0001:00006c14       ??0GlyphModifier@U3D_IDTF@@QAE@XZ 00407c14 f i FileParser.obj
 0001:00007168       ??_GIFXException@@UAEPAXI@Z 00408168 f i FileReferenceConverter.obj
 0001:00007168       ??_EIFXException@@UAEPAXI@Z 00408168 f i FileReferenceConverter.obj
 0001:000071d8       ??_GFileReferenceConverter@U3D_IDTF@@UAEPAXI@Z 004081d8 f i FileReferenceConverter.obj
 0001:000071d8       ??_EFileReferenceConverter@U3D_IDTF@@UAEPAXI@Z 004081d8 f i FileReferenceConverter.obj
 0001:000071fc       ??_G?$IFXArray@UIFXObjectFilter@@@@UAEPAXI@Z 004081fc f i FileReferenceConverter.obj
 0001:000071fc       ??_E?$IFXArray@UIFXObjectFilter@@@@UAEPAXI@Z 004081fc f i FileReferenceConverter.obj
 0001:00007314       ??0IFXObjectFilter@@QAE@XZ 00408314 f i FileReferenceConverter.obj
 0001:00007324       ??1IFXObjectFilter@@QAE@XZ 00408324 f i FileReferenceConverter.obj
 0001:00007374       ?Construct@?$IFXArray@UIFXObjectFilter@@@@EAEXI@Z 00408374 f i FileReferenceConverter.obj
 0001:00007424       ?Destruct@?$IFXArray@UIFXObjectFilter@@@@EAEXI@Z 00408424 f i FileReferenceConverter.obj
 0001:000074c8       ?DestructAll@?$IFXArray@UIFXObjectFilter@@@@EAEXXZ 004084c8 f i FileReferenceConverter.obj
 0001:00007578       ?Preallocate@?$IFXArray@UIFXObjectFilter@@@@EAEXI@Z 00408578 f i FileReferenceConverter.obj
 0001:00007654       ??0IFXException@@QAE@ABV0@@Z 00408654 f i FileReferenceConverter.obj
 0001:000076cc       ??1IFXException@@UAE@XZ    004086cc f i FileReferenceConverter.obj
 0001:00007720       ??0FileReferenceConverter@U3D_IDTF@@QAE@PAVSceneUtilities@1@PBVFileReference@1@@Z 00408720 f   FileReferenceConverter.obj
 0001:000077a0       ??1FileReferenceConverter@U3D_IDTF@@UAE@XZ 004087a0 f   FileReferenceConverter.obj
 0001:000077b0       ?Convert@FileReferenceConverter@U3D_IDTF@@UAEHXZ 004087b0 f   FileReferenceConverter.obj
 0001:00007c88       ??1?$IFXArray@UIFXObjectFilter@@@@UAE@XZ 00408c88 f i FileReferenceConverter.obj
 0001:00007d90       ??_GFileReferenceParser@U3D_IDTF@@UAEPAXI@Z 00408d90 f i FileReferenceParser.obj
 0001:00007d90       ??_EFileReferenceParser@U3D_IDTF@@UAEPAXI@Z 00408d90 f i FileReferenceParser.obj
 0001:00007db4       ??1FileReferenceParser@U3D_IDTF@@UAE@XZ 00408db4 f   FileReferenceParser.obj
 0001:00007e0e       ??0FileReferenceParser@U3D_IDTF@@QAE@PAVFileScanner@1@PAVFileReference@1@@Z 00408e0e f   FileReferenceParser.obj
 0001:00007eda       ?Parse@FileReferenceParser@U3D_IDTF@@QAEHXZ 00408eda f   FileReferenceParser.obj
 0001:000081d2       ?ParseFilterList@FileReferenceParser@U3D_IDTF@@AAEHXZ 004091d2 f   FileReferenceParser.obj
 0001:00008302       ?ParseFilter@FileReferenceParser@U3D_IDTF@@AAEHAAVFilter@2@@Z 00409302 f   FileReferenceParser.obj
 0001:00008424       ??_EUrlList@U3D_IDTF@@UAEPAXI@Z 00409424 f i FileReferenceParser.obj
 0001:00008424       ??_GUrlList@U3D_IDTF@@UAEPAXI@Z 00409424 f i FileReferenceParser.obj
 0001:0000856c       ??1UrlList@U3D_IDTF@@UAE@XZ 0040956c f i FileReferenceParser.obj
 0001:00008690       ??_EFileScanner@U3D_IDTF@@UAEPAXI@Z 00409690 f i FileScanner.obj
 0001:00008690       ??_GFileScanner@U3D_IDTF@@UAEPAXI@Z 00409690 f i FileScanner.obj
 0001:000086b4       ??1FileScanner@U3D_IDTF@@UAE@XZ 004096b4 f   FileScanner.obj
 0001:00008722       ??0FileScanner@U3D_IDTF@@QAE@XZ 00409722 f   FileScanner.obj
 0001:00008790       ?ScanStringToken@FileScanner@U3D_IDTF@@QAEHPBGPAVIFXString@@@Z 00409790 f   FileScanner.obj
 0001:000087c8       ?ScanToken@FileScanner@U3D_IDTF@@QAEHPBG@Z 004097c8 f   FileScanner.obj
 0001:00008950       ?IsSpace@FileScanner@U3D_IDTF@@IAEHD@Z 00409950 f   FileScanner.obj
 0001:00008960       ?IsEndOfFile@FileScanner@U3D_IDTF@@QAEHXZ 00409960 f   FileScanner.obj
 0001:0000896a       ?ScanString@FileScanner@U3D_IDTF@@QAEHPAVIFXString@@@Z 0040996a f   FileScanner.obj
 0001:00008a0a       ?NextCharacter@FileScanner@U3D_IDTF@@IAEEXZ 00409a0a f   FileScanner.obj
 0001:00008a1a       ?ScanIntegerToken@FileScanner@U3D_IDTF@@QAEHPBGPAH@Z 00409a1a f   FileScanner.obj
 0001:00008a52       ?ScanHexToken@FileScanner@U3D_IDTF@@QAEHPBGPAH@Z 00409a52 f   FileScanner.obj
 0001:00008a8a       ?ScanHex@FileScanner@U3D_IDTF@@QAEHPAH@Z 00409a8a f   FileScanner.obj
 0001:00008bde       ?SkipBlanks@FileScanner@U3D_IDTF@@IAEXXZ 00409bde f   FileScanner.obj
 0001:00008c08       ?ScanFloatToken@FileScanner@U3D_IDTF@@QAEHPBGPAM@Z 00409c08 f   FileScanner.obj
 0001:00008c40       ?ScanTMToken@FileScanner@U3D_IDTF@@QAEHPBGPAVIFXMatrix4x4@@@Z 00409c40 f   FileScanner.obj
 0001:00008c8e       ?FindBlockStarter@FileScanner@U3D_IDTF@@QAEHXZ 00409c8e f   FileScanner.obj
 0001:00008cce       ?ScanTM@FileScanner@U3D_IDTF@@QAEHPAVIFXMatrix4x4@@@Z 00409cce f   FileScanner.obj
 0001:00008d98       ?ScanFloat@FileScanner@U3D_IDTF@@QAEHPAM@Z 00409d98 f   FileScanner.obj
 0001:00008f36       ?SkipSpaces@FileScanner@U3D_IDTF@@IAEXXZ 00409f36 f   FileScanner.obj
 0001:00008f7c       ?FindBlockTerminator@FileScanner@U3D_IDTF@@QAEHXZ 00409f7c f   FileScanner.obj
 0001:00008fbc       ?ScanColorToken@FileScanner@U3D_IDTF@@QAEHPBGPAVColor@2@@Z 00409fbc f   FileScanner.obj
 0001:00008ff4       ?ScanColor@FileScanner@U3D_IDTF@@QAEHPAVColor@2@@Z 00409ff4 f   FileScanner.obj
 0001:000090e0       ?ScanQuatToken@FileScanner@U3D_IDTF@@QAEHPBGPAVQuat@2@@Z 0040a0e0 f   FileScanner.obj
 0001:00009118       ?ScanQuat@FileScanner@U3D_IDTF@@QAEHPAVQuat@2@@Z 0040a118 f   FileScanner.obj
 0001:000091c4       ?ScanPointToken@FileScanner@U3D_IDTF@@QAEHPBGPAVPoint@2@@Z 0040a1c4 f   FileScanner.obj
 0001:000091fc       ?ScanPoint@FileScanner@U3D_IDTF@@QAEHPAVPoint@2@@Z 0040a1fc f   FileScanner.obj
 0001:00009282       ?Scan@FileScanner@U3D_IDTF@@QAEHPAVIFXString@@I@Z 0040a282 f   FileScanner.obj
 0001:00009378       ?ScanInt3@FileScanner@U3D_IDTF@@QAEHPAVInt3@2@@Z 0040a378 f   FileScanner.obj
 0001:000093ea       ?ScanInteger@FileScanner@U3D_IDTF@@QAEHPAH@Z 0040a3ea f   FileScanner.obj
 0001:000094dc       ?ScanInt2@FileScanner@U3D_IDTF@@QAEHPAVInt2@2@@Z 0040a4dc f   FileScanner.obj
 0001:00009532       ?ScanVector4@FileScanner@U3D_IDTF@@QAEHPAVIFXVector4@@@Z 0040a532 f   FileScanner.obj
 0001:000095ca       ?Initialize@FileScanner@U3D_IDTF@@QAEHPBG@Z 0040a5ca f   FileScanner.obj
 0001:000095f8       ??_ELineSetConverter@U3D_IDTF@@UAEPAXI@Z 0040a5f8 f i LineSetConverter.obj
 0001:000095f8       ??_GLineSetConverter@U3D_IDTF@@UAEPAXI@Z 0040a5f8 f i LineSetConverter.obj
 0001:0000961c       ??1LineSetConverter@U3D_IDTF@@UAE@XZ 0040a61c f   LineSetConverter.obj
 0001:00009674       ??0LineSetConverter@U3D_IDTF@@QAE@PBVLineSetResource@1@PAVSceneUtilities@1@@Z 0040a674 f   LineSetConverter.obj
 0001:00009696       ?Convert@LineSetConverter@U3D_IDTF@@UAEHXZ 0040a696 f   LineSetConverter.obj
 0001:00009828       ?ConvertLineSet@LineSetConverter@U3D_IDTF@@IAEHPAPAVIFXAuthorLineSet@@@Z 0040a828 f   LineSetConverter.obj
 0001:00009ece       ?ConvertLineSetFormat@LineSetConverter@U3D_IDTF@@IAEHPAUIFXAuthorLineSetDesc@@@Z 0040aece f   LineSetConverter.obj
 0001:00009f14       ??_EInt2@U3D_IDTF@@UAEPAXI@Z 0040af14 f i LineSetResourceParser.obj
 0001:00009f5c       ??_ELineSetResourceParser@U3D_IDTF@@UAEPAXI@Z 0040af5c f i LineSetResourceParser.obj
 0001:00009f5c       ??_GLineSetResourceParser@U3D_IDTF@@UAEPAXI@Z 0040af5c f i LineSetResourceParser.obj
 0001:00009f80       ??1LineSetResourceParser@U3D_IDTF@@UAE@XZ 0040af80 f   LineSetResourceParser.obj
 0001:00009fd2       ??0LineSetResourceParser@U3D_IDTF@@QAE@PAVFileScanner@1@PAVLineSetResource@1@@Z 0040afd2 f   LineSetResourceParser.obj
 0001:00009ff6       ?Parse@LineSetResourceParser@U3D_IDTF@@QAEHXZ 0040aff6 f   LineSetResourceParser.obj
 0001:0000a1c0       ?ParseLineSetDescription@LineSetResourceParser@U3D_IDTF@@IAEHXZ 0040b1c0 f   LineSetResourceParser.obj
 0001:0000a2da       ?ParseLineTextureCoords@LineSetResourceParser@U3D_IDTF@@IAEHXZ 0040b2da f   LineSetResourceParser.obj
 0001:0000a4a4       ??1Int2@U3D_IDTF@@UAE@XZ   0040b4a4 f i LineSetResourceParser.obj
 0001:0000a4ac       ??_GMaterialParser@U3D_IDTF@@UAEPAXI@Z 0040b4ac f i MaterialParser.obj
 0001:0000a4ac       ??_EMaterialParser@U3D_IDTF@@UAEPAXI@Z 0040b4ac f i MaterialParser.obj
 0001:0000a4d0       ??1MaterialParser@U3D_IDTF@@UAE@XZ 0040b4d0 f   MaterialParser.obj
 0001:0000a52a       ??0MaterialParser@U3D_IDTF@@QAE@PAVFileScanner@1@PAVMaterial@1@@Z 0040b52a f   MaterialParser.obj
 0001:0000a5f6       ?Parse@MaterialParser@U3D_IDTF@@QAEHXZ 0040b5f6 f   MaterialParser.obj
 0001:0000a778       ??_EMeshConverter@U3D_IDTF@@UAEPAXI@Z 0040b778 f i MeshConverter.obj
 0001:0000a778       ??_GMeshConverter@U3D_IDTF@@UAEPAXI@Z 0040b778 f i MeshConverter.obj
 0001:0000a79c       ??1MeshConverter@U3D_IDTF@@UAE@XZ 0040b79c f   MeshConverter.obj
 0001:0000a7ee       ??0MeshConverter@U3D_IDTF@@QAE@PBVMeshResource@1@PAVSceneUtilities@1@@Z 0040b7ee f   MeshConverter.obj
 0001:0000a810       ?Convert@MeshConverter@U3D_IDTF@@UAEHXZ 0040b810 f   MeshConverter.obj
 0001:0000aec2       ?ConvertMesh@MeshConverter@U3D_IDTF@@IAEHPAPAVIFXAuthorMesh@@PAI@Z 0040bec2 f   MeshConverter.obj
 0001:0000b71c       ?ConvertMeshFormat@MeshConverter@U3D_IDTF@@IAEHPAUIFXAuthorMeshDesc@@PAI@Z 0040c71c f   MeshConverter.obj
 0001:0000b788       ??_EInt3@U3D_IDTF@@UAEPAXI@Z 0040c788 f i MeshResourceParser.obj
 0001:0000b7d0       ??_GMeshResourceParser@U3D_IDTF@@UAEPAXI@Z 0040c7d0 f i MeshResourceParser.obj
 0001:0000b7d0       ??_EMeshResourceParser@U3D_IDTF@@UAEPAXI@Z 0040c7d0 f i MeshResourceParser.obj
 0001:0000b7f4       ??1MeshResourceParser@U3D_IDTF@@UAE@XZ 0040c7f4 f   MeshResourceParser.obj
 0001:0000b846       ??0MeshResourceParser@U3D_IDTF@@QAE@PAVFileScanner@1@PAVMeshResource@1@@Z 0040c846 f   MeshResourceParser.obj
 0001:0000b86a       ?Parse@MeshResourceParser@U3D_IDTF@@QAEHXZ 0040c86a f   MeshResourceParser.obj
 0001:0000ba64       ?ParseMeshDescription@MeshResourceParser@U3D_IDTF@@QAEHXZ 0040ca64 f   MeshResourceParser.obj
 0001:0000bbda       ?ParseFaceTextureCoords@MeshResourceParser@U3D_IDTF@@QAEHXZ 0040cbda f   MeshResourceParser.obj
 0001:0000bdb4       ??1Int3@U3D_IDTF@@UAE@XZ   0040cdb4 f i MeshResourceParser.obj
 0001:0000bdbc       ??_EMetaDataConverter@U3D_IDTF@@UAEPAXI@Z 0040cdbc f i MetaDataConverter.obj
 0001:0000bdbc       ??_GMetaDataConverter@U3D_IDTF@@UAEPAXI@Z 0040cdbc f i MetaDataConverter.obj
 0001:0000bde0       ??0MetaDataConverter@U3D_IDTF@@QAE@PBVMetaDataList@1@PAVIFXMetaDataX@@@Z 0040cde0 f   MetaDataConverter.obj
 0001:0000bdfa       ??1MetaDataConverter@U3D_IDTF@@UAE@XZ 0040cdfa f   MetaDataConverter.obj
 0001:0000be0a       ?Convert@MetaDataConverter@U3D_IDTF@@UAEHXZ 0040ce0a f   MetaDataConverter.obj
 0001:0000bf1c       ??_GMetaDataParser@U3D_IDTF@@UAEPAXI@Z 0040cf1c f i MetaDataParser.obj
 0001:0000bf1c       ??_EMetaDataParser@U3D_IDTF@@UAEPAXI@Z 0040cf1c f i MetaDataParser.obj
 0001:0000bf38       ??0MetaDataParser@U3D_IDTF@@QAE@PAVFileScanner@1@@Z 0040cf38 f   MetaDataParser.obj
 0001:0000bf4a       ??1MetaDataParser@U3D_IDTF@@UAE@XZ 0040cf4a f   MetaDataParser.obj
 0001:0000bf52       ?ParseMetaData@MetaDataParser@U3D_IDTF@@QAEHPAVMetaDataList@2@@Z 0040cf52 f   MetaDataParser.obj
 0001:0000c08e       ?ParseMetaDataItem@MetaDataParser@U3D_IDTF@@AAEHPAVMetaData@2@@Z 0040d08e f   MetaDataParser.obj
 0001:0000c1ac       ??_GModelConverter@U3D_IDTF@@UAEPAXI@Z 0040d1ac f i ModelConverter.obj
 0001:0000c1ac       ??_EModelConverter@U3D_IDTF@@UAEPAXI@Z 0040d1ac f i ModelConverter.obj
 0001:0000c1d0       ??0ModelConverter@U3D_IDTF@@QAE@PAVSceneUtilities@1@@Z 0040d1d0 f   ModelConverter.obj
 0001:0000c200       ??1ModelConverter@U3D_IDTF@@UAE@XZ 0040d200 f   ModelConverter.obj
 0001:0000c20e       ?Convert@ModelConverter@U3D_IDTF@@UAEHXZ 0040d20e f   ModelConverter.obj
 0001:0000c212       ?SetPositionQuality@ModelConverter@U3D_IDTF@@QAEXI@Z 0040d212 f   ModelConverter.obj
 0001:0000c21c       ?SetTexCoordQuality@ModelConverter@U3D_IDTF@@QAEXI@Z 0040d21c f   ModelConverter.obj
 0001:0000c226       ?SetNormalQuality@ModelConverter@U3D_IDTF@@QAEXI@Z 0040d226 f   ModelConverter.obj
 0001:0000c230       ?SetDiffuseColorQuality@ModelConverter@U3D_IDTF@@QAEXI@Z 0040d230 f   ModelConverter.obj
 0001:0000c23a       ?SetSpecularColorQuality@ModelConverter@U3D_IDTF@@QAEXI@Z 0040d23a f   ModelConverter.obj
 0001:0000c244       ?SetZeroAreaFacesRemoval@ModelConverter@U3D_IDTF@@QAEXH@Z 0040d244 f   ModelConverter.obj
 0001:0000c24e       ?SetZeroAreaFaceTolerance@ModelConverter@U3D_IDTF@@QAEXM@Z 0040d24e f   ModelConverter.obj
 0001:0000c258       ?SetNormalsExclusion@ModelConverter@U3D_IDTF@@QAEXH@Z 0040d258 f   ModelConverter.obj
 0001:0000c262       ?ConvertShadingDescriptions@ModelConverter@U3D_IDTF@@IAEHABVShadingDescriptionList@2@IPAUIFXAuthorMaterial@@@Z 0040d262 f   ModelConverter.obj
 0001:0000c2e4       ?ConvertSkeleton@ModelConverter@U3D_IDTF@@IAEHABVModelSkeleton@2@PAPAVIFXSkeleton@@@Z 0040d2e4 f   ModelConverter.obj
 0001:0000c392       ?ConvertBone@ModelConverter@U3D_IDTF@@IAEHPAVIFXSkeleton@@IABUBoneInfo@2@@Z 0040d392 f   ModelConverter.obj
 0001:0000c5a8       ?GetBoneIdx@ModelConverter@U3D_IDTF@@IAEHPAVIFXSkeleton@@ABVIFXString@@@Z 0040d5a8 f   ModelConverter.obj
 0001:0000c898       ?SetDefaultQuality@ModelConverter@U3D_IDTF@@QAEXI@Z 0040d898 f   ModelConverter.obj
 0001:0000c8a4       ??1IFXBoneInfo@@QAE@XZ     0040d8a4 f i ModelConverter.obj
 0001:0000c908       ??_GModelResourceParser@U3D_IDTF@@UAEPAXI@Z 0040d908 f i ModelResourceParser.obj
 0001:0000c908       ??_EModelResourceParser@U3D_IDTF@@UAEPAXI@Z 0040d908 f i ModelResourceParser.obj
 0001:0000c92c       ??1ModelResourceParser@U3D_IDTF@@UAE@XZ 0040d92c f   ModelResourceParser.obj
 0001:0000c97e       ??0ModelResourceParser@U3D_IDTF@@QAE@PAVFileScanner@1@PAVModelResource@1@@Z 0040d97e f   ModelResourceParser.obj
 0001:0000c9a6       ?ParseShadingDescriptions@ModelResourceParser@U3D_IDTF@@QAEHXZ 0040d9a6 f   ModelResourceParser.obj
 0001:0000cdda       ?ParseTextureCoords@ModelResourceParser@U3D_IDTF@@QAEHXZ 0040ddda f   ModelResourceParser.obj
 0001:0000ce82       ?ParseSkeleton@ModelResourceParser@U3D_IDTF@@QAEHXZ 0040de82 f   ModelResourceParser.obj
 0001:0000d114       ?ParseInt2List@ModelResourceParser@U3D_IDTF@@IAEHPBGHAAV?$IFXArray@VInt2@U3D_IDTF@@@@@Z 0040e114 f   ModelResourceParser.obj
 0001:0000d1f2       ?ParseInt3List@ModelResourceParser@U3D_IDTF@@IAEHPBGHAAV?$IFXArray@VInt3@U3D_IDTF@@@@@Z 0040e1f2 f   ModelResourceParser.obj
 0001:0000d2d6       ?ParsePointList@ModelResourceParser@U3D_IDTF@@IAEHPBGHAAV?$IFXArray@VPoint@U3D_IDTF@@@@@Z 0040e2d6 f   ModelResourceParser.obj
 0001:0000d3ba       ?ParseColorList@ModelResourceParser@U3D_IDTF@@IAEHPBGHAAV?$IFXArray@VColor@U3D_IDTF@@@@@Z 0040e3ba f   ModelResourceParser.obj
 0001:0000d4a8       ?ParseIntList@ModelResourceParser@U3D_IDTF@@IAEHPBGHAAV?$IFXArray@H@@@Z 0040e4a8 f   ModelResourceParser.obj
 0001:0000d538       ??_EQuat@U3D_IDTF@@UAEPAXI@Z 0040e538 f i ModelResourceParser.obj
 0001:0000d538       ??_GQuat@U3D_IDTF@@UAEPAXI@Z 0040e538 f i ModelResourceParser.obj
 0001:0000d554       ??_E?$IFXArray@I@@UAEPAXI@Z 0040e554 f i ModelResourceParser.obj
 0001:0000d554       ??_G?$IFXArray@I@@UAEPAXI@Z 0040e554 f i ModelResourceParser.obj
 0001:0000d658       ??1?$IFXArray@I@@UAE@XZ    0040e658 f i ModelResourceParser.obj
 0001:0000d748       ??1ShadingDescription@U3D_IDTF@@QAE@XZ 0040e748 f i ModelResourceParser.obj
 0001:0000d850       ??1Point@U3D_IDTF@@UAE@XZ  0040e850 f i ModelResourceParser.obj
 0001:0000d858       ??1Quat@U3D_IDTF@@UAE@XZ   0040e858 f i ModelResourceParser.obj
 0001:0000d860       ??1BoneInfo@U3D_IDTF@@QAE@XZ 0040e860 f i ModelResourceParser.obj
 0001:0000d8e0       ??1Color@U3D_IDTF@@UAE@XZ  0040e8e0 f i ModelResourceParser.obj
 0001:0000d8e8       ??_EModifierConverter@U3D_IDTF@@UAEPAXI@Z 0040e8e8 f i ModifierConverter.obj
 0001:0000d8e8       ??_GModifierConverter@U3D_IDTF@@UAEPAXI@Z 0040e8e8 f i ModifierConverter.obj
 0001:0000d904       ??0ModifierConverter@U3D_IDTF@@QAE@PAVModifierList@1@PAVSceneUtilities@1@@Z 0040e904 f   ModifierConverter.obj
 0001:0000d984       ??1ModifierConverter@U3D_IDTF@@UAE@XZ 0040e984 f   ModifierConverter.obj
 0001:0000d98c       ?Convert@ModifierConverter@U3D_IDTF@@UAEHXZ 0040e98c f   ModifierConverter.obj
 0001:0000dbbc       ?ConvertGlyphModifier@ModifierConverter@U3D_IDTF@@IAEHPBVGlyphModifier@2@@Z 0040ebbc f   ModifierConverter.obj
 0001:0000e044       ?ConvertSubdivisionModifier@ModifierConverter@U3D_IDTF@@IAEHPBVSubdivisionModifier@2@@Z 0040f044 f   ModifierConverter.obj
 0001:0000e290       ?ConvertCLODModifier@ModifierConverter@U3D_IDTF@@IAEHPBVCLODModifier@2@@Z 0040f290 f   ModifierConverter.obj
 0001:0000e46e       ?ConvertBoneWeightModifier@ModifierConverter@U3D_IDTF@@IAEHPBVBoneWeightModifier@2@@Z 0040f46e f   ModifierConverter.obj
 0001:0000e970       ?ConvertShadingModifier@ModifierConverter@U3D_IDTF@@IAEHPBVShadingModifier@2@@Z 0040f970 f   ModifierConverter.obj
 0001:0000ec70       ?ConvertAnimationModifier@ModifierConverter@U3D_IDTF@@IAEHPBVAnimationModifier@2@@Z 0040fc70 f   ModifierConverter.obj
 0001:0000ee74       ??1?$IFXAutoRelease@VIFXCoreServices@@@@QAE@XZ 0040fe74 f i IDTFConverterHelpers:SceneUtilities.obj
 0001:0000ee74       ??1?$IFXAutoRelease@VIFXAuthorCLODMesh@@@@QAE@XZ 0040fe74 f i IDTFConverterHelpers:DebugInfo.obj
 0001:0000ee74       ??1?$IFXAutoRelease@VIFXMeshMap@@@@QAE@XZ 0040fe74 f i ModifierConverter.obj
 0001:0000ee74       ??1?$IFXAutoRelease@VIFXPalette@@@@QAE@XZ 0040fe74 f i IDTFConverterHelpers:SceneUtilities.obj
 0001:0000ee74       ??1?$IFXAutoRelease@VIFXSimpleList@@@@QAE@XZ 0040fe74 f i IDTFConverterHelpers:ModifierUtilities.obj
 0001:0000ee74       ??1?$IFXAutoRelease@VIFXAuthorMesh@@@@QAE@XZ 0040fe74 f i MeshConverter.obj
 0001:0000ee74       ??1?$IFXAutoRelease@VIFXUnknown@@@@QAE@XZ 0040fe74 f i IDTFConverterHelpers:SceneUtilities.obj
 0001:0000ee90       ??_EModifierParser@U3D_IDTF@@UAEPAXI@Z 0040fe90 f i ModifierParser.obj
 0001:0000ee90       ??_GModifierParser@U3D_IDTF@@UAEPAXI@Z 0040fe90 f i ModifierParser.obj
 0001:0000eeb4       ??1ModifierParser@U3D_IDTF@@UAE@XZ 0040feb4 f   ModifierParser.obj
 0001:0000ef0e       ??0ModifierParser@U3D_IDTF@@QAE@PAVFileScanner@1@PAVModifier@1@@Z 0040ff0e f   ModifierParser.obj
 0001:0000efda       ?Parse@ModifierParser@U3D_IDTF@@QAEHXZ 0040ffda f   ModifierParser.obj
 0001:0000f13a       ?ParseCommonModifierData@ModifierParser@U3D_IDTF@@IAEHXZ 0041013a f   ModifierParser.obj
 0001:0000f25a       ?ParseGlyphModifier@ModifierParser@U3D_IDTF@@IAEHXZ 0041025a f   ModifierParser.obj
 0001:0000fa72       ?ParseSubdivisionModifier@ModifierParser@U3D_IDTF@@IAEHXZ 00410a72 f   ModifierParser.obj
 0001:0000fc4a       ?ParseCLODModifier@ModifierParser@U3D_IDTF@@IAEHXZ 00410c4a f   ModifierParser.obj
 0001:0000fdd2       ?ParseBoneWeightModifier@ModifierParser@U3D_IDTF@@IAEHXZ 00410dd2 f   ModifierParser.obj
 0001:0001051a       ?ParseAnimationModifier@ModifierParser@U3D_IDTF@@IAEHXZ 0041151a f   ModifierParser.obj
 0001:00010ade       ?ParseShadingModifier@ModifierParser@U3D_IDTF@@IAEHXZ 00411ade f   ModifierParser.obj
 0001:0001103c       ?ParseShaderList@ModifierParser@U3D_IDTF@@AAEHPAVShaderList@2@@Z 0041203c f   ModifierParser.obj
 0001:000111ac       ??_GIFXViewLayer@@UAEPAXI@Z 004121ac f i NodeConverter.obj
 0001:000111ac       ??_EIFXViewLayer@@UAEPAXI@Z 004121ac f i NodeConverter.obj
 0001:000111c8       ??_ENodeConverter@U3D_IDTF@@UAEPAXI@Z 004121c8 f i NodeConverter.obj
 0001:000111c8       ??_GNodeConverter@U3D_IDTF@@UAEPAXI@Z 004121c8 f i NodeConverter.obj
 0001:000111e4       ??0NodeConverter@U3D_IDTF@@QAE@PAVNodeList@1@PAVSceneUtilities@1@@Z 004121e4 f   NodeConverter.obj
 0001:000111fe       ??1NodeConverter@U3D_IDTF@@UAE@XZ 004121fe f   NodeConverter.obj
 0001:00011206       ?Convert@NodeConverter@U3D_IDTF@@UAEHXZ 00412206 f   NodeConverter.obj
 0001:00011468       ?ConvertGroup@NodeConverter@U3D_IDTF@@AAEHPBVNode@2@@Z 00412468 f   NodeConverter.obj
 0001:0001151a       ?ConvertParentList@NodeConverter@U3D_IDTF@@AAEHPAVIFXNode@@ABVParentList@2@@Z 0041251a f   NodeConverter.obj
 0001:00011698       ?ConvertView@NodeConverter@U3D_IDTF@@AAEHPBVViewNode@2@@Z 00412698 f   NodeConverter.obj
 0001:00011c00       ?ConvertLight@NodeConverter@U3D_IDTF@@AAEHPBVLightNode@2@@Z 00412c00 f   NodeConverter.obj
 0001:00011ccc       ?ConvertModel@NodeConverter@U3D_IDTF@@AAEHPBVModelNode@2@@Z 00412ccc f   NodeConverter.obj
 0001:00011e3c       ??1IFXViewLayer@@UAE@XZ    00412e3c f i NodeConverter.obj
 0001:00011e44       ??1?$IFXAutoRelease@VIFXGenerator@@@@QAE@XZ 00412e44 f i ModifierConverter.obj
 0001:00011e44       ??1?$IFXAutoRelease@VIFXMotionResource@@@@QAE@XZ 00412e44 f i ResourceConverter.obj
 0001:00011e44       ??1?$IFXAutoRelease@VIFXMetaDataX@@@@QAE@XZ 00412e44 f i LineSetConverter.obj
 0001:00011e44       ??1?$IFXAutoRelease@VIFXTextureObject@@@@QAE@XZ 00412e44 f i ResourceConverter.obj
 0001:00011e44       ??1?$IFXAutoRelease@VIFXCLODModifier@@@@QAE@XZ 00412e44 f i ModifierConverter.obj
 0001:00011e44       ??1?$IFXAutoRelease@VIFXModifierDataPacket@@@@QAE@XZ 00412e44 f i IDTFConverterHelpers:DebugInfo.obj
 0001:00011e44       ??1?$IFXAutoRelease@VIFXAuthorLineSet@@@@QAE@XZ 00412e44 f i LineSetConverter.obj
 0001:00011e44       ??1?$IFXAutoRelease@VIFXNode@@@@QAE@XZ 00412e44 f i NodeConverter.obj
 0001:00011e44       ??1?$IFXAutoRelease@VIFXModifierChain@@@@QAE@XZ 00412e44 f i IDTFConverterHelpers:ModifierUtilities.obj
 0001:00011e44       ??1?$IFXAutoRelease@VIFXMixerConstruct@@@@QAE@XZ 00412e44 f i IDTFConverterHelpers:SceneUtilities.obj
 0001:00011e44       ??1?$IFXAutoRelease@VIFXAuthorCLODResource@@@@QAE@XZ 00412e44 f i MeshConverter.obj
 0001:00011e44       ??1?$IFXAutoRelease@VIFXSkeleton@@@@QAE@XZ 00412e44 f i MeshConverter.obj
 0001:00011e44       ??1?$IFXAutoRelease@VIFXShadingModifier@@@@QAE@XZ 00412e44 f i ModifierConverter.obj
 0001:00011e44       ??1?$IFXAutoRelease@VIFXSubdivModifier@@@@QAE@XZ 00412e44 f i ModifierConverter.obj
 0001:00011e44       ??1?$IFXAutoRelease@VIFXShaderList@@@@QAE@XZ 00412e44 f i ModifierConverter.obj
 0001:00011e44       ??1?$IFXAutoRelease@VIFXModel@@@@QAE@XZ 00412e44 f i NodeConverter.obj
 0001:00011e44       ??1?$IFXAutoRelease@VIFXCLODManager@@@@QAE@XZ 00412e44 f i IDTFConverterHelpers:DebugInfo.obj
 0001:00011e44       ??1?$IFXAutoRelease@VIFXBoundSphereDataElement@@@@QAE@XZ 00412e44 f i IDTFConverterHelpers:DebugInfo.obj
 0001:00011e44       ??1?$IFXAutoRelease@VIFXBoneWeightsModifier@@@@QAE@XZ 00412e44 f i ModifierConverter.obj
 0001:00011e44       ??1?$IFXAutoRelease@VIFXViewResource@@@@QAE@XZ 00412e44 f i ResourceConverter.obj
 0001:00011e44       ??1?$IFXAutoRelease@VIFXMarker@@@@QAE@XZ 00412e44 f i IDTFConverterHelpers:SceneUtilities.obj
 0001:00011e44       ??1?$IFXAutoRelease@VIFXLightResource@@@@QAE@XZ 00412e44 f i ResourceConverter.obj
 0001:00011e44       ??1?$IFXAutoRelease@VIFXAnimationModifier@@@@QAE@XZ 00412e44 f i ModifierConverter.obj
 0001:00011e44       ??1?$IFXAutoRelease@VIFXAuthorPointSet@@@@QAE@XZ 00412e44 f i PointSetConverter.obj
 0001:00011e44       ??1?$IFXAutoRelease@VIFXFileReference@@@@QAE@XZ 00412e44 f i FileReferenceConverter.obj
 0001:00011e44       ??1?$IFXAutoRelease@VIFXLight@@@@QAE@XZ 00412e44 f i NodeConverter.obj
 0001:00011e44       ??1?$IFXAutoRelease@VIFXMeshGroup@@@@QAE@XZ 00412e44 f i IDTFConverterHelpers:DebugInfo.obj
 0001:00011e44       ??1?$IFXAutoRelease@VIFXSceneGraph@@@@QAE@XZ 00412e44 f i IDTFConverterHelpers:SceneUtilities.obj
 0001:00011e44       ??1?$IFXAutoRelease@VIFXMaterialResource@@@@QAE@XZ 00412e44 f i ResourceConverter.obj
 0001:00011e44       ??1?$IFXAutoRelease@VIFXGlyph2DModifier@@@@QAE@XZ 00412e44 f i ModifierConverter.obj
 0001:00011e44       ??1?$IFXAutoRelease@VIFXShaderLitTexture@@@@QAE@XZ 00412e44 f i ModifierConverter.obj
 0001:00011e44       ??1?$IFXAutoRelease@VIFXView@@@@QAE@XZ 00412e44 f i NodeConverter.obj
 0001:00011e44       ??1?$IFXAutoRelease@VIFXAuthorPointSetResource@@@@QAE@XZ 00412e44 f i PointSetConverter.obj
 0001:00011e44       ??1?$IFXAutoRelease@VIFXAuthorLineSetResource@@@@QAE@XZ 00412e44 f i LineSetConverter.obj
 0001:00011e44       ??1?$IFXAutoRelease@VIFXRenderable@@@@QAE@XZ 00412e44 f i IDTFConverterHelpers:DebugInfo.obj
 0001:00011e68       ??_ENodeParser@U3D_IDTF@@UAEPAXI@Z 00412e68 f i NodeParser.obj
 0001:00011e68       ??_GNodeParser@U3D_IDTF@@UAEPAXI@Z 00412e68 f i NodeParser.obj
 0001:00011e8c       ??1NodeParser@U3D_IDTF@@UAE@XZ 00412e8c f   NodeParser.obj
 0001:00011ee6       ??0NodeParser@U3D_IDTF@@QAE@PAVFileScanner@1@PAVNode@1@@Z 00412ee6 f   NodeParser.obj
 0001:00011fb2       ?Parse@NodeParser@U3D_IDTF@@QAEHXZ 00412fb2 f   NodeParser.obj
 0001:00012200       ?ParseParentList@NodeParser@U3D_IDTF@@IAEHPAVParentList@2@@Z 00413200 f   NodeParser.obj
 0001:00012368       ?ParseParentData@NodeParser@U3D_IDTF@@IAEHPAVParentData@2@@Z 00413368 f   NodeParser.obj
 0001:000124b0       ?ParseNodeData@NodeParser@U3D_IDTF@@IAEHXZ 004134b0 f   NodeParser.obj
 0001:00012520       ?ParseModelNodeData@NodeParser@U3D_IDTF@@IAEHXZ 00413520 f   NodeParser.obj
 0001:0001259e       ?ParseViewNodeData@NodeParser@U3D_IDTF@@IAEHXZ 0041359e f   NodeParser.obj
 0001:0001307a       ?ParseViewTexture@NodeParser@U3D_IDTF@@IAEHPAUViewTexture@2@@Z 0041407a f   NodeParser.obj
 0001:00013220       ??1ParentData@U3D_IDTF@@UAE@XZ 00414220 f i NodeParser.obj
 0001:00013274       ??_GPointSetConverter@U3D_IDTF@@UAEPAXI@Z 00414274 f i PointSetConverter.obj
 0001:00013274       ??_EPointSetConverter@U3D_IDTF@@UAEPAXI@Z 00414274 f i PointSetConverter.obj
 0001:00013298       ??1PointSetConverter@U3D_IDTF@@UAE@XZ 00414298 f   PointSetConverter.obj
 0001:000132f0       ??0PointSetConverter@U3D_IDTF@@QAE@PBVPointSetResource@1@PAVSceneUtilities@1@@Z 004142f0 f   PointSetConverter.obj
 0001:00013312       ?Convert@PointSetConverter@U3D_IDTF@@UAEHXZ 00414312 f   PointSetConverter.obj
 0001:000134a4       ?ConvertPointSet@PointSetConverter@U3D_IDTF@@IAEHPAPAVIFXAuthorPointSet@@@Z 004144a4 f   PointSetConverter.obj
 0001:00013b20       ?ConvertPointSetFormat@PointSetConverter@U3D_IDTF@@IAEHPAUIFXAuthorPointSetDesc@@@Z 00414b20 f   PointSetConverter.obj
 0001:00013b64       ??_GPointSetResourceParser@U3D_IDTF@@UAEPAXI@Z 00414b64 f i PointSetResourceParser.obj
 0001:00013b64       ??_EPointSetResourceParser@U3D_IDTF@@UAEPAXI@Z 00414b64 f i PointSetResourceParser.obj
 0001:00013b88       ??1PointSetResourceParser@U3D_IDTF@@UAE@XZ 00414b88 f   PointSetResourceParser.obj
 0001:00013bda       ??0PointSetResourceParser@U3D_IDTF@@QAE@PAVFileScanner@1@PAVPointSetResource@1@@Z 00414bda f   PointSetResourceParser.obj
 0001:00013bfe       ?Parse@PointSetResourceParser@U3D_IDTF@@QAEHXZ 00414bfe f   PointSetResourceParser.obj
 0001:00013dc8       ?ParsePointSetDescription@PointSetResourceParser@U3D_IDTF@@IAEHXZ 00414dc8 f   PointSetResourceParser.obj
 0001:00013ee2       ?ParsePointTextureCoords@PointSetResourceParser@U3D_IDTF@@IAEHXZ 00414ee2 f   PointSetResourceParser.obj
 0001:00014050       ??_EResourceConverter@U3D_IDTF@@UAEPAXI@Z 00415050 f i ResourceConverter.obj
 0001:00014050       ??_GResourceConverter@U3D_IDTF@@UAEPAXI@Z 00415050 f i ResourceConverter.obj
 0001:00014078       ??0ResourceConverter@U3D_IDTF@@QAE@PAVSceneResources@1@PAVSceneUtilities@1@PAUConverterOptions@1@@Z 00415078 f   ResourceConverter.obj
 0001:00014132       ??1ResourceConverter@U3D_IDTF@@UAE@XZ 00415132 f   ResourceConverter.obj
 0001:00014144       ?Convert@ResourceConverter@U3D_IDTF@@UAEHXZ 00415144 f   ResourceConverter.obj
 0001:00014364       ?ConvertViewResources@ResourceConverter@U3D_IDTF@@AAEHXZ 00415364 f   ResourceConverter.obj
 0001:00014648       ?ConvertLightResources@ResourceConverter@U3D_IDTF@@AAEHXZ 00415648 f   ResourceConverter.obj
 0001:000148e2       ?ConvertMotionResources@ResourceConverter@U3D_IDTF@@AAEHXZ 004158e2 f   ResourceConverter.obj
 0001:00014b42       ?ConvertKeyFrames@ResourceConverter@U3D_IDTF@@AAEHIPAVIFXMotionResource@@ABVMotionTrack@2@@Z 00415b42 f   ResourceConverter.obj
 0001:00014cd2       ?ConvertTextureResources@ResourceConverter@U3D_IDTF@@AAEHXZ 00415cd2 f   ResourceConverter.obj
 0001:00014de8       ?ConvertMaterialResources@ResourceConverter@U3D_IDTF@@AAEHXZ 00415de8 f   ResourceConverter.obj
 0001:00014e84       ?ConvertMaterial@ResourceConverter@U3D_IDTF@@AAEHABVMaterial@2@@Z 00415e84 f   ResourceConverter.obj
 0001:00015152       ?ConvertModelResources@ResourceConverter@U3D_IDTF@@AAEHXZ 00416152 f   ResourceConverter.obj
 0001:000153ae       ?ConvertShader@ResourceConverter@U3D_IDTF@@AAEHABVShader@2@@Z 004163ae f   ResourceConverter.obj
 0001:000157ce       ?ConvertTextureLayer@ResourceConverter@U3D_IDTF@@AAEHABVTextureLayer@2@PAVIFXShaderLitTexture@@@Z 004167ce f   ResourceConverter.obj
 0001:00015aaa       ?ConvertShaderResources@ResourceConverter@U3D_IDTF@@AAEHXZ 00416aaa f   ResourceConverter.obj
 0001:00015b48       ??_GResource@U3D_IDTF@@UAEPAXI@Z 00416b48 f i ResourceListParser.obj
 0001:00015b48       ??_EResource@U3D_IDTF@@UAEPAXI@Z 00416b48 f i ResourceListParser.obj
 0001:00015bc8       ??_EResourceListParser@U3D_IDTF@@UAEPAXI@Z 00416bc8 f i ResourceListParser.obj
 0001:00015bc8       ??_GResourceListParser@U3D_IDTF@@UAEPAXI@Z 00416bc8 f i ResourceListParser.obj
 0001:00015bec       ??1ResourceListParser@U3D_IDTF@@UAE@XZ 00416bec f   ResourceListParser.obj
 0001:00015c5e       ??0ResourceListParser@U3D_IDTF@@QAE@PAVFileScanner@1@PAVResourceList@1@@Z 00416c5e f   ResourceListParser.obj
 0001:00015d32       ?Parse@ResourceListParser@U3D_IDTF@@QAEHXZ 00416d32 f   ResourceListParser.obj
 0001:00015df6       ?ParseResourceList@ResourceListParser@U3D_IDTF@@IAEHP812@AEHXZ@Z 00416df6 f   ResourceListParser.obj
 0001:00015eae       ?ParseLightResource@ResourceListParser@U3D_IDTF@@IAEHXZ 00416eae f   ResourceListParser.obj
 0001:000162ec       ?ParseViewResource@ResourceListParser@U3D_IDTF@@IAEHXZ 004172ec f   ResourceListParser.obj
 0001:000167f8       ?ParseModelResource@ResourceListParser@U3D_IDTF@@IAEHXZ 004177f8 f   ResourceListParser.obj
 0001:000168ca       ?ParseLineSetResource@ResourceListParser@U3D_IDTF@@IAEHXZ 004178ca f   ResourceListParser.obj
 0001:00017256       ?ParsePointSetResource@ResourceListParser@U3D_IDTF@@IAEHXZ 00418256 f   ResourceListParser.obj
 0001:00017b2a       ?ParseMeshResource@ResourceListParser@U3D_IDTF@@IAEHXZ 00418b2a f   ResourceListParser.obj
 0001:000184b6       ?ParseMaterialResource@ResourceListParser@U3D_IDTF@@IAEHXZ 004194b6 f   ResourceListParser.obj
 0001:0001894c       ?ParseTextureResource@ResourceListParser@U3D_IDTF@@IAEHXZ 0041994c f   ResourceListParser.obj
 0001:00018e5c       ?ParseMotionResource@ResourceListParser@U3D_IDTF@@IAEHXZ 00419e5c f   ResourceListParser.obj
 0001:000197c6       ?ParseShaderResource@ResourceListParser@U3D_IDTF@@IAEHXZ 0041a7c6 f   ResourceListParser.obj
 0001:00019d34       ??_EViewResource@U3D_IDTF@@UAEPAXI@Z 0041ad34 f i ResourceListParser.obj
 0001:00019ed4       ??_ELightResource@U3D_IDTF@@UAEPAXI@Z 0041aed4 f i ResourceListParser.obj
 0001:00019fcc       ??_ETextureLayer@U3D_IDTF@@UAEPAXI@Z 0041afcc f i ResourceListParser.obj
 0001:0001a0d0       ??_EShader@U3D_IDTF@@UAEPAXI@Z 0041b0d0 f i ResourceListParser.obj
 0001:0001a310       ??_EMaterial@U3D_IDTF@@UAEPAXI@Z 0041b310 f i ResourceListParser.obj
 0001:0001a4a4       ??_EImageFormat@U3D_IDTF@@UAEPAXI@Z 0041b4a4 f i ResourceListParser.obj
 0001:0001a6bc       ??_ETexture@U3D_IDTF@@UAEPAXI@Z 0041b6bc f i ResourceListParser.obj
 0001:0001a894       ??_EMotionResource@U3D_IDTF@@UAEPAXI@Z 0041b894 f i ResourceListParser.obj
 0001:0001aa3c       ??_G?$IFXArray@VInt3@U3D_IDTF@@@@UAEPAXI@Z 0041ba3c f i ResourceListParser.obj
 0001:0001aa3c       ??_E?$IFXArray@VInt3@U3D_IDTF@@@@UAEPAXI@Z 0041ba3c f i ResourceListParser.obj
 0001:0001ab54       ??_E?$IFXArray@UFaceTexCoords@U3D_IDTF@@@@UAEPAXI@Z 0041bb54 f i ResourceListParser.obj
 0001:0001ab54       ??_G?$IFXArray@UFaceTexCoords@U3D_IDTF@@@@UAEPAXI@Z 0041bb54 f i ResourceListParser.obj
 0001:0001ac6c       ??_G?$IFXArray@VInt2@U3D_IDTF@@@@UAEPAXI@Z 0041bc6c f i ResourceListParser.obj
 0001:0001ac6c       ??_E?$IFXArray@VInt2@U3D_IDTF@@@@UAEPAXI@Z 0041bc6c f i ResourceListParser.obj
 0001:0001ad84       ??_G?$IFXArray@ULineTexCoords@U3D_IDTF@@@@UAEPAXI@Z 0041bd84 f i ResourceListParser.obj
 0001:0001ad84       ??_E?$IFXArray@ULineTexCoords@U3D_IDTF@@@@UAEPAXI@Z 0041bd84 f i ResourceListParser.obj
 0001:0001ae9c       ??_E?$IFXArray@UPointTexCoords@U3D_IDTF@@@@UAEPAXI@Z 0041be9c f i ResourceListParser.obj
 0001:0001ae9c       ??_G?$IFXArray@UPointTexCoords@U3D_IDTF@@@@UAEPAXI@Z 0041be9c f i ResourceListParser.obj
 0001:0001afb4       ??_E?$IFXArray@VTextureLayer@U3D_IDTF@@@@UAEPAXI@Z 0041bfb4 f i ResourceListParser.obj
 0001:0001afb4       ??_G?$IFXArray@VTextureLayer@U3D_IDTF@@@@UAEPAXI@Z 0041bfb4 f i ResourceListParser.obj
 0001:0001b0cc       ??_G?$IFXArray@VImageFormat@U3D_IDTF@@@@UAEPAXI@Z 0041c0cc f i ResourceListParser.obj
 0001:0001b0cc       ??_E?$IFXArray@VImageFormat@U3D_IDTF@@@@UAEPAXI@Z 0041c0cc f i ResourceListParser.obj
 0001:0001b1e4       ??_G?$IFXArray@UKeyFrame@U3D_IDTF@@@@UAEPAXI@Z 0041c1e4 f i ResourceListParser.obj
 0001:0001b1e4       ??_E?$IFXArray@UKeyFrame@U3D_IDTF@@@@UAEPAXI@Z 0041c1e4 f i ResourceListParser.obj
 0001:0001b2fc       ??_G?$IFXArray@VMotionTrack@U3D_IDTF@@@@UAEPAXI@Z 0041c2fc f i ResourceListParser.obj
 0001:0001b2fc       ??_E?$IFXArray@VMotionTrack@U3D_IDTF@@@@UAEPAXI@Z 0041c2fc f i ResourceListParser.obj
 0001:0001b414       ??0Int3@U3D_IDTF@@QAE@XZ   0041c414 f i ResourceListParser.obj
 0001:0001b420       ??0FaceTexCoords@U3D_IDTF@@QAE@XZ 0041c420 f i ResourceListParser.obj
 0001:0001b524       ??1FaceTexCoords@U3D_IDTF@@QAE@XZ 0041c524 f i ResourceListParser.obj
 0001:0001b640       ?Construct@?$IFXArray@VInt3@U3D_IDTF@@@@EAEXI@Z 0041c640 f i ResourceListParser.obj
 0001:0001b6e4       ?DestructAll@?$IFXArray@VInt3@U3D_IDTF@@@@EAEXXZ 0041c6e4 f i ResourceListParser.obj
 0001:0001b750       ?Preallocate@?$IFXArray@VInt3@U3D_IDTF@@@@EAEXI@Z 0041c750 f i ResourceListParser.obj
 0001:0001b820       ?Construct@?$IFXArray@UFaceTexCoords@U3D_IDTF@@@@EAEXI@Z 0041c820 f i ResourceListParser.obj
 0001:0001b9bc       ?Destruct@?$IFXArray@UFaceTexCoords@U3D_IDTF@@@@EAEXI@Z 0041c9bc f i ResourceListParser.obj
 0001:0001bb30       ?DestructAll@?$IFXArray@UFaceTexCoords@U3D_IDTF@@@@EAEXXZ 0041cb30 f i ResourceListParser.obj
 0001:0001bbe0       ?Preallocate@?$IFXArray@UFaceTexCoords@U3D_IDTF@@@@EAEXI@Z 0041cbe0 f i ResourceListParser.obj
 0001:0001bcc0       ??0Int2@U3D_IDTF@@QAE@XZ   0041ccc0 f i ResourceListParser.obj
 0001:0001bccc       ??0LineTexCoords@U3D_IDTF@@QAE@XZ 0041cccc f i ResourceListParser.obj
 0001:0001bdd4       ??1LineTexCoords@U3D_IDTF@@QAE@XZ 0041cdd4 f i ResourceListParser.obj
 0001:0001bef0       ?Construct@?$IFXArray@VInt2@U3D_IDTF@@@@EAEXI@Z 0041cef0 f i ResourceListParser.obj
 0001:0001bf9c       ?DestructAll@?$IFXArray@VInt2@U3D_IDTF@@@@EAEXXZ 0041cf9c f i ResourceListParser.obj
 0001:0001c008       ?Preallocate@?$IFXArray@VInt2@U3D_IDTF@@@@EAEXI@Z 0041d008 f i ResourceListParser.obj
 0001:0001c0e4       ?Construct@?$IFXArray@ULineTexCoords@U3D_IDTF@@@@EAEXI@Z 0041d0e4 f i ResourceListParser.obj
 0001:0001c284       ?Destruct@?$IFXArray@ULineTexCoords@U3D_IDTF@@@@EAEXI@Z 0041d284 f i ResourceListParser.obj
 0001:0001c3f8       ?DestructAll@?$IFXArray@ULineTexCoords@U3D_IDTF@@@@EAEXXZ 0041d3f8 f i ResourceListParser.obj
 0001:0001c4a8       ?Preallocate@?$IFXArray@ULineTexCoords@U3D_IDTF@@@@EAEXI@Z 0041d4a8 f i ResourceListParser.obj
 0001:0001c588       ??0PointTexCoords@U3D_IDTF@@QAE@XZ 0041d588 f i ResourceListParser.obj
 0001:0001c628       ??1PointTexCoords@U3D_IDTF@@QAE@XZ 0041d628 f i ResourceListParser.obj
 0001:0001c72c       ?Construct@?$IFXArray@UPointTexCoords@U3D_IDTF@@@@EAEXI@Z 0041d72c f i ResourceListParser.obj
 0001:0001c860       ?Destruct@?$IFXArray@UPointTexCoords@U3D_IDTF@@@@EAEXI@Z 0041d860 f i ResourceListParser.obj
 0001:0001c9bc       ?DestructAll@?$IFXArray@UPointTexCoords@U3D_IDTF@@@@EAEXXZ 0041d9bc f i ResourceListParser.obj
 0001:0001ca6c       ?Preallocate@?$IFXArray@UPointTexCoords@U3D_IDTF@@@@EAEXI@Z 0041da6c f i ResourceListParser.obj
 0001:0001cb4c       ??0TextureLayer@U3D_IDTF@@QAE@XZ 0041db4c f i ResourceListParser.obj
 0001:0001cc00       ??1TextureLayer@U3D_IDTF@@UAE@XZ 0041dc00 f i ResourceListParser.obj
 0001:0001ccb8       ?Construct@?$IFXArray@VTextureLayer@U3D_IDTF@@@@EAEXI@Z 0041dcb8 f i ResourceListParser.obj
 0001:0001cdf4       ?DestructAll@?$IFXArray@VTextureLayer@U3D_IDTF@@@@EAEXXZ 0041ddf4 f i ResourceListParser.obj
 0001:0001cea4       ?Preallocate@?$IFXArray@VTextureLayer@U3D_IDTF@@@@EAEXI@Z 0041dea4 f i ResourceListParser.obj
 0001:0001cf7c       ??0ImageFormat@U3D_IDTF@@QAE@XZ 0041df7c f i ResourceListParser.obj
 0001:0001d11c       ??1ImageFormat@U3D_IDTF@@UAE@XZ 0041e11c f i ResourceListParser.obj
 0001:0001d2ec       ?Construct@?$IFXArray@VImageFormat@U3D_IDTF@@@@EAEXI@Z 0041e2ec f i ResourceListParser.obj
 0001:0001d504       ?DestructAll@?$IFXArray@VImageFormat@U3D_IDTF@@@@EAEXXZ 0041e504 f i ResourceListParser.obj
 0001:0001d5b4       ?Preallocate@?$IFXArray@VImageFormat@U3D_IDTF@@@@EAEXI@Z 0041e5b4 f i ResourceListParser.obj
 0001:0001d68c       ??0KeyFrame@U3D_IDTF@@QAE@XZ 0041e68c f i ResourceListParser.obj
 0001:0001d6a4       ??0MotionTrack@U3D_IDTF@@QAE@XZ 0041e6a4 f i ResourceListParser.obj
 0001:0001d7c0       ?Construct@?$IFXArray@UKeyFrame@U3D_IDTF@@@@EAEXI@Z 0041e7c0 f i ResourceListParser.obj
 0001:0001d874       ?Destruct@?$IFXArray@UKeyFrame@U3D_IDTF@@@@EAEXI@Z 0041e874 f i ResourceListParser.obj
 0001:0001d8c0       ?DestructAll@?$IFXArray@UKeyFrame@U3D_IDTF@@@@EAEXXZ 0041e8c0 f i ResourceListParser.obj
 0001:0001d92c       ?Preallocate@?$IFXArray@UKeyFrame@U3D_IDTF@@@@EAEXI@Z 0041e92c f i ResourceListParser.obj
 0001:0001da0c       ?Construct@?$IFXArray@VMotionTrack@U3D_IDTF@@@@EAEXI@Z 0041ea0c f i ResourceListParser.obj
 0001:0001dba4       ?Destruct@?$IFXArray@VMotionTrack@U3D_IDTF@@@@EAEXI@Z 0041eba4 f i ResourceListParser.obj
 0001:0001dd28       ?DestructAll@?$IFXArray@VMotionTrack@U3D_IDTF@@@@EAEXXZ 0041ed28 f i ResourceListParser.obj
 0001:0001ddd8       ?Preallocate@?$IFXArray@VMotionTrack@U3D_IDTF@@@@EAEXI@Z 0041edd8 f i ResourceListParser.obj
 0001:0001deb4       ??1Resource@U3D_IDTF@@UAE@XZ 0041eeb4 f i ResourceListParser.obj
 0001:0001df18       ??1LightResource@U3D_IDTF@@UAE@XZ 0041ef18 f i ResourceListParser.obj
 0001:0001dfc0       ??1ViewResource@U3D_IDTF@@UAE@XZ 0041efc0 f i ResourceListParser.obj
 0001:0001e11c       ??1?$IFXArray@VInt2@U3D_IDTF@@@@UAE@XZ 0041f11c f i ResourceListParser.obj
 0001:0001e224       ??1?$IFXArray@ULineTexCoords@U3D_IDTF@@@@UAE@XZ 0041f224 f i ResourceListParser.obj
 0001:0001e32c       ??1LineSetResource@U3D_IDTF@@UAE@XZ 0041f32c f i ResourceListParser.obj
 0001:0001e8c4       ??1?$IFXArray@UPointTexCoords@U3D_IDTF@@@@UAE@XZ 0041f8c4 f i ResourceListParser.obj
 0001:0001e9cc       ??1PointSetResource@U3D_IDTF@@UAE@XZ 0041f9cc f i ResourceListParser.obj
 0001:0001ef08       ??1?$IFXArray@VInt3@U3D_IDTF@@@@UAE@XZ 0041ff08 f i ResourceListParser.obj
 0001:0001f010       ??1?$IFXArray@UFaceTexCoords@U3D_IDTF@@@@UAE@XZ 00420010 f i ResourceListParser.obj
 0001:0001f118       ??1MeshResource@U3D_IDTF@@UAE@XZ 00420118 f i ResourceListParser.obj
 0001:0001f6b0       ??1Material@U3D_IDTF@@UAE@XZ 004206b0 f i ResourceListParser.obj
 0001:0001f7f4       ??1?$IFXArray@VImageFormat@U3D_IDTF@@@@UAE@XZ 004207f4 f i ResourceListParser.obj
 0001:0001f8fc       ??1Texture@U3D_IDTF@@UAE@XZ 004208fc f i ResourceListParser.obj
 0001:0001fa90       ??1?$IFXArray@VMotionTrack@U3D_IDTF@@@@UAE@XZ 00420a90 f i ResourceListParser.obj
 0001:0001fb98       ??1?$IFXArray@UKeyFrame@U3D_IDTF@@@@UAE@XZ 00420b98 f i ResourceListParser.obj
 0001:0001fca0       ??1MotionResource@U3D_IDTF@@UAE@XZ 00420ca0 f i ResourceListParser.obj
 0001:0001fe00       ??1MotionTrack@U3D_IDTF@@QAE@XZ 00420e00 f i ResourceListParser.obj
 0001:0001ff34       ??1KeyFrame@U3D_IDTF@@QAE@XZ 00420f34 f i ResourceListParser.obj
 0001:0001ff48       ??1Shader@U3D_IDTF@@UAE@XZ 00420f48 f i ResourceListParser.obj
 0001:00020140       ??1?$IFXArray@VTextureLayer@U3D_IDTF@@@@UAE@XZ 00421140 f i ResourceListParser.obj
 0001:00020248       ??_ESceneConverter@U3D_IDTF@@UAEPAXI@Z 00421248 f i SceneConverter.obj
 0001:00020248       ??_GSceneConverter@U3D_IDTF@@UAEPAXI@Z 00421248 f i SceneConverter.obj
 0001:0002026c       ??1SceneConverter@U3D_IDTF@@UAE@XZ 0042126c f   SceneConverter.obj
 0001:000202f8       ??0SceneConverter@U3D_IDTF@@QAE@PAVFileParser@1@PAVSceneUtilities@1@PAUConverterOptions@1@@Z 004212f8 f   SceneConverter.obj
 0001:0002042e       ?Convert@SceneConverter@U3D_IDTF@@UAEHXZ 0042142e f   SceneConverter.obj
 0001:0002045c       ?CheckFileHeader@SceneConverter@U3D_IDTF@@IAEHXZ 0042145c f   SceneConverter.obj
 0001:000204fe       ?ConvertSceneData@SceneConverter@U3D_IDTF@@IAEHXZ 004214fe f   SceneConverter.obj
 0001:00020634       ?ConvertFileReference@SceneConverter@U3D_IDTF@@IAEHXZ 00421634 f   SceneConverter.obj
 0001:000206f8       ?ConvertScene@SceneConverter@U3D_IDTF@@IAEHXZ 004216f8 f   SceneConverter.obj
 0001:0002085c       ??_ESceneData@U3D_IDTF@@UAEPAXI@Z 0042185c f i SceneConverter.obj
 0001:0002085c       ??_GSceneData@U3D_IDTF@@UAEPAXI@Z 0042185c f i SceneConverter.obj
 0001:000208d4       ??1SceneData@U3D_IDTF@@UAE@XZ 004218d4 f i SceneConverter.obj
 0001:00020934       ??_EShaderParser@U3D_IDTF@@UAEPAXI@Z 00421934 f i ShaderParser.obj
 0001:00020934       ??_GShaderParser@U3D_IDTF@@UAEPAXI@Z 00421934 f i ShaderParser.obj
 0001:00020958       ??1ShaderParser@U3D_IDTF@@UAE@XZ 00421958 f   ShaderParser.obj
 0001:000209b2       ??0ShaderParser@U3D_IDTF@@QAE@PAVFileScanner@1@PAVShader@1@@Z 004219b2 f   ShaderParser.obj
 0001:000209da       ?Parse@ShaderParser@U3D_IDTF@@QAEHXZ 004219da f   ShaderParser.obj
 0001:00020e68       ??_F?$IFXArray@PAVIFXString@@@@QAEXXZ 00421e68 f i TextureConverter.obj
 0001:00020edc       ??_GTextureConverter@U3D_IDTF@@UAEPAXI@Z 00421edc f i TextureConverter.obj
 0001:00020edc       ??_ETextureConverter@U3D_IDTF@@UAEPAXI@Z 00421edc f i TextureConverter.obj
 0001:00020f00       ??1?$IFXArray@PAVIFXString@@@@UAE@XZ 00421f00 f i TextureConverter.obj
 0001:00020ff0       ?Preallocate@?$IFXArray@PAVNode@U3D_IDTF@@@@EAEXI@Z 00421ff0 f i IDTFCommon:NodeList.obj
 0001:00020ff0       ?Preallocate@?$IFXArray@H@@EAEXI@Z 00421ff0 f i FileParser.obj
 0001:00020ff0       ?Preallocate@?$IFXArray@PAVModifier@U3D_IDTF@@@@EAEXI@Z 00421ff0 f i IDTFCommon:ModifierList.obj
 0001:00020ff0       ?Preallocate@?$IFXArray@PAVIFXString@@@@EAEXI@Z 00421ff0 f i TextureConverter.obj
 0001:00020ff0       ?Preallocate@?$IFXArray@PAVModelResource@U3D_IDTF@@@@EAEXI@Z 00421ff0 f i IDTFCommon:ModelResourceList.obj
 0001:00020ff0       ?Preallocate@?$IFXArray@I@@EAEXI@Z 00421ff0 f i ModelResourceParser.obj
 0001:00020ff0       ?Preallocate@?$IFXArray@PAVGlyphCommand@U3D_IDTF@@@@EAEXI@Z 00421ff0 f i FileParser.obj
 0001:00021028       ??_E?$IFXArray@PAVIFXString@@@@UAEPAXI@Z 00422028 f i TextureConverter.obj
 0001:00021028       ??_G?$IFXArray@PAVIFXString@@@@UAEPAXI@Z 00422028 f i TextureConverter.obj
 0001:0002112c       ??0TextureConverter@U3D_IDTF@@QAE@PBVTexture@1@PAVSceneUtilities@1@@Z 0042212c f   TextureConverter.obj
 0001:000211ba       ??1TextureConverter@U3D_IDTF@@UAE@XZ 004221ba f   TextureConverter.obj
 0001:000211ca       ?Convert@TextureConverter@U3D_IDTF@@UAEHXZ 004221ca f   TextureConverter.obj
 0001:00021788       ?SetImageProperties@TextureConverter@U3D_IDTF@@AAEHPAVIFXTextureObject@@@Z 00422788 f   TextureConverter.obj
 0001:00021b1e       ?SetQuality@TextureConverter@U3D_IDTF@@QAEXII@Z 00422b1e f   TextureConverter.obj
 0001:00021b30       ??1STextureSourceInfo@@QAE@XZ 00422b30 f i TextureConverter.obj
 0001:00021c10       ??_ETextureParser@U3D_IDTF@@UAEPAXI@Z 00422c10 f i TextureParser.obj
 0001:00021c10       ??_GTextureParser@U3D_IDTF@@UAEPAXI@Z 00422c10 f i TextureParser.obj
 0001:00021c34       ??1TextureParser@U3D_IDTF@@UAE@XZ 00422c34 f   TextureParser.obj
 0001:00021c8e       ??0TextureParser@U3D_IDTF@@QAE@PAVFileScanner@1@PAVTexture@1@@Z 00422c8e f   TextureParser.obj
 0001:00021d5a       ?Parse@TextureParser@U3D_IDTF@@QAEHXZ 00422d5a f   TextureParser.obj
 0001:000223d2       ?ParseImageFormat@TextureParser@U3D_IDTF@@AAEHXZ 004233d2 f   TextureParser.obj
 0001:00022ab8       ?ParseUrlList@TextureParser@U3D_IDTF@@AAEHXZ 00423ab8 f   TextureParser.obj
 0001:00022abc       ??_GUrlListParser@U3D_IDTF@@UAEPAXI@Z 00423abc f i UrlListParser.obj
 0001:00022abc       ??_EUrlListParser@U3D_IDTF@@UAEPAXI@Z 00423abc f i UrlListParser.obj
 0001:00022ae0       ??1UrlListParser@U3D_IDTF@@UAE@XZ 00423ae0 f   UrlListParser.obj
 0001:00022b3a       ??0UrlListParser@U3D_IDTF@@QAE@PAVFileScanner@1@PAVUrlList@1@@Z 00423b3a f   UrlListParser.obj
 0001:00022c06       ?Parse@UrlListParser@U3D_IDTF@@QAEHXZ 00423c06 f   UrlListParser.obj
 0001:00022d48       @IFXOSCheckCPUFeature@4    00423d48 f   IFXCoreStatic:IFXOSUtilities.obj
 0001:00022d8c       @IFXOSGetTime@0            00423d8c f   IFXCoreStatic:IFXOSUtilities.obj
 0001:00022dd8       @IFXOSSleep@4              00423dd8 f   IFXCoreStatic:IFXOSUtilities.obj
 0001:00022de0       @IFXOSControlFP@8          00423de0 f   IFXCoreStatic:IFXOSUtilities.obj
 0001:00022dec       @IFXOSGetUtf8StrSize@8     00423dec f   IFXCoreStatic:IFXOSUtilities.obj
 0001:00022e2e       @IFXOSGetWideCharStrSize@8 00423e2e f   IFXCoreStatic:IFXOSUtilities.obj
 0001:00022e6e       @IFXOSConvertWideCharStrToUtf8@12 00423e6e f   IFXCoreStatic:IFXOSUtilities.obj
 0001:00022ebe       @IFXOSConvertUtf8StrToWideChar@12 00423ebe f   IFXCoreStatic:IFXOSUtilities.obj
 0001:00022f0a       @IFXOSDebugOutput@16       00423f0a f   IFXCoreStatic:IFXOSUtilities.obj
 0001:00022f6e       @IFXSetDefaultLocale@0     00423f6e f   IFXCoreStatic:IFXOSUtilities.obj
 0001:00022f8a       @IFXOSUninitialize@0       00423f8a f   IFXCoreStatic:IFXOSUtilities.obj
 0001:00022f9c       @IFXOSInitialize@0         00423f9c f   IFXCoreStatic:IFXOSUtilities.obj
 0001:0002303c       @IFXGetSystemDefaultLangID@0 0042403c f   IFXCoreStatic:IFXOSUtilities.obj
 0001:00023044       @IFXCreateComponent@12     00424044 f   IFXCoreStatic:IFXCoreStatic.obj
 0001:0002305e       @IFXRegisterComponent@4    0042405e f   IFXCoreStatic:IFXCoreStatic.obj
 0001:00023070       @IFXAllocate@4             00424070 f   IFXCoreStatic:IFXCoreStatic.obj
 0001:00023082       @IFXDeallocate@4           00424082 f   IFXCoreStatic:IFXCoreStatic.obj
 0001:00023090       @IFXReallocate@8           00424090 f   IFXCoreStatic:IFXCoreStatic.obj
 0001:000230a4       @IFXGetMemoryFunctions@12  004240a4 f   IFXCoreStatic:IFXCoreStatic.obj
 0001:000230be       @IFXSetMemoryFunctions@12  004240be f   IFXCoreStatic:IFXCoreStatic.obj
 0001:00023108       @IFXCOMUninitialize@0      00424108 f   IFXCoreStatic:IFXCoreStatic.obj
 0001:0002317c       @IFXCOMInitialize@0        0042417c f   IFXCoreStatic:IFXCoreStatic.obj
 0001:000232ec       ??0IFXString@@QAE@XZ       004242ec f   IFXCoreStatic:IFXString.obj
 0001:000232fe       ??0IFXString@@QAE@PBD@Z    004242fe f   IFXCoreStatic:IFXString.obj
 0001:00023390       ??0IFXString@@QAE@I@Z      00424390 f   IFXCoreStatic:IFXString.obj
 0001:000233d2       ?Clear@IFXString@@QAEHXZ   004243d2 f   IFXCoreStatic:IFXString.obj
 0001:000233f4       ?LengthU8@IFXString@@QBEIXZ 004243f4 f   IFXCoreStatic:IFXString.obj
 0001:00023410       ?GetLengthU8@IFXString@@QAEHPAI@Z 00424410 f   IFXCoreStatic:IFXString.obj
 0001:0002343c       ?IsEmpty@IFXString@@QAEHXZ 0042443c f   IFXCoreStatic:IFXString.obj
 0001:00023454       ?Assign@IFXString@@QAEHPBV1@@Z 00424454 f   IFXCoreStatic:IFXString.obj
 0001:000234e2       ?Compare@IFXString@@QBEHPBG@Z 004244e2 f   IFXCoreStatic:IFXString.obj
 0001:00023518       ?CompareNoCase@IFXString@@QBEHPBG@Z 00424518 f   IFXCoreStatic:IFXString.obj
 0001:000235a2       ??1IFXString@@UAE@XZ       004245a2 f   IFXCoreStatic:IFXString.obj
 0001:000235c8       ?ForceLowercase@IFXString@@QAEXXZ 004245c8 f   IFXCoreStatic:IFXString.obj
 0001:0002361a       ??0IFXString@@QAE@PBV0@@Z  0042461a f   IFXCoreStatic:IFXString.obj
 0001:0002367c       ??0IFXString@@QAE@PBG@Z    0042467c f   IFXCoreStatic:IFXString.obj
 0001:000236fa       ?ForceUppercase@IFXString@@QAEXXZ 004246fa f   IFXCoreStatic:IFXString.obj
 0001:0002374c       ?ConvertToRawU8@IFXString@@QAEHPAEI@Z 0042474c f   IFXCoreStatic:IFXString.obj
 0001:000237a8       ?Length@IFXString@@QBEIXZ  004247a8 f   IFXCoreStatic:IFXString.obj
 0001:000237ba       ?Substring@IFXString@@QBEHPAV1@II@Z 004247ba f   IFXCoreStatic:IFXString.obj
 0001:00023838       ?Substring@IFXString@@QBEHPAGIII@Z 00424838 f   IFXCoreStatic:IFXString.obj
 0001:00023898       ?FindSubstring@IFXString@@QBEHPBGPAI@Z 00424898 f   IFXCoreStatic:IFXString.obj
 0001:0002393a       ?SetAt@IFXString@@QAEHIPAG@Z 0042493a f   IFXCoreStatic:IFXString.obj
 0001:0002397c       ?GetAt@IFXString@@QAEHIPAG@Z 0042497c f   IFXCoreStatic:IFXString.obj
 0001:000239be       ?IsDigit@IFXString@@QAEHI@Z 004249be f   IFXCoreStatic:IFXString.obj
 0001:000239ee       ?ToString@IFXString@@QAEHID@Z 004249ee f   IFXCoreStatic:IFXString.obj
 0001:00023a7c       ?Assign@IFXString@@QAEHPBE@Z 00424a7c f   IFXCoreStatic:IFXString.obj
 0001:00023b12       ?ToValue@IFXString@@QAEHPAID@Z 00424b12 f   IFXCoreStatic:IFXString.obj
 0001:00023b5c       ??HIFXString@@QBE?AV0@ABV0@@Z 00424b5c f   IFXCoreStatic:IFXString.obj
 0001:00023b7e       ??0IFXString@@QAE@ABV0@@Z  00424b7e f   IFXCoreStatic:IFXString.obj
 0001:00023bce       ?Concatenate@IFXString@@QAEHPBG@Z 00424bce f   IFXCoreStatic:IFXString.obj
 0001:00023c78       ?Assign@IFXString@@QAEHPBG@Z 00424c78 f   IFXCoreStatic:IFXString.obj
 0001:00023d06       ??HIFXString@@QBE?AV0@PBE@Z 00424d06 f   IFXCoreStatic:IFXString.obj
 0001:00023d46       ??0IFXString@@QAE@PBE@Z    00424d46 f   IFXCoreStatic:IFXString.obj
 0001:00023dd8       ??HIFXString@@QBE?AV0@PBG@Z 00424dd8 f   IFXCoreStatic:IFXString.obj
 0001:00023df6       ?VSPrintf@IFXString@@QAEAAV1@PBGPAD@Z 00424df6 f   IFXCoreStatic:IFXString.obj
 0001:00023eea       ?Match@IFXString@@QAEIPBGI@Z 00424eea f   IFXCoreStatic:IFXString.obj
 0001:00023f10       @IFXLoadCoreLibrary@0      00424f10 f   IFXCoreStatic:IFXOSLoader.obj
 0001:00023f1c       @IFXLoadLibrary@4          00424f1c f   IFXCoreStatic:IFXOSLoader.obj
 0001:00023f24       @IFXLoadOpenGLLibrary@0    00424f24 f   IFXCoreStatic:IFXOSLoader.obj
 0001:00023f30       @IFXOSGetCoreLibraryPath@4 00424f30 f   IFXCoreStatic:IFXOSLoader.obj
 0001:00024042       @IFXGetAddress@8           00425042 f   IFXCoreStatic:IFXOSLoader.obj
 0001:0002404c       @IFXReleaseLibrary@4       0042504c f   IFXCoreStatic:IFXOSLoader.obj
 0001:00024060       @IFXOSFileOpen@8           00425060 f   IFXCoreStatic:IFXOSLoader.obj
 0001:0002406c       ??0IFXCoreArray@@QAE@I@Z   0042506c f   IFXCoreStatic:IFXCoreArray.obj
 0001:0002408c       ?Clear@IFXCoreArray@@UAEXI@Z 0042508c f   IFXCoreStatic:IFXCoreArray.obj
 0001:000240c0       ?ResizeToExactly@IFXCoreArray@@QAEXI@Z 004250c0 f   IFXCoreStatic:IFXCoreArray.obj
 0001:0002411c       ?ResizeToAtLeast@IFXCoreArray@@QAEXI@Z 0042511c f   IFXCoreStatic:IFXCoreArray.obj
 0001:00024164       _WCMatch                   00425164 f   IFXCoreStatic:wcmatch.obj
 0001:0002418c       _WCMatchPos                0042518c f   IFXCoreStatic:wcmatch.obj
 0001:00024198       _WCMatchPos.               00425198 f   IFXCoreStatic:wcmatch.obj
 0001:00024230       ?_wc_match@@YAPBGPBG0H@Z   00425230 f   IFXCoreStatic:wcmatch.obj
 0001:0002423c       ?_wc_match.@@YAPBGPBG0H@Z  0042523c f   IFXCoreStatic:wcmatch.obj
 0001:00024398       ?_wc_specialchar@@YAHH@Z   00425398 f   IFXCoreStatic:wcmatch.obj
 0001:0002439c       ?_wc_specialchar.@@YAHH@Z  0042539c f   IFXCoreStatic:wcmatch.obj
 0001:000243b4       ?_equal_chars@@YAHHHH@Z    004253b4 f   IFXCoreStatic:wcmatch.obj
 0001:000243c0       ?_equal_chars.@@YAHHHH@Z   004253c0 f   IFXCoreStatic:wcmatch.obj
 0001:000243fc       _WCPossible                004253fc f   IFXCoreStatic:wcmatch.obj
 0001:00024408       _WCPossible.               00425408 f   IFXCoreStatic:wcmatch.obj
 0001:00024476       ?_wc_ci_strchr@@YAPBGPBGGH@Z 00425476 f   IFXCoreStatic:wcmatch.obj
 0001:00024483       ?_wc_ci_strchr.@@YAPBGPBGGH@Z 00425483 f   IFXCoreStatic:wcmatch.obj
 0001:000244dc       ??_EParentList@U3D_IDTF@@UAEPAXI@Z 004254dc f i IDTFCommon:ParentList.obj
 0001:000244dc       ??_GParentList@U3D_IDTF@@UAEPAXI@Z 004254dc f i IDTFCommon:ParentList.obj
 0001:00024500       ??1ParentList@U3D_IDTF@@UAE@XZ 00425500 f   IDTFCommon:ParentList.obj
 0001:00024624       ??0ParentList@U3D_IDTF@@QAE@XZ 00425624 f   IDTFCommon:ParentList.obj
 0001:00024730       ?AddParentData@ParentList@U3D_IDTF@@QAEXABVParentData@2@@Z 00425730 f   IDTFCommon:ParentList.obj
 0001:000247ca       ?GetParentData@ParentList@U3D_IDTF@@QBEABVParentData@2@I@Z 004257ca f   IDTFCommon:ParentList.obj
 0001:000247d8       ?GetParentCount@ParentList@U3D_IDTF@@QBEIXZ 004257d8 f   IDTFCommon:ParentList.obj
 0001:000247dc       ??1?$IFXArray@VParentData@U3D_IDTF@@@@UAE@XZ 004257dc f i IDTFCommon:ParentList.obj
 0001:000248e4       ??_E?$IFXArray@VParentData@U3D_IDTF@@@@UAEPAXI@Z 004258e4 f i IDTFCommon:ParentList.obj
 0001:000248e4       ??_G?$IFXArray@VParentData@U3D_IDTF@@@@UAEPAXI@Z 004258e4 f i IDTFCommon:ParentList.obj
 0001:000249fc       ??0ParentData@U3D_IDTF@@QAE@XZ 004259fc f i IDTFCommon:ParentList.obj
 0001:00024a14       ?Construct@?$IFXArray@VParentData@U3D_IDTF@@@@EAEXI@Z 00425a14 f i IDTFCommon:ParentList.obj
 0001:00024acc       ?DestructAll@?$IFXArray@VParentData@U3D_IDTF@@@@EAEXXZ 00425acc f i IDTFCommon:ParentList.obj
 0001:00024b7c       ?Preallocate@?$IFXArray@VParentData@U3D_IDTF@@@@EAEXI@Z 00425b7c f i IDTFCommon:ParentList.obj
 0001:00024c54       ??_EParentData@U3D_IDTF@@UAEPAXI@Z 00425c54 f i IDTFCommon:ParentList.obj
 0001:00024cf0       ??_EStringMetaData@U3D_IDTF@@UAEPAXI@Z 00425cf0 f i IDTFCommon:MetaDataList.obj
 0001:00024cf0       ??_GStringMetaData@U3D_IDTF@@UAEPAXI@Z 00425cf0 f i IDTFCommon:MetaDataList.obj
 0001:00024d14       ??_EMetaData@U3D_IDTF@@UAEPAXI@Z 00425d14 f i IDTFCommon:MetaDataList.obj
 0001:00024d68       ??1MetaData@U3D_IDTF@@UAE@XZ 00425d68 f   IDTFCommon:MetaDataList.obj
 0001:00024e06       ??1BinaryMetaData@U3D_IDTF@@QAE@XZ 00425e06 f   IDTFCommon:MetaDataList.obj
 0001:00024e10       ??1StringMetaData@U3D_IDTF@@UAE@XZ 00425e10 f   IDTFCommon:MetaDataList.obj
 0001:00024e64       ??1MetaDataList@U3D_IDTF@@UAE@XZ 00425e64 f   IDTFCommon:MetaDataList.obj
 0001:00024f88       ??0MetaData@U3D_IDTF@@QAE@XZ 00425f88 f   IDTFCommon:MetaDataList.obj
 0001:00025004       ??0StringMetaData@U3D_IDTF@@QAE@XZ 00426004 f   IDTFCommon:MetaDataList.obj
 0001:0002501a       ??0BinaryMetaData@U3D_IDTF@@QAE@XZ 0042601a f   IDTFCommon:MetaDataList.obj
 0001:00025024       ??0BinaryMetaData@U3D_IDTF@@QAE@AAV01@@Z 00426024 f   IDTFCommon:MetaDataList.obj
 0001:00025044       ?GetBinaryValue@BinaryMetaData@U3D_IDTF@@QBEPBEXZ 00426044 f   IDTFCommon:MetaDataList.obj
 0001:00025048       ?SetBinaryValue@BinaryMetaData@U3D_IDTF@@QAEHPBEI@Z 00426048 f   IDTFCommon:MetaDataList.obj
 0001:000250b0       ?GetBinarySize@BinaryMetaData@U3D_IDTF@@QBEABIXZ 004260b0 f   IDTFCommon:MetaDataList.obj
 0001:000250b6       ?GetStringValue@StringMetaData@U3D_IDTF@@QBEABVIFXString@@XZ 004260b6 f   IDTFCommon:MetaDataList.obj
 0001:000250bc       ?SetStringValue@StringMetaData@U3D_IDTF@@QAEXABVIFXString@@@Z 004260bc f   IDTFCommon:MetaDataList.obj
 0001:000250cc       ?SetKey@MetaData@U3D_IDTF@@QAEXABVIFXString@@@Z 004260cc f   IDTFCommon:MetaDataList.obj
 0001:000250dc       ?GetKey@MetaData@U3D_IDTF@@QBEABVIFXString@@XZ 004260dc f   IDTFCommon:MetaDataList.obj
 0001:000250e2       ?SetAttribute@MetaData@U3D_IDTF@@QAEXABVIFXString@@@Z 004260e2 f   IDTFCommon:MetaDataList.obj
 0001:000250f2       ?GetAttribute@MetaData@U3D_IDTF@@QBEABVIFXString@@XZ 004260f2 f   IDTFCommon:MetaDataList.obj
 0001:000250f8       ??0MetaDataList@U3D_IDTF@@QAE@XZ 004260f8 f   IDTFCommon:MetaDataList.obj
 0001:00025204       ?SetMetaData@MetaDataList@U3D_IDTF@@QAEHPBVMetaData@2@@Z 00426204 f   IDTFCommon:MetaDataList.obj
 0001:00025268       ??4BinaryMetaData@U3D_IDTF@@QAEAAV01@ABV01@@Z 00426268 f   IDTFCommon:MetaDataList.obj
 0001:0002528e       ?GetMetaData@MetaDataList@U3D_IDTF@@QBEABVMetaData@2@I@Z 0042628e f   IDTFCommon:MetaDataList.obj
 0001:0002529c       ?GetMetaDataCount@MetaDataList@U3D_IDTF@@QBEABIXZ 0042629c f   IDTFCommon:MetaDataList.obj
 0001:000252a4       ??_GMetaDataList@U3D_IDTF@@UAEPAXI@Z 004262a4 f i IDTFCommon:MetaDataList.obj
 0001:000252a4       ??_EMetaDataList@U3D_IDTF@@UAEPAXI@Z 004262a4 f i IDTFCommon:MetaDataList.obj
 0001:000252c8       ??1?$IFXArray@VMetaData@U3D_IDTF@@@@UAE@XZ 004262c8 f i IDTFCommon:MetaDataList.obj
 0001:000253d0       ??_G?$IFXArray@VMetaData@U3D_IDTF@@@@UAEPAXI@Z 004263d0 f i IDTFCommon:MetaDataList.obj
 0001:000253d0       ??_E?$IFXArray@VMetaData@U3D_IDTF@@@@UAEPAXI@Z 004263d0 f i IDTFCommon:MetaDataList.obj
 0001:000254e8       ?Construct@?$IFXArray@VMetaData@U3D_IDTF@@@@EAEXI@Z 004264e8 f i IDTFCommon:MetaDataList.obj
 0001:0002559c       ?DestructAll@?$IFXArray@VMetaData@U3D_IDTF@@@@EAEXXZ 0042659c f i IDTFCommon:MetaDataList.obj
 0001:00025608       ?Preallocate@?$IFXArray@VMetaData@U3D_IDTF@@@@EAEXI@Z 00426608 f i IDTFCommon:MetaDataList.obj
 0001:000256e0       ??_ENode@U3D_IDTF@@UAEPAXI@Z 004266e0 f i IDTFCommon:NodeList.obj
 0001:000257e0       ??_ELightNode@U3D_IDTF@@UAEPAXI@Z 004267e0 f i IDTFCommon:NodeList.obj
 0001:000258f0       ??_EViewNode@U3D_IDTF@@UAEPAXI@Z 004268f0 f i IDTFCommon:NodeList.obj
 0001:00025c10       ??_EModelNode@U3D_IDTF@@UAEPAXI@Z 00426c10 f i IDTFCommon:NodeList.obj
 0001:00025d38       ??_ENodeList@U3D_IDTF@@UAEPAXI@Z 00426d38 f i IDTFCommon:NodeList.obj
 0001:00025d38       ??_GNodeList@U3D_IDTF@@UAEPAXI@Z 00426d38 f i IDTFCommon:NodeList.obj
 0001:00025d5c       ??1NodeList@U3D_IDTF@@UAE@XZ 00426d5c f   IDTFCommon:NodeList.obj
 0001:000261ec       ??0NodeList@U3D_IDTF@@QAE@XZ 004271ec f   IDTFCommon:NodeList.obj
 0001:000265ea       ?AddNode@NodeList@U3D_IDTF@@QAEHPBVNode@2@@Z 004275ea f   IDTFCommon:NodeList.obj
 0001:00026fc2       ?GetNode@NodeList@U3D_IDTF@@QBEPBVNode@2@I@Z 00427fc2 f   IDTFCommon:NodeList.obj
 0001:00026fd2       ?GetNodeCount@NodeList@U3D_IDTF@@QBEIXZ 00427fd2 f   IDTFCommon:NodeList.obj
 0001:00026fd8       ??1?$IFXArray@PAVNode@U3D_IDTF@@@@UAE@XZ 00427fd8 f i IDTFCommon:NodeList.obj
 0001:000270c8       ??1?$IFXArray@VLightNode@U3D_IDTF@@@@UAE@XZ 004280c8 f i IDTFCommon:NodeList.obj
 0001:000271d0       ??1?$IFXArray@VViewNode@U3D_IDTF@@@@UAE@XZ 004281d0 f i IDTFCommon:NodeList.obj
 0001:000272d8       ??1?$IFXArray@VModelNode@U3D_IDTF@@@@UAE@XZ 004282d8 f i IDTFCommon:NodeList.obj
 0001:000273e0       ??1?$IFXArray@VNode@U3D_IDTF@@@@UAE@XZ 004283e0 f i IDTFCommon:NodeList.obj
 0001:000274e8       ??_E?$IFXArray@PAVNode@U3D_IDTF@@@@UAEPAXI@Z 004284e8 f i IDTFCommon:NodeList.obj
 0001:000274e8       ??_G?$IFXArray@PAVNode@U3D_IDTF@@@@UAEPAXI@Z 004284e8 f i IDTFCommon:NodeList.obj
 0001:000275ec       ??_E?$IFXArray@VLightNode@U3D_IDTF@@@@UAEPAXI@Z 004285ec f i IDTFCommon:NodeList.obj
 0001:000275ec       ??_G?$IFXArray@VLightNode@U3D_IDTF@@@@UAEPAXI@Z 004285ec f i IDTFCommon:NodeList.obj
 0001:00027704       ??_G?$IFXArray@VViewNode@U3D_IDTF@@@@UAEPAXI@Z 00428704 f i IDTFCommon:NodeList.obj
 0001:00027704       ??_E?$IFXArray@VViewNode@U3D_IDTF@@@@UAEPAXI@Z 00428704 f i IDTFCommon:NodeList.obj
 0001:0002781c       ??_G?$IFXArray@VModelNode@U3D_IDTF@@@@UAEPAXI@Z 0042881c f i IDTFCommon:NodeList.obj
 0001:0002781c       ??_E?$IFXArray@VModelNode@U3D_IDTF@@@@UAEPAXI@Z 0042881c f i IDTFCommon:NodeList.obj
 0001:00027934       ??_G?$IFXArray@VNode@U3D_IDTF@@@@UAEPAXI@Z 00428934 f i IDTFCommon:NodeList.obj
 0001:00027934       ??_E?$IFXArray@VNode@U3D_IDTF@@@@UAEPAXI@Z 00428934 f i IDTFCommon:NodeList.obj
 0001:00027a4c       ??0Node@U3D_IDTF@@QAE@XZ   00428a4c f i IDTFCommon:NodeList.obj
 0001:00027adc       ??0LightNode@U3D_IDTF@@QAE@XZ 00428adc f i IDTFCommon:NodeList.obj
 0001:00027b74       ??1LightNode@U3D_IDTF@@UAE@XZ 00428b74 f i IDTFCommon:NodeList.obj
 0001:00027c3c       ??0ViewNode@U3D_IDTF@@QAE@XZ 00428c3c f i IDTFCommon:NodeList.obj
 0001:00027ea8       ??1ViewNode@U3D_IDTF@@UAE@XZ 00428ea8 f i IDTFCommon:NodeList.obj
 0001:00028184       ??0ModelNode@U3D_IDTF@@QAE@XZ 00429184 f i IDTFCommon:NodeList.obj
 0001:00028234       ??1ModelNode@U3D_IDTF@@UAE@XZ 00429234 f i IDTFCommon:NodeList.obj
 0001:00028318       ?Construct@?$IFXArray@VLightNode@U3D_IDTF@@@@EAEXI@Z 00429318 f i IDTFCommon:NodeList.obj
 0001:0002842c       ?DestructAll@?$IFXArray@VLightNode@U3D_IDTF@@@@EAEXXZ 0042942c f i IDTFCommon:NodeList.obj
 0001:000284dc       ?Preallocate@?$IFXArray@VLightNode@U3D_IDTF@@@@EAEXI@Z 004294dc f i IDTFCommon:NodeList.obj
 0001:000285b4       ?Construct@?$IFXArray@VViewNode@U3D_IDTF@@@@EAEXI@Z 004295b4 f i IDTFCommon:NodeList.obj
 0001:000288a4       ?DestructAll@?$IFXArray@VViewNode@U3D_IDTF@@@@EAEXXZ 004298a4 f i IDTFCommon:NodeList.obj
 0001:00028954       ?Preallocate@?$IFXArray@VViewNode@U3D_IDTF@@@@EAEXI@Z 00429954 f i IDTFCommon:NodeList.obj
 0001:00028a34       ?Construct@?$IFXArray@VModelNode@U3D_IDTF@@@@EAEXI@Z 00429a34 f i IDTFCommon:NodeList.obj
 0001:00028b6c       ?DestructAll@?$IFXArray@VModelNode@U3D_IDTF@@@@EAEXXZ 00429b6c f i IDTFCommon:NodeList.obj
 0001:00028c1c       ?Preallocate@?$IFXArray@VModelNode@U3D_IDTF@@@@EAEXI@Z 00429c1c f i IDTFCommon:NodeList.obj
 0001:00028cf8       ?Construct@?$IFXArray@VNode@U3D_IDTF@@@@EAEXI@Z 00429cf8 f i IDTFCommon:NodeList.obj
 0001:00028e04       ?DestructAll@?$IFXArray@VNode@U3D_IDTF@@@@EAEXXZ 00429e04 f i IDTFCommon:NodeList.obj
 0001:00028eb4       ?Preallocate@?$IFXArray@VNode@U3D_IDTF@@@@EAEXI@Z 00429eb4 f i IDTFCommon:NodeList.obj
 0001:00028f8c       ??_ELightResourceList@U3D_IDTF@@UAEPAXI@Z 00429f8c f i IDTFCommon:SceneResources.obj
 0001:00028f8c       ??_GLightResourceList@U3D_IDTF@@UAEPAXI@Z 00429f8c f i IDTFCommon:SceneResources.obj
 0001:000290e0       ??1?$IFXArray@VLightResource@U3D_IDTF@@@@UAE@XZ 0042a0e0 f i IDTFCommon:SceneResources.obj
 0001:000291e8       ??_GViewResourceList@U3D_IDTF@@UAEPAXI@Z 0042a1e8 f i IDTFCommon:SceneResources.obj
 0001:000291e8       ??_EViewResourceList@U3D_IDTF@@UAEPAXI@Z 0042a1e8 f i IDTFCommon:SceneResources.obj
 0001:0002933c       ??1?$IFXArray@VViewResource@U3D_IDTF@@@@UAE@XZ 0042a33c f i IDTFCommon:SceneResources.obj
 0001:00029444       ??_GMotionResourceList@U3D_IDTF@@UAEPAXI@Z 0042a444 f i IDTFCommon:SceneResources.obj
 0001:00029444       ??_EMotionResourceList@U3D_IDTF@@UAEPAXI@Z 0042a444 f i IDTFCommon:SceneResources.obj
 0001:00029598       ??1?$IFXArray@VMotionResource@U3D_IDTF@@@@UAE@XZ 0042a598 f i IDTFCommon:SceneResources.obj
 0001:000296a0       ??_GMaterialResourceList@U3D_IDTF@@UAEPAXI@Z 0042a6a0 f i IDTFCommon:SceneResources.obj
 0001:000296a0       ??_EMaterialResourceList@U3D_IDTF@@UAEPAXI@Z 0042a6a0 f i IDTFCommon:SceneResources.obj
 0001:000297f8       ??1?$IFXArray@VMaterial@U3D_IDTF@@@@UAE@XZ 0042a7f8 f i IDTFCommon:SceneResources.obj
 0001:00029900       ??_GTextureResourceList@U3D_IDTF@@UAEPAXI@Z 0042a900 f i IDTFCommon:SceneResources.obj
 0001:00029900       ??_ETextureResourceList@U3D_IDTF@@UAEPAXI@Z 0042a900 f i IDTFCommon:SceneResources.obj
 0001:00029a54       ??1?$IFXArray@VTexture@U3D_IDTF@@@@UAE@XZ 0042aa54 f i IDTFCommon:SceneResources.obj
 0001:00029b5c       ??_ESceneResources@U3D_IDTF@@UAEPAXI@Z 0042ab5c f i IDTFCommon:SceneResources.obj
 0001:00029b5c       ??_GSceneResources@U3D_IDTF@@UAEPAXI@Z 0042ab5c f i IDTFCommon:SceneResources.obj
 0001:00029b80       ??1SceneResources@U3D_IDTF@@UAE@XZ 0042ab80 f   IDTFCommon:SceneResources.obj
 0001:0002a148       ??0SceneResources@U3D_IDTF@@QAE@XZ 0042b148 f   IDTFCommon:SceneResources.obj
 0001:0002a592       ?GetResourceList@SceneResources@U3D_IDTF@@QAEPAVResourceList@2@ABVIFXString@@@Z 0042b592 f   IDTFCommon:SceneResources.obj
 0001:0002a650       ?GetLightResourceList@SceneResources@U3D_IDTF@@QBEABVLightResourceList@2@XZ 0042b650 f   IDTFCommon:SceneResources.obj
 0001:0002a656       ?GetViewResourceList@SceneResources@U3D_IDTF@@QBEABVViewResourceList@2@XZ 0042b656 f   IDTFCommon:SceneResources.obj
 0001:0002a65c       ?GetModelResourceList@SceneResources@U3D_IDTF@@QBEABVModelResourceList@2@XZ 0042b65c f   IDTFCommon:SceneResources.obj
 0001:0002a662       ?GetTextureResourceList@SceneResources@U3D_IDTF@@QBEABVTextureResourceList@2@XZ 0042b662 f   IDTFCommon:SceneResources.obj
 0001:0002a66c       ?GetMaterialResourceList@SceneResources@U3D_IDTF@@QBEABVMaterialResourceList@2@XZ 0042b66c f   IDTFCommon:SceneResources.obj
 0001:0002a676       ?GetMotionResourceList@SceneResources@U3D_IDTF@@QBEABVMotionResourceList@2@XZ 0042b676 f   IDTFCommon:SceneResources.obj
 0001:0002a680       ?GetShaderResourceList@SceneResources@U3D_IDTF@@QBEABVShaderResourceList@2@XZ 0042b680 f   IDTFCommon:SceneResources.obj
 0001:0002a68c       ??1MaterialResourceList@U3D_IDTF@@UAE@XZ 0042b68c f i IDTFCommon:SceneResources.obj
 0001:0002a7cc       ??1?$IFXArray@VShader@U3D_IDTF@@@@UAE@XZ 0042b7cc f i IDTFCommon:SceneResources.obj
 0001:0002a8d4       ??1LightResourceList@U3D_IDTF@@UAE@XZ 0042b8d4 f i IDTFCommon:SceneResources.obj
 0001:0002aa10       ??1ViewResourceList@U3D_IDTF@@UAE@XZ 0042ba10 f i IDTFCommon:SceneResources.obj
 0001:0002ab4c       ??1MotionResourceList@U3D_IDTF@@UAE@XZ 0042bb4c f i IDTFCommon:SceneResources.obj
 0001:0002ac88       ??1TextureResourceList@U3D_IDTF@@UAE@XZ 0042bc88 f i IDTFCommon:SceneResources.obj
 0001:0002adc4       ??_E?$IFXArray@VLightResource@U3D_IDTF@@@@UAEPAXI@Z 0042bdc4 f i IDTFCommon:SceneResources.obj
 0001:0002adc4       ??_G?$IFXArray@VLightResource@U3D_IDTF@@@@UAEPAXI@Z 0042bdc4 f i IDTFCommon:SceneResources.obj
 0001:0002aedc       ??_E?$IFXArray@VViewResource@U3D_IDTF@@@@UAEPAXI@Z 0042bedc f i IDTFCommon:SceneResources.obj
 0001:0002aedc       ??_G?$IFXArray@VViewResource@U3D_IDTF@@@@UAEPAXI@Z 0042bedc f i IDTFCommon:SceneResources.obj
 0001:0002aff4       ??_E?$IFXArray@VShader@U3D_IDTF@@@@UAEPAXI@Z 0042bff4 f i IDTFCommon:SceneResources.obj
 0001:0002aff4       ??_G?$IFXArray@VShader@U3D_IDTF@@@@UAEPAXI@Z 0042bff4 f i IDTFCommon:SceneResources.obj
 0001:0002b10c       ??_G?$IFXArray@VMotionResource@U3D_IDTF@@@@UAEPAXI@Z 0042c10c f i IDTFCommon:SceneResources.obj
 0001:0002b10c       ??_E?$IFXArray@VMotionResource@U3D_IDTF@@@@UAEPAXI@Z 0042c10c f i IDTFCommon:SceneResources.obj
 0001:0002b224       ??_G?$IFXArray@VMaterial@U3D_IDTF@@@@UAEPAXI@Z 0042c224 f i IDTFCommon:SceneResources.obj
 0001:0002b224       ??_E?$IFXArray@VMaterial@U3D_IDTF@@@@UAEPAXI@Z 0042c224 f i IDTFCommon:SceneResources.obj
 0001:0002b33c       ??_E?$IFXArray@VTexture@U3D_IDTF@@@@UAEPAXI@Z 0042c33c f i IDTFCommon:SceneResources.obj
 0001:0002b33c       ??_G?$IFXArray@VTexture@U3D_IDTF@@@@UAEPAXI@Z 0042c33c f i IDTFCommon:SceneResources.obj
 0001:0002b454       ??0LightResource@U3D_IDTF@@QAE@XZ 0042c454 f i IDTFCommon:SceneResources.obj
 0001:0002b4d8       ?Construct@?$IFXArray@VLightResource@U3D_IDTF@@@@EAEXI@Z 0042c4d8 f i IDTFCommon:SceneResources.obj
 0001:0002b5d8       ?DestructAll@?$IFXArray@VLightResource@U3D_IDTF@@@@EAEXXZ 0042c5d8 f i IDTFCommon:SceneResources.obj
 0001:0002b688       ?Preallocate@?$IFXArray@VLightResource@U3D_IDTF@@@@EAEXI@Z 0042c688 f i IDTFCommon:SceneResources.obj
 0001:0002b760       ??0ViewResource@U3D_IDTF@@QAE@XZ 0042c760 f i IDTFCommon:SceneResources.obj
 0001:0002b898       ?Construct@?$IFXArray@VViewResource@U3D_IDTF@@@@EAEXI@Z 0042c898 f i IDTFCommon:SceneResources.obj
 0001:0002ba50       ?DestructAll@?$IFXArray@VViewResource@U3D_IDTF@@@@EAEXXZ 0042ca50 f i IDTFCommon:SceneResources.obj
 0001:0002bb00       ?Preallocate@?$IFXArray@VViewResource@U3D_IDTF@@@@EAEXI@Z 0042cb00 f i IDTFCommon:SceneResources.obj
 0001:0002bbdc       ?Resize@?$IFXArray@UFaceTexCoords@U3D_IDTF@@@@EAEXI@Z 0042cbdc f i ResourceListParser.obj
 0001:0002bbdc       ?Resize@?$IFXArray@VPoint@U3D_IDTF@@@@EAEXI@Z 0042cbdc f i IDTFCommon:ModelResource.obj
 0001:0002bbdc       ?Resize@?$IFXArray@VShader@U3D_IDTF@@@@EAEXI@Z 0042cbdc f i IDTFCommon:SceneResources.obj
 0001:0002bbdc       ?Resize@?$IFXArray@VIFXVector4@@@@EAEXI@Z 0042cbdc f i IDTFCommon:ModelResource.obj
 0001:0002bbdc       ?Resize@?$IFXArray@VFilter@U3D_IDTF@@@@EAEXI@Z 0042cbdc f i IDTFCommon:FileReference.obj
 0001:0002bbdc       ?Resize@?$IFXArray@VImageFormat@U3D_IDTF@@@@EAEXI@Z 0042cbdc f i ResourceListParser.obj
 0001:0002bbdc       ?Resize@?$IFXArray@VInt2@U3D_IDTF@@@@EAEXI@Z 0042cbdc f i ResourceListParser.obj
 0001:0002bbdc       ?Resize@?$IFXArray@VGlyphModifier@U3D_IDTF@@@@EAEXI@Z 0042cbdc f i IDTFCommon:ModifierList.obj
 0001:0002bbdc       ?Resize@?$IFXArray@VShaderList@U3D_IDTF@@@@EAEXI@Z 0042cbdc f i FileParser.obj
 0001:0002bbdc       ?Resize@?$IFXArray@VParentData@U3D_IDTF@@@@EAEXI@Z 0042cbdc f i IDTFCommon:ParentList.obj
 0001:0002bbdc       ?Resize@?$IFXArray@VCurveTo@U3D_IDTF@@@@EAEXI@Z 0042cbdc f i FileParser.obj
 0001:0002bbdc       ?Resize@?$IFXArray@VModelNode@U3D_IDTF@@@@EAEXI@Z 0042cbdc f i IDTFCommon:NodeList.obj
 0001:0002bbdc       ?Resize@?$IFXArray@VLightResource@U3D_IDTF@@@@EAEXI@Z 0042cbdc f i IDTFCommon:SceneResources.obj
 0001:0002bbdc       ?Resize@?$IFXArray@UIFXObjectFilter@@@@EAEXI@Z 0042cbdc f i FileReferenceConverter.obj
 0001:0002bbdc       ?Resize@?$IFXArray@VColor@U3D_IDTF@@@@EAEXI@Z 0042cbdc f i IDTFCommon:ModelResource.obj
 0001:0002bbdc       ?Resize@?$IFXArray@UViewTexture@U3D_IDTF@@@@EAEXI@Z 0042cbdc f i FileParser.obj
 0001:0002bbdc       ?Resize@?$IFXArray@VGlyphCommand@U3D_IDTF@@@@EAEXI@Z 0042cbdc f i FileParser.obj
 0001:0002bbdc       ?Resize@?$IFXArray@VCLODModifier@U3D_IDTF@@@@EAEXI@Z 0042cbdc f i IDTFCommon:ModifierList.obj
 0001:0002bbdc       ?Resize@?$IFXArray@VInt3@U3D_IDTF@@@@EAEXI@Z 0042cbdc f i ResourceListParser.obj
 0001:0002bbdc       ?Resize@?$IFXArray@UKeyFrame@U3D_IDTF@@@@EAEXI@Z 0042cbdc f i ResourceListParser.obj
 0001:0002bbdc       ?Resize@?$IFXArray@VMaterial@U3D_IDTF@@@@EAEXI@Z 0042cbdc f i IDTFCommon:SceneResources.obj
 0001:0002bbdc       ?Resize@?$IFXArray@ULineTexCoords@U3D_IDTF@@@@EAEXI@Z 0042cbdc f i ResourceListParser.obj
 0001:0002bbdc       ?Resize@?$IFXArray@PAVIFXString@@@@EAEXI@Z 0042cbdc f i TextureConverter.obj
 0001:0002bbdc       ?Resize@?$IFXArray@VAnimationModifier@U3D_IDTF@@@@EAEXI@Z 0042cbdc f i IDTFCommon:ModifierList.obj
 0001:0002bbdc       ?Resize@?$IFXArray@PAVModelResource@U3D_IDTF@@@@EAEXI@Z 0042cbdc f i IDTFCommon:ModelResourceList.obj
 0001:0002bbdc       ?Resize@?$IFXArray@VLineTo@U3D_IDTF@@@@EAEXI@Z 0042cbdc f i FileParser.obj
 0001:0002bbdc       ?Resize@?$IFXArray@PAVGlyphCommand@U3D_IDTF@@@@EAEXI@Z 0042cbdc f i FileParser.obj
 0001:0002bbdc       ?Resize@?$IFXArray@VMeshResource@U3D_IDTF@@@@EAEXI@Z 0042cbdc f i IDTFCommon:ModelResourceList.obj
 0001:0002bbdc       ?Resize@?$IFXArray@UBoneInfo@U3D_IDTF@@@@EAEXI@Z 0042cbdc f i IDTFCommon:ModelResource.obj
 0001:0002bbdc       ?Resize@?$IFXArray@VLightNode@U3D_IDTF@@@@EAEXI@Z 0042cbdc f i IDTFCommon:NodeList.obj
 0001:0002bbdc       ?Resize@?$IFXArray@VNode@U3D_IDTF@@@@EAEXI@Z 0042cbdc f i IDTFCommon:NodeList.obj
 0001:0002bbdc       ?Resize@?$IFXArray@VShadingDescription@U3D_IDTF@@@@EAEXI@Z 0042cbdc f i IDTFCommon:ModelResource.obj
 0001:0002bbdc       ?Resize@?$IFXArray@VBoneWeightList@U3D_IDTF@@@@EAEXI@Z 0042cbdc f i FileParser.obj
 0001:0002bbdc       ?Resize@?$IFXArray@VTextureLayer@U3D_IDTF@@@@EAEXI@Z 0042cbdc f i ResourceListParser.obj
 0001:0002bbdc       ?Resize@?$IFXArray@VIFXString@@@@EAEXI@Z 0042cbdc f i FileParser.obj
 0001:0002bbdc       ?Resize@?$IFXArray@VTexture@U3D_IDTF@@@@EAEXI@Z 0042cbdc f i IDTFCommon:SceneResources.obj
 0001:0002bbdc       ?Resize@?$IFXArray@VPointSetResource@U3D_IDTF@@@@EAEXI@Z 0042cbdc f i IDTFCommon:ModelResourceList.obj
 0001:0002bbdc       ?Resize@?$IFXArray@VLineSetResource@U3D_IDTF@@@@EAEXI@Z 0042cbdc f i IDTFCommon:ModelResourceList.obj
 0001:0002bbdc       ?Resize@?$IFXArray@VMotionResource@U3D_IDTF@@@@EAEXI@Z 0042cbdc f i IDTFCommon:SceneResources.obj
 0001:0002bbdc       ?Resize@?$IFXArray@VBoneWeightModifier@U3D_IDTF@@@@EAEXI@Z 0042cbdc f i IDTFCommon:ModifierList.obj
 0001:0002bbdc       ?Resize@?$IFXArray@PAVModifier@U3D_IDTF@@@@EAEXI@Z 0042cbdc f i IDTFCommon:ModifierList.obj
 0001:0002bbdc       ?Resize@?$IFXArray@I@@EAEXI@Z 0042cbdc f i ModelResourceParser.obj
 0001:0002bbdc       ?Resize@?$IFXArray@H@@EAEXI@Z 0042cbdc f i FileParser.obj
 0001:0002bbdc       ?Resize@?$IFXArray@UMotionInfo@U3D_IDTF@@@@EAEXI@Z 0042cbdc f i FileParser.obj
 0001:0002bbdc       ?Resize@?$IFXArray@PAVNode@U3D_IDTF@@@@EAEXI@Z 0042cbdc f i IDTFCommon:NodeList.obj
 0001:0002bbdc       ?Resize@?$IFXArray@VSubdivisionModifier@U3D_IDTF@@@@EAEXI@Z 0042cbdc f i IDTFCommon:ModifierList.obj
 0001:0002bbdc       ?Resize@?$IFXArray@UPointTexCoords@U3D_IDTF@@@@EAEXI@Z 0042cbdc f i ResourceListParser.obj
 0001:0002bbdc       ?Resize@?$IFXArray@VMoveTo@U3D_IDTF@@@@EAEXI@Z 0042cbdc f i FileParser.obj
 0001:0002bbdc       ?Resize@?$IFXArray@VViewResource@U3D_IDTF@@@@EAEXI@Z 0042cbdc f i IDTFCommon:SceneResources.obj
 0001:0002bbdc       ?Resize@?$IFXArray@VViewNode@U3D_IDTF@@@@EAEXI@Z 0042cbdc f i IDTFCommon:NodeList.obj
 0001:0002bbdc       ?Resize@?$IFXArray@VShadingModifier@U3D_IDTF@@@@EAEXI@Z 0042cbdc f i IDTFCommon:ModifierList.obj
 0001:0002bbdc       ?Resize@?$IFXArray@VEndGlyph@U3D_IDTF@@@@EAEXI@Z 0042cbdc f i FileParser.obj
 0001:0002bbdc       ?Resize@?$IFXArray@VMotionTrack@U3D_IDTF@@@@EAEXI@Z 0042cbdc f i ResourceListParser.obj
 0001:0002bbdc       ?Resize@?$IFXArray@VMetaData@U3D_IDTF@@@@EAEXI@Z 0042cbdc f i IDTFCommon:MetaDataList.obj
 0001:0002bc40       ??0Shader@U3D_IDTF@@QAE@XZ 0042cc40 f i IDTFCommon:SceneResources.obj
 0001:0002be00       ?Construct@?$IFXArray@VShader@U3D_IDTF@@@@EAEXI@Z 0042ce00 f i IDTFCommon:SceneResources.obj
 0001:0002c044       ?DestructAll@?$IFXArray@VShader@U3D_IDTF@@@@EAEXXZ 0042d044 f i IDTFCommon:SceneResources.obj
 0001:0002c0f4       ?Preallocate@?$IFXArray@VShader@U3D_IDTF@@@@EAEXI@Z 0042d0f4 f i IDTFCommon:SceneResources.obj
 0001:0002c1d4       ??0MotionResource@U3D_IDTF@@QAE@XZ 0042d1d4 f i IDTFCommon:SceneResources.obj
 0001:0002c30c       ?ResetElement@?$IFXArray@VEndGlyph@U3D_IDTF@@@@UAEXAAVEndGlyph@U3D_IDTF@@@Z 0042d30c f i FileParser.obj
 0001:0002c30c       ?ResetElement@?$IFXArray@VLightNode@U3D_IDTF@@@@UAEXAAVLightNode@U3D_IDTF@@@Z 0042d30c f i IDTFCommon:NodeList.obj
 0001:0002c30c       ?ResetElement@?$IFXArray@VTextureLayer@U3D_IDTF@@@@UAEXAAVTextureLayer@U3D_IDTF@@@Z 0042d30c f i ResourceListParser.obj
 0001:0002c30c       ?ResetElement@?$IFXArray@UIFXObjectFilter@@@@UAEXAAUIFXObjectFilter@@@Z 0042d30c f i FileReferenceConverter.obj
 0001:0002c30c       ?ResetElement@?$IFXArray@VIFXVector4@@@@UAEXAAVIFXVector4@@@Z 0042d30c f i IDTFCommon:ModelResource.obj
 0001:0002c30c       ?ResetElement@?$IFXArray@VMeshResource@U3D_IDTF@@@@UAEXAAVMeshResource@U3D_IDTF@@@Z 0042d30c f i IDTFCommon:ModelResourceList.obj
 0001:0002c30c       ?ResetElement@?$IFXArray@VShaderList@U3D_IDTF@@@@UAEXAAVShaderList@U3D_IDTF@@@Z 0042d30c f i FileParser.obj
 0001:0002c30c       ?ResetElement@?$IFXArray@VMaterial@U3D_IDTF@@@@UAEXAAVMaterial@U3D_IDTF@@@Z 0042d30c f i IDTFCommon:SceneResources.obj
 0001:0002c30c       ?ResetElement@?$IFXArray@VPoint@U3D_IDTF@@@@UAEXAAVPoint@U3D_IDTF@@@Z 0042d30c f i IDTFCommon:ModelResource.obj
 0001:0002c30c       ?ResetElement@?$IFXArray@PAVModelResource@U3D_IDTF@@@@UAEXAAPAVModelResource@U3D_IDTF@@@Z 0042d30c f i IDTFCommon:ModelResourceList.obj
 0001:0002c30c       ?ResetElement@?$IFXArray@VInt3@U3D_IDTF@@@@UAEXAAVInt3@U3D_IDTF@@@Z 0042d30c f i ResourceListParser.obj
 0001:0002c30c       ?ResetElement@?$IFXArray@VShadingDescription@U3D_IDTF@@@@UAEXAAVShadingDescription@U3D_IDTF@@@Z 0042d30c f i IDTFCommon:ModelResource.obj
 0001:0002c30c       ?ResetElement@?$IFXArray@PAVModifier@U3D_IDTF@@@@UAEXAAPAVModifier@U3D_IDTF@@@Z 0042d30c f i IDTFCommon:ModifierList.obj
 0001:0002c30c       ?ResetElement@?$IFXArray@VViewResource@U3D_IDTF@@@@UAEXAAVViewResource@U3D_IDTF@@@Z 0042d30c f i IDTFCommon:SceneResources.obj
 0001:0002c30c       ?ResetElement@?$IFXArray@VInt2@U3D_IDTF@@@@UAEXAAVInt2@U3D_IDTF@@@Z 0042d30c f i ResourceListParser.obj
 0001:0002c30c       ?ResetElement@?$IFXArray@PAVNode@U3D_IDTF@@@@UAEXAAPAVNode@U3D_IDTF@@@Z 0042d30c f i IDTFCommon:NodeList.obj
 0001:0002c30c       ?ResetElement@?$IFXArray@VGlyphModifier@U3D_IDTF@@@@UAEXAAVGlyphModifier@U3D_IDTF@@@Z 0042d30c f i IDTFCommon:ModifierList.obj
 0001:0002c30c       ?ResetElement@?$IFXArray@VFilter@U3D_IDTF@@@@UAEXAAVFilter@U3D_IDTF@@@Z 0042d30c f i IDTFCommon:FileReference.obj
 0001:0002c30c       ?ResetElement@?$IFXArray@UKeyFrame@U3D_IDTF@@@@UAEXAAUKeyFrame@U3D_IDTF@@@Z 0042d30c f i ResourceListParser.obj
 0001:0002c30c       ?ResetElement@?$IFXArray@VLineSetResource@U3D_IDTF@@@@UAEXAAVLineSetResource@U3D_IDTF@@@Z 0042d30c f i IDTFCommon:ModelResourceList.obj
 0001:0002c30c       ?ResetElement@?$IFXArray@VMetaData@U3D_IDTF@@@@UAEXAAVMetaData@U3D_IDTF@@@Z 0042d30c f i IDTFCommon:MetaDataList.obj
 0001:0002c30c       ?ResetElement@?$IFXArray@VModelNode@U3D_IDTF@@@@UAEXAAVModelNode@U3D_IDTF@@@Z 0042d30c f i IDTFCommon:NodeList.obj
 0001:0002c30c       ?ResetElement@?$IFXArray@VViewNode@U3D_IDTF@@@@UAEXAAVViewNode@U3D_IDTF@@@Z 0042d30c f i IDTFCommon:NodeList.obj
 0001:0002c30c       ?ResetElement@?$IFXArray@PAVGlyphCommand@U3D_IDTF@@@@UAEXAAPAVGlyphCommand@U3D_IDTF@@@Z 0042d30c f i FileParser.obj
 0001:0002c30c       ?ResetElement@?$IFXArray@I@@UAEXAAI@Z 0042d30c f i ModelResourceParser.obj
 0001:0002c30c       ?ResetElement@?$IFXArray@VLineTo@U3D_IDTF@@@@UAEXAAVLineTo@U3D_IDTF@@@Z 0042d30c f i FileParser.obj
 0001:0002c30c       ?ResetElement@?$IFXArray@VCLODModifier@U3D_IDTF@@@@UAEXAAVCLODModifier@U3D_IDTF@@@Z 0042d30c f i IDTFCommon:ModifierList.obj
 0001:0002c30c       ?ResetElement@?$IFXArray@VTexture@U3D_IDTF@@@@UAEXAAVTexture@U3D_IDTF@@@Z 0042d30c f i IDTFCommon:SceneResources.obj
 0001:0002c30c       ?ResetElement@?$IFXArray@VImageFormat@U3D_IDTF@@@@UAEXAAVImageFormat@U3D_IDTF@@@Z 0042d30c f i ResourceListParser.obj
 0001:0002c30c       ?ResetElement@?$IFXArray@UBoneInfo@U3D_IDTF@@@@UAEXAAUBoneInfo@U3D_IDTF@@@Z 0042d30c f i IDTFCommon:ModelResource.obj
 0001:0002c30c       ?ResetElement@?$IFXArray@VShader@U3D_IDTF@@@@UAEXAAVShader@U3D_IDTF@@@Z 0042d30c f i IDTFCommon:SceneResources.obj
 0001:0002c30c       ?ResetElement@?$IFXArray@VColor@U3D_IDTF@@@@UAEXAAVColor@U3D_IDTF@@@Z 0042d30c f i IDTFCommon:ModelResource.obj
 0001:0002c30c       ?ResetElement@?$IFXArray@VNode@U3D_IDTF@@@@UAEXAAVNode@U3D_IDTF@@@Z 0042d30c f i IDTFCommon:NodeList.obj
 0001:0002c30c       ?ResetElement@?$IFXArray@VMotionResource@U3D_IDTF@@@@UAEXAAVMotionResource@U3D_IDTF@@@Z 0042d30c f i IDTFCommon:SceneResources.obj
 0001:0002c30c       ?ResetElement@?$IFXArray@VParentData@U3D_IDTF@@@@UAEXAAVParentData@U3D_IDTF@@@Z 0042d30c f i IDTFCommon:ParentList.obj
 0001:0002c30c       ?ResetElement@?$IFXArray@UMotionInfo@U3D_IDTF@@@@UAEXAAUMotionInfo@U3D_IDTF@@@Z 0042d30c f i FileParser.obj
 0001:0002c30c       ?ResetElement@?$IFXArray@PAVIFXString@@@@UAEXAAPAVIFXString@@@Z 0042d30c f i TextureConverter.obj
 0001:0002c30c       ?ResetElement@?$IFXArray@VGlyphCommand@U3D_IDTF@@@@UAEXAAVGlyphCommand@U3D_IDTF@@@Z 0042d30c f i FileParser.obj
 0001:0002c30c       ?ResetElement@?$IFXArray@VMotionTrack@U3D_IDTF@@@@UAEXAAVMotionTrack@U3D_IDTF@@@Z 0042d30c f i ResourceListParser.obj
 0001:0002c30c       ?ResetElement@?$IFXArray@VBoneWeightModifier@U3D_IDTF@@@@UAEXAAVBoneWeightModifier@U3D_IDTF@@@Z 0042d30c f i IDTFCommon:ModifierList.obj
 0001:0002c30c       ?ResetElement@?$IFXArray@UViewTexture@U3D_IDTF@@@@UAEXAAUViewTexture@U3D_IDTF@@@Z 0042d30c f i FileParser.obj
 0001:0002c30c       ?ResetElement@?$IFXArray@VLightResource@U3D_IDTF@@@@UAEXAAVLightResource@U3D_IDTF@@@Z 0042d30c f i IDTFCommon:SceneResources.obj
 0001:0002c30c       ?ResetElement@?$IFXArray@VAnimationModifier@U3D_IDTF@@@@UAEXAAVAnimationModifier@U3D_IDTF@@@Z 0042d30c f i IDTFCommon:ModifierList.obj
 0001:0002c30c       ?ResetElement@?$IFXArray@UFaceTexCoords@U3D_IDTF@@@@UAEXAAUFaceTexCoords@U3D_IDTF@@@Z 0042d30c f i ResourceListParser.obj
 0001:0002c30c       ?ResetElement@?$IFXArray@VPointSetResource@U3D_IDTF@@@@UAEXAAVPointSetResource@U3D_IDTF@@@Z 0042d30c f i IDTFCommon:ModelResourceList.obj
 0001:0002c30c       ?ResetElement@?$IFXArray@VShadingModifier@U3D_IDTF@@@@UAEXAAVShadingModifier@U3D_IDTF@@@Z 0042d30c f i IDTFCommon:ModifierList.obj
 0001:0002c30c       ?ResetElement@?$IFXArray@ULineTexCoords@U3D_IDTF@@@@UAEXAAULineTexCoords@U3D_IDTF@@@Z 0042d30c f i ResourceListParser.obj
 0001:0002c30c       ?ResetElement@?$IFXArray@H@@UAEXAAH@Z 0042d30c f i FileParser.obj
 0001:0002c30c       ?ResetElement@?$IFXArray@VSubdivisionModifier@U3D_IDTF@@@@UAEXAAVSubdivisionModifier@U3D_IDTF@@@Z 0042d30c f i IDTFCommon:ModifierList.obj
 0001:0002c30c       ?ResetElement@?$IFXArray@VBoneWeightList@U3D_IDTF@@@@UAEXAAVBoneWeightList@U3D_IDTF@@@Z 0042d30c f i FileParser.obj
 0001:0002c30c       ?ResetElement@?$IFXArray@VMoveTo@U3D_IDTF@@@@UAEXAAVMoveTo@U3D_IDTF@@@Z 0042d30c f i FileParser.obj
 0001:0002c30c       ?ResetElement@?$IFXArray@UPointTexCoords@U3D_IDTF@@@@UAEXAAUPointTexCoords@U3D_IDTF@@@Z 0042d30c f i ResourceListParser.obj
 0001:0002c30c       ?ResetElement@?$IFXArray@VCurveTo@U3D_IDTF@@@@UAEXAAVCurveTo@U3D_IDTF@@@Z 0042d30c f i FileParser.obj
 0001:0002c30c       ?ResetElement@?$IFXArray@VIFXString@@@@UAEXAAVIFXString@@@Z 0042d30c f i FileParser.obj
 0001:0002c310       ?Construct@?$IFXArray@VMotionResource@U3D_IDTF@@@@EAEXI@Z 0042d310 f i IDTFCommon:SceneResources.obj
 0001:0002c4c4       ?DestructAll@?$IFXArray@VMotionResource@U3D_IDTF@@@@EAEXXZ 0042d4c4 f i IDTFCommon:SceneResources.obj
 0001:0002c574       ?Preallocate@?$IFXArray@VMotionResource@U3D_IDTF@@@@EAEXI@Z 0042d574 f i IDTFCommon:SceneResources.obj
 0001:0002c650       ??0Material@U3D_IDTF@@QAE@XZ 0042d650 f i IDTFCommon:SceneResources.obj
 0001:0002c758       ?Construct@?$IFXArray@VMaterial@U3D_IDTF@@@@EAEXI@Z 0042d758 f i IDTFCommon:SceneResources.obj
 0001:0002c8e8       ?DestructAll@?$IFXArray@VMaterial@U3D_IDTF@@@@EAEXXZ 0042d8e8 f i IDTFCommon:SceneResources.obj
 0001:0002c998       ?Preallocate@?$IFXArray@VMaterial@U3D_IDTF@@@@EAEXI@Z 0042d998 f i IDTFCommon:SceneResources.obj
 0001:0002ca78       ??0Texture@U3D_IDTF@@QAE@XZ 0042da78 f i IDTFCommon:SceneResources.obj
 0001:0002cbec       ?Construct@?$IFXArray@VTexture@U3D_IDTF@@@@EAEXI@Z 0042dbec f i IDTFCommon:SceneResources.obj
 0001:0002cddc       ?DestructAll@?$IFXArray@VTexture@U3D_IDTF@@@@EAEXXZ 0042dddc f i IDTFCommon:SceneResources.obj
 0001:0002ce8c       ?Preallocate@?$IFXArray@VTexture@U3D_IDTF@@@@EAEXI@Z 0042de8c f i IDTFCommon:SceneResources.obj
 0001:0002cf64       ??0LightResourceList@U3D_IDTF@@QAE@XZ 0042df64 f i IDTFCommon:SceneResources.obj
 0001:0002d07c       ??0ViewResourceList@U3D_IDTF@@QAE@XZ 0042e07c f i IDTFCommon:SceneResources.obj
 0001:0002d198       ??1ShaderResourceList@U3D_IDTF@@UAE@XZ 0042e198 f i IDTFCommon:SceneResources.obj
 0001:0002d2d8       ??_EShaderResourceList@U3D_IDTF@@UAEPAXI@Z 0042e2d8 f i IDTFCommon:SceneResources.obj
 0001:0002d2d8       ??_GShaderResourceList@U3D_IDTF@@UAEPAXI@Z 0042e2d8 f i IDTFCommon:SceneResources.obj
 0001:0002d430       ??_GResourceList@U3D_IDTF@@UAEPAXI@Z 0042e430 f i IDTFCommon:ResourceList.obj
 0001:0002d430       ??_EResourceList@U3D_IDTF@@UAEPAXI@Z 0042e430 f i IDTFCommon:ResourceList.obj
 0001:0002d454       ??1ResourceList@U3D_IDTF@@UAE@XZ 0042e454 f   IDTFCommon:ResourceList.obj
 0001:0002d4a8       ??0ResourceList@U3D_IDTF@@QAE@XZ 0042e4a8 f   IDTFCommon:ResourceList.obj
 0001:0002d4be       ?SetType@ResourceList@U3D_IDTF@@QAEXABVIFXString@@@Z 0042e4be f   IDTFCommon:ResourceList.obj
 0001:0002d4ce       ?GetType@ResourceList@U3D_IDTF@@QBEABVIFXString@@XZ 0042e4ce f   IDTFCommon:ResourceList.obj
 0001:0002d4d4       ??_EShadingModifier@U3D_IDTF@@UAEPAXI@Z 0042e4d4 f i IDTFCommon:ModifierList.obj
 0001:0002d6b4       ??_EAnimationModifier@U3D_IDTF@@UAEPAXI@Z 0042e6b4 f i IDTFCommon:ModifierList.obj
 0001:0002d894       ??_EBoneWeightModifier@U3D_IDTF@@UAEPAXI@Z 0042e894 f i IDTFCommon:ModifierList.obj
 0001:0002da8c       ??_ECLODModifier@U3D_IDTF@@UAEPAXI@Z 0042ea8c f i IDTFCommon:ModifierList.obj
 0001:0002db9c       ??_ESubdivisionModifier@U3D_IDTF@@UAEPAXI@Z 0042eb9c f i IDTFCommon:ModifierList.obj
 0001:0002dcc4       ??_EGlyphModifier@U3D_IDTF@@UAEPAXI@Z 0042ecc4 f i IDTFCommon:ModifierList.obj
 0001:0002e354       ??_EModifierList@U3D_IDTF@@UAEPAXI@Z 0042f354 f i IDTFCommon:ModifierList.obj
 0001:0002e354       ??_GModifierList@U3D_IDTF@@UAEPAXI@Z 0042f354 f i IDTFCommon:ModifierList.obj
 0001:0002e378       ??1ModifierList@U3D_IDTF@@UAE@XZ 0042f378 f   IDTFCommon:ModifierList.obj
 0001:0002e904       ??0ModifierList@U3D_IDTF@@QAE@XZ 0042f904 f   IDTFCommon:ModifierList.obj
 0001:0002ecd0       ?AddModifier@ModifierList@U3D_IDTF@@QAEHPBVModifier@2@@Z 0042fcd0 f   IDTFCommon:ModifierList.obj
 0001:0002f5a6       ?GetModifier@ModifierList@U3D_IDTF@@QBEPBVModifier@2@I@Z 004305a6 f   IDTFCommon:ModifierList.obj
 0001:0002f5b6       ?GetModifierCount@ModifierList@U3D_IDTF@@QBEIXZ 004305b6 f   IDTFCommon:ModifierList.obj
 0001:0002f5bc       ??1?$IFXArray@VGlyphModifier@U3D_IDTF@@@@UAE@XZ 004305bc f i IDTFCommon:ModifierList.obj
 0001:0002f6c4       ??1?$IFXArray@PAVModifier@U3D_IDTF@@@@UAE@XZ 004306c4 f i IDTFCommon:ModifierList.obj
 0001:0002f7b4       ??1?$IFXArray@VShadingModifier@U3D_IDTF@@@@UAE@XZ 004307b4 f i IDTFCommon:ModifierList.obj
 0001:0002f8bc       ??1?$IFXArray@VAnimationModifier@U3D_IDTF@@@@UAE@XZ 004308bc f i IDTFCommon:ModifierList.obj
 0001:0002f9c4       ??1?$IFXArray@VBoneWeightModifier@U3D_IDTF@@@@UAE@XZ 004309c4 f i IDTFCommon:ModifierList.obj
 0001:0002facc       ??1?$IFXArray@VCLODModifier@U3D_IDTF@@@@UAE@XZ 00430acc f i IDTFCommon:ModifierList.obj
 0001:0002fbd4       ??1?$IFXArray@VSubdivisionModifier@U3D_IDTF@@@@UAE@XZ 00430bd4 f i IDTFCommon:ModifierList.obj
 0001:0002fcdc       ??_G?$IFXArray@PAVModifier@U3D_IDTF@@@@UAEPAXI@Z 00430cdc f i IDTFCommon:ModifierList.obj
 0001:0002fcdc       ??_E?$IFXArray@PAVModifier@U3D_IDTF@@@@UAEPAXI@Z 00430cdc f i IDTFCommon:ModifierList.obj
 0001:0002fde0       ??_G?$IFXArray@VShadingModifier@U3D_IDTF@@@@UAEPAXI@Z 00430de0 f i IDTFCommon:ModifierList.obj
 0001:0002fde0       ??_E?$IFXArray@VShadingModifier@U3D_IDTF@@@@UAEPAXI@Z 00430de0 f i IDTFCommon:ModifierList.obj
 0001:0002fef8       ??_G?$IFXArray@VAnimationModifier@U3D_IDTF@@@@UAEPAXI@Z 00430ef8 f i IDTFCommon:ModifierList.obj
 0001:0002fef8       ??_E?$IFXArray@VAnimationModifier@U3D_IDTF@@@@UAEPAXI@Z 00430ef8 f i IDTFCommon:ModifierList.obj
 0001:00030010       ??_E?$IFXArray@VBoneWeightModifier@U3D_IDTF@@@@UAEPAXI@Z 00431010 f i IDTFCommon:ModifierList.obj
 0001:00030010       ??_G?$IFXArray@VBoneWeightModifier@U3D_IDTF@@@@UAEPAXI@Z 00431010 f i IDTFCommon:ModifierList.obj
 0001:00030128       ??_E?$IFXArray@VCLODModifier@U3D_IDTF@@@@UAEPAXI@Z 00431128 f i IDTFCommon:ModifierList.obj
 0001:00030128       ??_G?$IFXArray@VCLODModifier@U3D_IDTF@@@@UAEPAXI@Z 00431128 f i IDTFCommon:ModifierList.obj
 0001:00030240       ??_E?$IFXArray@VSubdivisionModifier@U3D_IDTF@@@@UAEPAXI@Z 00431240 f i IDTFCommon:ModifierList.obj
 0001:00030240       ??_G?$IFXArray@VSubdivisionModifier@U3D_IDTF@@@@UAEPAXI@Z 00431240 f i IDTFCommon:ModifierList.obj
 0001:00030358       ??_E?$IFXArray@VGlyphModifier@U3D_IDTF@@@@UAEPAXI@Z 00431358 f i IDTFCommon:ModifierList.obj
 0001:00030358       ??_G?$IFXArray@VGlyphModifier@U3D_IDTF@@@@UAEPAXI@Z 00431358 f i IDTFCommon:ModifierList.obj
 0001:00030470       ??0ShadingModifier@U3D_IDTF@@QAE@XZ 00431470 f i IDTFCommon:ModifierList.obj
 0001:000305d0       ??1ShadingModifier@U3D_IDTF@@UAE@XZ 004315d0 f i IDTFCommon:ModifierList.obj
 0001:00030768       ??0AnimationModifier@U3D_IDTF@@QAE@XZ 00431768 f i IDTFCommon:ModifierList.obj
 0001:000308c8       ??1AnimationModifier@U3D_IDTF@@UAE@XZ 004318c8 f i IDTFCommon:ModifierList.obj
 0001:00030a60       ??0BoneWeightModifier@U3D_IDTF@@QAE@XZ 00431a60 f i IDTFCommon:ModifierList.obj
 0001:00030bd4       ??1BoneWeightModifier@U3D_IDTF@@UAE@XZ 00431bd4 f i IDTFCommon:ModifierList.obj
 0001:00030d88       ??0CLODModifier@U3D_IDTF@@QAE@XZ 00431d88 f i IDTFCommon:ModifierList.obj
 0001:00030e20       ??1CLODModifier@U3D_IDTF@@UAE@XZ 00431e20 f i IDTFCommon:ModifierList.obj
 0001:00030ee8       ??0SubdivisionModifier@U3D_IDTF@@QAE@XZ 00431ee8 f i IDTFCommon:ModifierList.obj
 0001:00030f94       ??1SubdivisionModifier@U3D_IDTF@@UAE@XZ 00431f94 f i IDTFCommon:ModifierList.obj
 0001:00031078       ??1GlyphModifier@U3D_IDTF@@UAE@XZ 00432078 f i IDTFCommon:ModifierList.obj
 0001:000316b4       ?DestructAll@?$IFXArray@VIFXVector4@@@@EAEXXZ 004326b4 f i IDTFCommon:ModelResource.obj
 0001:000316b4       ?DestructAll@?$IFXArray@PAVModelResource@U3D_IDTF@@@@EAEXXZ 004326b4 f i IDTFCommon:ModelResourceList.obj
 0001:000316b4       ?DestructAll@?$IFXArray@PAVModifier@U3D_IDTF@@@@EAEXXZ 004326b4 f i IDTFCommon:ModifierList.obj
 0001:000316b4       ?DestructAll@?$IFXArray@I@@EAEXXZ 004326b4 f i ModelResourceParser.obj
 0001:000316b4       ?DestructAll@?$IFXArray@H@@EAEXXZ 004326b4 f i FileParser.obj
 0001:000316b4       ?DestructAll@?$IFXArray@PAVIFXString@@@@EAEXXZ 004326b4 f i TextureConverter.obj
 0001:000316b4       ?DestructAll@?$IFXArray@PAVGlyphCommand@U3D_IDTF@@@@EAEXXZ 004326b4 f i FileParser.obj
 0001:000316b4       ?DestructAll@?$IFXArray@PAVNode@U3D_IDTF@@@@EAEXXZ 004326b4 f i IDTFCommon:NodeList.obj
 0001:00031714       ?Construct@?$IFXArray@VShadingModifier@U3D_IDTF@@@@EAEXI@Z 00432714 f i IDTFCommon:ModifierList.obj
 0001:000318f0       ?DestructAll@?$IFXArray@VShadingModifier@U3D_IDTF@@@@EAEXXZ 004328f0 f i IDTFCommon:ModifierList.obj
 0001:000319a0       ?Preallocate@?$IFXArray@VShadingModifier@U3D_IDTF@@@@EAEXI@Z 004329a0 f i IDTFCommon:ModifierList.obj
 0001:00031a78       ?Construct@?$IFXArray@VAnimationModifier@U3D_IDTF@@@@EAEXI@Z 00432a78 f i IDTFCommon:ModifierList.obj
 0001:00031c5c       ?DestructAll@?$IFXArray@VAnimationModifier@U3D_IDTF@@@@EAEXXZ 00432c5c f i IDTFCommon:ModifierList.obj
 0001:00031d0c       ?Preallocate@?$IFXArray@VAnimationModifier@U3D_IDTF@@@@EAEXI@Z 00432d0c f i IDTFCommon:ModifierList.obj
 0001:00031dec       ?Construct@?$IFXArray@VBoneWeightModifier@U3D_IDTF@@@@EAEXI@Z 00432dec f i IDTFCommon:ModifierList.obj
 0001:00031fe0       ?DestructAll@?$IFXArray@VBoneWeightModifier@U3D_IDTF@@@@EAEXXZ 00432fe0 f i IDTFCommon:ModifierList.obj
 0001:00032090       ?Preallocate@?$IFXArray@VBoneWeightModifier@U3D_IDTF@@@@EAEXI@Z 00433090 f i IDTFCommon:ModifierList.obj
 0001:0003216c       ?Construct@?$IFXArray@VCLODModifier@U3D_IDTF@@@@EAEXI@Z 0043316c f i IDTFCommon:ModifierList.obj
 0001:00032280       ?DestructAll@?$IFXArray@VCLODModifier@U3D_IDTF@@@@EAEXXZ 00433280 f i IDTFCommon:ModifierList.obj
 0001:00032330       ?Preallocate@?$IFXArray@VCLODModifier@U3D_IDTF@@@@EAEXI@Z 00433330 f i IDTFCommon:ModifierList.obj
 0001:00032408       ?Construct@?$IFXArray@VSubdivisionModifier@U3D_IDTF@@@@EAEXI@Z 00433408 f i IDTFCommon:ModifierList.obj
 0001:00032534       ?DestructAll@?$IFXArray@VSubdivisionModifier@U3D_IDTF@@@@EAEXXZ 00433534 f i IDTFCommon:ModifierList.obj
 0001:000325e4       ?Preallocate@?$IFXArray@VSubdivisionModifier@U3D_IDTF@@@@EAEXI@Z 004335e4 f i IDTFCommon:ModifierList.obj
 0001:000326bc       ?Construct@?$IFXArray@VGlyphModifier@U3D_IDTF@@@@EAEXI@Z 004336bc f i IDTFCommon:ModifierList.obj
 0001:00032ccc       ?DestructAll@?$IFXArray@VGlyphModifier@U3D_IDTF@@@@EAEXXZ 00433ccc f i IDTFCommon:ModifierList.obj
 0001:00032d7c       ?Preallocate@?$IFXArray@VGlyphModifier@U3D_IDTF@@@@EAEXI@Z 00433d7c f i IDTFCommon:ModifierList.obj
 0001:00032e5c       ??0?$IFXArray@PAVModifier@U3D_IDTF@@@@QAE@I@Z 00433e5c f i IDTFCommon:ModifierList.obj
 0001:00032f78       ??0?$IFXArray@VShadingModifier@U3D_IDTF@@@@QAE@I@Z 00433f78 f i IDTFCommon:ModifierList.obj
 0001:000330f8       ??0?$IFXArray@VAnimationModifier@U3D_IDTF@@@@QAE@I@Z 004340f8 f i IDTFCommon:ModifierList.obj
 0001:00033280       ??_EFilter@U3D_IDTF@@UAEPAXI@Z 00434280 f i IDTFCommon:FileReference.obj
 0001:000332d4       ??1Filter@U3D_IDTF@@UAE@XZ 004342d4 f   IDTFCommon:FileReference.obj
 0001:00033342       ??1FileReference@U3D_IDTF@@UAE@XZ 00434342 f   IDTFCommon:FileReference.obj
 0001:000335a8       ??0Filter@U3D_IDTF@@QAE@XZ 004345a8 f   IDTFCommon:FileReference.obj
 0001:0003360e       ?GetType@Filter@U3D_IDTF@@QBEABVIFXString@@XZ 0043460e f   IDTFCommon:FileReference.obj
 0001:00033614       ?GetObjectName@Filter@U3D_IDTF@@QBEABVIFXString@@XZ 00434614 f   IDTFCommon:FileReference.obj
 0001:0003361a       ?SetObjectType@Filter@U3D_IDTF@@QAEXH@Z 0043461a f   IDTFCommon:FileReference.obj
 0001:00033624       ?GetObjectType@Filter@U3D_IDTF@@QBEABHXZ 00434624 f   IDTFCommon:FileReference.obj
 0001:0003362a       ??0FileReference@U3D_IDTF@@QAE@XZ 0043462a f   IDTFCommon:FileReference.obj
 0001:0003384c       ?SetScopeName@FileReference@U3D_IDTF@@QAEXABVIFXString@@@Z 0043484c f   IDTFCommon:FileReference.obj
 0001:0003385c       ?GetScopeName@FileReference@U3D_IDTF@@QBEABVIFXString@@XZ 0043485c f   IDTFCommon:FileReference.obj
 0001:00033862       ?AddUrlList@FileReference@U3D_IDTF@@QAEXABVUrlList@2@@Z 00434862 f   IDTFCommon:FileReference.obj
 0001:000338cc       ?GetUrlList@FileReference@U3D_IDTF@@QBEABV?$IFXArray@VIFXString@@@@XZ 004348cc f   IDTFCommon:FileReference.obj
 0001:000338d2       ?AddFilter@FileReference@U3D_IDTF@@QAEHABVFilter@2@@Z 004348d2 f   IDTFCommon:FileReference.obj
 0001:000339e2       ?SetType@Filter@U3D_IDTF@@QAEXABVIFXString@@@Z 004349e2 f   IDTFCommon:FileReference.obj
 0001:000339f2       ?SetObjectName@Filter@U3D_IDTF@@QAEXABVIFXString@@@Z 004349f2 f   IDTFCommon:FileReference.obj
 0001:00033a02       ?GetFilter@FileReference@U3D_IDTF@@QBEABVFilter@2@I@Z 00434a02 f   IDTFCommon:FileReference.obj
 0001:00033a10       ?GetFilterCount@FileReference@U3D_IDTF@@QBEABIXZ 00434a10 f   IDTFCommon:FileReference.obj
 0001:00033a16       ?SetCollisionPolicy@FileReference@U3D_IDTF@@QAEXABVIFXString@@@Z 00434a16 f   IDTFCommon:FileReference.obj
 0001:00033a26       ?GetCollisionPolicy@FileReference@U3D_IDTF@@QBEABVIFXString@@XZ 00434a26 f   IDTFCommon:FileReference.obj
 0001:00033a2c       ?SetWorldAlias@FileReference@U3D_IDTF@@QAEXABVIFXString@@@Z 00434a2c f   IDTFCommon:FileReference.obj
 0001:00033a3c       ?GetWorldAlias@FileReference@U3D_IDTF@@QBEABVIFXString@@XZ 00434a3c f   IDTFCommon:FileReference.obj
 0001:00033a44       ??_EFileReference@U3D_IDTF@@UAEPAXI@Z 00434a44 f i IDTFCommon:FileReference.obj
 0001:00033a44       ??_GFileReference@U3D_IDTF@@UAEPAXI@Z 00434a44 f i IDTFCommon:FileReference.obj
 0001:00033a68       ??1?$IFXArray@VFilter@U3D_IDTF@@@@UAE@XZ 00434a68 f i IDTFCommon:FileReference.obj
 0001:00033b70       ??_E?$IFXArray@VFilter@U3D_IDTF@@@@UAEPAXI@Z 00434b70 f i IDTFCommon:FileReference.obj
 0001:00033b70       ??_G?$IFXArray@VFilter@U3D_IDTF@@@@UAEPAXI@Z 00434b70 f i IDTFCommon:FileReference.obj
 0001:00033c88       ?Construct@?$IFXArray@VFilter@U3D_IDTF@@@@EAEXI@Z 00434c88 f i IDTFCommon:FileReference.obj
 0001:00033d38       ?Destruct@?$IFXArray@VInt3@U3D_IDTF@@@@EAEXI@Z 00434d38 f i ResourceListParser.obj
 0001:00033d38       ?Destruct@?$IFXArray@VGlyphCommand@U3D_IDTF@@@@EAEXI@Z 00434d38 f i FileParser.obj
 0001:00033d38       ?Destruct@?$IFXArray@VParentData@U3D_IDTF@@@@EAEXI@Z 00434d38 f i IDTFCommon:ParentList.obj
 0001:00033d38       ?Destruct@?$IFXArray@VMeshResource@U3D_IDTF@@@@EAEXI@Z 00434d38 f i IDTFCommon:ModelResourceList.obj
 0001:00033d38       ?Destruct@?$IFXArray@VMaterial@U3D_IDTF@@@@EAEXI@Z 00434d38 f i IDTFCommon:SceneResources.obj
 0001:00033d38       ?Destruct@?$IFXArray@VBoneWeightList@U3D_IDTF@@@@EAEXI@Z 00434d38 f i FileParser.obj
 0001:00033d38       ?Destruct@?$IFXArray@VColor@U3D_IDTF@@@@EAEXI@Z 00434d38 f i IDTFCommon:ModelResource.obj
 0001:00033d38       ?Destruct@?$IFXArray@VBoneWeightModifier@U3D_IDTF@@@@EAEXI@Z 00434d38 f i IDTFCommon:ModifierList.obj
 0001:00033d38       ?Destruct@?$IFXArray@VCurveTo@U3D_IDTF@@@@EAEXI@Z 00434d38 f i FileParser.obj
 0001:00033d38       ?Destruct@?$IFXArray@VIFXString@@@@EAEXI@Z 00434d38 f i FileParser.obj
 0001:00033d38       ?Destruct@?$IFXArray@VPointSetResource@U3D_IDTF@@@@EAEXI@Z 00434d38 f i IDTFCommon:ModelResourceList.obj
 0001:00033d38       ?Destruct@?$IFXArray@VInt2@U3D_IDTF@@@@EAEXI@Z 00434d38 f i ResourceListParser.obj
 0001:00033d38       ?Destruct@?$IFXArray@VLightResource@U3D_IDTF@@@@EAEXI@Z 00434d38 f i IDTFCommon:SceneResources.obj
 0001:00033d38       ?Destruct@?$IFXArray@VTextureLayer@U3D_IDTF@@@@EAEXI@Z 00434d38 f i ResourceListParser.obj
 0001:00033d38       ?Destruct@?$IFXArray@VFilter@U3D_IDTF@@@@EAEXI@Z 00434d38 f i IDTFCommon:FileReference.obj
 0001:00033d38       ?Destruct@?$IFXArray@VLightNode@U3D_IDTF@@@@EAEXI@Z 00434d38 f i IDTFCommon:NodeList.obj
 0001:00033d38       ?Destruct@?$IFXArray@VViewResource@U3D_IDTF@@@@EAEXI@Z 00434d38 f i IDTFCommon:SceneResources.obj
 0001:00033d38       ?Destruct@?$IFXArray@VImageFormat@U3D_IDTF@@@@EAEXI@Z 00434d38 f i ResourceListParser.obj
 0001:00033d38       ?Destruct@?$IFXArray@VAnimationModifier@U3D_IDTF@@@@EAEXI@Z 00434d38 f i IDTFCommon:ModifierList.obj
 0001:00033d38       ?Destruct@?$IFXArray@VNode@U3D_IDTF@@@@EAEXI@Z 00434d38 f i IDTFCommon:NodeList.obj
 0001:00033d38       ?Destruct@?$IFXArray@VShadingModifier@U3D_IDTF@@@@EAEXI@Z 00434d38 f i IDTFCommon:ModifierList.obj
 0001:00033d38       ?Destruct@?$IFXArray@VTexture@U3D_IDTF@@@@EAEXI@Z 00434d38 f i IDTFCommon:SceneResources.obj
 0001:00033d38       ?Destruct@?$IFXArray@VGlyphModifier@U3D_IDTF@@@@EAEXI@Z 00434d38 f i IDTFCommon:ModifierList.obj
 0001:00033d38       ?Destruct@?$IFXArray@VCLODModifier@U3D_IDTF@@@@EAEXI@Z 00434d38 f i IDTFCommon:ModifierList.obj
 0001:00033d38       ?Destruct@?$IFXArray@VViewNode@U3D_IDTF@@@@EAEXI@Z 00434d38 f i IDTFCommon:NodeList.obj
 0001:00033d38       ?Destruct@?$IFXArray@VSubdivisionModifier@U3D_IDTF@@@@EAEXI@Z 00434d38 f i IDTFCommon:ModifierList.obj
 0001:00033d38       ?Destruct@?$IFXArray@VMotionResource@U3D_IDTF@@@@EAEXI@Z 00434d38 f i IDTFCommon:SceneResources.obj
 0001:00033d38       ?Destruct@?$IFXArray@VLineSetResource@U3D_IDTF@@@@EAEXI@Z 00434d38 f i IDTFCommon:ModelResourceList.obj
 0001:00033d38       ?Destruct@?$IFXArray@VLineTo@U3D_IDTF@@@@EAEXI@Z 00434d38 f i FileParser.obj
 0001:00033d38       ?Destruct@?$IFXArray@VModelNode@U3D_IDTF@@@@EAEXI@Z 00434d38 f i IDTFCommon:NodeList.obj
 0001:00033d38       ?Destruct@?$IFXArray@VShader@U3D_IDTF@@@@EAEXI@Z 00434d38 f i IDTFCommon:SceneResources.obj
 0001:00033d38       ?Destruct@?$IFXArray@VPoint@U3D_IDTF@@@@EAEXI@Z 00434d38 f i IDTFCommon:ModelResource.obj
 0001:00033d38       ?Destruct@?$IFXArray@VMoveTo@U3D_IDTF@@@@EAEXI@Z 00434d38 f i FileParser.obj
 0001:00033d38       ?Destruct@?$IFXArray@VMetaData@U3D_IDTF@@@@EAEXI@Z 00434d38 f i IDTFCommon:MetaDataList.obj
 0001:00033d38       ?Destruct@?$IFXArray@VEndGlyph@U3D_IDTF@@@@EAEXI@Z 00434d38 f i FileParser.obj
 0001:00033d70       ?DestructAll@?$IFXArray@VFilter@U3D_IDTF@@@@EAEXXZ 00434d70 f i IDTFCommon:FileReference.obj
 0001:00033ddc       ?Preallocate@?$IFXArray@VFilter@U3D_IDTF@@@@EAEXI@Z 00434ddc f i IDTFCommon:FileReference.obj
 0001:00033eac       ??_EPoint@U3D_IDTF@@UAEPAXI@Z 00434eac f i IDTFCommon:ModelResource.obj
 0001:00033ef4       ??_EColor@U3D_IDTF@@UAEPAXI@Z 00434ef4 f i IDTFCommon:ModelResource.obj
 0001:00033f3c       ??_GShadingDescriptionList@U3D_IDTF@@UAEPAXI@Z 00434f3c f i IDTFCommon:ModelResource.obj
 0001:00033f3c       ??_EShadingDescriptionList@U3D_IDTF@@UAEPAXI@Z 00434f3c f i IDTFCommon:ModelResource.obj
 0001:00034084       ??1?$IFXArray@VShadingDescription@U3D_IDTF@@@@UAE@XZ 00435084 f i IDTFCommon:ModelResource.obj
 0001:0003418c       ??_GModelResource@U3D_IDTF@@UAEPAXI@Z 0043518c f i IDTFCommon:ModelResource.obj
 0001:0003418c       ??_EModelResource@U3D_IDTF@@UAEPAXI@Z 0043518c f i IDTFCommon:ModelResource.obj
 0001:000341b0       ??1ModelResource@U3D_IDTF@@UAE@XZ 004351b0 f   IDTFCommon:ModelResource.obj
 0001:000349dc       ??0ModelResource@U3D_IDTF@@QAE@XZ 004359dc f   IDTFCommon:ModelResource.obj
 0001:0003512e       ?ClearModelDescription@ModelResource@U3D_IDTF@@QAEXXZ 0043612e f   IDTFCommon:ModelResource.obj
 0001:00035144       ??1?$IFXArray@VColor@U3D_IDTF@@@@UAE@XZ 00436144 f i IDTFCommon:ModelResource.obj
 0001:0003524c       ??1?$IFXArray@VPoint@U3D_IDTF@@@@UAE@XZ 0043624c f i IDTFCommon:ModelResource.obj
 0001:00035354       ??1?$IFXArray@UBoneInfo@U3D_IDTF@@@@UAE@XZ 00436354 f i IDTFCommon:ModelResource.obj
 0001:0003545c       ??1ShadingDescriptionList@U3D_IDTF@@UAE@XZ 0043645c f i IDTFCommon:ModelResource.obj
 0001:00035580       ??1?$IFXArray@VIFXVector4@@@@UAE@XZ 00436580 f i IDTFCommon:ModelResource.obj
 0001:00035674       ??1ModelSkeleton@U3D_IDTF@@QAE@XZ 00436674 f i IDTFCommon:ModelResource.obj
 0001:00035790       ??_E?$IFXArray@VShadingDescription@U3D_IDTF@@@@UAEPAXI@Z 00436790 f i IDTFCommon:ModelResource.obj
 0001:00035790       ??_G?$IFXArray@VShadingDescription@U3D_IDTF@@@@UAEPAXI@Z 00436790 f i IDTFCommon:ModelResource.obj
 0001:000358a8       ??_G?$IFXArray@UBoneInfo@U3D_IDTF@@@@UAEPAXI@Z 004368a8 f i IDTFCommon:ModelResource.obj
 0001:000358a8       ??_E?$IFXArray@UBoneInfo@U3D_IDTF@@@@UAEPAXI@Z 004368a8 f i IDTFCommon:ModelResource.obj
 0001:000359c0       ??_G?$IFXArray@VPoint@U3D_IDTF@@@@UAEPAXI@Z 004369c0 f i IDTFCommon:ModelResource.obj
 0001:000359c0       ??_E?$IFXArray@VPoint@U3D_IDTF@@@@UAEPAXI@Z 004369c0 f i IDTFCommon:ModelResource.obj
 0001:00035ad8       ??_E?$IFXArray@VColor@U3D_IDTF@@@@UAEPAXI@Z 00436ad8 f i IDTFCommon:ModelResource.obj
 0001:00035ad8       ??_G?$IFXArray@VColor@U3D_IDTF@@@@UAEPAXI@Z 00436ad8 f i IDTFCommon:ModelResource.obj
 0001:00035bf0       ??_E?$IFXArray@VIFXVector4@@@@UAEPAXI@Z 00436bf0 f i IDTFCommon:ModelResource.obj
 0001:00035bf0       ??_G?$IFXArray@VIFXVector4@@@@UAEPAXI@Z 00436bf0 f i IDTFCommon:ModelResource.obj
 0001:00035cf4       ??0Point@U3D_IDTF@@QAE@XZ  00436cf4 f i IDTFCommon:ModelResource.obj
 0001:00035d00       ??0Color@U3D_IDTF@@QAE@XZ  00436d00 f i IDTFCommon:ModelResource.obj
 0001:00035d0c       ??0ShadingDescription@U3D_IDTF@@QAE@XZ 00436d0c f i IDTFCommon:ModelResource.obj
 0001:00035db0       ?Construct@?$IFXArray@VShadingDescription@U3D_IDTF@@@@EAEXI@Z 00436db0 f i IDTFCommon:ModelResource.obj
 0001:00035ee0       ?Destruct@?$IFXArray@VShadingDescription@U3D_IDTF@@@@EAEXI@Z 00436ee0 f i IDTFCommon:ModelResource.obj
 0001:00036040       ?DestructAll@?$IFXArray@VShadingDescription@U3D_IDTF@@@@EAEXXZ 00437040 f i IDTFCommon:ModelResource.obj
 0001:000360f0       ?Preallocate@?$IFXArray@VShadingDescription@U3D_IDTF@@@@EAEXI@Z 004370f0 f i IDTFCommon:ModelResource.obj
 0001:000361c0       ??0BoneInfo@U3D_IDTF@@QAE@XZ 004371c0 f i IDTFCommon:ModelResource.obj
 0001:00036224       ?Construct@?$IFXArray@UBoneInfo@U3D_IDTF@@@@EAEXI@Z 00437224 f i IDTFCommon:ModelResource.obj
 0001:00036300       ?Destruct@?$IFXArray@UBoneInfo@U3D_IDTF@@@@EAEXI@Z 00437300 f i IDTFCommon:ModelResource.obj
 0001:000363e8       ?DestructAll@?$IFXArray@UBoneInfo@U3D_IDTF@@@@EAEXXZ 004373e8 f i IDTFCommon:ModelResource.obj
 0001:00036498       ?Preallocate@?$IFXArray@UBoneInfo@U3D_IDTF@@@@EAEXI@Z 00437498 f i IDTFCommon:ModelResource.obj
 0001:00036568       ?Construct@?$IFXArray@VPoint@U3D_IDTF@@@@EAEXI@Z 00437568 f i IDTFCommon:ModelResource.obj
 0001:0003660c       ?DestructAll@?$IFXArray@VPoint@U3D_IDTF@@@@EAEXXZ 0043760c f i IDTFCommon:ModelResource.obj
 0001:00036678       ?Preallocate@?$IFXArray@VPoint@U3D_IDTF@@@@EAEXI@Z 00437678 f i IDTFCommon:ModelResource.obj
 0001:00036748       ?Construct@?$IFXArray@VColor@U3D_IDTF@@@@EAEXI@Z 00437748 f i IDTFCommon:ModelResource.obj
 0001:000367ec       ?DestructAll@?$IFXArray@VColor@U3D_IDTF@@@@EAEXXZ 004377ec f i IDTFCommon:ModelResource.obj
 0001:00036858       ?Preallocate@?$IFXArray@VColor@U3D_IDTF@@@@EAEXI@Z 00437858 f i IDTFCommon:ModelResource.obj
 0001:00036934       ?Construct@?$IFXArray@VIFXVector4@@@@EAEXI@Z 00437934 f i IDTFCommon:ModelResource.obj
 0001:000369d4       ?Destruct@?$IFXArray@PAVNode@U3D_IDTF@@@@EAEXI@Z 004379d4 f i IDTFCommon:NodeList.obj
 0001:000369d4       ?Destruct@?$IFXArray@PAVGlyphCommand@U3D_IDTF@@@@EAEXI@Z 004379d4 f i FileParser.obj
 0001:000369d4       ?Destruct@?$IFXArray@PAVIFXString@@@@EAEXI@Z 004379d4 f i TextureConverter.obj
 0001:000369d4       ?Destruct@?$IFXArray@VIFXVector4@@@@EAEXI@Z 004379d4 f i IDTFCommon:ModelResource.obj
 0001:000369d4       ?Destruct@?$IFXArray@PAVModelResource@U3D_IDTF@@@@EAEXI@Z 004379d4 f i IDTFCommon:ModelResourceList.obj
 0001:000369d4       ?Destruct@?$IFXArray@H@@EAEXI@Z 004379d4 f i FileParser.obj
 0001:000369d4       ?Destruct@?$IFXArray@I@@EAEXI@Z 004379d4 f i ModelResourceParser.obj
 0001:000369d4       ?Destruct@?$IFXArray@PAVModifier@U3D_IDTF@@@@EAEXI@Z 004379d4 f i IDTFCommon:ModifierList.obj
 0001:000369fc       ?Preallocate@?$IFXArray@VIFXVector4@@@@EAEXI@Z 004379fc f i IDTFCommon:ModelResource.obj
 0001:00036a98       ?SetBillboard@GlyphModifier@U3D_IDTF@@QAEXABVIFXString@@@Z 00437a98 f   IDTFCommon:GlyphModifier.obj
 0001:00036aa8       ?SetSingleShader@GlyphModifier@U3D_IDTF@@QAEXABVIFXString@@@Z 00437aa8 f   IDTFCommon:GlyphModifier.obj
 0001:00036ab8       ?GetBillboard@GlyphModifier@U3D_IDTF@@QBEABVIFXString@@XZ 00437ab8 f   IDTFCommon:GlyphModifier.obj
 0001:00036abe       ?GetSingleShader@GlyphModifier@U3D_IDTF@@QBEABVIFXString@@XZ 00437abe f   IDTFCommon:GlyphModifier.obj
 0001:00036ac4       ?SetTM@GlyphModifier@U3D_IDTF@@QAEXABVIFXMatrix4x4@@@Z 00437ac4 f   IDTFCommon:GlyphModifier.obj
 0001:00036b30       ?GetTM@GlyphModifier@U3D_IDTF@@QBEABVIFXMatrix4x4@@XZ 00437b30 f   IDTFCommon:GlyphModifier.obj
 0001:00036b3a       ??4GlyphModifier@U3D_IDTF@@QAEAAV01@ABV01@@Z 00437b3a f   IDTFCommon:GlyphModifier.obj
 0001:00036c42       ?GetCommand@GlyphModifier@U3D_IDTF@@QBEPBVGlyphCommand@2@I@Z 00437c42 f   IDTFCommon:GlyphModifier.obj
 0001:00036c52       ?AddCommand@GlyphModifier@U3D_IDTF@@QAEHPBVGlyphCommand@2@@Z 00437c52 f   IDTFCommon:GlyphModifier.obj
 0001:00036c6e       ?GetCommandCount@GlyphModifier@U3D_IDTF@@QBEIXZ 00437c6e f   IDTFCommon:GlyphModifier.obj
 0001:00036c78       ??_EMeshResource@U3D_IDTF@@UAEPAXI@Z 00437c78 f i IDTFCommon:ModelResourceList.obj
 0001:00037260       ??_ELineSetResource@U3D_IDTF@@UAEPAXI@Z 00438260 f i IDTFCommon:ModelResourceList.obj
 0001:00037848       ??_EPointSetResource@U3D_IDTF@@UAEPAXI@Z 00438848 f i IDTFCommon:ModelResourceList.obj
 0001:00037dd4       ??_EModelResourceList@U3D_IDTF@@UAEPAXI@Z 00438dd4 f i IDTFCommon:ModelResourceList.obj
 0001:00037dd4       ??_GModelResourceList@U3D_IDTF@@UAEPAXI@Z 00438dd4 f i IDTFCommon:ModelResourceList.obj
 0001:00037df8       ??1ModelResourceList@U3D_IDTF@@UAE@XZ 00438df8 f   IDTFCommon:ModelResourceList.obj
 0001:000380fa       ??0ModelResourceList@U3D_IDTF@@QAE@XZ 004390fa f   IDTFCommon:ModelResourceList.obj
 0001:0003837e       ?AddResource@ModelResourceList@U3D_IDTF@@QAEHPBVModelResource@2@@Z 0043937e f   IDTFCommon:ModelResourceList.obj
 0001:00038c68       ?GetResource@ModelResourceList@U3D_IDTF@@QBEPBVModelResource@2@I@Z 00439c68 f   IDTFCommon:ModelResourceList.obj
 0001:00038c78       ?GetResourceCount@ModelResourceList@U3D_IDTF@@QBEIXZ 00439c78 f   IDTFCommon:ModelResourceList.obj
 0001:00038c7c       ??1?$IFXArray@VPointSetResource@U3D_IDTF@@@@UAE@XZ 00439c7c f i IDTFCommon:ModelResourceList.obj
 0001:00038d84       ??1?$IFXArray@PAVModelResource@U3D_IDTF@@@@UAE@XZ 00439d84 f i IDTFCommon:ModelResourceList.obj
 0001:00038e74       ??1?$IFXArray@VMeshResource@U3D_IDTF@@@@UAE@XZ 00439e74 f i IDTFCommon:ModelResourceList.obj
 0001:00038f7c       ??1?$IFXArray@VLineSetResource@U3D_IDTF@@@@UAE@XZ 00439f7c f i IDTFCommon:ModelResourceList.obj
 0001:00039084       ??_E?$IFXArray@PAVModelResource@U3D_IDTF@@@@UAEPAXI@Z 0043a084 f i IDTFCommon:ModelResourceList.obj
 0001:00039084       ??_G?$IFXArray@PAVModelResource@U3D_IDTF@@@@UAEPAXI@Z 0043a084 f i IDTFCommon:ModelResourceList.obj
 0001:00039188       ??_G?$IFXArray@VMeshResource@U3D_IDTF@@@@UAEPAXI@Z 0043a188 f i IDTFCommon:ModelResourceList.obj
 0001:00039188       ??_E?$IFXArray@VMeshResource@U3D_IDTF@@@@UAEPAXI@Z 0043a188 f i IDTFCommon:ModelResourceList.obj
 0001:000392a0       ??_G?$IFXArray@VLineSetResource@U3D_IDTF@@@@UAEPAXI@Z 0043a2a0 f i IDTFCommon:ModelResourceList.obj
 0001:000392a0       ??_E?$IFXArray@VLineSetResource@U3D_IDTF@@@@UAEPAXI@Z 0043a2a0 f i IDTFCommon:ModelResourceList.obj
 0001:000393b8       ??_G?$IFXArray@VPointSetResource@U3D_IDTF@@@@UAEPAXI@Z 0043a3b8 f i IDTFCommon:ModelResourceList.obj
 0001:000393b8       ??_E?$IFXArray@VPointSetResource@U3D_IDTF@@@@UAEPAXI@Z 0043a3b8 f i IDTFCommon:ModelResourceList.obj
 0001:000394d0       ??0MeshResource@U3D_IDTF@@QAE@XZ 0043a4d0 f i IDTFCommon:ModelResourceList.obj
 0001:000399c0       ??0LineSetResource@U3D_IDTF@@QAE@XZ 0043a9c0 f i IDTFCommon:ModelResourceList.obj
 0001:00039ebc       ??0PointSetResource@U3D_IDTF@@QAE@XZ 0043aebc f i IDTFCommon:ModelResourceList.obj
 0001:0003a238       ?Construct@?$IFXArray@VMeshResource@U3D_IDTF@@@@EAEXI@Z 0043b238 f i IDTFCommon:ModelResourceList.obj
 0001:0003a7c4       ?DestructAll@?$IFXArray@VMeshResource@U3D_IDTF@@@@EAEXXZ 0043b7c4 f i IDTFCommon:ModelResourceList.obj
 0001:0003a874       ?Preallocate@?$IFXArray@VMeshResource@U3D_IDTF@@@@EAEXI@Z 0043b874 f i IDTFCommon:ModelResourceList.obj
 0001:0003a954       ?Construct@?$IFXArray@VLineSetResource@U3D_IDTF@@@@EAEXI@Z 0043b954 f i IDTFCommon:ModelResourceList.obj
 0001:0003aeec       ?DestructAll@?$IFXArray@VLineSetResource@U3D_IDTF@@@@EAEXXZ 0043beec f i IDTFCommon:ModelResourceList.obj
 0001:0003af9c       ?Preallocate@?$IFXArray@VLineSetResource@U3D_IDTF@@@@EAEXI@Z 0043bf9c f i IDTFCommon:ModelResourceList.obj
 0001:0003b07c       ?Construct@?$IFXArray@VPointSetResource@U3D_IDTF@@@@EAEXI@Z 0043c07c f i IDTFCommon:ModelResourceList.obj
 0001:0003b47c       ?DestructAll@?$IFXArray@VPointSetResource@U3D_IDTF@@@@EAEXXZ 0043c47c f i IDTFCommon:ModelResourceList.obj
 0001:0003b52c       ?Preallocate@?$IFXArray@VPointSetResource@U3D_IDTF@@@@EAEXI@Z 0043c52c f i IDTFCommon:ModelResourceList.obj
 0001:0003b60c       ??0?$IFXArray@VMeshResource@U3D_IDTF@@@@QAE@I@Z 0043c60c f i IDTFCommon:ModelResourceList.obj
 0001:0003b794       ??4PointSetResource@U3D_IDTF@@QAEAAV01@ABV01@@Z 0043c794 f i IDTFCommon:ModelResourceList.obj
 0001:0003bf30       ??4LineSetResource@U3D_IDTF@@QAEAAV01@ABV01@@Z 0043cf30 f i IDTFCommon:ModelResourceList.obj
 0001:0003c714       ?AddCommand@GlyphCommandList@U3D_IDTF@@QAEHPBVGlyphCommand@2@@Z 0043d714 f   IDTFCommon:GlyphCommandList.obj
 0001:0003c908       ?GetCommand@GlyphCommandList@U3D_IDTF@@QBEPBVGlyphCommand@2@I@Z 0043d908 f   IDTFCommon:GlyphCommandList.obj
 0001:0003c918       ?GetCommandCount@GlyphCommandList@U3D_IDTF@@QBEIXZ 0043d918 f   IDTFCommon:GlyphCommandList.obj
 0001:0003c91c       _ReadAndSetUserOptionsX    0043d91c f   IDTFConverterHelpers:ConverterHelpers.obj
 0001:0003d3c4       ?ParseParameterFileX@U3D_IDTF@@YAXPBGPAUConverterOptions@1@PAUFileOptions@1@@Z 0043e3c4 f   IDTFConverterHelpers:ConverterHelpers.obj
 0001:0003dd82       ?DumpHelpInfo@U3D_IDTF@@YAXQAPAG@Z 0043ed82 f   IDTFConverterHelpers:ConverterHelpers.obj
 0001:0003df2a       _SetDefaultOptionsX        0043ef2a f   IDTFConverterHelpers:ConverterHelpers.obj
 0001:0003dfc0       ??_GSceneUtilities@U3D_IDTF@@UAEPAXI@Z 0043efc0 f i IDTFConverterHelpers:SceneUtilities.obj
 0001:0003dfc0       ??_ESceneUtilities@U3D_IDTF@@UAEPAXI@Z 0043efc0 f i IDTFConverterHelpers:SceneUtilities.obj
 0001:0003dfe4       ??1SceneUtilities@U3D_IDTF@@UAE@XZ 0043efe4 f   IDTFConverterHelpers:SceneUtilities.obj
 0001:0003e12e       ??0SceneUtilities@U3D_IDTF@@QAE@XZ 0043f12e f   IDTFConverterHelpers:SceneUtilities.obj
 0001:0003e16c       ?WriteDebugInfo@SceneUtilities@U3D_IDTF@@QAEHPBD@Z 0043f16c f   IDTFConverterHelpers:SceneUtilities.obj
 0001:0003e61c       ?WriteSceneToFile@SceneUtilities@U3D_IDTF@@QAEHPBGI@Z 0043f61c f   IDTFConverterHelpers:SceneUtilities.obj
 0001:0003e766       ?LoadU3DFile@SceneUtilities@U3D_IDTF@@QAEHPBG@Z 0043f766 f   IDTFConverterHelpers:SceneUtilities.obj
 0001:0003e90a       ?CreateFileReference@SceneUtilities@U3D_IDTF@@QAEHABVIFXString@@PAPAVIFXFileReference@@@Z 0043f90a f   IDTFConverterHelpers:SceneUtilities.obj
 0001:0003ea90       ?CreateNodePlaceholder@SceneUtilities@U3D_IDTF@@QAEHABVIFXString@@PAI@Z 0043fa90 f   IDTFConverterHelpers:SceneUtilities.obj
 0001:0003eb84       ?CreateViewNode@SceneUtilities@U3D_IDTF@@QAEHABVIFXString@@0PAPAVIFXView@@@Z 0043fb84 f   IDTFConverterHelpers:SceneUtilities.obj
 0001:0003ed0c       ?CreateNode@SceneUtilities@U3D_IDTF@@QAEHABVIFXString@@ABUIFXGUID@@PAPAVIFXNode@@PAI@Z 0043fd0c f   IDTFConverterHelpers:SceneUtilities.obj
 0001:0003efa6       ?CreateGroupNode@SceneUtilities@U3D_IDTF@@QAEHABVIFXString@@PAPAVIFXNode@@@Z 0043ffa6 f   IDTFConverterHelpers:SceneUtilities.obj
 0001:0003efd0       ?CreateLightNode@SceneUtilities@U3D_IDTF@@QAEHABVIFXString@@0PAPAVIFXLight@@@Z 0043ffd0 f   IDTFConverterHelpers:SceneUtilities.obj
 0001:0003f150       ?CreateModelNode@SceneUtilities@U3D_IDTF@@QAEHABVIFXString@@0PAPAVIFXModel@@@Z 00440150 f   IDTFConverterHelpers:SceneUtilities.obj
 0001:0003f2e0       ?FindNode@SceneUtilities@U3D_IDTF@@QAEHABVIFXString@@PAPAVIFXNode@@PAI@Z 004402e0 f   IDTFConverterHelpers:SceneUtilities.obj
 0001:0003f446       ?CreateResourcePlaceholder@SceneUtilities@U3D_IDTF@@QAEHABVIFXString@@W4EIFXPalette@IFXSceneGraph@@PAI@Z 00440446 f   IDTFConverterHelpers:SceneUtilities.obj
 0001:0003f522       ?CreateViewResource@SceneUtilities@U3D_IDTF@@QAEHABVIFXString@@PAPAVIFXViewResource@@@Z 00440522 f   IDTFConverterHelpers:SceneUtilities.obj
 0001:0003f682       ?CreateLightResource@SceneUtilities@U3D_IDTF@@QAEHABVIFXString@@PAPAVIFXLightResource@@@Z 00440682 f   IDTFConverterHelpers:SceneUtilities.obj
 0001:0003f7e2       ?CreateMeshResource@SceneUtilities@U3D_IDTF@@QAEHABVIFXString@@PAVIFXAuthorMesh@@AAUIFXAuthorGeomCompilerParams@@PAPAVIFXAuthorCLODResource@@@Z 004407e2 f   IDTFConverterHelpers:SceneUtilities.obj
 0001:0003f9ea       ?CreatePointSetResource@SceneUtilities@U3D_IDTF@@QAEHABVIFXString@@PAVIFXAuthorPointSet@@IPAPAVIFXAuthorPointSetResource@@@Z 004409ea f   IDTFConverterHelpers:SceneUtilities.obj
 0001:0003faec       ?CreateModelResource@SceneUtilities@U3D_IDTF@@QAEHABVIFXString@@ABUIFXGUID@@IPAPAVIFXGenerator@@@Z 00440aec f   IDTFConverterHelpers:SceneUtilities.obj
 0001:0003ff4c       ?CreateLineSetResource@SceneUtilities@U3D_IDTF@@QAEHABVIFXString@@PAVIFXAuthorLineSet@@IPAPAVIFXAuthorLineSetResource@@@Z 00440f4c f   IDTFConverterHelpers:SceneUtilities.obj
 0001:0004004e       ?CreateMotionResource@SceneUtilities@U3D_IDTF@@QAEHABVIFXString@@IIPAIPAPAVIFXMotionResource@@@Z 0044104e f   IDTFConverterHelpers:SceneUtilities.obj
 0001:00040420       ?FindPaletteEntry@SceneUtilities@U3D_IDTF@@QAEHABVIFXString@@W4EIFXPalette@IFXSceneGraph@@PAPAVIFXUnknown@@PAI@Z 00441420 f   IDTFConverterHelpers:SceneUtilities.obj
 0001:0004054c       ?FindTexture@SceneUtilities@U3D_IDTF@@QAEHABVIFXString@@PAPAVIFXTextureObject@@PAI@Z 0044154c f   IDTFConverterHelpers:SceneUtilities.obj
 0001:000406e4       ?FindShader@SceneUtilities@U3D_IDTF@@QAEHABVIFXString@@PAPAVIFXShaderLitTexture@@PAI@Z 004416e4 f   IDTFConverterHelpers:SceneUtilities.obj
 0001:0004087c       ?FindMotionResource@SceneUtilities@U3D_IDTF@@QAEHABVIFXString@@PAPAVIFXMotionResource@@@Z 0044187c f   IDTFConverterHelpers:SceneUtilities.obj
 0001:00040988       ?FindResourceByModelName@SceneUtilities@U3D_IDTF@@QAEHABVIFXString@@PAPAVIFXAuthorCLODResource@@@Z 00441988 f   IDTFConverterHelpers:SceneUtilities.obj
 0001:00040aa0       ?FindModel@SceneUtilities@U3D_IDTF@@QAEHABVIFXString@@PAPAVIFXModel@@@Z 00441aa0 f   IDTFConverterHelpers:SceneUtilities.obj
 0001:00040bc2       ?FindModelResource@SceneUtilities@U3D_IDTF@@QAEHABVIFXString@@PAPAVIFXGenerator@@@Z 00441bc2 f   IDTFConverterHelpers:SceneUtilities.obj
 0001:00040c9a       ?CreateShader@SceneUtilities@U3D_IDTF@@QAEHABVIFXString@@0PAPAVIFXShaderLitTexture@@@Z 00441c9a f   IDTFConverterHelpers:SceneUtilities.obj
 0001:00040ea4       ?FindMaterial@SceneUtilities@U3D_IDTF@@QAEHABVIFXString@@PAPAVIFXMaterialResource@@PAI@Z 00441ea4 f   IDTFConverterHelpers:SceneUtilities.obj
 0001:00041038       ?GetMaterialFromShader@SceneUtilities@U3D_IDTF@@QAEHPAVIFXShaderLitTexture@@PAPAVIFXMaterialResource@@@Z 00442038 f   IDTFConverterHelpers:SceneUtilities.obj
 0001:0004117c       ?GetTextureFromShader@SceneUtilities@U3D_IDTF@@QAEHPAVIFXShaderLitTexture@@PAPAVIFXTextureObject@@I@Z 0044217c f   IDTFConverterHelpers:SceneUtilities.obj
 0001:000412c8       ?CreateMaterial@SceneUtilities@U3D_IDTF@@QAEHABVIFXString@@PAPAVIFXMaterialResource@@@Z 004422c8 f   IDTFConverterHelpers:SceneUtilities.obj
 0001:0004145e       ?CreateTexture@SceneUtilities@U3D_IDTF@@QAEHABVIFXString@@IPAPAVIFXTextureObject@@@Z 0044245e f   IDTFConverterHelpers:SceneUtilities.obj
 0001:00041608       ?AddTexturePaletteEntry@SceneUtilities@U3D_IDTF@@QAEHABVIFXString@@PAI@Z 00442608 f   IDTFConverterHelpers:SceneUtilities.obj
 0001:000416e2       ?SetRenderWire@SceneUtilities@U3D_IDTF@@QAEHABVIFXString@@H@Z 004426e2 f   IDTFConverterHelpers:SceneUtilities.obj
 0001:00041782       ?GetSceneMetaData@SceneUtilities@U3D_IDTF@@QAEHPAPAVIFXMetaDataX@@@Z 00442782 f   IDTFConverterHelpers:SceneUtilities.obj
 0001:000417c8       ?InitializeScene@SceneUtilities@U3D_IDTF@@QAEHIN@Z 004427c8 f   IDTFConverterHelpers:SceneUtilities.obj
 0001:00041890       ?AddBoneWeightModifier@SceneUtilities@U3D_IDTF@@QAEHABVIFXString@@0PAPAVIFXBoneWeightsModifier@@@Z 00442890 f   IDTFConverterHelpers:ModifierUtilities.obj
 0001:00041902       ?AddModifier@SceneUtilities@U3D_IDTF@@QAEHABVIFXString@@0PAVIFXModifier@@@Z 00442902 f   IDTFConverterHelpers:ModifierUtilities.obj
 0001:00041b78       ?AddShadingModifier@SceneUtilities@U3D_IDTF@@QAEHABVIFXString@@0PAPAVIFXShadingModifier@@@Z 00442b78 f   IDTFConverterHelpers:ModifierUtilities.obj
 0001:00041bea       ?AddGlyphModifier@SceneUtilities@U3D_IDTF@@QAEHABVIFXString@@0NNNPAVIFXGlyphCommandList@@PAPAVIFXGlyph2DModifier@@@Z 00442bea f   IDTFConverterHelpers:ModifierUtilities.obj
 0001:00041d30       ?AddCLODModifier@SceneUtilities@U3D_IDTF@@QAEHABVIFXString@@0PAPAVIFXCLODModifier@@@Z 00442d30 f   IDTFConverterHelpers:ModifierUtilities.obj
 0001:00041da2       ?AddSubdivisionModifier@SceneUtilities@U3D_IDTF@@QAEHABVIFXString@@0PAPAVIFXSubdivModifier@@@Z 00442da2 f   IDTFConverterHelpers:ModifierUtilities.obj
 0001:00041ee8       ?AddAnimationModifier@SceneUtilities@U3D_IDTF@@QAEHABVIFXString@@0HPAPAVIFXAnimationModifier@@@Z 00442ee8 f   IDTFConverterHelpers:ModifierUtilities.obj
 0001:00041f7a       ?AssignAnimationToModifier@SceneUtilities@U3D_IDTF@@QAEHPAVIFXAnimationModifier@@ABVIFXString@@MMHH@Z 00442f7a f   IDTFConverterHelpers:ModifierUtilities.obj
 0001:00041ff8       ??_GTGAImage@U3D_IDTF@@UAEPAXI@Z 00442ff8 f i IDTFConverterHelpers:TGAImage.obj
 0001:00041ff8       ??_ETGAImage@U3D_IDTF@@UAEPAXI@Z 00442ff8 f i IDTFConverterHelpers:TGAImage.obj
 0001:00042020       ??0TGAImage@U3D_IDTF@@QAE@XZ 00443020 f   IDTFConverterHelpers:TGAImage.obj
 0001:0004203a       ??1TGAImage@U3D_IDTF@@UAE@XZ 0044303a f   IDTFConverterHelpers:TGAImage.obj
 0001:00042046       ?Write@TGAImage@U3D_IDTF@@QAEHPBG@Z 00443046 f   IDTFConverterHelpers:TGAImage.obj
 0001:000421e0       ?Read@TGAImage@U3D_IDTF@@QAEHPBG@Z 004431e0 f   IDTFConverterHelpers:TGAImage.obj
 0001:00042372       ?Deallocate@TGAImage@U3D_IDTF@@QAEHXZ 00443372 f   IDTFConverterHelpers:TGAImage.obj
 0001:000423a6       ?Initialize@TGAImage@U3D_IDTF@@QAEHIII@Z 004433a6 f   IDTFConverterHelpers:TGAImage.obj
 0001:00042414       ??_GIFXRenderClear@@UAEPAXI@Z 00443414 f i IDTFConverterHelpers:DebugInfo.obj
 0001:00042414       ??_EIFXRenderClear@@UAEPAXI@Z 00443414 f i IDTFConverterHelpers:DebugInfo.obj
 0001:00042430       ??_EIFXRenderFog@@UAEPAXI@Z 00443430 f i IDTFConverterHelpers:DebugInfo.obj
 0001:00042430       ??_GIFXRenderFog@@UAEPAXI@Z 00443430 f i IDTFConverterHelpers:DebugInfo.obj
 0001:0004244c       ??_EIFXListContext@@UAEPAXI@Z 0044344c f i IDTFConverterHelpers:DebugInfo.obj
 0001:0004244c       ??_GIFXListContext@@UAEPAXI@Z 0044344c f i IDTFConverterHelpers:DebugInfo.obj
 0001:00042478       ??_EDebugInfo@U3D_IDTF@@UAEPAXI@Z 00443478 f i IDTFConverterHelpers:DebugInfo.obj
 0001:00042478       ??_GDebugInfo@U3D_IDTF@@UAEPAXI@Z 00443478 f i IDTFConverterHelpers:DebugInfo.obj
 0001:0004249c       ??1DebugInfo@U3D_IDTF@@UAE@XZ 0044349c f   IDTFConverterHelpers:DebugInfo.obj
 0001:000424b2       ?SetFlag@DebugInfo@U3D_IDTF@@QAEHII@Z 004434b2 f   IDTFConverterHelpers:DebugInfo.obj
 0001:000424d4       ?Close@DebugInfo@U3D_IDTF@@QAEXXZ 004434d4 f   IDTFConverterHelpers:DebugInfo.obj
 0001:000424ee       ?WriteIf@DebugInfo@U3D_IDTF@@QAAXIPBDZZ 004434ee f   IDTFConverterHelpers:DebugInfo.obj
 0001:00042528       ?Write@DebugInfo@U3D_IDTF@@QAEXPAVIFXKeyFrame@@@Z 00443528 f   IDTFConverterHelpers:DebugInfo.obj
 0001:00042546       ?Write@DebugInfo@U3D_IDTF@@QAEXPAVIFXMeshGroup@@@Z 00443546 f   IDTFConverterHelpers:DebugInfo.obj
 0001:00042564       ?Write@DebugInfo@U3D_IDTF@@QAEXPAVIFXMesh@@@Z 00443564 f   IDTFConverterHelpers:DebugInfo.obj
 0001:00042582       ?WriteColor@DebugInfo@U3D_IDTF@@QAEXPAVIFXVector3@@@Z 00443582 f   IDTFConverterHelpers:DebugInfo.obj
 0001:000425c6       ?Write@DebugInfo@U3D_IDTF@@QAEXPAVIFXPalette@@@Z 004435c6 f   IDTFConverterHelpers:DebugInfo.obj
 0001:00042716       ?WriteNodePalette@DebugInfo@U3D_IDTF@@QAEXPAVIFXPalette@@@Z 00443716 f   IDTFConverterHelpers:DebugInfo.obj
 0001:00042ccc       ?Write@DebugInfo@U3D_IDTF@@QAEXPAVIFXModel@@@Z 00443ccc f   IDTFConverterHelpers:DebugInfo.obj
 0001:00042cd4       ?Write@DebugInfo@U3D_IDTF@@QAEXPAVIFXView@@@Z 00443cd4 f   IDTFConverterHelpers:DebugInfo.obj
 0001:0004343c       ?WriteColor@DebugInfo@U3D_IDTF@@QAEXPAVIFXVector4@@@Z 0044443c f   IDTFConverterHelpers:DebugInfo.obj
 0001:0004348a       ?Write@DebugInfo@U3D_IDTF@@QAEXPAVIFXLight@@@Z 0044448a f   IDTFConverterHelpers:DebugInfo.obj
 0001:0004372c       ?Write@DebugInfo@U3D_IDTF@@QAEXPAVIFXNode@@@Z 0044472c f   IDTFConverterHelpers:DebugInfo.obj
 0001:00043942       ?Write@DebugInfo@U3D_IDTF@@QAEXPAVIFXModifierDataPacket@@@Z 00444942 f   IDTFConverterHelpers:DebugInfo.obj
 0001:000441c8       ?Write@DebugInfo@U3D_IDTF@@QAAXPBDZZ 004451c8 f   IDTFConverterHelpers:DebugInfo.obj
 0001:000441f6       ?Write@DebugInfo@U3D_IDTF@@QAEXPAVIFXMatrix4x4@@PBD@Z 004451f6 f   IDTFConverterHelpers:DebugInfo.obj
 0001:000442c8       ?Write@DebugInfo@U3D_IDTF@@QAEXPAVIFXRenderable@@@Z 004452c8 f   IDTFConverterHelpers:DebugInfo.obj
 0001:00044438       ?WriteLightPalette@DebugInfo@U3D_IDTF@@QAEXPAVIFXPalette@@@Z 00445438 f   IDTFConverterHelpers:DebugInfo.obj
 0001:000445d4       ?WriteViewPalette@DebugInfo@U3D_IDTF@@QAEXPAVIFXPalette@@@Z 004455d4 f   IDTFConverterHelpers:DebugInfo.obj
 0001:00044770       ?WriteModelPalette@DebugInfo@U3D_IDTF@@QAEXPAVIFXPalette@@@Z 00445770 f   IDTFConverterHelpers:DebugInfo.obj
 0001:00044b14       ?Write@DebugInfo@U3D_IDTF@@QAEXPAVIFXAuthorLineSetResource@@@Z 00445b14 f   IDTFConverterHelpers:DebugInfo.obj
 0001:00044f60       ?Write@DebugInfo@U3D_IDTF@@QAEXPAVIFXAuthorCLODResource@@@Z 00445f60 f   IDTFConverterHelpers:DebugInfo.obj
 0001:000455ba       ?Write@DebugInfo@U3D_IDTF@@QAEXPAVIFXGenerator@@@Z 004465ba f   IDTFConverterHelpers:DebugInfo.obj
 0001:000456b8       ?Write@DebugInfo@U3D_IDTF@@QAEXPAVIFXModifierChain@@@Z 004466b8 f   IDTFConverterHelpers:DebugInfo.obj
 0001:00045bb2       ?Write@DebugInfo@U3D_IDTF@@QAEXPAVIFXCLODModifier@@@Z 00446bb2 f   IDTFConverterHelpers:DebugInfo.obj
 0001:00045c6a       ?Write@DebugInfo@U3D_IDTF@@QAEXPAVIFXSubdivModifier@@@Z 00446c6a f   IDTFConverterHelpers:DebugInfo.obj
 0001:00045d94       ?Write@DebugInfo@U3D_IDTF@@QAEXPAVIFXAnimationModifier@@@Z 00446d94 f   IDTFConverterHelpers:DebugInfo.obj
 0001:00045fe0       ?WriteBoneWeightGenerator@DebugInfo@U3D_IDTF@@QAEXPAVIFXSkeleton@@@Z 00446fe0 f   IDTFConverterHelpers:DebugInfo.obj
 0001:000464d4       ?Write@DebugInfo@U3D_IDTF@@QAEXPAUIFXBoneInfo@@@Z 004474d4 f   IDTFConverterHelpers:DebugInfo.obj
 0001:000465aa       ?Write@DebugInfo@U3D_IDTF@@QAEXPAM@Z 004475aa f   IDTFConverterHelpers:DebugInfo.obj
 0001:000465de       ?Write@DebugInfo@U3D_IDTF@@QAEXPAVIFXVector4@@@Z 004475de f   IDTFConverterHelpers:DebugInfo.obj
 0001:0004662c       ?WriteMaterialPalette@DebugInfo@U3D_IDTF@@QAEXPAVIFXPalette@@@Z 0044762c f   IDTFConverterHelpers:DebugInfo.obj
 0001:00046814       ?Write@DebugInfo@U3D_IDTF@@QAEXPAVIFXMaterialResource@@@Z 00447814 f   IDTFConverterHelpers:DebugInfo.obj
 0001:00046a54       ?WriteShaderPalette@DebugInfo@U3D_IDTF@@QAEXPAVIFXPalette@@@Z 00447a54 f   IDTFConverterHelpers:DebugInfo.obj
 0001:00046c3c       ?Write@DebugInfo@U3D_IDTF@@QAEXPAVIFXShaderLitTexture@@@Z 00447c3c f   IDTFConverterHelpers:DebugInfo.obj
 0001:00047118       ?Write@DebugInfo@U3D_IDTF@@QAEXPAVIFXShaderLitTexture@@I@Z 00448118 f   IDTFConverterHelpers:DebugInfo.obj
 0001:00047416       ?WriteMotionPalette@DebugInfo@U3D_IDTF@@QAEXPAVIFXPalette@@@Z 00448416 f   IDTFConverterHelpers:DebugInfo.obj
 0001:00047614       ?Write@DebugInfo@U3D_IDTF@@QAEXPAVIFXMotionResource@@@Z 00448614 f   IDTFConverterHelpers:DebugInfo.obj
 0001:000478f8       ?Write@DebugInfo@U3D_IDTF@@QAEXPAVIFXQuaternion@@@Z 004488f8 f   IDTFConverterHelpers:DebugInfo.obj
 0001:00047946       ?Write@DebugInfo@U3D_IDTF@@QAEXPAVIFXVector3@@@Z 00448946 f   IDTFConverterHelpers:DebugInfo.obj
 0001:0004798a       ?WriteMixerPalette@DebugInfo@U3D_IDTF@@QAEXPAVIFXPalette@@0@Z 0044898a f   IDTFConverterHelpers:DebugInfo.obj
 0001:00047b8e       ?Write@DebugInfo@U3D_IDTF@@QAEXPAVIFXMixerConstruct@@PAVIFXPalette@@1@Z 00448b8e f   IDTFConverterHelpers:DebugInfo.obj
 0001:00048226       ?Write@DebugInfo@U3D_IDTF@@QAEXPAVIFXString@@@Z 00449226 f   IDTFConverterHelpers:DebugInfo.obj
 0001:00048298       ?WriteTexturePalette@DebugInfo@U3D_IDTF@@QAEXPAVIFXPalette@@@Z 00449298 f   IDTFConverterHelpers:DebugInfo.obj
 0001:00048478       ?Write@DebugInfo@U3D_IDTF@@QAEXPAVIFXTextureObject@@@Z 00449478 f   IDTFConverterHelpers:DebugInfo.obj
 0001:00048ae2       ?WriteSimulationTaskPalette@DebugInfo@U3D_IDTF@@QAEXPAVIFXPalette@@@Z 00449ae2 f   IDTFConverterHelpers:DebugInfo.obj
 0001:00048cc6       ?Write@DebugInfo@U3D_IDTF@@QAEXPAVIFXSimulationTask@@@Z 00449cc6 f   IDTFConverterHelpers:DebugInfo.obj
 0001:00048d14       ??0DebugInfo@U3D_IDTF@@QAE@XZ 00449d14 f   IDTFConverterHelpers:DebugInfo.obj
 0001:00048d80       ?DumpChildNodes@DebugInfo@U3D_IDTF@@QAEHPAVIFXPalette@@PAVIFXNode@@II@Z 00449d80 f   IDTFConverterHelpers:DebugInfo.obj
 0001:00048f84       ?Init@DebugInfo@U3D_IDTF@@QAEHPBD@Z 00449f84 f   IDTFConverterHelpers:DebugInfo.obj
 0001:00049070       ??1IFXRenderClear@@UAE@XZ  0044a070 f i IDTFConverterHelpers:DebugInfo.obj
 0001:00049078       ??1IFXRenderFog@@UAE@XZ    0044a078 f i IDTFConverterHelpers:DebugInfo.obj
 0001:00049080       ??1IFXListContext@@UAE@XZ  0044a080 f i IDTFConverterHelpers:DebugInfo.obj
 0001:00049094       ?CompressMotionTracks@SceneUtilities@U3D_IDTF@@QAEHPAVIFXMotionResource@@@Z 0044a094 f   IDTFConverterHelpers:MiscUtilities.obj
 0001:000490c2       ?TestModifierNodeChain@SceneUtilities@U3D_IDTF@@QAEHPAVIFXNode@@ABUIFXGUID@@PAI@Z 0044a0c2 f   IDTFConverterHelpers:MiscUtilities.obj
 0001:000493fe       ?GetWorldTransform@SceneUtilities@U3D_IDTF@@QAEHPAVIFXNode@@PAVIFXMatrix4x4@@@Z 0044a3fe f   IDTFConverterHelpers:MiscUtilities.obj
 0001:000494b0       ?TestModifierResourceChain@SceneUtilities@U3D_IDTF@@QAEHPAVIFXAuthorCLODResource@@ABUIFXGUID@@PAI@Z 0044a4b0 f   IDTFConverterHelpers:MiscUtilities.obj
 0001:000496c8       ??3@YAXPAX@Z               0044a6c8 f   LIBCMT:delete.obj
 0001:000496d0       __global_unwind2           0044a6d0 f   LIBCMT:exsup.obj
 0001:00049712       __local_unwind2            0044a712 f   LIBCMT:exsup.obj
 0001:0004976a       __NLG_Return2              0044a76a     LIBCMT:exsup.obj
 0001:0004977a       __abnormal_termination     0044a77a f   LIBCMT:exsup.obj
 0001:0004979d       __NLG_Notify1              0044a79d f   LIBCMT:exsup.obj
 0001:000497a6       __NLG_Notify               0044a7a6 f   LIBCMT:exsup.obj
 0001:000497b9       __NLG_Dispatch             0044a7b9     LIBCMT:exsup.obj
 0001:000497be       ?_JumpToContinuation@@YGXPAXPAUEHRegistrationNode@@@Z 0044a7be f   LIBCMT:trnsctrl.obj
 0001:000497ee       ?_CallMemberFunction0@@YGXPAX0@Z 0044a7ee f   LIBCMT:trnsctrl.obj
 0001:000497ee       ?_CallMemberFunction2@@YGXPAX00H@Z 0044a7ee f   LIBCMT:trnsctrl.obj
 0001:000497ee       ?_CallMemberFunction1@@YGXPAX00@Z 0044a7ee f   LIBCMT:trnsctrl.obj
 0001:000497f5       ?_UnwindNestedFrames@@YGXPAUEHRegistrationNode@@PAUEHExceptionRecord@@@Z 0044a7f5 f   LIBCMT:trnsctrl.obj
 0001:00049847       ___CxxFrameHandler         0044a847 f   LIBCMT:trnsctrl.obj
 0001:000498b8       ?_CallSETranslator@@YAHPAUEHExceptionRecord@@PAUEHRegistrationNode@@PAX2PBU_s_FuncInfo@@H1@Z 0044a8b8 f   LIBCMT:trnsctrl.obj
 0001:00049a31       ?_GetRangeOfTrysToCheck@@YAPBU_s_TryBlockMapEntry@@PBU_s_FuncInfo@@HHPAI1@Z 0044aa31 f   LIBCMT:trnsctrl.obj
 0001:00049aab       ?_CreateFrameInfo@@YAPAUFrameInfo@@PAU1@PAX@Z 0044aaab f   LIBCMT:trnsctrl.obj
 0001:00049ad3       ?IsExceptionObjectToBeDestroyed@@YAHPAX@Z 0044aad3 f   LIBCMT:trnsctrl.obj
 0001:00049af4       ?_FindAndUnlinkFrame@@YAXPAUFrameInfo@@@Z 0044aaf4 f   LIBCMT:trnsctrl.obj
 0001:00049b40       ?_CallCatchBlock2@@YAPAXPAUEHRegistrationNode@@PBU_s_FuncInfo@@PAXHK@Z 0044ab40 f   LIBCMT:trnsctrl.obj
 0001:00049b99       ??1type_info@@UAE@XZ       0044ab99 f   LIBCMT:typinfo.obj
 0001:00049bdf       ??_Etype_info@@UAEPAXI@Z   0044abdf f i LIBCMT:typinfo.obj
 0001:00049bdf       ??_Gtype_info@@UAEPAXI@Z   0044abdf f i LIBCMT:typinfo.obj
 0001:00049bfb       __fpclear                  0044abfb f   LIBCMT:fpinit.obj
 0001:00049bfc       __cfltcvt_init             0044abfc f   LIBCMT:fpinit.obj
 0001:00049c34       __fpmath                   0044ac34 f   LIBCMT:fpinit.obj
 0001:00049c52       _printf                    0044ac52 f   LIBCMT:printf.obj
 0001:00049cb8       __heap_alloc               0044acb8 f   LIBCMT:malloc.obj
 0001:00049d33       __nh_malloc                0044ad33 f   LIBCMT:malloc.obj
 0001:00049d5f       _malloc                    0044ad5f f   LIBCMT:malloc.obj
 0001:00049d71       ___mbstowcs_mt             0044ad71 f   LIBCMT:mbstowcs.obj
 0001:00049e6c       _mbstowcs                  0044ae6c f   LIBCMT:mbstowcs.obj
 0001:00049e97       _free                      0044ae97 f   LIBCMT:free.obj
 0001:00049f08       __fclose_lk                0044af08 f   LIBCMT:fclose.obj
 0001:00049f54       _fclose                    0044af54 f   LIBCMT:fclose.obj
 0001:00049fa5       _fgetc                     0044afa5 f   LIBCMT:fgetc.obj
 0001:00049ff5       __ftell_lk                 0044aff5 f   LIBCMT:ftell.obj
 0001:0004a157       _ftell                     0044b157 f   LIBCMT:ftell.obj
 0001:0004a198       __fseek_lk                 0044b198 f   LIBCMT:fseek.obj
 0001:0004a227       _fseek                     0044b227 f   LIBCMT:fseek.obj
 0001:0004a270       ?__ArrayUnwind@@YGXPAXIHP6EX0@Z@Z 0044b270 f   LIBCMT:ehvecdtr.obj
 0001:0004a2ce       ??_M@YGXPAXIHP6EX0@Z@Z     0044b2ce f   LIBCMT:ehvecdtr.obj
 0001:0004a32e       ??_V@YAXPAX@Z              0044b32e f   LIBCMT:delete2.obj
 0001:0004a333       ??2@YAPAXI@Z               0044b333 f   LIBCMT:new.obj
 0001:0004a341       ??_U@YAPAXI@Z              0044b341 f   LIBCMT:new2.obj
 0001:0004a346       ??_L@YGXPAXIHP6EX0@Z1@Z    0044b346 f   LIBCMT:ehvecctr.obj
 0001:0004a3a8       __purecall                 0044b3a8 f   LIBCMT:purevirt.obj
 0001:0004a3bc       __CxxThrowException@8      0044b3bc f   LIBCMT:throw.obj
 0001:0004a3f6       _isdigit                   0044b3f6 f   LIBCMT:_ctype.obj
 0001:0004a430       _isxdigit                  0044b430 f   LIBCMT:_ctype.obj
 0001:0004a46f       _isspace                   0044b46f f   LIBCMT:_ctype.obj
 0001:0004a4a9       _swscanf                   0044b4a9 f   LIBCMT:swscanf.obj
 0001:0004a4df       _wprintf                   0044b4df f   LIBCMT:wprintf.obj
 0001:0004a545       __amsg_exit                0044b545 f   LIBCMT:wcrt0.obj
 0001:0004a58e       _wmainCRTStartup           0044b58e f   LIBCMT:wcrt0.obj
 0001:0004a750       __allmul                   0044b750 f   LIBCMT:llmul.obj
 0001:0004a790       __alldiv                   0044b790 f   LIBCMT:lldiv.obj
 0001:0004a95a       __control87                0044b95a f   LIBCMT:ieee87.obj
 0001:0004a98c       __controlfp                0044b98c f   LIBCMT:ieee87.obj
 0001:0004a9a2       _swprintf                  0044b9a2 f   LIBCMT:swprintf.obj
 0001:0004aa11       ___crtExitProcess          0044ba11 f   LIBCMT:crt0dat.obj
 0001:0004aa41       __lockexit                 0044ba41 f   LIBCMT:crt0dat.obj
 0001:0004aa4a       __unlockexit               0044ba4a f   LIBCMT:crt0dat.obj
 0001:0004aa6b       __cinit                    0044ba6b f   LIBCMT:crt0dat.obj
 0001:0004ab98       _exit                      0044bb98 f   LIBCMT:crt0dat.obj
 0001:0004aba9       __exit                     0044bba9 f   LIBCMT:crt0dat.obj
 0001:0004abba       __cexit                    0044bbba f   LIBCMT:crt0dat.obj
 0001:0004abc9       __c_exit                   0044bbc9 f   LIBCMT:crt0dat.obj
 0001:0004abd8       ___freetlocinfo            0044bbd8 f   LIBCMT:setlocal.obj
 0001:0004ad69       __strcats                  0044bd69 f   LIBCMT:setlocal.obj
 0001:0004ad8d       ___lc_strtolc              0044bd8d f   LIBCMT:setlocal.obj
 0001:0004ae69       ___lc_lctostr              0044be69 f   LIBCMT:setlocal.obj
 0001:0004aeb7       ___updatetlocinfo          0044beb7 f   LIBCMT:setlocal.obj
 0001:0004afb1       __expandlocale             0044bfb1 f   LIBCMT:setlocal.obj
 0001:0004b575       _setlocale                 0044c575 f   LIBCMT:setlocal.obj
 0001:0004b74f       ___onexitinit              0044c74f f   LIBCMT:onexit.obj
 0001:0004b777       __onexit                   0044c777 f   LIBCMT:onexit.obj
 0001:0004b7af       _atexit                    0044c7af f   LIBCMT:onexit.obj
 0001:0004b7c1       _wcscat                    0044c7c1 f   LIBCMT:wcscat.obj
 0001:0004b7eb       _wcscpy                    0044c7eb f   LIBCMT:wcscat.obj
 0001:0004b807       _wcscmp                    0044c807 f   LIBCMT:wcscmp.obj
 0001:0004b839       ___towlower_mt             0044c839 f   LIBCMT:towlower.obj
 0001:0004b89a       _towlower                  0044c89a f   LIBCMT:towlower.obj
 0001:0004b8e5       _wcslen                    0044c8e5 f   LIBCMT:wcslen.obj
 0001:0004b8fb       ___towupper_mt             0044c8fb f   LIBCMT:towupper.obj
 0001:0004b95c       _towupper                  0044c95c f   LIBCMT:towupper.obj
 0001:0004b99f       _wcsncpy                   0044c99f f   LIBCMT:wcsncpy.obj
 0001:0004b9dc       _wcsncmp                   0044c9dc f   LIBCMT:wcsncmp.obj
 0001:0004ba11       _iswdigit                  0044ca11 f   LIBCMT:_wctype.obj
 0001:0004ba1f       _iswspace                  0044ca1f f   LIBCMT:_wctype.obj
 0001:0004bc0c       _wcstol                    0044cc0c f   LIBCMT:wcstol.obj
 0001:0004bc23       ?vswprintf@@YAHPA_WIPB_WPAD@Z 0044cc23 f   LIBCMT:vswprinn.obj
 0001:0004bc92       ?vswprintf@@YAHPAGIPBGPAD@Z 0044cc92 f   LIBCMT:vswprinn.obj
 0001:0004bc97       __wfsopen                  0044cc97 f   LIBCMT:wfopen.obj
 0001:0004bcf3       __wfopen                   0044ccf3 f   LIBCMT:wfopen.obj
 0001:0004bd06       ___toupper_mt              0044cd06 f   LIBCMT:toupper.obj
 0001:0004bdcf       _toupper                   0044cdcf f   LIBCMT:toupper.obj
 0001:0004bdf1       _wcschr                    0044cdf1 f   LIBCMT:wcschr.obj
 0001:0004be13       _fgets                     0044ce13 f   LIBCMT:fgets.obj
 0001:0004be99       _wcstok                    0044ce99 f   LIBCMT:wcstok.obj
 0001:0004bf3e       __fwrite_lk                0044cf3e f   LIBCMT:fwrite.obj
 0001:0004c045       _fwrite                    0044d045 f   LIBCMT:fwrite.obj
 0001:0004c091       __fread_lk                 0044d091 f   LIBCMT:fread.obj
 0001:0004c17a       _fread                     0044d17a f   LIBCMT:fread.obj
 0001:0004c1c6       _vfprintf                  0044d1c6 f   LIBCMT:vfprintf.obj
 0001:0004c223       __fsopen                   0044d223 f   LIBCMT:fopen.obj
 0001:0004c27f       _fopen                     0044d27f f   LIBCMT:fopen.obj
 0001:0004c292       _time                      0044d292 f   LIBCMT:time.obj
 0001:0004c2cb       _localtime                 0044d2cb f   LIBCMT:localtim.obj
 0001:0004c44b       _asctime                   0044d44b f   LIBCMT:asctime.obj
 0001:0004c5c3       ___FrameUnwindToState      0044d5c3 f   LIBCMT:frame.obj
 0001:0004c691       ___DestructExceptionObject 0044d691 f   LIBCMT:frame.obj
 0001:0004cd5e       ___InternalCxxFrameHandler 0044dd5e f   LIBCMT:frame.obj
 0001:0004ce00       ___crtTlsAlloc@4           0044de00 f   LIBCMT:tidtable.obj
 0001:0004ce09       __mtterm                   0044de09 f   LIBCMT:tidtable.obj
 0001:0004ce26       __getptd                   0044de26 f   LIBCMT:tidtable.obj
 0001:0004ce97       __freefls@4                0044de97 f   LIBCMT:tidtable.obj
 0001:0004cfde       __mtinit                   0044dfde f   LIBCMT:tidtable.obj
 0001:0004d0cd       ?terminate@@YAXXZ          0044e0cd f   LIBCMT:hooks.obj
 0001:0004d102       ?_inconsistency@@YAXXZ     0044e102 f   LIBCMT:hooks.obj
 0001:0004d130       __CallSettingFrame@12      0044e130 f   LIBCMT:lowhelpr.obj
 0001:0004d157       __NLG_Return               0044e157     LIBCMT:lowhelpr.obj
 0001:0004d17c       __mtinitlocks              0044e17c f   LIBCMT:mlock.obj
 0001:0004d1c5       __mtdeletelocks            0044e1c5 f   LIBCMT:mlock.obj
 0001:0004d21a       __unlock                   0044e21a f   LIBCMT:mlock.obj
 0001:0004d22f       __mtinitlocknum            0044e22f f   LIBCMT:mlock.obj
 0001:0004d2cf       __lock                     0044e2cf f   LIBCMT:mlock.obj
 0001:0004d300       __SEH_prolog               0044e300 f   LIBCMT:sehprolg.obj
 0001:0004d33b       __SEH_epilog               0044e33b f   LIBCMT:sehprolg.obj
 0001:0004d354       __except_handler3          0044e354 f   LIBCMT:exsup3.obj
 0001:0004d43a       __seh_longjmp_unwind@4     0044e43a f   LIBCMT:exsup3.obj
 0001:0004d460       _strcmp                    0044e460 f   LIBCMT:strcmp.obj
 0001:0004d4e8       __forcdecpt                0044e4e8 f   LIBCMT:cvt.obj
 0001:0004d524       __cropzeros                0044e524 f   LIBCMT:cvt.obj
 0001:0004d56f       __positive                 0044e56f f   LIBCMT:cvt.obj
 0001:0004d589       __fassign                  0044e589 f   LIBCMT:cvt.obj
 0001:0004d692       __cftoe                    0044e692 f   LIBCMT:cvt.obj
 0001:0004d79a       __cftof                    0044e79a f   LIBCMT:cvt.obj
 0001:0004d7fc       __cftog                    0044e7fc f   LIBCMT:cvt.obj
 0001:0004d896       __cfltcvt                  0044e896 f   LIBCMT:cvt.obj
 0001:0004d8e7       __setdefaultprecision      0044e8e7 f   LIBCMT:fp8.obj
 0001:0004d8f9       __ms_p5_test_fdiv          0044e8f9 f   LIBCMT:testfdiv.obj
 0001:0004d939       __ms_p5_mp_test_fdiv       0044e939 f   LIBCMT:testfdiv.obj
 0001:0004d962       ___initstdio               0044e962 f   LIBCMT:_file.obj
 0001:0004da0b       ___endstdio                0044ea0b f   LIBCMT:_file.obj
 0001:0004da1f       __lock_file                0044ea1f f   LIBCMT:_file.obj
 0001:0004da4e       __lock_file2               0044ea4e f   LIBCMT:_file.obj
 0001:0004da71       __unlock_file              0044ea71 f   LIBCMT:_file.obj
 0001:0004daa0       __unlock_file2             0044eaa0 f   LIBCMT:_file.obj
 0001:0004dac3       __stbuf                    0044eac3 f   LIBCMT:_sftbuf.obj
 0001:0004db4b       __ftbuf                    0044eb4b f   LIBCMT:_sftbuf.obj
 0001:0004dc03       __output                   0044ec03 f   LIBCMT:output.obj
 0001:0004e3fd       ___heap_select             0044f3fd f   LIBCMT:heapinit.obj
 0001:0004e417       __heap_init                0044f417 f   LIBCMT:heapinit.obj
 0001:0004e468       ___sbh_heap_init           0044f468 f   LIBCMT:sbheap.obj
 0001:0004e4b0       ___sbh_find_block          0044f4b0 f   LIBCMT:sbheap.obj
 0001:0004e4db       ___sbh_free_block          0044f4db f   LIBCMT:sbheap.obj
 0001:0004e7f3       ___sbh_alloc_new_region    0044f7f3 f   LIBCMT:sbheap.obj
 0001:0004e8aa       ___sbh_alloc_new_group     0044f8aa f   LIBCMT:sbheap.obj
 0001:0004e9b0       ___sbh_resize_block        0044f9b0 f   LIBCMT:sbheap.obj
 0001:0004ec8f       ___sbh_alloc_block         0044fc8f f   LIBCMT:sbheap.obj
 0001:0004ef8b       __callnewh                 0044ff8b f   LIBCMT:handler.obj
 0001:0004efb0       _strlen                    0044ffb0 f   LIBCMT:strlen.obj
 0001:0004f03b       __errno                    0045003b f   LIBCMT:dosmap.obj
 0001:0004f044       ___doserrno                00450044 f   LIBCMT:dosmap.obj
 0001:0004f04d       __dosmaperr                0045004d f   LIBCMT:dosmap.obj
 0001:0004f0c0       __close_lk                 004500c0 f   LIBCMT:close.obj
 0001:0004f143       __close                    00450143 f   LIBCMT:close.obj
 0001:0004f1de       __freebuf                  004501de f   LIBCMT:_freebuf.obj
 0001:0004f209       __flush                    00450209 f   LIBCMT:fflush.obj
 0001:0004f266       __fflush_lk                00450266 f   LIBCMT:fflush.obj
 0001:0004f369       __flushall                 00450369 f   LIBCMT:fflush.obj
 0001:0004f372       __filbuf                   00450372 f   LIBCMT:_filbuf.obj
 0001:0004f453       __ioinit                   00450453 f   LIBCMT:ioinit.obj
 0001:0004f651       __lseek_lk                 00450651 f   LIBCMT:lseek.obj
 0001:0004f6c5       __lseek                    004506c5 f   LIBCMT:lseek.obj
 0001:0004f770       ?__CxxUnhandledExceptionFilter@@YGJPAU_EXCEPTION_POINTERS@@@Z 00450770 f   LIBCMT:unhandld.obj
 0001:0004f7be       ?__CxxSetUnhandledExceptionFilter@@YAHXZ 004507be f   LIBCMT:unhandld.obj
 0001:0004f7d1       ?__CxxRestoreUnhandledExceptionFilter@@YAXXZ 004507d1 f   LIBCMT:unhandld.obj
 0001:0004f7de       ___isctype_mt              004507de f   LIBCMT:isctype.obj
 0001:0004f8b5       __winput                   004508b5 f   LIBCMT:winput.obj
 0001:00050761       __woutput                  00451761 f   LIBCMT:woutput.obj
 0001:00050f91       __NMSG_WRITE               00451f91 f   LIBCMT:crt0msg.obj
 0001:00051108       __FF_MSGBANNER             00452108 f   LIBCMT:crt0msg.obj
 0001:00051141       __XcptFilter               00452141 f   LIBCMT:winxfltr.obj
 0001:000512a5       __wsetenvp                 004522a5 f   LIBCMT:wstdenvp.obj
 0001:000514d8       __wsetargv                 004524d8 f   LIBCMT:wstdargv.obj
 0001:0005156e       ___crtGetEnvironmentStringsW 0045256e f   LIBCMT:w_env.obj
 0001:000516d8       ___crtGetCommandLineW      004526d8 f   LIBCMT:aw_com.obj
 0001:00051777       __RTC_Initialize           00452777 f   LIBCMT:initsect.obj
 0001:000517bb       __RTC_Terminate            004527bb f   LIBCMT:initsect.obj
 0001:00051800       __chkstk                   00452800 f   LIBCMT:chkstk.obj
 0001:00051800       __alloca_probe             00452800     LIBCMT:chkstk.obj
 0001:0005186b       _raise                     0045286b f   LIBCMT:winsig.obj
 0001:000519e4       __flsbuf                   004529e4 f   LIBCMT:_flsbuf.obj
 0001:00051e64       ___free_lc_time            00452e64 f   LIBCMT:inittime.obj
 0001:00051ff4       ___init_time               00452ff4 f   LIBCMT:inittime.obj
 0001:00052053       ___free_lconv_num          00453053 f   LIBCMT:initnum.obj
 0001:000520b2       ___init_numeric            004530b2 f   LIBCMT:initnum.obj
 0001:0005227f       ___free_lconv_mon          0045327f f   LIBCMT:initmon.obj
 0001:00052358       ___init_monetary           00453358 f   LIBCMT:initmon.obj
 0001:00052597       ___init_ctype              00453597 f   LIBCMT:initctyp.obj
 0001:00052781       ___init_dummy              00453781 f   LIBCMT:setlocal.obj
 0001:00052781       ___init_collate            00453781 f   LIBCMT:initcoll.obj
 0001:00052790       _strcpy                    00453790 f   LIBCMT:strcat.obj
 0001:000527a0       _strcat                    004537a0 f   LIBCMT:strcat.obj
 0001:00052890       _strcspn                   00453890 f   LIBCMT:strcspn.obj
 0001:000528e0       _strncpy                   004538e0 f   LIBCMT:strncpy.obj
 0001:00052a10       _memset                    00453a10 f   LIBCMT:memset.obj
 0001:00052a70       _memcpy                    00453a70 f   LIBCMT:memcpy.obj
 0001:000534ec       ___get_qualified_locale    004544ec f   LIBCMT:getqloc.obj
 0001:000536d2       @__security_check_cookie@4 004546d2 f   LIBCMT:secchk.obj
 0001:000536e0       _memcmp                    004546e0 f   LIBCMT:memcmp.obj
 0001:00053798       ___crtGetStringTypeA       00454798 f   LIBCMT:a_str.obj
 0001:00053960       _strncmp                   00454960 f   LIBCMT:strncmp.obj
 0001:000539a0       _strpbrk                   004549a0 f   LIBCMT:strpbrk.obj
 0001:000539e0       _realloc                   004549e0 f   LIBCMT:realloc.obj
 0001:00053b8d       __msize                    00454b8d f   LIBCMT:msize.obj
 0001:00053c03       ___crtLCMapStringW         00454c03 f   LIBCMT:w_map.obj
 0001:00053e5c       ___iswctype_mt             00454e5c f   LIBCMT:iswctype.obj
 0001:00053eb3       _iswctype                  00454eb3 f   LIBCMT:iswctype.obj
 0001:00053f05       __wchartodigit             00454f05 f   LIBCMT:wchtodig.obj
 0001:0005407b       __wopenfile                0045507b f   LIBCMT:_wopen.obj
 0001:000541ea       __getstream                004551ea f   LIBCMT:stream.obj
 0001:0005430c       ___crtLCMapStringA         0045530c f   LIBCMT:a_map.obj
 0001:000546c8       __write_lk                 004556c8 f   LIBCMT:write.obj
 0001:00054896       __write                    00455896 f   LIBCMT:write.obj
 0001:00054941       __read_lk                  00455941 f   LIBCMT:read.obj
 0001:00054b1c       __read                     00455b1c f   LIBCMT:read.obj
 0001:00054bc7       __openfile                 00455bc7 f   LIBCMT:_open.obj
 0001:00054d30       __aulldiv                  00455d30 f   LIBCMT:ulldiv.obj
 0001:0005537f       ___tzset                   0045637f f   LIBCMT:tzset.obj
 0001:000553cb       __isindst                  004563cb f   LIBCMT:tzset.obj
 0001:00055409       _gmtime                    00456409 f   LIBCMT:gmtime.obj
 0001:00055510       ?_ValidateRead@@YAHPBXI@Z  00456510 f   LIBCMT:validate.obj
 0001:0005552c       ?_ValidateWrite@@YAHPAXI@Z 0045652c f   LIBCMT:validate.obj
 0001:00055548       ?_ValidateExecute@@YAHP6GHXZ@Z 00456548 f   LIBCMT:validate.obj
 0001:00055560       _memmove                   00456560 f   LIBCMT:memmove.obj
 0001:0005589d       _calloc                    0045689d f   LIBCMT:calloc.obj
 0001:00055b3c       ___updatetmbcinfo          00456b3c f   LIBCMT:mbctype.obj
 0001:00055d3b       __setmbcp                  00456d3b f   LIBCMT:mbctype.obj
 0001:00055e8b       ___initmbctable            00456e8b f   LIBCMT:mbctype.obj
 0001:00055ea9       _abort                     00456ea9 f   LIBCMT:abort.obj
 0001:00055ed1       ___crtInitCritSecAndSpinCount 00456ed1 f   LIBCMT:initcrit.obj
 0001:00055f5c       __ValidateEH3RN            00456f5c f   LIBCMT:eh3valid.obj
 0001:00056185       ___tolower_mt              00457185 f   LIBCMT:tolower.obj
 0001:0005624d       _tolower                   0045724d f   LIBCMT:tolower.obj
 0001:0005626f       __ZeroTail                 0045726f f   LIBCMT:intrncvt.obj
 0001:000562a1       __IncMan                   004572a1 f   LIBCMT:intrncvt.obj
 0001:000562ee       __RoundMan                 004572ee f   LIBCMT:intrncvt.obj
 0001:00056360       __CopyMan                  00457360 f   LIBCMT:intrncvt.obj
 0001:0005637b       __IsZeroMan                0045737b f   LIBCMT:intrncvt.obj
 0001:00056394       __ShrMan                   00457394 f   LIBCMT:intrncvt.obj
 0001:0005640f       __ld12cvt                  0045740f f   LIBCMT:intrncvt.obj
 0001:00056567       __ld12tod                  00457567 f   LIBCMT:intrncvt.obj
 0001:0005657d       __ld12tof                  0045757d f   LIBCMT:intrncvt.obj
 0001:00056593       __atodbl                   00457593 f   LIBCMT:intrncvt.obj
 0001:000565d0       __atoflt                   004575d0 f   LIBCMT:intrncvt.obj
 0001:0005660d       __fptostr                  0045760d f   LIBCMT:_fptostr.obj
 0001:00056684       ___dtold                   00457684 f   LIBCMT:cfout.obj
 0001:0005673e       __fltout2                  0045773e f   LIBCMT:cfout.obj
 0001:000567aa       __fptrap                   004577aa f   LIBCMT:crt0fp.obj
 0001:000567b3       __fcloseall                004577b3 f   LIBCMT:closeall.obj
 0001:0005684e       __isatty                   0045784e f   LIBCMT:isatty.obj
 0001:00056878       ___wctomb_mt               00457878 f   LIBCMT:wctomb.obj
 0001:000568d8       _wctomb                    004578d8 f   LIBCMT:wctomb.obj
 0001:00056900       __aulldvrm                 00457900 f   LIBCMT:ulldvrm.obj
 0001:00056995       __set_osfhnd               00457995 f   LIBCMT:osfinfo.obj
 0001:00056a11       __free_osfhnd              00457a11 f   LIBCMT:osfinfo.obj
 0001:00056a90       __get_osfhandle            00457a90 f   LIBCMT:osfinfo.obj
 0001:00056ad1       __lock_fhandle             00457ad1 f   LIBCMT:osfinfo.obj
 0001:00056b71       __unlock_fhandle           00457b71 f   LIBCMT:osfinfo.obj
 0001:00056b93       __alloc_osfhnd             00457b93 f   LIBCMT:osfinfo.obj
 0001:00056d0f       __commit                   00457d0f f   LIBCMT:commit.obj
 0001:00056dcb       __getbuf                   00457dcb f   LIBCMT:_getbuf.obj
 0001:00056e0f       __getwc_lk                 00457e0f f   LIBCMT:fgetwc.obj
 0001:00056f03       __ungetwc_lk               00457f03 f   LIBCMT:ungetwc.obj
 0001:00057013       __resetstkoflw             00458013 f   LIBCMT:resetstk.obj
 0001:000570f6       ___wcstombs_mt             004580f6 f   LIBCMT:wcstombs.obj
 0001:000572a7       _wcstombs                  004582a7 f   LIBCMT:wcstombs.obj
 0001:000572d2       ___mbtowc_mt               004582d2 f   LIBCMT:mbtowc.obj
 0001:00057392       _mbtowc                    00458392 f   LIBCMT:mbtowc.obj
 0001:000573bd       __putwc_lk                 004583bd f   LIBCMT:fputwc.obj
 0001:00057493       ___crtMessageBoxA          00458493 f   LIBCMT:crtmbox.obj
 0001:00057590       ___ascii_stricmp           00458590 f   LIBCMT:_stricmp.obj
 0001:000575de       ___getlocaleinfo           004585de f   LIBCMT:inithelp.obj
 0001:00057705       __stricmp                  00458705 f   LIBCMT:stricmp.obj
 0001:0005776e       _atol                      0045876e f   LIBCMT:atox.obj
 0001:000577f6       __strnicmp                 004587f6 f   LIBCMT:strnicmp.obj
 0001:000578b3       __itoa                     004588b3 f   LIBCMT:xtoa.obj
 0001:000578dd       ___security_init_cookie    004588dd f   LIBCMT:seccinit.obj
 0001:00057943       ___security_error_handler  00458943 f   LIBCMT:secfail.obj
 0001:00057a8b       ___ansicp                  00458a8b f   LIBCMT:convrtcp.obj
 0001:00057ace       ___convertcp               00458ace f   LIBCMT:convrtcp.obj
 0001:00057c97       ___crtGetStringTypeW       00458c97 f   LIBCMT:w_str.obj
 0001:000581a4       __wsopen                   004591a4 f   LIBCMT:wopen.obj
 0001:000581f9       __lseeki64_lk              004591f9 f   LIBCMT:lseeki64.obj
 0001:00058563       __sopen                    00459563 f   LIBCMT:open.obj
 0001:000585b8       __getenv_lk                004595b8 f   LIBCMT:getenv.obj
 0001:00058639       ___addl                    00459639 f   LIBCMT:mantold.obj
 0001:0005865a       ___add_12                  0045965a f   LIBCMT:mantold.obj
 0001:000586b8       ___shl_12                  004596b8 f   LIBCMT:mantold.obj
 0001:000586e6       ___shr_12                  004596e6 f   LIBCMT:mantold.obj
 0001:00058713       ___mtold12                 00459713 f   LIBCMT:mantold.obj
 0001:000587f1       ___strgtold12              004597f1 f   LIBCMT:strgtold.obj
 0001:00058c25       _$I10_OUTPUT               00459c25 f   LIBCMT:x10fout.obj
 0001:00058eb3       __filwbuf                  00459eb3 f   LIBCMT:_filwbuf.obj
 0001:00058f9f       __ungetc_lk                00459f9f f   LIBCMT:ungetc.obj
 0001:0005900b       _ungetc                    0045a00b f   LIBCMT:ungetc.obj
 0001:00059050       __flswbuf                  0045a050 f   LIBCMT:_flswbuf.obj
 0001:00059178       ___crtGetLocaleInfoW       0045a178 f   LIBCMT:w_loc.obj
 0001:000592a8       ___crtGetLocaleInfoA       0045a2a8 f   LIBCMT:a_loc.obj
 0001:000593f0       ___ascii_strnicmp          0045a3f0 f   LIBCMT:_strnicm.obj
 0001:00059451       __chsize_lk                0045a451 f   LIBCMT:chsize.obj
 0001:00059592       __mbsnbicoll               0045a592 f   LIBCMT:mbsnbico.obj
 0001:000595e0       ___wtomb_environ           0045a5e0 f   LIBCMT:wtombenv.obj
 0001:00059670       ___ld12mul                 0045a670 f   LIBCMT:tenpow.obj
 0001:000598a2       ___multtenpow12            0045a8a2 f   LIBCMT:tenpow.obj
 0001:00059928       __setmode_lk               0045a928 f   LIBCMT:setmode.obj
 0001:000599b0       ___crtCompareStringA       0045a9b0 f   LIBCMT:a_cmp.obj
 0001:00059de2       ___crtsetenv               0045ade2 f   LIBCMT:setenv.obj
 0001:00059fb7       __strdup                   0045afb7 f   LIBCMT:strdup.obj
 0001:00059fe2       __mbschr                   0045afe2 f   LIBCMT:mbschr.obj
 0001:0005a070       _strchr                    0045b070 f   LIBCMT:strchr.obj
 0001:0005a076       ___from_strstr_to_strchr   0045b076     LIBCMT:strchr.obj
 0001:0005a1e4       ___intel_new_proc_init     0045b1e4 f   libirc:proc_init.obj
 0001:0005a20c       ___intel_new_proc_init.H   0045b20c f   libirc:proc_init.obj
 0001:0005a21c       ___intel_new_proc_init.A   0045b21c f   libirc:proc_init.obj
 0001:0005a220       ___intel_cpu_indicator_init 0045b220 f   libirc:cpu_disp.obj
 0001:0005a38c       _RtlUnwind@16              0045b38c f   kernel32:KERNEL32.dll
 0001:0005a394       ?DecReferences@IFXListNode@@QAEXXZ 0045b394 f   IFXCoreStatic:IFXListNode.obj
 0001:0005a3b8       ?IFXMatrix4x4_Multiply@@YAXPAMPBM1@Z 0045b3b8 f   IFXCoreStatic:IFXMatrix4x4.obj
 0001:0005a64c       ?IFXMatrix4x4_MakeIdentity@@YAXPAM@Z 0045b64c f   IFXCoreStatic:IFXMatrix4x4.obj
 0001:0005a6a8       ?IFXMatrix4x4_Scale@@YAXPAMPBM@Z 0045b6a8 f   IFXCoreStatic:IFXMatrix4x4.obj
 0001:0005a736       ?IFXMatrix4x4_Transpose@@YAXPAM@Z 0045b736 f   IFXCoreStatic:IFXMatrix4x4.obj
 0001:0005a784       ?IFXMatrix4x4_CalcDeterminant3x3@@YAMPBM@Z 0045b784 f   IFXCoreStatic:IFXMatrix4x4.obj
 0001:0005a7fe       ?CalcDeterminant3x3@@YAMMMMMMMMMM@Z 0045b7fe f   IFXCoreStatic:IFXMatrix4x4.obj
 0001:0005a850       ?IFXMatrix4x4_CalcDeterminant@@YAMPBM@Z 0045b850 f   IFXCoreStatic:IFXMatrix4x4.obj
 0001:0005a9dc       ?IFXMatrix4x4_Invert@@YAHPAMPBM@Z 0045b9dc f   IFXCoreStatic:IFXMatrix4x4.obj
 0001:0005b168       ?IFXMatrix4x4_Multiply3x4@@YAXPAMPBM1@Z 0045c168 f   IFXCoreStatic:IFXMatrix4x4.obj
 0001:0005b2f0       ??4IFXMatrix4x4@@QAEAAV0@ABVIFXQuaternion@@@Z 0045c2f0 f   IFXCoreStatic:IFXMatrix4x4.obj
 0001:0005b418       ?Scale@IFXMatrix4x4@@QAEAAV1@ABVIFXVector3@@@Z 0045c418 f   IFXCoreStatic:IFXMatrix4x4.obj
 0001:0005b4a6       ?Multiply3x4@IFXMatrix4x4@@QAEAAV1@ABV1@0@Z 0045c4a6 f   IFXCoreStatic:IFXMatrix4x4.obj
 0001:0005b4c2       ?Multiply@IFXMatrix4x4@@QAEAAV1@ABV1@0@Z 0045c4c2 f   IFXCoreStatic:IFXMatrix4x4.obj
 0001:0005b4de       ?Invert3x4@IFXMatrix4x4@@QAEHABV1@@Z 0045c4de f   IFXCoreStatic:IFXMatrix4x4.obj
 0001:0005b4f2       ?IFXMatrix4x4_Invert3x4@@YAHPAMPBM@Z 0045c4f2 f   IFXCoreStatic:IFXMatrix4x4.obj
 0001:0005b4fa       ?IFXMatrix4x4_Invert3x4.@@YAHPAMPBM@Z 0045c4fa f   IFXCoreStatic:IFXMatrix4x4.obj
 0001:0005b714       ?Invert@IFXMatrix4x4@@QAEHABV1@@Z 0045c714 f   IFXCoreStatic:IFXMatrix4x4.obj
 0001:0005b726       ?CalcDeterminant@IFXMatrix4x4@@QBEMXZ 0045c726 f   IFXCoreStatic:IFXMatrix4x4.obj
 0001:0005b8b4       ?CalcDeterminant3x3@IFXMatrix4x4@@QBEMXZ 0045c8b4 f   IFXCoreStatic:IFXMatrix4x4.obj
 0001:0005b8ca       ?CalcDeterminant3x3@IFXMatrix4x4@@SAMMMMMMMMMM@Z 0045c8ca f   IFXCoreStatic:IFXMatrix4x4.obj
 0001:0005b928       ?CalcTRS@IFXMatrix4x4@@QBEHPAVIFXVector3@@PAVIFXQuaternion@@0@Z 0045c928 f   IFXCoreStatic:IFXMatrix4x4.obj
 0001:0005b9ca       ?MakeIdentity@IFXMatrix4x4@@QAEAAV1@XZ 0045c9ca f   IFXCoreStatic:IFXMatrix4x4.obj
 0001:0005b9da       ?Decompose@IFXMatrix4x4@@QBEHAAVIFXVector3@@AAV1@0@Z 0045c9da f   IFXCoreStatic:IFXMatrix4x4.obj
 0001:0005c0a2       ?CalcAxisScale@IFXMatrix4x4@@QBEXAAVIFXVector3@@@Z 0045d0a2 f   IFXCoreStatic:IFXMatrix4x4.obj
 0001:0005c29c       ?Transpose@IFXMatrix4x4@@QAEXXZ 0045d29c f   IFXCoreStatic:IFXMatrix4x4.obj
 0001:0005c2a6       ?RotateAxis@IFXMatrix4x4@@QAEXABVIFXVector4@@M@Z 0045d2a6 f   IFXCoreStatic:IFXMatrix4x4.obj
 0001:0005c48c       ??4IFXTransform@@QAEAAV0@ABV0@@Z 0045d48c f   IFXCoreStatic:IFXTransform.obj
 0001:0005c5ba       ?Multiply@IFXTransform@@QAEAAV1@ABVIFXMatrix4x4@@@Z 0045d5ba f   IFXCoreStatic:IFXTransform.obj
 0001:0005c668       ?UpdateMatrix@IFXTransform@@QAEXXZ 0045d668 f   IFXCoreStatic:IFXTransform.obj
 0001:0005c8ca       ?Interpolate@IFXTransform@@QAEHMAAV1@0@Z 0045d8ca f   IFXCoreStatic:IFXTransform.obj
 0001:0005c9ca       ?UpdateQuaternion@IFXTransform@@AAEXXZ 0045d9ca f   IFXCoreStatic:IFXTransform.obj
 0001:0005ca0e       ?MakeIdentity@IFXTransform@@QAEXXZ 0045da0e f   IFXCoreStatic:IFXTransform.obj
 0001:0005cabe       ?MakeTRS@IFXTransform@@QAEXABVIFXVector3@@ABVIFXQuaternion@@0@Z 0045dabe f   IFXCoreStatic:IFXTransform.obj
 0001:0005cb34       ?CalcTRS@IFXTransform@@QAEHPAVIFXVector3@@PAVIFXQuaternion@@0@Z 0045db34 f   IFXCoreStatic:IFXTransform.obj
 0001:0005cbb2       ?GetMatrixData@IFXTransform@@QAEPAMW4IFXReadWrite@@@Z 0045dbb2 f   IFXCoreStatic:IFXTransform.obj
 0001:0005cbea       ?Quaternion@IFXTransform@@QAEAAVIFXQuaternion@@W4IFXReadWrite@@@Z 0045dbea f   IFXCoreStatic:IFXTransform.obj
 0001:0005cc28       ?SetScale@IFXTransform@@QAEXABVIFXVector3@@@Z 0045dc28 f   IFXCoreStatic:IFXTransform.obj
 0001:0005cc6e       ?UpdateMatrixInverse@IFXTransform@@AAEXXZ 0045dc6e f   IFXCoreStatic:IFXTransform.obj
 0001:0005cefc       ?ReverseRotateVectorByQuat@IFXTransform@@AAEXPBMAAVIFXVector3@@@Z 0045defc f   IFXCoreStatic:IFXTransform.obj
 0001:0005d194       ??_EIFXUnitAllocator@@QAEPAXI@Z 0045e194 f i IFXCoreStatic:IFXCoreList.obj
 0001:0005d194       ??_GIFXUnitAllocator@@QAEPAXI@Z 0045e194 f i IFXCoreStatic:IFXCoreList.obj
 0001:0005d1b8       ??_EIFXCoreList@@UAEPAXI@Z 0045e1b8 f i IFXCoreStatic:IFXCoreList.obj
 0001:0005d1b8       ??_GIFXCoreList@@UAEPAXI@Z 0045e1b8 f i IFXCoreStatic:IFXCoreList.obj
 0001:0005d1dc       ??1IFXCoreList@@UAE@XZ     0045e1dc f   IFXCoreStatic:IFXCoreList.obj
 0001:0005d20e       ??0IFXCoreList@@QAE@XZ     0045e20e f   IFXCoreStatic:IFXCoreList.obj
 0001:0005d2c2       ?Clear@IFXCoreList@@QAEXXZ 0045e2c2 f   IFXCoreStatic:IFXCoreList.obj
 0001:0005d2e6       ?CoreRemoveNode@IFXCoreList@@IAEHPAVIFXListNode@@@Z 0045e2e6 f   IFXCoreStatic:IFXCoreList.obj
 0001:0005d32c       ?InternalDetachNode@IFXCoreList@@AAEXPAVIFXListNode@@@Z 0045e32c f   IFXCoreStatic:IFXCoreList.obj
 0001:0005d356       ?RemoveAll@IFXCoreList@@QAEXXZ 0045e356 f   IFXCoreStatic:IFXCoreList.obj
 0001:0005d37a       ?Deallocate@IFXCoreList@@SAXPAX@Z 0045e37a f   IFXCoreStatic:IFXCoreList.obj
 0001:0005d3a4       ?CoreRemove@IFXCoreList@@IAEHPAXAAVIFXListContext@@@Z 0045e3a4 f   IFXCoreStatic:IFXCoreList.obj
 0001:0005d46a       ?CoreRemove@IFXCoreList@@IAEHPAX@Z 0045e46a f   IFXCoreStatic:IFXCoreList.obj
 0001:0005d5f2       ?InternalPostIncrement@IFXCoreList@@ABEPAXAAVIFXListContext@@@Z 0045e5f2 f   IFXCoreStatic:IFXCoreList.obj
 0001:0005d710       ?InternalToHead@IFXCoreList@@ABEPAXAAVIFXListContext@@@Z 0045e710 f   IFXCoreStatic:IFXCoreList.obj
 0001:0005d742       ?InternalGetCurrent@IFXCoreList@@ABEPAXAAVIFXListContext@@@Z 0045e742 f   IFXCoreStatic:IFXCoreList.obj
 0001:0005d7b6       ?CoreSearchForElement@IFXCoreList@@IBEPAXAAVIFXListContext@@PAX@Z 0045e7b6 f   IFXCoreStatic:IFXCoreList.obj
 0001:0005d866       ?CoreGetElement@IFXCoreList@@IBEPAXJ@Z 0045e866 f   IFXCoreStatic:IFXCoreList.obj
 0001:0005d98a       ?CoreInsert@IFXCoreList@@IAEPAPAXHAAVIFXListContext@@PAXPAVIFXListNode@@@Z 0045e98a f   IFXCoreStatic:IFXCoreList.obj
 0001:0005dabe       ?CoreMoveNode@IFXCoreList@@IAEHHAAVIFXListContext@@0@Z 0045eabe f   IFXCoreStatic:IFXCoreList.obj
 0001:0005dc60       ??4IFXQuaternion@@QAEAAV0@ABVIFXMatrix4x4@@@Z 0045ec60 f   IFXCoreStatic:IFXQuaternion.obj
 0001:0005dec4       ?MakeRotation@IFXQuaternion@@QAEXMW4IFXAxisID@@@Z 0045eec4 f   IFXCoreStatic:IFXQuaternion.obj
 0001:0005df16       ?MakeRotation@IFXQuaternion@@QAEXMABVIFXVector3@@@Z 0045ef16 f   IFXCoreStatic:IFXQuaternion.obj
 0001:0005e060       ?MakeRotation@IFXQuaternion@@QAEXABVIFXVector3@@0@Z 0045f060 f   IFXCoreStatic:IFXQuaternion.obj
 0001:0005e346       ?ComputeAngleAxis@IFXQuaternion@@QBEXAAMAAVIFXVector3@@@Z 0045f346 f   IFXCoreStatic:IFXQuaternion.obj
 0001:0005e44a       ?Interpolate@IFXQuaternion@@QAEXMABV1@0@Z 0045f44a f   IFXCoreStatic:IFXQuaternion.obj
 0001:0005e684       ?ExtractEulerZ@IFXQuaternion@@QAEMXZ 0045f684 f   IFXCoreStatic:IFXQuaternion.obj
 0001:0005e8fe       ?ForcePositiveW@IFXQuaternion@@QAEXXZ 0045f8fe f   IFXCoreStatic:IFXQuaternion.obj
 0001:0005e930       ?Interpolate@IFXVector3@@QAEXMABV1@0@Z 0045f930 f   IFXCoreStatic:IFXVector3.obj
 0001:0005e97e       ?Out@IFXVector3@@QBE?AVIFXString@@H@Z 0045f97e f   IFXCoreStatic:IFXVector3.obj
 0001:0005ea00       ??0IFXUnitAllocator@@QAE@XZ 0045fa00 f   IFXCoreStatic:IFXUnitAllocator.obj
 0001:0005ea26       ??1IFXUnitAllocator@@QAE@XZ 0045fa26 f   IFXCoreStatic:IFXUnitAllocator.obj
 0001:0005ea2c       ?Destroy@IFXUnitAllocator@@AAEHXZ 0045fa2c f   IFXCoreStatic:IFXUnitAllocator.obj
 0001:0005ea92       ?Grow@IFXUnitAllocator@@AAEPAEXZ 0045fa92 f   IFXCoreStatic:IFXUnitAllocator.obj
 0001:0005eada       ?ThreadMemory@IFXUnitAllocator@@AAEHPAE@Z 0045fada f   IFXCoreStatic:IFXUnitAllocator.obj
 0001:0005eb08       ?Initialize@IFXUnitAllocator@@QAEHIII@Z 0045fb08 f   IFXCoreStatic:IFXUnitAllocator.obj
 0001:0005eb74       _sqrt                      0045fb74 f   libmmt:sqrt_stub.omu
 0001:0005eb9c       _cos                       0045fb9c f   libmmt:cos_stub.omu
 0001:0005ebc4       _sin                       0045fbc4 f   libmmt:sin_stub.omu
 0001:0005ebec       _acos                      0045fbec f   libmmt:acos_stub.omu
 0001:0005ec14       _atan2                     0045fc14 f   libmmt:atan2_stub.omu
 0001:0005ec3c       _sqrt.J                    0045fc3c f   libmmt:sqrt_wmt.omu
 0001:0005ecbc       _sqrt.A                    0045fcbc f   libmmt:sqrt_gen.omu
 0001:0005ed38       _cos.J                     0045fd38 f   libmmt:cos_wmt.omu
 0001:0005ef04       _cos.A                     0045ff04 f   libmmt:cos_gen.omu
 0001:0005f3bc       _sin.J                     004603bc f   libmmt:sin_wmt.omu
 0001:0005f5a0       _sin.A                     004605a0 f   libmmt:sin_gen.omu
 0001:0005fab4       _acos.J                    00460ab4 f   libmmt:acos_wmt.omu
 0001:0005ffd0       _acos.A                    00460fd0 f   libmmt:acos_gen.omu
 0001:00060408       _atan2.J                   00461408 f   libmmt:atan2_wmt.omu
 0001:00060a04       _atan2.A                   00461a04 f   libmmt:atan2_gen.omu
 0001:00060a90       ___libm_error_support      00461a90 f   libmmt:libm_error.omu
 0001:000678c4       ___libm_sincos_huge        004688c4 f   libmmt:libm_sincos_huge.omu
 0001:00067de4       ___libm_reduce_pi04l       00468de4 f   libmmt:libm_reduce_pi04l.omu
 0001:000681d0       _matherr                   004691d0 f   libmmt:matherr.omu
 0001:000681d0       _matherrf                  004691d0 f   libmmt:matherrf.omu
 0001:000681d0       _matherrl                  004691d0 f   libmmt:matherrl.omu
 0001:000681d8       _sprintf                   004691d8 f   LIBCMT:sprintf.obj
 0001:00068230       _fputs                     00469230 f   LIBCMT:fputs.obj
 0002:00000000       __VInfreq_??1BlockParser@U3D_IDTF@@UAE@XZ 0046a000     BlockParser.obj
 0002:0000001c       __VInfreq__wmain           0046a01c     ConverterDriver.obj
 0002:000000c4       __VInfreq_??1FileParser@U3D_IDTF@@UAE@XZ 0046a0c4     FileParser.obj
 0002:000000f0       __VInfreq_??0FileParser@U3D_IDTF@@QAE@XZ 0046a0f0     FileParser.obj
 0002:0000010a       __VInfreq_?ParseFileHeader@FileParser@U3D_IDTF@@QAEHPAVIFXString@@PAH@Z 0046a10a     FileParser.obj
 0002:00000124       __VInfreq_?ParseFileReference@FileParser@U3D_IDTF@@QAEHPAVFileReference@2@@Z 0046a124     FileParser.obj
 0002:0000013e       __VInfreq_?ParseNodes@FileParser@U3D_IDTF@@QAEHPAVNodeList@2@@Z 0046a13e     FileParser.obj
 0002:00000158       __VInfreq_?MakeNode@U3D_IDTF@@YAPAVNode@1@ABVIFXString@@@Z 0046a158     FileParser.obj
 0002:00000378       __VInfreq_?ParseNode@FileParser@U3D_IDTF@@IAEHPAVNode@2@@Z 0046a378     FileParser.obj
 0002:00000392       __VInfreq_?ParseResources@FileParser@U3D_IDTF@@QAEHPAVSceneResources@2@@Z 0046a392     FileParser.obj
 0002:000003ac       __VInfreq_?ParseResourceList@FileParser@U3D_IDTF@@IAEHPAVResourceList@2@@Z 0046a3ac     FileParser.obj
 0002:000003c6       __VInfreq_?ParseModifiers@FileParser@U3D_IDTF@@QAEHPAVModifierList@2@@Z 0046a3c6     FileParser.obj
 0002:000003e0       __VInfreq_?MakeModifier@U3D_IDTF@@YAPAVModifier@1@ABVIFXString@@@Z 0046a3e0     FileParser.obj
 0002:0000068a       __VInfreq_?ParseModifier@FileParser@U3D_IDTF@@IAEHPAVModifier@2@@Z 0046a68a     FileParser.obj
 0002:000014f4       __VInfreq_?Convert@FileReferenceConverter@U3D_IDTF@@UAEHXZ 0046b4f4     FileReferenceConverter.obj
 0002:000016a0       __VInfreq_??1FileReferenceParser@U3D_IDTF@@UAE@XZ 0046b6a0     FileReferenceParser.obj
 0002:000016ba       __VInfreq_??0FileReferenceParser@U3D_IDTF@@QAE@PAVFileScanner@1@PAVFileReference@1@@Z 0046b6ba     FileReferenceParser.obj
 0002:000016d4       __VInfreq_?Parse@FileReferenceParser@U3D_IDTF@@QAEHXZ 0046b6d4     FileReferenceParser.obj
 0002:00001760       __VInfreq_?ParseFilterList@FileReferenceParser@U3D_IDTF@@AAEHXZ 0046b760     FileReferenceParser.obj
 0002:0000177a       __VInfreq_?ParseFilter@FileReferenceParser@U3D_IDTF@@AAEHAAVFilter@2@@Z 0046b77a     FileReferenceParser.obj
 0002:000017fc       __VInfreq_??1FileScanner@U3D_IDTF@@UAE@XZ 0046b7fc     FileScanner.obj
 0002:0000182a       __VInfreq_??0FileScanner@U3D_IDTF@@QAE@XZ 0046b82a     FileScanner.obj
 0002:00001846       __VInfreq_?ScanToken@FileScanner@U3D_IDTF@@QAEHPBG@Z 0046b846     FileScanner.obj
 0002:00001860       __VInfreq_?ScanHex@FileScanner@U3D_IDTF@@QAEHPAH@Z 0046b860     FileScanner.obj
 0002:0000187a       __VInfreq_?ScanFloat@FileScanner@U3D_IDTF@@QAEHPAM@Z 0046b87a     FileScanner.obj
 0002:00001894       __VInfreq_?ScanInteger@FileScanner@U3D_IDTF@@QAEHPAH@Z 0046b894     FileScanner.obj
 0002:000018b0       __VInfreq_??1LineSetConverter@U3D_IDTF@@UAE@XZ 0046b8b0     LineSetConverter.obj
 0002:000018ca       __VInfreq_?Convert@LineSetConverter@U3D_IDTF@@UAEHXZ 0046b8ca     LineSetConverter.obj
 0002:00001910       __VInfreq_??1LineSetResourceParser@U3D_IDTF@@UAE@XZ 0046b910     LineSetResourceParser.obj
 0002:0000192a       __VInfreq_?ParseLineTextureCoords@LineSetResourceParser@U3D_IDTF@@IAEHXZ 0046b92a     LineSetResourceParser.obj
 0002:00001944       __VInfreq_??1MaterialParser@U3D_IDTF@@UAE@XZ 0046b944     MaterialParser.obj
 0002:0000195e       __VInfreq_??0MaterialParser@U3D_IDTF@@QAE@PAVFileScanner@1@PAVMaterial@1@@Z 0046b95e     MaterialParser.obj
 0002:00001978       __VInfreq_??1MeshConverter@U3D_IDTF@@UAE@XZ 0046b978     MeshConverter.obj
 0002:00001992       __VInfreq_?Convert@MeshConverter@U3D_IDTF@@UAEHXZ 0046b992     MeshConverter.obj
 0002:000019e8       __VInfreq_??1MeshResourceParser@U3D_IDTF@@UAE@XZ 0046b9e8     MeshResourceParser.obj
 0002:00001a02       __VInfreq_?ParseFaceTextureCoords@MeshResourceParser@U3D_IDTF@@QAEHXZ 0046ba02     MeshResourceParser.obj
 0002:00001a1c       __VInfreq_?ParseMetaData@MetaDataParser@U3D_IDTF@@QAEHPAVMetaDataList@2@@Z 0046ba1c     MetaDataParser.obj
 0002:00001a36       __VInfreq_?ParseMetaDataItem@MetaDataParser@U3D_IDTF@@AAEHPAVMetaData@2@@Z 0046ba36     MetaDataParser.obj
 0002:00001a70       __VInfreq_?ConvertBone@ModelConverter@U3D_IDTF@@IAEHPAVIFXSkeleton@@IABUBoneInfo@2@@Z 0046ba70     ModelConverter.obj
 0002:00001ace       __VInfreq_?GetBoneIdx@ModelConverter@U3D_IDTF@@IAEHPAVIFXSkeleton@@ABVIFXString@@@Z 0046bace     ModelConverter.obj
 0002:00001bb8       __VInfreq_??1ModelResourceParser@U3D_IDTF@@UAE@XZ 0046bbb8     ModelResourceParser.obj
 0002:00001bd2       __VInfreq_?ParseShadingDescriptions@ModelResourceParser@U3D_IDTF@@QAEHXZ 0046bbd2     ModelResourceParser.obj
 0002:00001c1c       __VInfreq_?ParseSkeleton@ModelResourceParser@U3D_IDTF@@QAEHXZ 0046bc1c     ModelResourceParser.obj
 0002:00001c8a       __VInfreq_?ParseInt2List@ModelResourceParser@U3D_IDTF@@IAEHPBGHAAV?$IFXArray@VInt2@U3D_IDTF@@@@@Z 0046bc8a     ModelResourceParser.obj
 0002:00001ca4       __VInfreq_?ParseInt3List@ModelResourceParser@U3D_IDTF@@IAEHPBGHAAV?$IFXArray@VInt3@U3D_IDTF@@@@@Z 0046bca4     ModelResourceParser.obj
 0002:00001cbe       __VInfreq_?ParsePointList@ModelResourceParser@U3D_IDTF@@IAEHPBGHAAV?$IFXArray@VPoint@U3D_IDTF@@@@@Z 0046bcbe     ModelResourceParser.obj
 0002:00001cd8       __VInfreq_?ParseColorList@ModelResourceParser@U3D_IDTF@@IAEHPBGHAAV?$IFXArray@VColor@U3D_IDTF@@@@@Z 0046bcd8     ModelResourceParser.obj
 0002:00001da8       __VInfreq_?ConvertGlyphModifier@ModifierConverter@U3D_IDTF@@IAEHPBVGlyphModifier@2@@Z 0046bda8     ModifierConverter.obj
 0002:00001de8       __VInfreq_?ConvertSubdivisionModifier@ModifierConverter@U3D_IDTF@@IAEHPBVSubdivisionModifier@2@@Z 0046bde8     ModifierConverter.obj
 0002:00001e20       __VInfreq_?ConvertCLODModifier@ModifierConverter@U3D_IDTF@@IAEHPBVCLODModifier@2@@Z 0046be20     ModifierConverter.obj
 0002:00001e58       __VInfreq_?ConvertBoneWeightModifier@ModifierConverter@U3D_IDTF@@IAEHPBVBoneWeightModifier@2@@Z 0046be58     ModifierConverter.obj
 0002:00001ec0       __VInfreq_?ConvertShadingModifier@ModifierConverter@U3D_IDTF@@IAEHPBVShadingModifier@2@@Z 0046bec0     ModifierConverter.obj
 0002:00001f16       __VInfreq_?ConvertAnimationModifier@ModifierConverter@U3D_IDTF@@IAEHPBVAnimationModifier@2@@Z 0046bf16     ModifierConverter.obj
 0002:00001f50       __VInfreq_??1ModifierParser@U3D_IDTF@@UAE@XZ 0046bf50     ModifierParser.obj
 0002:00001f6a       __VInfreq_??0ModifierParser@U3D_IDTF@@QAE@PAVFileScanner@1@PAVModifier@1@@Z 0046bf6a     ModifierParser.obj
 0002:00001f84       __VInfreq_?Parse@ModifierParser@U3D_IDTF@@QAEHXZ 0046bf84     ModifierParser.obj
 0002:00001f9e       __VInfreq_?ParseCommonModifierData@ModifierParser@U3D_IDTF@@IAEHXZ 0046bf9e     ModifierParser.obj
 0002:00001fc6       __VInfreq_?ParseGlyphModifier@ModifierParser@U3D_IDTF@@IAEHXZ 0046bfc6     ModifierParser.obj
 0002:0000213e       __VInfreq_?ParseSubdivisionModifier@ModifierParser@U3D_IDTF@@IAEHXZ 0046c13e     ModifierParser.obj
 0002:0000217e       __VInfreq_?ParseCLODModifier@ModifierParser@U3D_IDTF@@IAEHXZ 0046c17e     ModifierParser.obj
 0002:000021ae       __VInfreq_?ParseBoneWeightModifier@ModifierParser@U3D_IDTF@@IAEHXZ 0046c1ae     ModifierParser.obj
 0002:0000224e       __VInfreq_?ParseAnimationModifier@ModifierParser@U3D_IDTF@@IAEHXZ 0046c24e     ModifierParser.obj
 0002:00002342       __VInfreq_?ParseShadingModifier@ModifierParser@U3D_IDTF@@IAEHXZ 0046c342     ModifierParser.obj
 0002:00002404       __VInfreq_?ParseShaderList@ModifierParser@U3D_IDTF@@AAEHPAVShaderList@2@@Z 0046c404     ModifierParser.obj
 0002:00002420       __VInfreq_?Convert@NodeConverter@U3D_IDTF@@UAEHXZ 0046c420     NodeConverter.obj
 0002:00002458       __VInfreq_?ConvertGroup@NodeConverter@U3D_IDTF@@AAEHPBVNode@2@@Z 0046c458     NodeConverter.obj
 0002:00002472       __VInfreq_?ConvertParentList@NodeConverter@U3D_IDTF@@AAEHPAVIFXNode@@ABVParentList@2@@Z 0046c472     NodeConverter.obj
 0002:0000248c       __VInfreq_?ConvertView@NodeConverter@U3D_IDTF@@AAEHPBVViewNode@2@@Z 0046c48c     NodeConverter.obj
 0002:00002506       __VInfreq_?ConvertLight@NodeConverter@U3D_IDTF@@AAEHPBVLightNode@2@@Z 0046c506     NodeConverter.obj
 0002:00002520       __VInfreq_?ConvertModel@NodeConverter@U3D_IDTF@@AAEHPBVModelNode@2@@Z 0046c520     NodeConverter.obj
 0002:0000253c       __VInfreq_??1NodeParser@U3D_IDTF@@UAE@XZ 0046c53c     NodeParser.obj
 0002:00002556       __VInfreq_??0NodeParser@U3D_IDTF@@QAE@PAVFileScanner@1@PAVNode@1@@Z 0046c556     NodeParser.obj
 0002:00002570       __VInfreq_?Parse@NodeParser@U3D_IDTF@@QAEHXZ 0046c570     NodeParser.obj
 0002:000025a8       __VInfreq_?ParseParentList@NodeParser@U3D_IDTF@@IAEHPAVParentList@2@@Z 0046c5a8     NodeParser.obj
 0002:000025d6       __VInfreq_?ParseParentData@NodeParser@U3D_IDTF@@IAEHPAVParentData@2@@Z 0046c5d6     NodeParser.obj
 0002:000025f0       __VInfreq_?ParseModelNodeData@NodeParser@U3D_IDTF@@IAEHXZ 0046c5f0     NodeParser.obj
 0002:0000260a       __VInfreq_?ParseViewNodeData@NodeParser@U3D_IDTF@@IAEHXZ 0046c60a     NodeParser.obj
 0002:0000274c       __VInfreq_?ParseViewTexture@NodeParser@U3D_IDTF@@IAEHPAUViewTexture@2@@Z 0046c74c     NodeParser.obj
 0002:00002784       __VInfreq_??1PointSetConverter@U3D_IDTF@@UAE@XZ 0046c784     PointSetConverter.obj
 0002:0000279e       __VInfreq_?Convert@PointSetConverter@U3D_IDTF@@UAEHXZ 0046c79e     PointSetConverter.obj
 0002:000027e4       __VInfreq_??1PointSetResourceParser@U3D_IDTF@@UAE@XZ 0046c7e4     PointSetResourceParser.obj
 0002:00002800       __VInfreq_?ConvertViewResources@ResourceConverter@U3D_IDTF@@AAEHXZ 0046c800     ResourceConverter.obj
 0002:00002846       __VInfreq_?ConvertLightResources@ResourceConverter@U3D_IDTF@@AAEHXZ 0046c846     ResourceConverter.obj
 0002:0000287e       __VInfreq_?ConvertMotionResources@ResourceConverter@U3D_IDTF@@AAEHXZ 0046c87e     ResourceConverter.obj
 0002:000028b6       __VInfreq_?ConvertKeyFrames@ResourceConverter@U3D_IDTF@@AAEHIPAVIFXMotionResource@@ABVMotionTrack@2@@Z 0046c8b6     ResourceConverter.obj
 0002:000028d8       __VInfreq_?ConvertTextureResources@ResourceConverter@U3D_IDTF@@AAEHXZ 0046c8d8     ResourceConverter.obj
 0002:000028f2       __VInfreq_?ConvertMaterial@ResourceConverter@U3D_IDTF@@AAEHABVMaterial@2@@Z 0046c8f2     ResourceConverter.obj
 0002:0000292a       __VInfreq_?ConvertModelResources@ResourceConverter@U3D_IDTF@@AAEHXZ 0046c92a     ResourceConverter.obj
 0002:00002968       __VInfreq_?ConvertShader@ResourceConverter@U3D_IDTF@@AAEHABVShader@2@@Z 0046c968     ResourceConverter.obj
 0002:000029a0       __VInfreq_?ConvertTextureLayer@ResourceConverter@U3D_IDTF@@AAEHABVTextureLayer@2@PAVIFXShaderLitTexture@@@Z 0046c9a0     ResourceConverter.obj
 0002:000029bc       __VInfreq_??1ResourceListParser@U3D_IDTF@@UAE@XZ 0046c9bc     ResourceListParser.obj
 0002:000029e8       __VInfreq_??0ResourceListParser@U3D_IDTF@@QAE@PAVFileScanner@1@PAVResourceList@1@@Z 0046c9e8     ResourceListParser.obj
 0002:00002a14       __VInfreq_?ParseLightResource@ResourceListParser@U3D_IDTF@@IAEHXZ 0046ca14     ResourceListParser.obj
 0002:00002ae2       __VInfreq_?ParseViewResource@ResourceListParser@U3D_IDTF@@IAEHXZ 0046cae2     ResourceListParser.obj
 0002:00002ba0       __VInfreq_?ParseModelResource@ResourceListParser@U3D_IDTF@@IAEHXZ 0046cba0     ResourceListParser.obj
 0002:00002bba       __VInfreq_?ParseLineSetResource@ResourceListParser@U3D_IDTF@@IAEHXZ 0046cbba     ResourceListParser.obj
 0002:00002db4       __VInfreq_?ParsePointSetResource@ResourceListParser@U3D_IDTF@@IAEHXZ 0046cdb4     ResourceListParser.obj
 0002:00002fae       __VInfreq_?ParseMeshResource@ResourceListParser@U3D_IDTF@@IAEHXZ 0046cfae     ResourceListParser.obj
 0002:000031a8       __VInfreq_?ParseMaterialResource@ResourceListParser@U3D_IDTF@@IAEHXZ 0046d1a8     ResourceListParser.obj
 0002:00003338       __VInfreq_?ParseTextureResource@ResourceListParser@U3D_IDTF@@IAEHXZ 0046d338     ResourceListParser.obj
 0002:0000342a       __VInfreq_?ParseMotionResource@ResourceListParser@U3D_IDTF@@IAEHXZ 0046d42a     ResourceListParser.obj
 0002:00003548       __VInfreq_?ParseShaderResource@ResourceListParser@U3D_IDTF@@IAEHXZ 0046d548     ResourceListParser.obj
 0002:00004c00       __VInfreq_??1SceneConverter@U3D_IDTF@@UAE@XZ 0046ec00     SceneConverter.obj
 0002:00004c46       __VInfreq_??0SceneConverter@U3D_IDTF@@QAE@PAVFileParser@1@PAVSceneUtilities@1@PAUConverterOptions@1@@Z 0046ec46     SceneConverter.obj
 0002:00004c8c       __VInfreq_?CheckFileHeader@SceneConverter@U3D_IDTF@@IAEHXZ 0046ec8c     SceneConverter.obj
 0002:00004ca6       __VInfreq_?ConvertSceneData@SceneConverter@U3D_IDTF@@IAEHXZ 0046eca6     SceneConverter.obj
 0002:00004cfe       __VInfreq_?ConvertFileReference@SceneConverter@U3D_IDTF@@IAEHXZ 0046ecfe     SceneConverter.obj
 0002:00004d2a       __VInfreq_?ConvertScene@SceneConverter@U3D_IDTF@@IAEHXZ 0046ed2a     SceneConverter.obj
 0002:00004dbc       __VInfreq_??1ShaderParser@U3D_IDTF@@UAE@XZ 0046edbc     ShaderParser.obj
 0002:00004dd6       __VInfreq_?Parse@ShaderParser@U3D_IDTF@@QAEHXZ 0046edd6     ShaderParser.obj
 0002:00004e94       __VInfreq_?Convert@TextureConverter@U3D_IDTF@@UAEHXZ 0046ee94     TextureConverter.obj
 0002:00004f4a       __VInfreq_?SetImageProperties@TextureConverter@U3D_IDTF@@AAEHPAVIFXTextureObject@@@Z 0046ef4a     TextureConverter.obj
 0002:00005020       __VInfreq_??1TextureParser@U3D_IDTF@@UAE@XZ 0046f020     TextureParser.obj
 0002:0000503a       __VInfreq_??0TextureParser@U3D_IDTF@@QAE@PAVFileScanner@1@PAVTexture@1@@Z 0046f03a     TextureParser.obj
 0002:00005054       __VInfreq_?Parse@TextureParser@U3D_IDTF@@QAEHXZ 0046f054     TextureParser.obj
 0002:000051dc       __VInfreq_?ParseImageFormat@TextureParser@U3D_IDTF@@AAEHXZ 0046f1dc     TextureParser.obj
 0002:0000536c       __VInfreq_??1UrlListParser@U3D_IDTF@@UAE@XZ 0046f36c     UrlListParser.obj
 0002:00005386       __VInfreq_??0UrlListParser@U3D_IDTF@@QAE@PAVFileScanner@1@PAVUrlList@1@@Z 0046f386     UrlListParser.obj
 0002:000053a0       __VInfreq_?Parse@UrlListParser@U3D_IDTF@@QAEHXZ 0046f3a0     UrlListParser.obj
 0002:000053bc       __VInfreq_@IFXOSGetCoreLibraryPath@4 0046f3bc     IFXCoreStatic:IFXOSLoader.obj
 0002:000053e4       __VInfreq_??1ParentList@U3D_IDTF@@UAE@XZ 0046f3e4     IDTFCommon:ParentList.obj
 0002:00005410       __VInfreq_??0ParentList@U3D_IDTF@@QAE@XZ 0046f410     IDTFCommon:ParentList.obj
 0002:000054e0       __VInfreq_??1MetaData@U3D_IDTF@@UAE@XZ 0046f4e0     IDTFCommon:MetaDataList.obj
 0002:00005530       __VInfreq_??1StringMetaData@U3D_IDTF@@UAE@XZ 0046f530     IDTFCommon:MetaDataList.obj
 0002:0000554c       __VInfreq_??1MetaDataList@U3D_IDTF@@UAE@XZ 0046f54c     IDTFCommon:MetaDataList.obj
 0002:00005578       __VInfreq_??0MetaData@U3D_IDTF@@QAE@XZ 0046f578     IDTFCommon:MetaDataList.obj
 0002:000055b6       __VInfreq_??0MetaDataList@U3D_IDTF@@QAE@XZ 0046f5b6     IDTFCommon:MetaDataList.obj
 0002:00005668       __VInfreq_??1NodeList@U3D_IDTF@@UAE@XZ 0046f668     IDTFCommon:NodeList.obj
 0002:00005718       __VInfreq_??0NodeList@U3D_IDTF@@QAE@XZ 0046f718     IDTFCommon:NodeList.obj
 0002:00006204       __VInfreq_??1SceneResources@U3D_IDTF@@UAE@XZ 00470204     IDTFCommon:SceneResources.obj
 0002:00006388       __VInfreq_??0SceneResources@U3D_IDTF@@QAE@XZ 00470388     IDTFCommon:SceneResources.obj
 0002:00006fe0       __VInfreq_??1ResourceList@U3D_IDTF@@UAE@XZ 00470fe0     IDTFCommon:ResourceList.obj
 0002:00006ffc       __VInfreq_??1ModifierList@U3D_IDTF@@UAE@XZ 00470ffc     IDTFCommon:ModifierList.obj
 0002:000070e4       __VInfreq_??0ModifierList@U3D_IDTF@@QAE@XZ 004710e4     IDTFCommon:ModifierList.obj
 0002:0000831c       __VInfreq_??1Filter@U3D_IDTF@@UAE@XZ 0047231c     IDTFCommon:FileReference.obj
 0002:0000834a       __VInfreq_??1FileReference@U3D_IDTF@@UAE@XZ 0047234a     IDTFCommon:FileReference.obj
 0002:000083de       __VInfreq_??0Filter@U3D_IDTF@@QAE@XZ 004723de     IDTFCommon:FileReference.obj
 0002:000083fa       __VInfreq_??0FileReference@U3D_IDTF@@QAE@XZ 004723fa     IDTFCommon:FileReference.obj
 0002:0000849a       __VInfreq_?AddFilter@FileReference@U3D_IDTF@@QAEHABVFilter@2@@Z 0047249a     IDTFCommon:FileReference.obj
 0002:00008544       __VInfreq_??1ModelResource@U3D_IDTF@@UAE@XZ 00472544     IDTFCommon:ModelResource.obj
 0002:000086e0       __VInfreq_??0ModelResource@U3D_IDTF@@QAE@XZ 004726e0     IDTFCommon:ModelResource.obj
 0002:00008cd4       __VInfreq_??1ModelResourceList@U3D_IDTF@@UAE@XZ 00472cd4     IDTFCommon:ModelResourceList.obj
 0002:00008d62       __VInfreq_??0ModelResourceList@U3D_IDTF@@QAE@XZ 00472d62     IDTFCommon:ModelResourceList.obj
 0002:000099f4       __VInfreq_??1SceneUtilities@U3D_IDTF@@UAE@XZ 004739f4     IDTFConverterHelpers:SceneUtilities.obj
 0002:00009a6a       __VInfreq_?WriteDebugInfo@SceneUtilities@U3D_IDTF@@QAEHPBD@Z 00473a6a     IDTFConverterHelpers:SceneUtilities.obj
 0002:00009af0       __VInfreq_?LoadU3DFile@SceneUtilities@U3D_IDTF@@QAEHPBG@Z 00473af0     IDTFConverterHelpers:SceneUtilities.obj
 0002:00009b0a       __VInfreq_?CreateFileReference@SceneUtilities@U3D_IDTF@@QAEHABVIFXString@@PAPAVIFXFileReference@@@Z 00473b0a     IDTFConverterHelpers:SceneUtilities.obj
 0002:00009b32       __VInfreq_?CreateNodePlaceholder@SceneUtilities@U3D_IDTF@@QAEHABVIFXString@@PAI@Z 00473b32     IDTFConverterHelpers:SceneUtilities.obj
 0002:00009b4c       __VInfreq_?CreateViewNode@SceneUtilities@U3D_IDTF@@QAEHABVIFXString@@0PAPAVIFXView@@@Z 00473b4c     IDTFConverterHelpers:SceneUtilities.obj
 0002:00009b74       __VInfreq_?CreateNode@SceneUtilities@U3D_IDTF@@QAEHABVIFXString@@ABUIFXGUID@@PAPAVIFXNode@@PAI@Z 00473b74     IDTFConverterHelpers:SceneUtilities.obj
 0002:00009bac       __VInfreq_?CreateLightNode@SceneUtilities@U3D_IDTF@@QAEHABVIFXString@@0PAPAVIFXLight@@@Z 00473bac     IDTFConverterHelpers:SceneUtilities.obj
 0002:00009bd4       __VInfreq_?CreateModelNode@SceneUtilities@U3D_IDTF@@QAEHABVIFXString@@0PAPAVIFXModel@@@Z 00473bd4     IDTFConverterHelpers:SceneUtilities.obj
 0002:00009bfc       __VInfreq_?FindNode@SceneUtilities@U3D_IDTF@@QAEHABVIFXString@@PAPAVIFXNode@@PAI@Z 00473bfc     IDTFConverterHelpers:SceneUtilities.obj
 0002:00009c24       __VInfreq_?CreateResourcePlaceholder@SceneUtilities@U3D_IDTF@@QAEHABVIFXString@@W4EIFXPalette@IFXSceneGraph@@PAI@Z 00473c24     IDTFConverterHelpers:SceneUtilities.obj
 0002:00009c3e       __VInfreq_?CreateViewResource@SceneUtilities@U3D_IDTF@@QAEHABVIFXString@@PAPAVIFXViewResource@@@Z 00473c3e     IDTFConverterHelpers:SceneUtilities.obj
 0002:00009c58       __VInfreq_?CreateLightResource@SceneUtilities@U3D_IDTF@@QAEHABVIFXString@@PAPAVIFXLightResource@@@Z 00473c58     IDTFConverterHelpers:SceneUtilities.obj
 0002:00009c72       __VInfreq_?CreateMeshResource@SceneUtilities@U3D_IDTF@@QAEHABVIFXString@@PAVIFXAuthorMesh@@AAUIFXAuthorGeomCompilerParams@@PAPAVIFXAuthorCLODResource@@@Z 00473c72     IDTFConverterHelpers:SceneUtilities.obj
 0002:00009c9a       __VInfreq_?CreatePointSetResource@SceneUtilities@U3D_IDTF@@QAEHABVIFXString@@PAVIFXAuthorPointSet@@IPAPAVIFXAuthorPointSetResource@@@Z 00473c9a     IDTFConverterHelpers:SceneUtilities.obj
 0002:00009cb4       __VInfreq_?CreateModelResource@SceneUtilities@U3D_IDTF@@QAEHABVIFXString@@ABUIFXGUID@@IPAPAVIFXGenerator@@@Z 00473cb4     IDTFConverterHelpers:SceneUtilities.obj
 0002:00009cce       __VInfreq_?CreateLineSetResource@SceneUtilities@U3D_IDTF@@QAEHABVIFXString@@PAVIFXAuthorLineSet@@IPAPAVIFXAuthorLineSetResource@@@Z 00473cce     IDTFConverterHelpers:SceneUtilities.obj
 0002:00009ce8       __VInfreq_?CreateMotionResource@SceneUtilities@U3D_IDTF@@QAEHABVIFXString@@IIPAIPAPAVIFXMotionResource@@@Z 00473ce8     IDTFConverterHelpers:SceneUtilities.obj
 0002:00009d2e       __VInfreq_?FindPaletteEntry@SceneUtilities@U3D_IDTF@@QAEHABVIFXString@@W4EIFXPalette@IFXSceneGraph@@PAPAVIFXUnknown@@PAI@Z 00473d2e     IDTFConverterHelpers:SceneUtilities.obj
 0002:00009d48       __VInfreq_?FindTexture@SceneUtilities@U3D_IDTF@@QAEHABVIFXString@@PAPAVIFXTextureObject@@PAI@Z 00473d48     IDTFConverterHelpers:SceneUtilities.obj
 0002:00009d70       __VInfreq_?FindShader@SceneUtilities@U3D_IDTF@@QAEHABVIFXString@@PAPAVIFXShaderLitTexture@@PAI@Z 00473d70     IDTFConverterHelpers:SceneUtilities.obj
 0002:00009d98       __VInfreq_?FindMotionResource@SceneUtilities@U3D_IDTF@@QAEHABVIFXString@@PAPAVIFXMotionResource@@@Z 00473d98     IDTFConverterHelpers:SceneUtilities.obj
 0002:00009db2       __VInfreq_?FindResourceByModelName@SceneUtilities@U3D_IDTF@@QAEHABVIFXString@@PAPAVIFXAuthorCLODResource@@@Z 00473db2     IDTFConverterHelpers:SceneUtilities.obj
 0002:00009dcc       __VInfreq_?FindModel@SceneUtilities@U3D_IDTF@@QAEHABVIFXString@@PAPAVIFXModel@@@Z 00473dcc     IDTFConverterHelpers:SceneUtilities.obj
 0002:00009de6       __VInfreq_?FindModelResource@SceneUtilities@U3D_IDTF@@QAEHABVIFXString@@PAPAVIFXGenerator@@@Z 00473de6     IDTFConverterHelpers:SceneUtilities.obj
 0002:00009e00       __VInfreq_?CreateShader@SceneUtilities@U3D_IDTF@@QAEHABVIFXString@@0PAPAVIFXShaderLitTexture@@@Z 00473e00     IDTFConverterHelpers:SceneUtilities.obj
 0002:00009e30       __VInfreq_?FindMaterial@SceneUtilities@U3D_IDTF@@QAEHABVIFXString@@PAPAVIFXMaterialResource@@PAI@Z 00473e30     IDTFConverterHelpers:SceneUtilities.obj
 0002:00009e58       __VInfreq_?GetMaterialFromShader@SceneUtilities@U3D_IDTF@@QAEHPAVIFXShaderLitTexture@@PAPAVIFXMaterialResource@@@Z 00473e58     IDTFConverterHelpers:SceneUtilities.obj
 0002:00009e72       __VInfreq_?GetTextureFromShader@SceneUtilities@U3D_IDTF@@QAEHPAVIFXShaderLitTexture@@PAPAVIFXTextureObject@@I@Z 00473e72     IDTFConverterHelpers:SceneUtilities.obj
 0002:00009e9a       __VInfreq_?CreateMaterial@SceneUtilities@U3D_IDTF@@QAEHABVIFXString@@PAPAVIFXMaterialResource@@@Z 00473e9a     IDTFConverterHelpers:SceneUtilities.obj
 0002:00009ec2       __VInfreq_?CreateTexture@SceneUtilities@U3D_IDTF@@QAEHABVIFXString@@IPAPAVIFXTextureObject@@@Z 00473ec2     IDTFConverterHelpers:SceneUtilities.obj
 0002:00009eea       __VInfreq_?AddTexturePaletteEntry@SceneUtilities@U3D_IDTF@@QAEHABVIFXString@@PAI@Z 00473eea     IDTFConverterHelpers:SceneUtilities.obj
 0002:00009f04       __VInfreq_?AddModifier@SceneUtilities@U3D_IDTF@@QAEHABVIFXString@@0PAVIFXModifier@@@Z 00473f04     IDTFConverterHelpers:ModifierUtilities.obj
 0002:00009f4a       __VInfreq_?AddGlyphModifier@SceneUtilities@U3D_IDTF@@QAEHABVIFXString@@0NNNPAVIFXGlyphCommandList@@PAPAVIFXGlyph2DModifier@@@Z 00473f4a     IDTFConverterHelpers:ModifierUtilities.obj
 0002:00009f66       __VInfreq_?AddSubdivisionModifier@SceneUtilities@U3D_IDTF@@QAEHABVIFXString@@0PAPAVIFXSubdivModifier@@@Z 00473f66     IDTFConverterHelpers:ModifierUtilities.obj
 0002:00009f80       __VInfreq_?Write@DebugInfo@U3D_IDTF@@QAEXPAVIFXPalette@@@Z 00473f80     IDTFConverterHelpers:DebugInfo.obj
 0002:00009fa2       __VInfreq_?WriteNodePalette@DebugInfo@U3D_IDTF@@QAEXPAVIFXPalette@@@Z 00473fa2     IDTFConverterHelpers:DebugInfo.obj
 0002:00009fd2       __VInfreq_?Write@DebugInfo@U3D_IDTF@@QAEXPAVIFXView@@@Z 00473fd2     IDTFConverterHelpers:DebugInfo.obj
 0002:0000a018       __VInfreq_?Write@DebugInfo@U3D_IDTF@@QAEXPAVIFXLight@@@Z 00474018     IDTFConverterHelpers:DebugInfo.obj
 0002:0000a034       __VInfreq_?Write@DebugInfo@U3D_IDTF@@QAEXPAVIFXNode@@@Z 00474034     IDTFConverterHelpers:DebugInfo.obj
 0002:0000a074       __VInfreq_?Write@DebugInfo@U3D_IDTF@@QAEXPAVIFXModifierDataPacket@@@Z 00474074     IDTFConverterHelpers:DebugInfo.obj
 0002:0000a0e8       __VInfreq_?WriteLightPalette@DebugInfo@U3D_IDTF@@QAEXPAVIFXPalette@@@Z 004740e8     IDTFConverterHelpers:DebugInfo.obj
 0002:0000a10a       __VInfreq_?WriteViewPalette@DebugInfo@U3D_IDTF@@QAEXPAVIFXPalette@@@Z 0047410a     IDTFConverterHelpers:DebugInfo.obj
 0002:0000a12c       __VInfreq_?WriteModelPalette@DebugInfo@U3D_IDTF@@QAEXPAVIFXPalette@@@Z 0047412c     IDTFConverterHelpers:DebugInfo.obj
 0002:0000a14e       __VInfreq_?Write@DebugInfo@U3D_IDTF@@QAEXPAVIFXAuthorCLODResource@@@Z 0047414e     IDTFConverterHelpers:DebugInfo.obj
 0002:0000a172       __VInfreq_?Write@DebugInfo@U3D_IDTF@@QAEXPAVIFXAnimationModifier@@@Z 00474172     IDTFConverterHelpers:DebugInfo.obj
 0002:0000a196       __VInfreq_?WriteBoneWeightGenerator@DebugInfo@U3D_IDTF@@QAEXPAVIFXSkeleton@@@Z 00474196     IDTFConverterHelpers:DebugInfo.obj
 0002:0000a23e       __VInfreq_?WriteMaterialPalette@DebugInfo@U3D_IDTF@@QAEXPAVIFXPalette@@@Z 0047423e     IDTFConverterHelpers:DebugInfo.obj
 0002:0000a260       __VInfreq_?WriteShaderPalette@DebugInfo@U3D_IDTF@@QAEXPAVIFXPalette@@@Z 00474260     IDTFConverterHelpers:DebugInfo.obj
 0002:0000a282       __VInfreq_?WriteMotionPalette@DebugInfo@U3D_IDTF@@QAEXPAVIFXPalette@@@Z 00474282     IDTFConverterHelpers:DebugInfo.obj
 0002:0000a2a4       __VInfreq_?Write@DebugInfo@U3D_IDTF@@QAEXPAVIFXMotionResource@@@Z 004742a4     IDTFConverterHelpers:DebugInfo.obj
 0002:0000a2e4       __VInfreq_?WriteMixerPalette@DebugInfo@U3D_IDTF@@QAEXPAVIFXPalette@@0@Z 004742e4     IDTFConverterHelpers:DebugInfo.obj
 0002:0000a306       __VInfreq_?Write@DebugInfo@U3D_IDTF@@QAEXPAVIFXMixerConstruct@@PAVIFXPalette@@1@Z 00474306     IDTFConverterHelpers:DebugInfo.obj
 0002:0000a354       __VInfreq_?WriteTexturePalette@DebugInfo@U3D_IDTF@@QAEXPAVIFXPalette@@@Z 00474354     IDTFConverterHelpers:DebugInfo.obj
 0002:0000a376       __VInfreq_?WriteSimulationTaskPalette@DebugInfo@U3D_IDTF@@QAEXPAVIFXPalette@@@Z 00474376     IDTFConverterHelpers:DebugInfo.obj
 0002:0000a398       __VInfreq_?DumpChildNodes@DebugInfo@U3D_IDTF@@QAEHPAVIFXPalette@@PAVIFXNode@@II@Z 00474398     IDTFConverterHelpers:DebugInfo.obj
 0002:0000a3bc       __VInfreq_??0IFXCoreList@@QAE@XZ 004743bc     IFXCoreStatic:IFXCoreList.obj
 0002:0000a3de       __VInfreq_?CoreRemove@IFXCoreList@@IAEHPAX@Z 004743de     IFXCoreStatic:IFXCoreList.obj
 0002:0000a400       __VInfreq_?CoreGetElement@IFXCoreList@@IBEPAXJ@Z 00474400     IFXCoreStatic:IFXCoreList.obj
 0003:00000000       __imp__SetUnhandledExceptionFilter@4 00475000     kernel32:KERNEL32.dll
 0003:00000004       __imp__CompareStringA@24   00475004     kernel32:KERNEL32.dll
 0003:00000008       __imp__SetEnvironmentVariableA@8 00475008     kernel32:KERNEL32.dll
 0003:0000000c       __imp__QueryPerformanceCounter@4 0047500c     kernel32:KERNEL32.dll
 0003:00000010       __imp__Sleep@4             00475010     kernel32:KERNEL32.dll
 0003:00000014       __imp__WideCharToMultiByte@32 00475014     kernel32:KERNEL32.dll
 0003:00000018       __imp__MultiByteToWideChar@24 00475018     kernel32:KERNEL32.dll
 0003:0000001c       __imp__QueryPerformanceFrequency@4 0047501c     kernel32:KERNEL32.dll
 0003:00000020       __imp__GetSystemDefaultLangID@0 00475020     kernel32:KERNEL32.dll
 0003:00000024       __imp__LoadLibraryW@4      00475024     kernel32:KERNEL32.dll
 0003:00000028       __imp__GetModuleHandleW@4  00475028     kernel32:KERNEL32.dll
 0003:0000002c       __imp__GetModuleFileNameW@12 0047502c     kernel32:KERNEL32.dll
 0003:00000030       __imp__GetProcAddress@8    00475030     kernel32:KERNEL32.dll
 0003:00000034       __imp__FreeLibrary@4       00475034     kernel32:KERNEL32.dll
 0003:00000038       __imp__RtlUnwind@16        00475038     kernel32:KERNEL32.dll
 0003:0000003c       __imp__HeapAlloc@12        0047503c     kernel32:KERNEL32.dll
 0003:00000040       __imp__GetLastError@0      00475040     kernel32:KERNEL32.dll
 0003:00000044       __imp__HeapFree@12         00475044     kernel32:KERNEL32.dll
 0003:00000048       __imp__RaiseException@16   00475048     kernel32:KERNEL32.dll
 0003:0000004c       __imp__GetModuleHandleA@4  0047504c     kernel32:KERNEL32.dll
 0003:00000050       __imp__GetVersionExA@4     00475050     kernel32:KERNEL32.dll
 0003:00000054       __imp__ExitProcess@4       00475054     kernel32:KERNEL32.dll
 0003:00000058       __imp__TerminateProcess@8  00475058     kernel32:KERNEL32.dll
 0003:0000005c       __imp__GetCurrentProcess@0 0047505c     kernel32:KERNEL32.dll
 0003:00000060       __imp__GetSystemTimeAsFileTime@4 00475060     kernel32:KERNEL32.dll
 0003:00000064       __imp__TlsAlloc@0          00475064     kernel32:KERNEL32.dll
 0003:00000068       __imp__SetLastError@4      00475068     kernel32:KERNEL32.dll
 0003:0000006c       __imp__GetCurrentThreadId@0 0047506c     kernel32:KERNEL32.dll
 0003:00000070       __imp__TlsFree@4           00475070     kernel32:KERNEL32.dll
 0003:00000074       __imp__TlsSetValue@8       00475074     kernel32:KERNEL32.dll
 0003:00000078       __imp__TlsGetValue@4       00475078     kernel32:KERNEL32.dll
 0003:0000007c       __imp__DeleteCriticalSection@4 0047507c     kernel32:KERNEL32.dll
 0003:00000080       __imp__LeaveCriticalSection@4 00475080     kernel32:KERNEL32.dll
 0003:00000084       __imp__EnterCriticalSection@4 00475084     kernel32:KERNEL32.dll
 0003:00000088       __imp__HeapDestroy@4       00475088     kernel32:KERNEL32.dll
 0003:0000008c       __imp__HeapCreate@12       0047508c     kernel32:KERNEL32.dll
 0003:00000090       __imp__VirtualFree@12      00475090     kernel32:KERNEL32.dll
 0003:00000094       __imp__VirtualAlloc@16     00475094     kernel32:KERNEL32.dll
 0003:00000098       __imp__HeapReAlloc@16      00475098     kernel32:KERNEL32.dll
 0003:0000009c       __imp__IsBadWritePtr@8     0047509c     kernel32:KERNEL32.dll
 0003:000000a0       __imp__CloseHandle@4       004750a0     kernel32:KERNEL32.dll
 0003:000000a4       __imp__SetHandleCount@4    004750a4     kernel32:KERNEL32.dll
 0003:000000a8       __imp__GetStdHandle@4      004750a8     kernel32:KERNEL32.dll
 0003:000000ac       __imp__GetFileType@4       004750ac     kernel32:KERNEL32.dll
 0003:000000b0       __imp__GetStartupInfoA@4   004750b0     kernel32:KERNEL32.dll
 0003:000000b4       __imp__SetFilePointer@16   004750b4     kernel32:KERNEL32.dll
 0003:000000b8       __imp__SetEndOfFile@4      004750b8     kernel32:KERNEL32.dll
 0003:000000bc       __imp__WriteFile@20        004750bc     kernel32:KERNEL32.dll
 0003:000000c0       __imp__GetModuleFileNameA@12 004750c0     kernel32:KERNEL32.dll
 0003:000000c4       __imp__UnhandledExceptionFilter@4 004750c4     kernel32:KERNEL32.dll
 0003:000000c8       __imp__FreeEnvironmentStringsA@4 004750c8     kernel32:KERNEL32.dll
 0003:000000cc       __imp__GetEnvironmentStrings@0 004750cc     kernel32:KERNEL32.dll
 0003:000000d0       __imp__FreeEnvironmentStringsW@4 004750d0     kernel32:KERNEL32.dll
 0003:000000d4       __imp__GetEnvironmentStringsW@0 004750d4     kernel32:KERNEL32.dll
 0003:000000d8       __imp__GetCommandLineA@0   004750d8     kernel32:KERNEL32.dll
 0003:000000dc       __imp__GetCommandLineW@0   004750dc     kernel32:KERNEL32.dll
 0003:000000e0       __imp__GetCPInfo@8         004750e0     kernel32:KERNEL32.dll
 0003:000000e4       __imp__GetUserDefaultLCID@0 004750e4     kernel32:KERNEL32.dll
 0003:000000e8       __imp__GetLocaleInfoA@16   004750e8     kernel32:KERNEL32.dll
 0003:000000ec       __imp__EnumSystemLocalesA@8 004750ec     kernel32:KERNEL32.dll
 0003:000000f0       __imp__IsValidLocale@8     004750f0     kernel32:KERNEL32.dll
 0003:000000f4       __imp__IsValidCodePage@4   004750f4     kernel32:KERNEL32.dll
 0003:000000f8       __imp__GetStringTypeA@20   004750f8     kernel32:KERNEL32.dll
 0003:000000fc       __imp__GetStringTypeW@16   004750fc     kernel32:KERNEL32.dll
 0003:00000100       __imp__HeapSize@12         00475100     kernel32:KERNEL32.dll
 0003:00000104       __imp__LCMapStringA@24     00475104     kernel32:KERNEL32.dll
 0003:00000108       __imp__LCMapStringW@24     00475108     kernel32:KERNEL32.dll
 0003:0000010c       __imp__ReadFile@20         0047510c     kernel32:KERNEL32.dll
 0003:00000110       __imp__GetTimeZoneInformation@4 00475110     kernel32:KERNEL32.dll
 0003:00000114       __imp__IsBadReadPtr@8      00475114     kernel32:KERNEL32.dll
 0003:00000118       __imp__IsBadCodePtr@4      00475118     kernel32:KERNEL32.dll
 0003:0000011c       __imp__GetACP@0            0047511c     kernel32:KERNEL32.dll
 0003:00000120       __imp__GetOEMCP@0          00475120     kernel32:KERNEL32.dll
 0003:00000124       __imp__InitializeCriticalSection@4 00475124     kernel32:KERNEL32.dll
 0003:00000128       __imp__InterlockedExchange@8 00475128     kernel32:KERNEL32.dll
 0003:0000012c       __imp__VirtualQuery@12     0047512c     kernel32:KERNEL32.dll
 0003:00000130       __imp__SetStdHandle@8      00475130     kernel32:KERNEL32.dll
 0003:00000134       __imp__FlushFileBuffers@4  00475134     kernel32:KERNEL32.dll
 0003:00000138       __imp__VirtualProtect@16   00475138     kernel32:KERNEL32.dll
 0003:0000013c       __imp__GetSystemInfo@4     0047513c     kernel32:KERNEL32.dll
 0003:00000140       __imp__LoadLibraryA@4      00475140     kernel32:KERNEL32.dll
 0003:00000144       __imp__GetTickCount@0      00475144     kernel32:KERNEL32.dll
 0003:00000148       __imp__GetCurrentProcessId@0 00475148     kernel32:KERNEL32.dll
 0003:0000014c       __imp__CreateFileW@28      0047514c     kernel32:KERNEL32.dll
 0003:00000150       __imp__CreateFileA@28      00475150     kernel32:KERNEL32.dll
 0003:00000154       __imp__GetLocaleInfoW@16   00475154     kernel32:KERNEL32.dll
 0003:00000158       __imp__CompareStringW@24   00475158     kernel32:KERNEL32.dll
 0003:0000015c       \177KERNEL32_NULL_THUNK_DATA 0047515c     kernel32:KERNEL32.dll
 0003:00000160       __imp__MessageBoxW@16      00475160     user32:USER32.dll
 0003:00000164       \177USER32_NULL_THUNK_DATA 00475164     user32:USER32.dll
 0003:00000168       __imp__timeBeginPeriod@4   00475168     winmm:WINMM.dll
 0003:0000016c       __imp__timeEndPeriod@4     0047516c     winmm:WINMM.dll
 0003:00000170       __imp__timeGetTime@0       00475170     winmm:WINMM.dll
 0003:00000174       \177WINMM_NULL_THUNK_DATA  00475174     winmm:WINMM.dll
 0003:00006fa0       _IID_IFXUnknown            0047bfa0     IDTFConverterHelpers:Guids.obj
 0003:00006fb0       _CID_IFXNameMap            0047bfb0     IDTFConverterHelpers:Guids.obj
 0003:00006fc0       _CID_IFXDevice             0047bfc0     IDTFConverterHelpers:Guids.obj
 0003:00006fd0       _CID_IFXCLODManager        0047bfd0     IDTFConverterHelpers:Guids.obj
 0003:00006fe0       _CID_IFXSetAdjacencyX      0047bfe0     IDTFConverterHelpers:Guids.obj
 0003:00006ff0       _CID_IFXSetX               0047bff0     IDTFConverterHelpers:Guids.obj
 0003:00007000       _CID_IFXAuthorCLODGen      0047c000     IDTFConverterHelpers:Guids.obj
 0003:00007010       _CID_IFXAuthorLineSetAnalyzer 0047c010     IDTFConverterHelpers:Guids.obj
 0003:00007020       _CID_IFXMetaDataX          0047c020     IDTFConverterHelpers:Guids.obj
 0003:00007030       _CID_IFXFileReference      0047c030     IDTFConverterHelpers:Guids.obj
 0003:00007040       _CID_IFXMeshCompiler       0047c040     IDTFConverterHelpers:Guids.obj
 0003:00007050       _CID_IFXMeshMap            0047c050     IDTFConverterHelpers:Guids.obj
 0003:00007060       _CID_IFXAuthorMeshMap      0047c060     IDTFConverterHelpers:Guids.obj
 0003:00007070       _CID_IFXGlyph2DCommands    0047c070     IDTFConverterHelpers:Guids.obj
 0003:00007080       _CID_IFXGlyphCommandList   0047c080     IDTFConverterHelpers:Guids.obj
 0003:00007090       _CID_IFXGlyph3DGenerator   0047c090     IDTFConverterHelpers:Guids.obj
 0003:000070a0       _CID_IFXAuthorMeshScrub    0047c0a0     IDTFConverterHelpers:Guids.obj
 0003:000070b0       _CID_IFXAuthorMesh         0047c0b0     IDTFConverterHelpers:Guids.obj
 0003:000070c0       _CID_IFXAuthorCLODResource 0047c0c0     IDTFConverterHelpers:Guids.obj
 0003:000070d0       _CID_IFXBitStreamX         0047c0d0     IDTFConverterHelpers:Guids.obj
 0003:000070e0       _CID_IFXSkeleton           0047c0e0     IDTFConverterHelpers:Guids.obj
 0003:000070f0       _CID_IFXBoneWeightsModifier 0047c0f0     IDTFConverterHelpers:Guids.obj
 0003:00007100       _CID_IFXBoundHierarchy     0047c100     IDTFConverterHelpers:Guids.obj
 0003:00007110       _CID_IFXBoundSphereDataElement 0047c110     IDTFConverterHelpers:Guids.obj
 0003:00007120       _CID_IFXConnector          0047c120     IDTFConverterHelpers:Guids.obj
 0003:00007130       _CID_IFXContour            0047c130     IDTFConverterHelpers:Guids.obj
 0003:00007140       _CID_IFXContourExtruder    0047c140     IDTFConverterHelpers:Guids.obj
 0003:00007150       _CID_IFXContourGenerator   0047c150     IDTFConverterHelpers:Guids.obj
 0003:00007160       _CID_IFXContourTessellator 0047c160     IDTFConverterHelpers:Guids.obj
 0003:00007170       _CID_IFXCoreServices       0047c170     IDTFConverterHelpers:Guids.obj
 0003:00007180       _CID_IFXCoreServicesRef    0047c180     IDTFConverterHelpers:Guids.obj
 0003:00007190       _CID_IFXDataBlock          0047c190     IDTFConverterHelpers:Guids.obj
 0003:000071a0       _CID_IFXDataBlockX         0047c1a0     IDTFConverterHelpers:Guids.obj
 0003:000071b0       _CID_IFXDataBlockQueueX    0047c1b0     IDTFConverterHelpers:Guids.obj
 0003:000071c0       _CID_IFXModifierDataPacket 0047c1c0     IDTFConverterHelpers:Guids.obj
 0003:000071d0       _CID_IFXGlyphCurveToBlock  0047c1d0     IDTFConverterHelpers:Guids.obj
 0003:000071e0       _CID_IFXGlyphLineToBlock   0047c1e0     IDTFConverterHelpers:Guids.obj
 0003:000071f0       _CID_IFXGlyphMoveToBlock   0047c1f0     IDTFConverterHelpers:Guids.obj
 0003:00007200       _CID_IFXGlyphTagBlock      0047c200     IDTFConverterHelpers:Guids.obj
 0003:00007210       _CID_IFXGroup              0047c210     IDTFConverterHelpers:Guids.obj
 0003:00007220       _CID_IFXHashMap            0047c220     IDTFConverterHelpers:Guids.obj
 0003:00007230       _CID_IFXIDManager          0047c230     IDTFConverterHelpers:Guids.obj
 0003:00007240       _CID_IFXLight              0047c240     IDTFConverterHelpers:Guids.obj
 0003:00007250       _CID_IFXLightResource      0047c250     IDTFConverterHelpers:Guids.obj
 0003:00007260       _CID_IFXViewResource       0047c260     IDTFConverterHelpers:Guids.obj
 0003:00007270       _CID_IFXLightSet           0047c270     IDTFConverterHelpers:Guids.obj
 0003:00007280       _CID_IFXImageCodec         0047c280     IDTFConverterHelpers:Guids.obj
 0003:00007290       _CID_IFXCLODModifier       0047c290     IDTFConverterHelpers:Guids.obj
 0003:000072a0       _CID_IFXMaterialResource   0047c2a0     IDTFConverterHelpers:Guids.obj
 0003:000072b0       _CID_IFXMesh               0047c2b0     IDTFConverterHelpers:Guids.obj
 0003:000072c0       _CID_IFXInterleavedData    0047c2c0     IDTFConverterHelpers:Guids.obj
 0003:000072d0       _CID_IFXMeshGroup          0047c2d0     IDTFConverterHelpers:Guids.obj
 0003:000072e0       _CID_IFXNeighborMesh       0047c2e0     IDTFConverterHelpers:Guids.obj
 0003:000072f0       _CID_IFXMixerConstruct     0047c2f0     IDTFConverterHelpers:Guids.obj
 0003:00007300       _CID_IFXModel              0047c300     IDTFConverterHelpers:Guids.obj
 0003:00007310       _CID_IFXModifierChain      0047c310     IDTFConverterHelpers:Guids.obj
 0003:00007320       _CID_IFXDidRegistry        0047c320     IDTFConverterHelpers:Guids.obj
 0003:00007330       _CID_IFXMotionResource     0047c330     IDTFConverterHelpers:Guids.obj
 0003:00007340       _CID_IFXShaderList         0047c340     IDTFConverterHelpers:Guids.obj
 0003:00007350       _CID_IFXGlyph2DModifier    0047c350     IDTFConverterHelpers:Guids.obj
 0003:00007360       _CID_IFXPalette            0047c360     IDTFConverterHelpers:Guids.obj
 0003:00007370       _CID_IFXPerformanceTimer   0047c370     IDTFConverterHelpers:Guids.obj
 0003:00007380       _CID_IFXPickObject         0047c380     IDTFConverterHelpers:Guids.obj
 0003:00007390       _CID_IFXRenderPass         0047c390     IDTFConverterHelpers:Guids.obj
 0003:000073a0       _CID_IFXSceneGraph         0047c3a0     IDTFConverterHelpers:Guids.obj
 0003:000073b0       _CID_IFXSimpleCollection   0047c3b0     IDTFConverterHelpers:Guids.obj
 0003:000073c0       _CID_IFXAnimationModifier  0047c3c0     IDTFConverterHelpers:Guids.obj
 0003:000073d0       _CID_IFXAuthorPointSet     0047c3d0     IDTFConverterHelpers:Guids.obj
 0003:000073e0       _CID_IFXAuthorPointSetResource 0047c3e0     IDTFConverterHelpers:Guids.obj
 0003:000073f0       _CID_IFXAuthorLineSet      0047c3f0     IDTFConverterHelpers:Guids.obj
 0003:00007400       _CID_IFXAuthorLineSetResource 0047c400     IDTFConverterHelpers:Guids.obj
 0003:00007410       _CID_IFXSimpleHash         0047c410     IDTFConverterHelpers:Guids.obj
 0003:00007420       _CID_IFXSimpleList         0047c420     IDTFConverterHelpers:Guids.obj
 0003:00007430       _CID_IFXSimpleObject       0047c430     IDTFConverterHelpers:Guids.obj
 0003:00007440       _CID_IFXSpatialSubdiv      0047c440     IDTFConverterHelpers:Guids.obj
 0003:00007450       _CID_IFXSubdivModifier     0047c450     IDTFConverterHelpers:Guids.obj
 0003:00007460       _CID_IFXTextureImageTools  0047c460     IDTFConverterHelpers:Guids.obj
 0003:00007470       _CID_IFXTextureObject      0047c470     IDTFConverterHelpers:Guids.obj
 0003:00007480       _CID_IFXUVGenerator        0047c480     IDTFConverterHelpers:Guids.obj
 0003:00007490       _CID_IFXUVMapperCylindrical 0047c490     IDTFConverterHelpers:Guids.obj
 0003:000074a0       _CID_IFXUVMapperNone       0047c4a0     IDTFConverterHelpers:Guids.obj
 0003:000074b0       _CID_IFXUVMapperPlanar     0047c4b0     IDTFConverterHelpers:Guids.obj
 0003:000074c0       _CID_IFXUVMapperSpherical  0047c4c0     IDTFConverterHelpers:Guids.obj
 0003:000074d0       _CID_IFXUVMapperReflection 0047c4d0     IDTFConverterHelpers:Guids.obj
 0003:000074e0       _CID_IFXView               0047c4e0     IDTFConverterHelpers:Guids.obj
 0003:000074f0       _CID_IFXVoidWrapper        0047c4f0     IDTFConverterHelpers:Guids.obj
 0003:00007500       _CID_IFXShadingModifier    0047c500     IDTFConverterHelpers:Guids.obj
 0003:00007510       _CID_IFXDummyModifier      0047c510     IDTFConverterHelpers:Guids.obj
 0003:00007520       _CID_IFXShaderLitTexture   0047c520     IDTFConverterHelpers:Guids.obj
 0003:00007530       _IID_IFXMetaDataX          0047c530     IDTFConverterHelpers:Guids.obj
 0003:00007540       _IID_IFXMarker             0047c540     IDTFConverterHelpers:Guids.obj
 0003:00007550       _IID_IFXSubject            0047c550     IDTFConverterHelpers:Guids.obj
 0003:00007560       _IID_IFXSceneGraph         0047c560     IDTFConverterHelpers:Guids.obj
 0003:00007570       _IID_IFXSpatial            0047c570     IDTFConverterHelpers:Guids.obj
 0003:00007580       _IID_IFXCollection         0047c580     IDTFConverterHelpers:Guids.obj
 0003:00007590       _IID_IFXModifier           0047c590     IDTFConverterHelpers:Guids.obj
 0003:000075a0       _IID_IFXSimpleList         0047c5a0     IDTFConverterHelpers:Guids.obj
 0003:000075b0       _IID_IFXNode               0047c5b0     IDTFConverterHelpers:Guids.obj
 0003:000075c0       _IID_IFXDataBlockX         0047c5c0     IDTFConverterHelpers:Guids.obj
 0003:000075d0       _IID_IFXDataBlockQueueX    0047c5d0     IDTFConverterHelpers:Guids.obj
 0003:000075e0       _IID_IFXPalette            0047c5e0     IDTFConverterHelpers:Guids.obj
 0003:000075f0       _IID_IFXCoreServices       0047c5f0     IDTFConverterHelpers:Guids.obj
 0003:00007600       _IID_IFXEncoderX           0047c600     IDTFConverterHelpers:Guids.obj
 0003:00007610       _IID_IFXMarkerX            0047c610     IDTFConverterHelpers:Guids.obj
 0003:00007620       _IID_IFXLightResource      0047c620     IDTFConverterHelpers:Guids.obj
 0003:00007630       _IID_IFXLight              0047c630     IDTFConverterHelpers:Guids.obj
 0003:00007640       _IID_IFXMaterialResource   0047c640     IDTFConverterHelpers:Guids.obj
 0003:00007650       _IID_IFXResourceClient     0047c650     IDTFConverterHelpers:Guids.obj
 0003:00007660       _IID_IFXSpatialAssociation 0047c660     IDTFConverterHelpers:Guids.obj
 0003:00007670       _IID_IFXShaderList         0047c670     IDTFConverterHelpers:Guids.obj
 0003:00007680       _IID_IFXModel              0047c680     IDTFConverterHelpers:Guids.obj
 0003:00007690       _IID_IFXDataPacket         0047c690     IDTFConverterHelpers:Guids.obj
 0003:000076a0       _IID_IFXModifierDataPacket 0047c6a0     IDTFConverterHelpers:Guids.obj
 0003:000076b0       _IID_IFXRenderable         0047c6b0     IDTFConverterHelpers:Guids.obj
 0003:000076c0       _IID_IFXMeshGroup          0047c6c0     IDTFConverterHelpers:Guids.obj
 0003:000076d0       _IID_IFXInterleavedData    0047c6d0     IDTFConverterHelpers:Guids.obj
 0003:000076e0       _IID_IFXMesh               0047c6e0     IDTFConverterHelpers:Guids.obj
 0003:000076f0       _IID_IFXTextureObject      0047c6f0     IDTFConverterHelpers:Guids.obj
 0003:00007700       _IID_IFXTextureImageTools  0047c700     IDTFConverterHelpers:Guids.obj
 0003:00007710       _IID_IFXRenderServices     0047c710     IDTFConverterHelpers:Guids.obj
 0003:00007720       _IID_IFXRenderContext      0047c720     IDTFConverterHelpers:Guids.obj
 0003:00007730       _IID_IFXRenderClear        0047c730     IDTFConverterHelpers:Guids.obj
 0003:00007740       _IID_IFXShader             0047c740     IDTFConverterHelpers:Guids.obj
 0003:00007750       _IID_IFXShaderLitTexture   0047c750     IDTFConverterHelpers:Guids.obj
 0003:00007760       _IID_IFXSpatialSetQuery    0047c760     IDTFConverterHelpers:Guids.obj
 0003:00007770       _IID_IFXViewResource       0047c770     IDTFConverterHelpers:Guids.obj
 0003:00007780       _IID_IFXView               0047c780     IDTFConverterHelpers:Guids.obj
 0003:00007790       _IID_IFXAnimationModifier  0047c790     IDTFConverterHelpers:Guids.obj
 0003:000077a0       _IID_IFXBoneWeightsModifier 0047c7a0     IDTFConverterHelpers:Guids.obj
 0003:000077b0       _IID_IFXSkeleton           0047c7b0     IDTFConverterHelpers:Guids.obj
 0003:000077c0       _IID_IFXMotionResource     0047c7c0     IDTFConverterHelpers:Guids.obj
 0003:000077d0       _IID_IFXMixerConstruct     0047c7d0     IDTFConverterHelpers:Guids.obj
 0003:000077e0       _CID_IFXAuthorCLODEncoderX 0047c7e0     IDTFConverterHelpers:Guids.obj
 0003:000077f0       _CID_IFXMaterialResourceEncoder 0047c7f0     IDTFConverterHelpers:Guids.obj
 0003:00007800       _CID_IFXMotionResourceEncoder 0047c800     IDTFConverterHelpers:Guids.obj
 0003:00007810       _CID_IFXCLODGeneratorEncoder 0047c810     IDTFConverterHelpers:Guids.obj
 0003:00007820       _CID_IFXGlyphGeneratorEncoder 0047c820     IDTFConverterHelpers:Guids.obj
 0003:00007830       _CID_IFXBoxGeneratorEncoder 0047c830     IDTFConverterHelpers:Guids.obj
 0003:00007840       _CID_IFXCylinderGeneratorEncoder 0047c840     IDTFConverterHelpers:Guids.obj
 0003:00007850       _CID_IFXPlaneGeneratorEncoder 0047c850     IDTFConverterHelpers:Guids.obj
 0003:00007860       _CID_IFXSphereGeneratorEncoder 0047c860     IDTFConverterHelpers:Guids.obj
 0003:00007870       _CID_IFXShaderLitTextureEncoder 0047c870     IDTFConverterHelpers:Guids.obj
 0003:00007880       _CID_IFXSkeletonModifierEncoder 0047c880     IDTFConverterHelpers:Guids.obj
 0003:00007890       _CID_IFXSubdivisionModifierEncoder 0047c890     IDTFConverterHelpers:Guids.obj
 0003:000078a0       _CID_IFXShadingModifierEncoder 0047c8a0     IDTFConverterHelpers:Guids.obj
 0003:000078b0       _CID_IFXInkerModifierEncoder 0047c8b0     IDTFConverterHelpers:Guids.obj
 0003:000078c0       _CID_IFXCLODGeneratorParamEncoder 0047c8c0     IDTFConverterHelpers:Guids.obj
 0003:000078d0       _CID_IFXAnimationModifierEncoder 0047c8d0     IDTFConverterHelpers:Guids.obj
 0003:000078e0       _CID_IFXGroupNodeEncoder   0047c8e0     IDTFConverterHelpers:Guids.obj
 0003:000078f0       _CID_IFXLightNodeEncoder   0047c8f0     IDTFConverterHelpers:Guids.obj
 0003:00007900       _CID_IFXLightResourceEncoder 0047c900     IDTFConverterHelpers:Guids.obj
 0003:00007910       _CID_IFXModelNodeEncoder   0047c910     IDTFConverterHelpers:Guids.obj
 0003:00007920       _CID_IFXViewNodeEncoder    0047c920     IDTFConverterHelpers:Guids.obj
 0003:00007930       _CID_IFXViewResourceEncoder 0047c930     IDTFConverterHelpers:Guids.obj
 0003:00007940       _CID_IFXFileReferenceEncoder 0047c940     IDTFConverterHelpers:Guids.obj
 0003:00007950       _CID_IFXBlockPriorityQueueX 0047c950     IDTFConverterHelpers:Guids.obj
 0003:00007960       _CID_IFXBlockWriterX       0047c960     IDTFConverterHelpers:Guids.obj
 0003:00007970       _CID_IFXWriteManager       0047c970     IDTFConverterHelpers:Guids.obj
 0003:00007980       _CID_IFXAuthorGeomCompiler 0047c980     IDTFConverterHelpers:Guids.obj
 0003:00007990       _CID_IFXStdioWriteBuffer   0047c990     IDTFConverterHelpers:Guids.obj
 0003:000079a0       _CID_IFXStdioWriteBufferX  0047c9a0     IDTFConverterHelpers:Guids.obj
 0003:000079b0       _CID_IFXPointSetEncoder    0047c9b0     IDTFConverterHelpers:Guids.obj
 0003:000079c0       _CID_IFXLineSetEncoderX    0047c9c0     IDTFConverterHelpers:Guids.obj
 0003:000079d0       _CID_IFXBoneWeightsModifierEncoder 0047c9d0     IDTFConverterHelpers:Guids.obj
 0003:000079e0       _CID_IFXCLODModifierEncoder 0047c9e0     IDTFConverterHelpers:Guids.obj
 0003:000079f0       _CID_IFXDummyModifierEncoder 0047c9f0     IDTFConverterHelpers:Guids.obj
 0003:00007a00       _CID_IFXDirectX8           0047ca00     IDTFConverterHelpers:Guids.obj
 0003:00007a10       _CID_IFXDirectX7           0047ca10     IDTFConverterHelpers:Guids.obj
 0003:00007a20       _CID_IFXOpenGL             0047ca20     IDTFConverterHelpers:Guids.obj
 0003:00007a30       _CID_IFXDeviceLight        0047ca30     IDTFConverterHelpers:Guids.obj
 0003:00007a40       _CID_IFXDeviceTexture      0047ca40     IDTFConverterHelpers:Guids.obj
 0003:00007a50       _CID_IFXDeviceTexUnit      0047ca50     IDTFConverterHelpers:Guids.obj
 0003:00007a60       _CID_IFXDeviceLightDX8     0047ca60     IDTFConverterHelpers:Guids.obj
 0003:00007a70       _CID_IFXDeviceTextureDX8   0047ca70     IDTFConverterHelpers:Guids.obj
 0003:00007a80       _CID_IFXDeviceTexUnitDX8   0047ca80     IDTFConverterHelpers:Guids.obj
 0003:00007a90       _CID_IFXDeviceLightDX7     0047ca90     IDTFConverterHelpers:Guids.obj
 0003:00007aa0       _CID_IFXDeviceTextureDX7   0047caa0     IDTFConverterHelpers:Guids.obj
 0003:00007ab0       _CID_IFXDeviceTexUnitDX7   0047cab0     IDTFConverterHelpers:Guids.obj
 0003:00007ac0       _CID_IFXDeviceLightNULL    0047cac0     IDTFConverterHelpers:Guids.obj
 0003:00007ad0       _CID_IFXDeviceTextureNULL  0047cad0     IDTFConverterHelpers:Guids.obj
 0003:00007ae0       _CID_IFXDeviceTexUnitNULL  0047cae0     IDTFConverterHelpers:Guids.obj
 0003:00007af0       _CID_IFXDeviceLightOGL     0047caf0     IDTFConverterHelpers:Guids.obj
 0003:00007b00       _CID_IFXDeviceTextureOGL   0047cb00     IDTFConverterHelpers:Guids.obj
 0003:00007b10       _CID_IFXDeviceTexUnitOGL   0047cb10     IDTFConverterHelpers:Guids.obj
 0003:00007b20       _CID_IFXRenderServices     0047cb20     IDTFConverterHelpers:Guids.obj
 0003:00007b30       _CID_IFXRenderContext      0047cb30     IDTFConverterHelpers:Guids.obj
 0003:00007b40       _CID_IFXRenderDevice       0047cb40     IDTFConverterHelpers:Guids.obj
 0003:00007b50       _CID_IFXRenderDX8          0047cb50     IDTFConverterHelpers:Guids.obj
 0003:00007b60       _CID_IFXRenderDeviceDX8    0047cb60     IDTFConverterHelpers:Guids.obj
 0003:00007b70       _CID_IFXRenderDX7          0047cb70     IDTFConverterHelpers:Guids.obj
 0003:00007b80       _CID_IFXRenderDeviceDX7    0047cb80     IDTFConverterHelpers:Guids.obj
 0003:00007b90       _CID_IFXRenderNULL         0047cb90     IDTFConverterHelpers:Guids.obj
 0003:00007ba0       _CID_IFXRenderDeviceNULL   0047cba0     IDTFConverterHelpers:Guids.obj
 0003:00007bb0       _CID_IFXRenderOGL          0047cbb0     IDTFConverterHelpers:Guids.obj
 0003:00007bc0       _CID_IFXRenderDeviceOGL    0047cbc0     IDTFConverterHelpers:Guids.obj
 0003:00007bd0       _CID_IFXOctreeCollection   0047cbd0     IDTFConverterHelpers:Guids.obj
 0003:00007be0       _CID_IFXOctreeCuller       0047cbe0     IDTFConverterHelpers:Guids.obj
 0003:00007bf0       _CID_IFXSceneGraphCuller   0047cbf0     IDTFConverterHelpers:Guids.obj
 0003:00007c00       _CID_IFXSimulationInfo     0047cc00     IDTFConverterHelpers:Guids.obj
 0003:00007c10       _CID_IFXNotificationInfo   0047cc10     IDTFConverterHelpers:Guids.obj
 0003:00007c20       _CID_IFXNotificationManager 0047cc20     IDTFConverterHelpers:Guids.obj
 0003:00007c30       _CID_IFXSchedulerInfo      0047cc30     IDTFConverterHelpers:Guids.obj
 0003:00007c40       _CID_IFXSimulationManager  0047cc40     IDTFConverterHelpers:Guids.obj
 0003:00007c50       _CID_IFXSystemManager      0047cc50     IDTFConverterHelpers:Guids.obj
 0003:00007c60       _CID_IFXScheduler          0047cc60     IDTFConverterHelpers:Guids.obj
 0003:00007c70       _CID_IFXTaskData           0047cc70     IDTFConverterHelpers:Guids.obj
 0003:00007c80       _CID_IFXTaskManager        0047cc80     IDTFConverterHelpers:Guids.obj
 0003:00007c90       _CID_IFXTaskManagerNode    0047cc90     IDTFConverterHelpers:Guids.obj
 0003:00007ca0       _CID_IFXTaskManagerView    0047cca0     IDTFConverterHelpers:Guids.obj
 0003:00007cb0       _CID_IFXTimeManager        0047ccb0     IDTFConverterHelpers:Guids.obj
 0003:00007cc0       _CID_IFXErrorInfo          0047ccc0     IDTFConverterHelpers:Guids.obj
 0003:00007cd0       _CID_IFXClock              0047ccd0     IDTFConverterHelpers:Guids.obj
 0003:00007ce0       _CID_IFXTaskCallback       0047cce0     IDTFConverterHelpers:Guids.obj
 0003:00007cf0       _CID_IFXAuthorCLODDecoder  0047ccf0     IDTFConverterHelpers:Guids.obj
 0003:00007d00       _CID_IFXGroupDecoder       0047cd00     IDTFConverterHelpers:Guids.obj
 0003:00007d10       _CID_IFXLightDecoder       0047cd10     IDTFConverterHelpers:Guids.obj
 0003:00007d20       _CID_IFXLightResourceDecoder 0047cd20     IDTFConverterHelpers:Guids.obj
 0003:00007d30       _CID_IFXMaterialDecoder    0047cd30     IDTFConverterHelpers:Guids.obj
 0003:00007d40       _CID_IFXModelDecoder       0047cd40     IDTFConverterHelpers:Guids.obj
 0003:00007d50       _CID_IFXCLODModifierParamDecoder 0047cd50     IDTFConverterHelpers:Guids.obj
 0003:00007d60       _CID_IFXSkeletonModifierDecoder 0047cd60     IDTFConverterHelpers:Guids.obj
 0003:00007d70       _CID_IFXAnimationModifierDecoder 0047cd70     IDTFConverterHelpers:Guids.obj
 0003:00007d80       _CID_IFXMotionDecoder      0047cd80     IDTFConverterHelpers:Guids.obj
 0003:00007d90       _CID_IFXCLODGeneratorDecoder 0047cd90     IDTFConverterHelpers:Guids.obj
 0003:00007da0       _CID_IFXGlyphGeneratorDecoder 0047cda0     IDTFConverterHelpers:Guids.obj
 0003:00007db0       _CID_IFXBoxGeneratorDecoder 0047cdb0     IDTFConverterHelpers:Guids.obj
 0003:00007dc0       _CID_IFXCylinderGeneratorDecoder 0047cdc0     IDTFConverterHelpers:Guids.obj
 0003:00007dd0       _CID_IFXPlaneGeneratorDecoder 0047cdd0     IDTFConverterHelpers:Guids.obj
 0003:00007de0       _CID_IFXSphereGeneratorDecoder 0047cde0     IDTFConverterHelpers:Guids.obj
 0003:00007df0       _CID_IFXShaderLitTextureDecoder 0047cdf0     IDTFConverterHelpers:Guids.obj
 0003:00007e00       _CID_IFXTextureDecoder     0047ce00     IDTFConverterHelpers:Guids.obj
 0003:00007e10       _CID_IFXSubdivisionModifierDecoder 0047ce10     IDTFConverterHelpers:Guids.obj
 0003:00007e20       _CID_IFXShadingModifierDecoder 0047ce20     IDTFConverterHelpers:Guids.obj
 0003:00007e30       _CID_IFXExternalPluginDecoder 0047ce30     IDTFConverterHelpers:Guids.obj
 0003:00007e40       _CID_IFXDecoderChainX      0047ce40     IDTFConverterHelpers:Guids.obj
 0003:00007e50       _CID_IFXViewDecoder        0047ce50     IDTFConverterHelpers:Guids.obj
 0003:00007e60       _CID_IFXViewResourceDecoder 0047ce60     IDTFConverterHelpers:Guids.obj
 0003:00007e70       _CID_IFXBlockReaderX       0047ce70     IDTFConverterHelpers:Guids.obj
 0003:00007e80       _CID_IFXBTTHash            0047ce80     IDTFConverterHelpers:Guids.obj
 0003:00007e90       _CID_IFXLoadManager        0047ce90     IDTFConverterHelpers:Guids.obj
 0003:00007ea0       _CID_IFXStdioReadBuffer    0047cea0     IDTFConverterHelpers:Guids.obj
 0003:00007eb0       _CID_IFXStdioReadBufferX   0047ceb0     IDTFConverterHelpers:Guids.obj
 0003:00007ec0       _CID_IFXInternetReadBuffer 0047cec0     IDTFConverterHelpers:Guids.obj
 0003:00007ed0       _CID_IFXInternetReadBufferX 0047ced0     IDTFConverterHelpers:Guids.obj
 0003:00007ee0       _CID_IFXPointSetDecoder    0047cee0     IDTFConverterHelpers:Guids.obj
 0003:00007ef0       _CID_IFXLineSetDecoder     0047cef0     IDTFConverterHelpers:Guids.obj
 0003:00007f00       _CID_IFXBoneWeightsModifierDecoder 0047cf00     IDTFConverterHelpers:Guids.obj
 0003:00007f10       _CID_IFXCLODModifierDecoder 0047cf10     IDTFConverterHelpers:Guids.obj
 0003:00007f20       _CID_IFXDummyModifierDecoder 0047cf20     IDTFConverterHelpers:Guids.obj
 0003:00007f30       _IID_IFXTaskData           0047cf30     IDTFConverterHelpers:Guids.obj
 0003:00007f40       _IID_IFXTask               0047cf40     IDTFConverterHelpers:Guids.obj
 0003:00007f50       _IID_IFXErrorInfo          0047cf50     IDTFConverterHelpers:Guids.obj
 0003:00007f60       _IID_IFXNotificationInfo   0047cf60     IDTFConverterHelpers:Guids.obj
 0003:00007f70       _IID_IFXTaskManagerNode    0047cf70     IDTFConverterHelpers:Guids.obj
 0003:00007f80       _IID_IFXTaskManagerView    0047cf80     IDTFConverterHelpers:Guids.obj
 0003:00007f90       _IID_IFXTaskManager        0047cf90     IDTFConverterHelpers:Guids.obj
 0003:00007fa0       _IID_IFXNotificationManager 0047cfa0     IDTFConverterHelpers:Guids.obj
 0003:00007fb0       _IID_IFXClock              0047cfb0     IDTFConverterHelpers:Guids.obj
 0003:00007fc0       _IID_IFXSimulationManager  0047cfc0     IDTFConverterHelpers:Guids.obj
 0003:00007fd0       _IID_IFXSystemManager      0047cfd0     IDTFConverterHelpers:Guids.obj
 0003:00007fe0       _IID_IFXTimeManager        0047cfe0     IDTFConverterHelpers:Guids.obj
 0003:00007ff0       _IID_IFXScheduler          0047cff0     IDTFConverterHelpers:Guids.obj
 0003:00008000       _IID_IFXAuthorMesh         0047d000     IDTFConverterHelpers:Guids.obj
 0003:00008010       _IID_IFXAuthorCLODMesh     0047d010     IDTFConverterHelpers:Guids.obj
 0003:00008020       _IID_IFXAuthorMeshMap      0047d020     IDTFConverterHelpers:Guids.obj
 0003:00008030       _IID_IFXAuthorCLODGen      0047d030     IDTFConverterHelpers:Guids.obj
 0003:00008040       _IID_IFXAuthorLineSet      0047d040     IDTFConverterHelpers:Guids.obj
 0003:00008050       _IID_IFXAuthorPointSet     0047d050     IDTFConverterHelpers:Guids.obj
 0003:00008060       _IID_IFXMeshMap            0047d060     IDTFConverterHelpers:Guids.obj
 0003:00008070       _IID_IFXGenerator          0047d070     IDTFConverterHelpers:Guids.obj
 0003:00008080       _IID_IFXAuthorCLODResource 0047d080     IDTFConverterHelpers:Guids.obj
 0003:00008090       _IID_IFXAuthorMeshScrub    0047d090     IDTFConverterHelpers:Guids.obj
 0003:000080a0       _IID_IFXAuthorGeomCompiler 0047d0a0     IDTFConverterHelpers:Guids.obj
 0003:000080b0       _IID_IFXSubdivModifier     0047d0b0     IDTFConverterHelpers:Guids.obj
 0003:000080c0       _IID_IFXCLODModifier       0047d0c0     IDTFConverterHelpers:Guids.obj
 0003:000080d0       _IID_IFXShadingModifier    0047d0d0     IDTFConverterHelpers:Guids.obj
 0003:000080e0       _IID_IFXGlyph2DCommands    0047d0e0     IDTFConverterHelpers:Guids.obj
 0003:000080f0       _IID_IFXGlyphTagBlock      0047d0f0     IDTFConverterHelpers:Guids.obj
 0003:00008100       _IID_IFXGlyphMoveToBlock   0047d100     IDTFConverterHelpers:Guids.obj
 0003:00008110       _IID_IFXGlyphLineToBlock   0047d110     IDTFConverterHelpers:Guids.obj
 0003:00008120       _IID_IFXGlyphCurveToBlock  0047d120     IDTFConverterHelpers:Guids.obj
 0003:00008130       _IID_IFXGlyph2DModifier    0047d130     IDTFConverterHelpers:Guids.obj
 0003:00008140       _IID_IFXGlyphCommandList   0047d140     IDTFConverterHelpers:Guids.obj
 0003:00008150       _IID_IFXAuthorLineSetResource 0047d150     IDTFConverterHelpers:Guids.obj
 0003:00008160       _IID_IFXAuthorPointSetResource 0047d160     IDTFConverterHelpers:Guids.obj
 0003:00008170       _IID_IFXModifierChain      0047d170     IDTFConverterHelpers:Guids.obj
 0003:00008180       _CID_IFXSimulationTask     0047d180     IDTFConverterHelpers:Guids.obj
 0003:00008190       _IID_IFXSimulationTask     0047d190     IDTFConverterHelpers:Guids.obj
 0003:000081a0       _IID_IFXCLODManager        0047d1a0     IDTFConverterHelpers:Guids.obj
 0003:000081b0       _IID_IFXImageCodec         0047d1b0     IDTFConverterHelpers:Guids.obj
 0003:000081c0       _IID_IFXReadBuffer         0047d1c0     IDTFConverterHelpers:Guids.obj
 0003:000081d0       _IID_IFXFileReference      0047d1d0     IDTFConverterHelpers:Guids.obj
 0003:000081e0       _IID_IFXLoadManager        0047d1e0     IDTFConverterHelpers:Guids.obj
 0003:000081f0       _IID_IFXWriteBuffer        0047d1f0     IDTFConverterHelpers:Guids.obj
 0003:00008200       _IID_IFXWriteManager       0047d200     IDTFConverterHelpers:Guids.obj
 0003:00008210       _IID_IFXBoundSphereDataElement 0047d210     IDTFConverterHelpers:Guids.obj
 0003:00008220       _DID_IFXRenderableGroup    0047d220     IDTFConverterHelpers:Guids.obj
 0003:00008230       _DID_IFXRenderableGroupBounds 0047d230     IDTFConverterHelpers:Guids.obj
 0003:00008240       _DID_IFXBoundFrame         0047d240     IDTFConverterHelpers:Guids.obj
 0003:00008250       _DID_IFXBoundFrameBounds   0047d250     IDTFConverterHelpers:Guids.obj
 0003:00008260       _DID_IFXLightSet           0047d260     IDTFConverterHelpers:Guids.obj
 0003:00008270       _DID_IFXNeighborMesh       0047d270     IDTFConverterHelpers:Guids.obj
 0003:00008280       _DID_IFXCLODController     0047d280     IDTFConverterHelpers:Guids.obj
 0003:00008290       _DID_IFXNeighborResController 0047d290     IDTFConverterHelpers:Guids.obj
 0003:000082a0       _DID_IFXTransform          0047d2a0     IDTFConverterHelpers:Guids.obj
 0003:000082b0       _DID_IFXFrustum            0047d2b0     IDTFConverterHelpers:Guids.obj
 0003:000082c0       _DID_IFXViewSize           0047d2c0     IDTFConverterHelpers:Guids.obj
 0003:000082d0       _DID_IFXSimulationTime     0047d2d0     IDTFConverterHelpers:Guids.obj
 0003:000082e0       _DID_IFXVertexWeights      0047d2e0     IDTFConverterHelpers:Guids.obj
 0003:000082f0       _DID_IFXBoneMatrices       0047d2f0     IDTFConverterHelpers:Guids.obj
 0003:00008300       _DID_IFXBonesManager       0047d300     IDTFConverterHelpers:Guids.obj
 0003:00008310       _DID_IFXBoneWeights        0047d310     IDTFConverterHelpers:Guids.obj
 0003:00008320       _DID_IFXMatrixSet          0047d320     IDTFConverterHelpers:Guids.obj
 0003:00008330       _DID_IFXSkeleton           0047d330     IDTFConverterHelpers:Guids.obj
 0003:00008340       _DID_IFXTexture            0047d340     IDTFConverterHelpers:Guids.obj
 0003:00008350       _DTS_IFXRenderable         0047d350     IDTFConverterHelpers:Guids.obj
 0003:00008360       _DTS_IFXBound              0047d360     IDTFConverterHelpers:Guids.obj
 0003:00008370       _DID_IFXNullOutput         0047d370     IDTFConverterHelpers:Guids.obj
 0003:00008380       _IID_IFXStdio              0047d380     IDTFConverterHelpers:Guids.obj
 0003:0000884c       ??_7type_info@@6B@         0047d84c     LIBCMT:typinfo.obj
 0003:0000893c       ??_C@_0P@MIGLKIOC@CorExitProcess?$AA@ 0047d93c     LIBCMT:crt0dat.obj
 0003:0000894c       ??_C@_0M@MBOPBNBK@mscoree?4dll?$AA@ 0047d94c     LIBCMT:crt0dat.obj
 0003:00008ae8       ??_C@_07LCBHPJJN@LC_TIME?$AA@ 0047dae8     LIBCMT:setlocal.obj
 0003:00008af0       ??_C@_0L@DLHIECNL@LC_NUMERIC?$AA@ 0047daf0     LIBCMT:setlocal.obj
 0003:00008afc       ??_C@_0M@MIENIKLA@LC_MONETARY?$AA@ 0047dafc     LIBCMT:setlocal.obj
 0003:00008b08       ??_C@_08EADHIDAD@LC_CTYPE?$AA@ 0047db08     LIBCMT:setlocal.obj
 0003:00008b14       ??_C@_0L@KFJHEKIK@LC_COLLATE?$AA@ 0047db14     LIBCMT:setlocal.obj
 0003:00008b20       ??_C@_06NEFDFEKB@LC_ALL?$AA@ 0047db20     LIBCMT:setlocal.obj
 0003:00008b28       ??_C@_03EGDHDPFD@_?4?0?$AA@ 0047db28     LIBCMT:setlocal.obj
 0003:00008b2c       ??_C@_01LFCBOECM@?4?$AA@   0047db2c     LIBCMT:setlocal.obj
 0003:00008b30       ??_C@_01IDAFKMJL@_?$AA@    0047db30     LIBCMT:setlocal.obj
 0003:00008b44       ??_C@_01ICJEACDI@?$DL?$AA@ 0047db44     LIBCMT:setlocal.obj
 0003:00008b48       ??_C@_01NEMOKFLO@?$DN?$AA@ 0047db48     LIBCMT:setlocal.obj
 0003:00008b4a       ??_C@_00CNPNBAHC@?$AA@     0047db4a     LIBCMT:setlocal.obj
 0003:00008b4c       ??_C@_02BALPLPBG@?$DN?$DL?$AA@ 0047db4c     LIBCMT:setlocal.obj
 0003:00008c38       ??_C@_07PEJMOBNF@FlsFree?$AA@ 0047dc38     LIBCMT:tidtable.obj
 0003:00008c40       ??_C@_0M@JCPCPOEF@FlsSetValue?$AA@ 0047dc40     LIBCMT:tidtable.obj
 0003:00008c4c       ??_C@_0M@GDNOONDI@FlsGetValue?$AA@ 0047dc4c     LIBCMT:tidtable.obj
 0003:00008c58       ??_C@_08KNHFBNJ@FlsAlloc?$AA@ 0047dc58     LIBCMT:tidtable.obj
 0003:00008c64       ??_C@_0N@MDJJJHMB@kernel32?4dll?$AA@ 0047dc64     LIBCMT:tidtable.obj
 0003:00008ca8       __real@0000000000000000    0047dca8     LIBCMT:cvt.obj
 0003:00008cb0       ??_C@_05KLBDPFGC@e?$CL000?$AA@ 0047dcb0     LIBCMT:cvt.obj
 0003:00008cb8       __real@3ff0000000000000    0047dcb8     LIBCMT:testfdiv.obj
 0003:00008cc0       __real@4150017ec0000000    0047dcc0     LIBCMT:testfdiv.obj
 0003:00008cc8       __real@4147ffff80000000    0047dcc8     LIBCMT:testfdiv.obj
 0003:00008cd0       ??_C@_0BK@NHEOCAHP@IsProcessorFeaturePresent?$AA@ 0047dcd0     LIBCMT:testfdiv.obj
 0003:00008cec       ??_C@_08CPNIBGIE@KERNEL32?$AA@ 0047dcec     LIBCMT:testfdiv.obj
 0003:00008cf8       ___lookuptable             0047dcf8     LIBCMT:output.obj
 0003:00008d54       ??_C@_1O@CEDCILHN@?$AA?$CI?$AAn?$AAu?$AAl?$AAl?$AA?$CJ?$AA?$AA@ 0047dd54     LIBCMT:output.obj
 0003:00008d64       ??_C@_06OJHGLDPL@?$CInull?$CJ?$AA@ 0047dd64     LIBCMT:output.obj
 0003:00008db4       ??_C@_0P@GGKDKEEG@runtime?5error?5?$AA@ 0047ddb4     LIBCMT:crt0msg.obj
 0003:00008dc4       ??_C@_02PCIJFNDE@?$AN?6?$AA@ 0047ddc4     LIBCMT:crt0msg.obj
 0003:00008dc8       ??_C@_0O@MJNIPGOH@TLOSS?5error?$AN?6?$AA@ 0047ddc8     LIBCMT:crt0msg.obj
 0003:00008dd8       ??_C@_0N@BONNPDHF@SING?5error?$AN?6?$AA@ 0047ddd8     LIBCMT:crt0msg.obj
 0003:00008de8       ??_C@_0P@MBDAJNE@DOMAIN?5error?$AN?6?$AA@ 0047dde8     LIBCMT:crt0msg.obj
 0003:00008df8       ??_C@_0KC@BDDGGBEJ@R6029?$AN?6?9?5This?5application?5cannot@ 0047ddf8     LIBCMT:crt0msg.obj
 0003:00008e9c       ??_C@_0CF@KJDAIALP@R6028?$AN?6?9?5unable?5to?5initialize?5he@ 0047de9c     LIBCMT:crt0msg.obj
 0003:00008ec4       ??_C@_0DF@GAKBPDFP@R6027?$AN?6?9?5not?5enough?5space?5for?5lo@ 0047dec4     LIBCMT:crt0msg.obj
 0003:00008efc       ??_C@_0DF@IBLNNAIG@R6026?$AN?6?9?5not?5enough?5space?5for?5st@ 0047defc     LIBCMT:crt0msg.obj
 0003:00008f34       ??_C@_0CG@IOHKGFNJ@R6025?$AN?6?9?5pure?5virtual?5function?5c@ 0047df34     LIBCMT:crt0msg.obj
 0003:00008f5c       ??_C@_0DF@JIJJFJDC@R6024?$AN?6?9?5not?5enough?5space?5for?5_o@ 0047df5c     LIBCMT:crt0msg.obj
 0003:00008f94       ??_C@_0CJ@EGEJHFME@R6019?$AN?6?9?5unable?5to?5open?5console?5@ 0047df94     LIBCMT:crt0msg.obj
 0003:00008fc0       ??_C@_0CB@GNHNIELH@R6018?$AN?6?9?5unexpected?5heap?5error?$AN?6@ 0047dfc0     LIBCMT:crt0msg.obj
 0003:00008fe4       ??_C@_0CN@FOLDKNG@R6017?$AN?6?9?5unexpected?5multithread?5@ 0047dfe4     LIBCMT:crt0msg.obj
 0003:00009014       ??_C@_0CM@FAHFJNHO@R6016?$AN?6?9?5not?5enough?5space?5for?5th@ 0047e014     LIBCMT:crt0msg.obj
 0003:00009040       ??_C@_0JG@LBKMGKLD@?$AN?6This?5application?5has?5requested@ 0047e040     LIBCMT:crt0msg.obj
 0003:000090d8       ??_C@_0CM@FLCNIPKK@R6009?$AN?6?9?5not?5enough?5space?5for?5en@ 0047e0d8     LIBCMT:crt0msg.obj
 0003:00009104       ??_C@_0CK@KMMJOAPP@R6008?$AN?6?9?5not?5enough?5space?5for?5ar@ 0047e104     LIBCMT:crt0msg.obj
 0003:00009130       ??_C@_0CF@HOHMHDEK@R6002?$AN?6?9?5floating?5point?5not?5load@ 0047e130     LIBCMT:crt0msg.obj
 0003:00009158       ??_C@_0CF@GOGNBNAK@Microsoft?5Visual?5C?$CL?$CL?5Runtime?5Lib@ 0047e158     LIBCMT:crt0msg.obj
 0003:00009180       ??_C@_02PHMGELLB@?6?6?$AA@ 0047e180     LIBCMT:crt0msg.obj
 0003:00009184       ??_C@_0BK@OFGJDLJJ@Runtime?5Error?$CB?6?6Program?3?5?$AA@ 0047e184     LIBCMT:crt0msg.obj
 0003:000091a0       ??_C@_03KHICJKCI@?4?4?4?$AA@ 0047e1a0     LIBCMT:crt0msg.obj
 0003:000091a4       ??_C@_0BH@DNAGHKFM@?$DMprogram?5name?5unknown?$DO?$AA@ 0047e1a4     LIBCMT:crt0msg.obj
 0003:000091ec       ??_C@_08JCCMCCIL@HH?3mm?3ss?$AA@ 0047e1ec     LIBCMT:strftime.obj
 0003:000091f8       ??_C@_0BE@CKGJFCPC@dddd?0?5MMMM?5dd?0?5yyyy?$AA@ 0047e1f8     LIBCMT:strftime.obj
 0003:0000920c       ??_C@_08BPBNCDIB@MM?1dd?1yy?$AA@ 0047e20c     LIBCMT:strftime.obj
 0003:00009218       ??_C@_02CJNFDJBF@PM?$AA@   0047e218     LIBCMT:strftime.obj
 0003:0000921c       ??_C@_02DEDBPAFC@AM?$AA@   0047e21c     LIBCMT:strftime.obj
 0003:00009220       ??_C@_08EDHMEBNP@December?$AA@ 0047e220     LIBCMT:strftime.obj
 0003:0000922c       ??_C@_08HCHEGEOA@November?$AA@ 0047e22c     LIBCMT:strftime.obj
 0003:00009238       ??_C@_07JJNFCEND@October?$AA@ 0047e238     LIBCMT:strftime.obj
 0003:00009240       ??_C@_09BHHEALKD@September?$AA@ 0047e240     LIBCMT:strftime.obj
 0003:0000924c       ??_C@_06LBBHFDDG@August?$AA@ 0047e24c     LIBCMT:strftime.obj
 0003:00009254       ??_C@_04MIEPOIFP@July?$AA@ 0047e254     LIBCMT:strftime.obj
 0003:0000925c       ??_C@_04CNLMGBGM@June?$AA@ 0047e25c     LIBCMT:strftime.obj
 0003:00009264       ??_C@_05DMJDNLEJ@April?$AA@ 0047e264     LIBCMT:strftime.obj
 0003:0000926c       ??_C@_05HPCKOFNC@March?$AA@ 0047e26c     LIBCMT:strftime.obj
 0003:00009274       ??_C@_08GNJGEPFN@February?$AA@ 0047e274     LIBCMT:strftime.obj
 0003:00009280       ??_C@_07CGJPFGJA@January?$AA@ 0047e280     LIBCMT:strftime.obj
 0003:00009288       ??_C@_03MKABNOCG@Dec?$AA@  0047e288     LIBCMT:strftime.obj
 0003:0000928c       ??_C@_03JPJOFNIA@Nov?$AA@  0047e28c     LIBCMT:strftime.obj
 0003:00009290       ??_C@_03BMAOKBAD@Oct?$AA@  0047e290     LIBCMT:strftime.obj
 0003:00009294       ??_C@_03GGCAPAJC@Sep?$AA@  0047e294     LIBCMT:strftime.obj
 0003:00009298       ??_C@_03IFJFEIGA@Aug?$AA@  0047e298     LIBCMT:strftime.obj
 0003:0000929c       ??_C@_03LBGABGKK@Jul?$AA@  0047e29c     LIBCMT:strftime.obj
 0003:000092a0       ??_C@_03IDFGHECI@Jun?$AA@  0047e2a0     LIBCMT:strftime.obj
 0003:000092a4       ??_C@_03CNMDKL@May?$AA@    0047e2a4     LIBCMT:strftime.obj
 0003:000092a8       ??_C@_03LEOLGMJP@Apr?$AA@  0047e2a8     LIBCMT:strftime.obj
 0003:000092ac       ??_C@_03ODNJBKGA@Mar?$AA@  0047e2ac     LIBCMT:strftime.obj
 0003:000092b0       ??_C@_03HJBDCHOM@Feb?$AA@  0047e2b0     LIBCMT:strftime.obj
 0003:000092b4       ??_C@_03JIHJHPIE@Jan?$AA@  0047e2b4     LIBCMT:strftime.obj
 0003:000092b8       ??_C@_08INBOOONO@Saturday?$AA@ 0047e2b8     LIBCMT:strftime.obj
 0003:000092c4       ??_C@_06JECMNKMI@Friday?$AA@ 0047e2c4     LIBCMT:strftime.obj
 0003:000092cc       ??_C@_08HACCIKIA@Thursday?$AA@ 0047e2cc     LIBCMT:strftime.obj
 0003:000092d8       ??_C@_09DLIGFAKA@Wednesday?$AA@ 0047e2d8     LIBCMT:strftime.obj
 0003:000092e4       ??_C@_07BAAGCFCM@Tuesday?$AA@ 0047e2e4     LIBCMT:strftime.obj
 0003:000092ec       ??_C@_06JLEDEDGH@Monday?$AA@ 0047e2ec     LIBCMT:strftime.obj
 0003:000092f4       ??_C@_06OOPIFAJ@Sunday?$AA@ 0047e2f4     LIBCMT:strftime.obj
 0003:000092fc       ??_C@_03FEFJNEK@Sat?$AA@   0047e2fc     LIBCMT:strftime.obj
 0003:00009300       ??_C@_03IDIOELNC@Fri?$AA@  0047e300     LIBCMT:strftime.obj
 0003:00009304       ??_C@_03IOFIKPDN@Thu?$AA@  0047e304     LIBCMT:strftime.obj
 0003:00009308       ??_C@_03MHOMLAJA@Wed?$AA@  0047e308     LIBCMT:strftime.obj
 0003:0000930c       ??_C@_03NAGEINEP@Tue?$AA@  0047e30c     LIBCMT:strftime.obj
 0003:00009310       ??_C@_03PDAGKDH@Mon?$AA@   0047e310     LIBCMT:strftime.obj
 0003:00009314       ??_C@_03KOEHGMDN@Sun?$AA@  0047e314     LIBCMT:strftime.obj
 0003:00009318       ___newctype                0047e318     LIBCMT:ctype.obj
 0003:00009618       __wctype                   0047e618     LIBCMT:ctype.obj
 0003:00009820       ___rgLocInfo               0047e820     LIBCMT:getqloc.obj
 0003:00009cc4       ??_C@_08PKBIPKE@Paraguay?$AA@ 0047ecc4     LIBCMT:getqloc.obj
 0003:00009cd0       ??_C@_07GHBIBIBP@Uruguay?$AA@ 0047ecd0     LIBCMT:getqloc.obj
 0003:00009cd8       ??_C@_05HBNKAPDN@Chile?$AA@ 0047ecd8     LIBCMT:getqloc.obj
 0003:00009ce0       ??_C@_07FEIFIPNF@Ecuador?$AA@ 0047ece0     LIBCMT:getqloc.obj
 0003:00009ce8       ??_C@_09PGNFPGME@Argentina?$AA@ 0047ece8     LIBCMT:getqloc.obj
 0003:00009cf4       ??_C@_04IALPBJF@Peru?$AA@  0047ecf4     LIBCMT:getqloc.obj
 0003:00009cfc       ??_C@_08IJPLNLKH@Colombia?$AA@ 0047ecfc     LIBCMT:getqloc.obj
 0003:00009d08       ??_C@_09IDMFKCN@Venezuela?$AA@ 0047ed08     LIBCMT:getqloc.obj
 0003:00009d14       ??_C@_0BD@DNEJOGOK@Dominican?5Republic?$AA@ 0047ed14     LIBCMT:getqloc.obj
 0003:00009d28       ??_C@_0N@LPINDNDB@South?5Africa?$AA@ 0047ed28     LIBCMT:getqloc.obj
 0003:00009d38       ??_C@_06BLJPEOBG@Panama?$AA@ 0047ed38     LIBCMT:getqloc.obj
 0003:00009d40       ??_C@_0L@BOCNDGON@Luxembourg?$AA@ 0047ed40     LIBCMT:getqloc.obj
 0003:00009d4c       ??_C@_0L@CONEHKA@Costa?5Rica?$AA@ 0047ed4c     LIBCMT:getqloc.obj
 0003:00009d58       ??_C@_0M@KGBPELAM@Switzerland?$AA@ 0047ed58     LIBCMT:getqloc.obj
 0003:00009d64       ??_C@_09FJGLIMAG@Guatemala?$AA@ 0047ed64     LIBCMT:getqloc.obj
 0003:00009d70       ??_C@_06ECHIPDMK@Canada?$AA@ 0047ed70     LIBCMT:getqloc.obj
 0003:00009d78       ??_C@_0BG@CCEBNPGH@Spanish?5?9?5Modern?5Sort?$AA@ 0047ed78     LIBCMT:getqloc.obj
 0003:00009d90       ??_C@_09EFGJAPAD@Australia?$AA@ 0047ed90     LIBCMT:getqloc.obj
 0003:00009d9c       ??_C@_07NEKHPBCG@English?$AA@ 0047ed9c     LIBCMT:getqloc.obj
 0003:00009da4       ??_C@_07LKIIOGFH@Austria?$AA@ 0047eda4     LIBCMT:getqloc.obj
 0003:00009dac       ??_C@_06EDDDIONA@German?$AA@ 0047edac     LIBCMT:getqloc.obj
 0003:00009db4       ??_C@_07LIIIOFOA@Belgium?$AA@ 0047edb4     LIBCMT:getqloc.obj
 0003:00009dbc       ??_C@_06DIAOLLEH@Mexico?$AA@ 0047edbc     LIBCMT:getqloc.obj
 0003:00009dc4       ??_C@_07PFALJOGE@Spanish?$AA@ 0047edc4     LIBCMT:getqloc.obj
 0003:00009dcc       ??_C@_06FFOOPAJB@Basque?$AA@ 0047edcc     LIBCMT:getqloc.obj
 0003:00009dd4       ??_C@_06DGHNDJFJ@Sweden?$AA@ 0047edd4     LIBCMT:getqloc.obj
 0003:00009ddc       ??_C@_07OBINPKFN@Swedish?$AA@ 0047eddc     LIBCMT:getqloc.obj
 0003:00009de4       ??_C@_07NCOIHDGC@Iceland?$AA@ 0047ede4     LIBCMT:getqloc.obj
 0003:00009dec       ??_C@_09JHBBDDIA@Icelandic?$AA@ 0047edec     LIBCMT:getqloc.obj
 0003:00009df8       ??_C@_06COBCPIFO@France?$AA@ 0047edf8     LIBCMT:getqloc.obj
 0003:00009e00       ??_C@_06GODMCAND@French?$AA@ 0047ee00     LIBCMT:getqloc.obj
 0003:00009e08       ??_C@_07MFHPMOED@Finland?$AA@ 0047ee08     LIBCMT:getqloc.obj
 0003:00009e10       ??_C@_07MCEAMKOD@Finnish?$AA@ 0047ee10     LIBCMT:getqloc.obj
 0003:00009e18       ??_C@_05CBHOCCK@Spain?$AA@ 0047ee18     LIBCMT:getqloc.obj
 0003:00009e20       ??_C@_0BL@GIOEGDHB@Spanish?5?9?5Traditional?5Sort?$AA@ 0047ee20     LIBCMT:getqloc.obj
 0003:00009e3c       ___rglangidNotDefault      0047ee3c     LIBCMT:getqloc.obj
 0003:00009e50       ___rg_country              0047ee50     LIBCMT:getqloc.obj
 0003:00009f08       ??_C@_0O@FMJNFNKE@united?9states?$AA@ 0047ef08     LIBCMT:getqloc.obj
 0003:00009f18       ??_C@_0P@NDHFFKCA@united?9kingdom?$AA@ 0047ef18     LIBCMT:getqloc.obj
 0003:00009f28       ??_C@_0BC@HHDADLGF@trinidad?5?$CG?5tobago?$AA@ 0047ef28     LIBCMT:getqloc.obj
 0003:00009f3c       ??_C@_0M@IOAEBDAC@south?9korea?$AA@ 0047ef3c     LIBCMT:getqloc.obj
 0003:00009f48       ??_C@_0N@FIELFKIJ@south?9africa?$AA@ 0047ef48     LIBCMT:getqloc.obj
 0003:00009f58       ??_C@_0M@OPNDHCMC@south?5korea?$AA@ 0047ef58     LIBCMT:getqloc.obj
 0003:00009f64       ??_C@_0N@MDEOEPFI@south?5africa?$AA@ 0047ef64     LIBCMT:getqloc.obj
 0003:00009f74       ??_C@_06FKAPCJLB@slovak?$AA@ 0047ef74     LIBCMT:getqloc.obj
 0003:00009f7c       ??_C@_0M@EFJANOAL@puerto?9rico?$AA@ 0047ef7c     LIBCMT:getqloc.obj
 0003:00009f88       ??_C@_08PGOJKDAI@pr?9china?$AA@ 0047ef88     LIBCMT:getqloc.obj
 0003:00009f94       ??_C@_08JHDOMCMI@pr?5china?$AA@ 0047ef94     LIBCMT:getqloc.obj
 0003:00009fa0       ??_C@_02JHCHFBLL@nz?$AA@   0047efa0     LIBCMT:getqloc.obj
 0003:00009fa4       ??_C@_0M@LINHDHKP@new?9zealand?$AA@ 0047efa4     LIBCMT:getqloc.obj
 0003:00009fb0       ??_C@_09IIIPPBDB@hong?9kong?$AA@ 0047efb0     LIBCMT:getqloc.obj
 0003:00009fbc       ??_C@_07HJLCKBG@holland?$AA@ 0047efbc     LIBCMT:getqloc.obj
 0003:00009fc4       ??_C@_0O@LEHGMHAG@great?5britain?$AA@ 0047efc4     LIBCMT:getqloc.obj
 0003:00009fd4       ??_C@_07FACOMELA@england?$AA@ 0047efd4     LIBCMT:getqloc.obj
 0003:00009fdc       ??_C@_05JIHCEICB@czech?$AA@ 0047efdc     LIBCMT:getqloc.obj
 0003:00009fe4       ??_C@_05BBJOBLGB@china?$AA@ 0047efe4     LIBCMT:getqloc.obj
 0003:00009fec       ??_C@_07GPKPHICP@britain?$AA@ 0047efec     LIBCMT:getqloc.obj
 0003:00009ff4       ??_C@_07MHIPBHMG@america?$AA@ 0047eff4     LIBCMT:getqloc.obj
 0003:0000a000       ___rg_language             0047f000     LIBCMT:getqloc.obj
 0003:0000a208       ??_C@_03KIALPMKC@usa?$AA@  0047f208     LIBCMT:getqloc.obj
 0003:0000a20c       ??_C@_02FGJGKGGD@us?$AA@   0047f20c     LIBCMT:getqloc.obj
 0003:0000a210       ??_C@_02NEINDODK@uk?$AA@   0047f210     LIBCMT:getqloc.obj
 0003:0000a214       ??_C@_05JMPCFJFJ@swiss?$AA@ 0047f214     LIBCMT:getqloc.obj
 0003:0000a21c       ??_C@_0BA@HLOCPIOD@swedish?9finland?$AA@ 0047f21c     LIBCMT:getqloc.obj
 0003:0000a22c       ??_C@_0BC@PKCNIABK@spanish?9venezuela?$AA@ 0047f22c     LIBCMT:getqloc.obj
 0003:0000a240       ??_C@_0BA@GBHHMIJI@spanish?9uruguay?$AA@ 0047f240     LIBCMT:getqloc.obj
 0003:0000a250       ??_C@_0BE@BHDOHPMC@spanish?9puerto?5rico?$AA@ 0047f250     LIBCMT:getqloc.obj
 0003:0000a264       ??_C@_0N@KMOIDGGN@spanish?9peru?$AA@ 0047f264     LIBCMT:getqloc.obj
 0003:0000a274       ??_C@_0BB@HMHLPGPH@spanish?9paraguay?$AA@ 0047f274     LIBCMT:getqloc.obj
 0003:0000a288       ??_C@_0P@MCPKNGFD@spanish?9panama?$AA@ 0047f288     LIBCMT:getqloc.obj
 0003:0000a298       ??_C@_0BC@IHOHGAIL@spanish?9nicaragua?$AA@ 0047f298     LIBCMT:getqloc.obj
 0003:0000a2ac       ??_C@_0P@KLMJDNFJ@spanish?9modern?$AA@ 0047f2ac     LIBCMT:getqloc.obj
 0003:0000a2bc       ??_C@_0BA@BPAPGBCM@spanish?9mexican?$AA@ 0047f2bc     LIBCMT:getqloc.obj
 0003:0000a2cc       ??_C@_0BB@PDECHHHE@spanish?9honduras?$AA@ 0047f2cc     LIBCMT:getqloc.obj
 0003:0000a2e0       ??_C@_0BC@KLHKFGDB@spanish?9guatemala?$AA@ 0047f2e0     LIBCMT:getqloc.obj
 0003:0000a2f4       ??_C@_0BE@MFOOKJAI@spanish?9el?5salvador?$AA@ 0047f2f4     LIBCMT:getqloc.obj
 0003:0000a308       ??_C@_0BA@FCOKFPFC@spanish?9ecuador?$AA@ 0047f308     LIBCMT:getqloc.obj
 0003:0000a318       ??_C@_0BL@PLMGIMOO@spanish?9dominican?5republic?$AA@ 0047f318     LIBCMT:getqloc.obj
 0003:0000a334       ??_C@_0BD@HLGDNMHB@spanish?9costa?5rica?$AA@ 0047f334     LIBCMT:getqloc.obj
 0003:0000a348       ??_C@_0BB@PKCBKCPE@spanish?9colombia?$AA@ 0047f348     LIBCMT:getqloc.obj
 0003:0000a35c       ??_C@_0O@MCBIJGNE@spanish?9chile?$AA@ 0047f35c     LIBCMT:getqloc.obj
 0003:0000a36c       ??_C@_0BA@BEFEIGJJ@spanish?9bolivia?$AA@ 0047f36c     LIBCMT:getqloc.obj
 0003:0000a37c       ??_C@_0BC@EMECMPD@spanish?9argentina?$AA@ 0047f37c     LIBCMT:getqloc.obj
 0003:0000a390       ??_C@_0BF@EALFLENP@portuguese?9brazilian?$AA@ 0047f390     LIBCMT:getqloc.obj
 0003:0000a3a8       ??_C@_0BC@HBLEBLNN@norwegian?9nynorsk?$AA@ 0047f3a8     LIBCMT:getqloc.obj
 0003:0000a3bc       ??_C@_0BB@HMACDDCK@norwegian?9bokmal?$AA@ 0047f3bc     LIBCMT:getqloc.obj
 0003:0000a3d0       ??_C@_09BAFFPPHE@norwegian?$AA@ 0047f3d0     LIBCMT:getqloc.obj
 0003:0000a3dc       ??_C@_0O@EAJFJDFG@italian?9swiss?$AA@ 0047f3dc     LIBCMT:getqloc.obj
 0003:0000a3ec       ??_C@_0O@CNOMPGD@irish?9english?$AA@ 0047f3ec     LIBCMT:getqloc.obj
 0003:0000a3fc       ??_C@_0N@EDHBGCKG@german?9swiss?$AA@ 0047f3fc     LIBCMT:getqloc.obj
 0003:0000a40c       ??_C@_0BC@JACMHNBP@german?9luxembourg?$AA@ 0047f40c     LIBCMT:getqloc.obj
 0003:0000a420       ??_C@_0BE@HBGMGFEG@german?9lichtenstein?$AA@ 0047f420     LIBCMT:getqloc.obj
 0003:0000a434       ??_C@_0BA@HKKBIBKL@german?9austrian?$AA@ 0047f434     LIBCMT:getqloc.obj
 0003:0000a444       ??_C@_0N@GCAEPEBK@french?9swiss?$AA@ 0047f444     LIBCMT:getqloc.obj
 0003:0000a454       ??_C@_0BC@DJFJJCK@french?9luxembourg?$AA@ 0047f454     LIBCMT:getqloc.obj
 0003:0000a468       ??_C@_0BA@NNCEDFIC@french?9canadian?$AA@ 0047f468     LIBCMT:getqloc.obj
 0003:0000a478       ??_C@_0P@CMPOCLM@french?9belgian?$AA@ 0047f478     LIBCMT:getqloc.obj
 0003:0000a488       ??_C@_0M@GHHDJOK@english?9usa?$AA@ 0047f488     LIBCMT:getqloc.obj
 0003:0000a494       ??_C@_0L@PLDJKEIL@english?9us?$AA@ 0047f494     LIBCMT:getqloc.obj
 0003:0000a4a0       ??_C@_0L@HJCCDMNC@english?9uk?$AA@ 0047f4a0     LIBCMT:getqloc.obj
 0003:0000a4ac       ??_C@_0BK@CKLIAGJB@english?9trinidad?5y?5tobago?$AA@ 0047f4ac     LIBCMT:getqloc.obj
 0003:0000a4c8       ??_C@_0BF@JMJMGNNF@english?9south?5africa?$AA@ 0047f4c8     LIBCMT:getqloc.obj
 0003:0000a4e0       ??_C@_0L@DKIIFDFD@english?9nz?$AA@ 0047f4e0     LIBCMT:getqloc.obj
 0003:0000a4ec       ??_C@_0BA@ONHGJCLH@english?9jamaica?$AA@ 0047f4ec     LIBCMT:getqloc.obj
 0003:0000a4fc       ??_C@_0M@HJBGHOPO@english?9ire?$AA@ 0047f4fc     LIBCMT:getqloc.obj
 0003:0000a508       ??_C@_0BC@LFEKMIFB@english?9caribbean?$AA@ 0047f508     LIBCMT:getqloc.obj
 0003:0000a51c       ??_C@_0M@OLDPFKHI@english?9can?$AA@ 0047f51c     LIBCMT:getqloc.obj
 0003:0000a528       ??_C@_0P@OMDEHBMP@english?9belize?$AA@ 0047f528     LIBCMT:getqloc.obj
 0003:0000a538       ??_C@_0M@KFHFPFED@english?9aus?$AA@ 0047f538     LIBCMT:getqloc.obj
 0003:0000a544       ??_C@_0BB@MNMBKDFE@english?9american?$AA@ 0047f544     LIBCMT:getqloc.obj
 0003:0000a558       ??_C@_0O@KIDLNNBA@dutch?9belgian?$AA@ 0047f558     LIBCMT:getqloc.obj
 0003:0000a568       ??_C@_0BE@JBKABBMH@chinese?9traditional?$AA@ 0047f568     LIBCMT:getqloc.obj
 0003:0000a57c       ??_C@_0BC@MJJMPKCG@chinese?9singapore?$AA@ 0047f57c     LIBCMT:getqloc.obj
 0003:0000a590       ??_C@_0BD@FDKADDCP@chinese?9simplified?$AA@ 0047f590     LIBCMT:getqloc.obj
 0003:0000a5a4       ??_C@_0BB@DBEFDDME@chinese?9hongkong?$AA@ 0047f5a4     LIBCMT:getqloc.obj
 0003:0000a5b8       ??_C@_07DHNMFMCI@chinese?$AA@ 0047f5b8     LIBCMT:getqloc.obj
 0003:0000a5c0       ??_C@_03FNDDCHI@chi?$AA@   0047f5c0     LIBCMT:getqloc.obj
 0003:0000a5c4       ??_C@_03BMMIADDJ@chh?$AA@  0047f5c4     LIBCMT:getqloc.obj
 0003:0000a5c8       ??_C@_08OAIPJDGI@canadian?$AA@ 0047f5c8     LIBCMT:getqloc.obj
 0003:0000a5d4       ??_C@_07HBPMNPNJ@belgian?$AA@ 0047f5d4     LIBCMT:getqloc.obj
 0003:0000a5dc       ??_C@_0L@OEKOPBEL@australian?$AA@ 0047f5dc     LIBCMT:getqloc.obj
 0003:0000a5e8       ??_C@_0BB@MEIMBEDG@american?9english?$AA@ 0047f5e8     LIBCMT:getqloc.obj
 0003:0000a5fc       ??_C@_0BB@DFMDPDGB@american?5english?$AA@ 0047f5fc     LIBCMT:getqloc.obj
 0003:0000a610       ??_C@_08IJLOKOLL@american?$AA@ 0047f610     LIBCMT:getqloc.obj
 0003:0000a61c       ??_C@_03NFKLAGEF@OCP?$AA@  0047f61c     LIBCMT:getqloc.obj
 0003:0000a620       ??_C@_03DFHEHBHG@ACP?$AA@  0047f620     LIBCMT:getqloc.obj
 0003:0000a624       ??_C@_0BC@NFIEMBLL@Norwegian?9Nynorsk?$AA@ 0047f624     LIBCMT:getqloc.obj
 0003:0000a644       ??_C@_13NOLLCAOD@?$AA?$AA?$AA?$AA@ 0047f644     LIBCMT:a_str.obj
 0003:0000a6e4       ___dnames                  0047f6e4     LIBCMT:timeset.obj
 0003:0000a6fc       ___mnames                  0047f6fc     LIBCMT:timeset.obj
 0003:0000a724       ??_C@_02CLFPBFFP@TZ?$AA@   0047f724     LIBCMT:tzset.obj
 0003:0000a784       ??_C@_0CG@PKBDLMEO@InitializeCriticalSectionAndSpin@ 0047f784     LIBCMT:initcrit.obj
 0003:0000a804       ??_C@_0BI@DFKBFLJE@GetProcessWindowStation?$AA@ 0047f804     LIBCMT:crtmbox.obj
 0003:0000a81c       ??_C@_0BK@CIDNPOGP@GetUserObjectInformationA?$AA@ 0047f81c     LIBCMT:crtmbox.obj
 0003:0000a838       ??_C@_0BD@HHGDFDBJ@GetLastActivePopup?$AA@ 0047f838     LIBCMT:crtmbox.obj
 0003:0000a84c       ??_C@_0BA@HNOPNCHB@GetActiveWindow?$AA@ 0047f84c     LIBCMT:crtmbox.obj
 0003:0000a85c       ??_C@_0M@CHKKJDAI@MessageBoxA?$AA@ 0047f85c     LIBCMT:crtmbox.obj
 0003:0000a868       ??_C@_0L@GMPLCCII@user32?4dll?$AA@ 0047f868     LIBCMT:crtmbox.obj
 0003:0000a874       ??_C@_09KLGCKDOD@Program?3?5?$AA@ 0047f874     LIBCMT:secfail.obj
 0003:0000a880       ??_C@_0KA@JEHFIFGP@A?5buffer?5overrun?5has?5been?5detect@ 0047f880     LIBCMT:secfail.obj
 0003:0000a920       ??_C@_0BJ@MDEKIEOJ@Buffer?5overrun?5detected?$CB?$AA@ 0047f920     LIBCMT:secfail.obj
 0003:0000a940       ??_C@_0LB@BPLHHLFD@A?5security?5error?5of?5unknown?5caus@ 0047f940     LIBCMT:secfail.obj
 0003:0000a9f4       ??_C@_0CD@GMKACBEK@Unknown?5security?5failure?5detecte@ 0047f9f4     LIBCMT:secfail.obj
 0003:0000aa6c       ??_C@_06IMKFLFPG@1?$CDQNAN?$AA@ 0047fa6c     LIBCMT:x10fout.obj
 0003:0000aa74       ??_C@_05DNEBIAHO@1?$CDINF?$AA@ 0047fa74     LIBCMT:x10fout.obj
 0003:0000aa7c       ??_C@_05PHHOCPM@1?$CDIND?$AA@ 0047fa7c     LIBCMT:x10fout.obj
 0003:0000aa84       ??_C@_06PGGFOGJG@1?$CDSNAN?$AA@ 0047fa84     LIBCMT:x10fout.obj
 0003:0000f3e4       ___libm_float_zero         004843e4     libmmt:libm_error.omu
 0003:0000f3ec       ___libm_float_one          004843ec     libmmt:libm_error.omu
 0003:0000f3f4       ___libm_float_inf          004843f4     libmmt:libm_error.omu
 0003:0000f3fc       ___libm_float_huge         004843fc     libmmt:libm_error.omu
 0003:0000f404       ___libm_double_zero        00484404     libmmt:libm_error.omu
 0003:0000f414       ___libm_double_one         00484414     libmmt:libm_error.omu
 0003:0000f424       ___libm_double_inf         00484424     libmmt:libm_error.omu
 0003:0000f434       ___libm_double_huge        00484434     libmmt:libm_error.omu
 0003:0000f444       ___libm_ldouble_zero       00484444     libmmt:libm_error.omu
 0003:0000f454       ___libm_ldouble_neg_zero   00484454     libmmt:libm_error.omu
 0003:0000f464       ___libm_ldouble_one        00484464     libmmt:libm_error.omu
 0003:0000f474       ___libm_ldouble_neg_one    00484474     libmmt:libm_error.omu
 0003:0000f484       ___libm_ldouble_inf        00484484     libmmt:libm_error.omu
 0003:0000f494       ___libm_ldouble_neg_inf    00484494     libmmt:libm_error.omu
 0003:0000f4a4       ___libm_ldouble_huge       004844a4     libmmt:libm_error.omu
 0003:0000f4b4       ___libm_ldouble_neg_huge   004844b4     libmmt:libm_error.omu
 0003:00011870       __load_config_used         00486870     LIBCMT:loadcfg.obj
 0003:000118b8       ??_R1A@?0A@A@type_info@@8  004868b8     LIBCMT:typinfo.obj
 0003:000118d0       ??_R2type_info@@8          004868d0     LIBCMT:typinfo.obj
 0003:000118d8       ??_R3type_info@@8          004868d8     LIBCMT:typinfo.obj
 0003:000118e8       ??_R4type_info@@6B@        004868e8     LIBCMT:typinfo.obj
 0003:00011900       ___safe_se_handler_table   00486900     <linker-defined>
 0003:00012240       ___rtc_iaa                 00487240     LIBCMT:initsect.obj
 0003:00012244       ___rtc_izz                 00487244     LIBCMT:initsect.obj
 0003:00012248       ___rtc_taa                 00487248     LIBCMT:initsect.obj
 0003:0001224c       ___rtc_tzz                 0048724c     LIBCMT:initsect.obj
 0003:00012250       __IMPORT_DESCRIPTOR_WINMM  00487250     winmm:WINMM.dll
 0003:00012264       __IMPORT_DESCRIPTOR_KERNEL32 00487264     kernel32:KERNEL32.dll
 0003:00012278       __IMPORT_DESCRIPTOR_USER32 00487278     user32:USER32.dll
 0003:0001228c       __NULL_IMPORT_DESCRIPTOR   0048728c     winmm:WINMM.dll
 0004:00000000       ___xc_a                    00488000     LIBCMT:crt0init.obj
 0004:00000010       ___xc_z                    00488010     LIBCMT:crt0init.obj
 0004:00000014       ___xi_a                    00488014     LIBCMT:crt0init.obj
 0004:00000028       ___xi_z                    00488028     LIBCMT:crt0init.obj
 0004:0000002c       ___xp_a                    0048802c     LIBCMT:crt0init.obj
 0004:00000034       ___xp_z                    00488034     LIBCMT:crt0init.obj
 0004:00000038       ___xt_a                    00488038     LIBCMT:crt0init.obj
 0004:00000040       ___xt_z                    00488040     LIBCMT:crt0init.obj
 0004:00000050       ??_R4BlockParser@U3D_IDTF@@6B@ 00488050     BlockParser.obj
 0004:00000068       ??_R0?AVBlockParser@U3D_IDTF@@@8 00488068     BlockParser.obj
 0004:00000090       ??_R3BlockParser@U3D_IDTF@@8 00488090     BlockParser.obj
 0004:000000a0       ??_R2BlockParser@U3D_IDTF@@8 004880a0     BlockParser.obj
 0004:000000a8       ??_R1A@?0A@A@BlockParser@U3D_IDTF@@8 004880a8     BlockParser.obj
 0004:000000c0       ??_R1A@?0A@A@MetaDataParser@U3D_IDTF@@8 004880c0     BlockParser.obj
 0004:000000d8       ??_R0?AVMetaDataParser@U3D_IDTF@@@8 004880d8     BlockParser.obj
 0004:00000100       ??_R4File@U3D_IDTF@@6B@    00488100     File.obj
 0004:00000118       ??_R0?AVFile@U3D_IDTF@@@8  00488118     File.obj
 0004:00000138       ??_R3File@U3D_IDTF@@8      00488138     File.obj
 0004:00000148       ??_R2File@U3D_IDTF@@8      00488148     File.obj
 0004:00000150       ??_R1A@?0A@A@File@U3D_IDTF@@8 00488150     File.obj
 0004:00000168       ??_R4IFXCoreArray@@6B@     00488168     FileParser.obj
 0004:00000180       ??_R0?AVIFXCoreArray@@@8   00488180     FileParser.obj
 0004:000001a0       ??_R3IFXCoreArray@@8       004881a0     FileParser.obj
 0004:000001b0       ??_R2IFXCoreArray@@8       004881b0     FileParser.obj
 0004:000001b8       ??_R1A@?0A@A@IFXCoreArray@@8 004881b8     FileParser.obj
 0004:000001d0       ??_R4Node@U3D_IDTF@@6B@    004881d0     FileParser.obj
 0004:000001e8       ??_R0?AVNode@U3D_IDTF@@@8  004881e8     FileParser.obj
 0004:00000208       ??_R3Node@U3D_IDTF@@8      00488208     FileParser.obj
 0004:00000218       ??_R2Node@U3D_IDTF@@8      00488218     FileParser.obj
 0004:00000220       ??_R1A@?0A@A@Node@U3D_IDTF@@8 00488220     FileParser.obj
 0004:00000238       ??_R1A@?0A@A@MetaDataList@U3D_IDTF@@8 00488238     FileParser.obj
 0004:00000250       ??_R0?AVMetaDataList@U3D_IDTF@@@8 00488250     FileParser.obj
 0004:00000278       ??_R4LightNode@U3D_IDTF@@6B@ 00488278     FileParser.obj
 0004:00000290       ??_R0?AVLightNode@U3D_IDTF@@@8 00488290     FileParser.obj
 0004:000002b8       ??_R3LightNode@U3D_IDTF@@8 004882b8     FileParser.obj
 0004:000002c8       ??_R2LightNode@U3D_IDTF@@8 004882c8     FileParser.obj
 0004:000002d8       ??_R1A@?0A@A@LightNode@U3D_IDTF@@8 004882d8     FileParser.obj
 0004:000002f0       ??_R4ViewNodeData@U3D_IDTF@@6B@ 004882f0     FileParser.obj
 0004:00000308       ??_R0?AVViewNodeData@U3D_IDTF@@@8 00488308     FileParser.obj
 0004:00000330       ??_R3ViewNodeData@U3D_IDTF@@8 00488330     FileParser.obj
 0004:00000340       ??_R2ViewNodeData@U3D_IDTF@@8 00488340     FileParser.obj
 0004:00000348       ??_R1A@?0A@A@ViewNodeData@U3D_IDTF@@8 00488348     FileParser.obj
 0004:00000360       ??_R4?$IFXArray@UViewTexture@U3D_IDTF@@@@6B@ 00488360     FileParser.obj
 0004:00000378       ??_R0?AV?$IFXArray@UViewTexture@U3D_IDTF@@@@@8 00488378     FileParser.obj
 0004:000003b0       ??_R3?$IFXArray@UViewTexture@U3D_IDTF@@@@8 004883b0     FileParser.obj
 0004:000003c0       ??_R2?$IFXArray@UViewTexture@U3D_IDTF@@@@8 004883c0     FileParser.obj
 0004:000003c8       ??_R1A@?0A@A@?$IFXArray@UViewTexture@U3D_IDTF@@@@8 004883c8     FileParser.obj
 0004:000003e0       ??_R4ViewNode@U3D_IDTF@@6B@ 004883e0     FileParser.obj
 0004:000003f8       ??_R0?AVViewNode@U3D_IDTF@@@8 004883f8     FileParser.obj
 0004:00000418       ??_R3ViewNode@U3D_IDTF@@8  00488418     FileParser.obj
 0004:00000428       ??_R2ViewNode@U3D_IDTF@@8  00488428     FileParser.obj
 0004:00000438       ??_R1A@?0A@A@ViewNode@U3D_IDTF@@8 00488438     FileParser.obj
 0004:00000450       ??_R4ModelNode@U3D_IDTF@@6B@ 00488450     FileParser.obj
 0004:00000468       ??_R0?AVModelNode@U3D_IDTF@@@8 00488468     FileParser.obj
 0004:00000490       ??_R3ModelNode@U3D_IDTF@@8 00488490     FileParser.obj
 0004:000004a0       ??_R2ModelNode@U3D_IDTF@@8 004884a0     FileParser.obj
 0004:000004b0       ??_R1A@?0A@A@ModelNode@U3D_IDTF@@8 004884b0     FileParser.obj
 0004:000004c8       ??_R4Modifier@U3D_IDTF@@6B@ 004884c8     FileParser.obj
 0004:000004e0       ??_R0?AVModifier@U3D_IDTF@@@8 004884e0     FileParser.obj
 0004:00000500       ??_R3Modifier@U3D_IDTF@@8  00488500     FileParser.obj
 0004:00000510       ??_R2Modifier@U3D_IDTF@@8  00488510     FileParser.obj
 0004:00000518       ??_R1A@?0A@A@Modifier@U3D_IDTF@@8 00488518     FileParser.obj
 0004:00000530       ??_R4ShadingModifier@U3D_IDTF@@6B@ 00488530     FileParser.obj
 0004:00000548       ??_R0?AVShadingModifier@U3D_IDTF@@@8 00488548     FileParser.obj
 0004:00000570       ??_R3ShadingModifier@U3D_IDTF@@8 00488570     FileParser.obj
 0004:00000580       ??_R2ShadingModifier@U3D_IDTF@@8 00488580     FileParser.obj
 0004:00000590       ??_R1A@?0A@A@ShadingModifier@U3D_IDTF@@8 00488590     FileParser.obj
 0004:000005a8       ??_R4?$IFXArray@VShaderList@U3D_IDTF@@@@6B@ 004885a8     FileParser.obj
 0004:000005c0       ??_R0?AV?$IFXArray@VShaderList@U3D_IDTF@@@@@8 004885c0     FileParser.obj
 0004:000005f0       ??_R3?$IFXArray@VShaderList@U3D_IDTF@@@@8 004885f0     FileParser.obj
 0004:00000600       ??_R2?$IFXArray@VShaderList@U3D_IDTF@@@@8 00488600     FileParser.obj
 0004:00000608       ??_R1A@?0A@A@?$IFXArray@VShaderList@U3D_IDTF@@@@8 00488608     FileParser.obj
 0004:00000620       ??_R4?$IFXArray@VIFXString@@@@6B@ 00488620     FileParser.obj
 0004:00000638       ??_R0?AV?$IFXArray@VIFXString@@@@@8 00488638     FileParser.obj
 0004:00000660       ??_R3?$IFXArray@VIFXString@@@@8 00488660     FileParser.obj
 0004:00000670       ??_R2?$IFXArray@VIFXString@@@@8 00488670     FileParser.obj
 0004:00000678       ??_R1A@?0A@A@?$IFXArray@VIFXString@@@@8 00488678     FileParser.obj
 0004:00000690       ??_R4AnimationModifier@U3D_IDTF@@6B@ 00488690     FileParser.obj
 0004:000006a8       ??_R0?AVAnimationModifier@U3D_IDTF@@@8 004886a8     FileParser.obj
 0004:000006d8       ??_R3AnimationModifier@U3D_IDTF@@8 004886d8     FileParser.obj
 0004:000006e8       ??_R2AnimationModifier@U3D_IDTF@@8 004886e8     FileParser.obj
 0004:000006f8       ??_R1A@?0A@A@AnimationModifier@U3D_IDTF@@8 004886f8     FileParser.obj
 0004:00000710       ??_R4?$IFXArray@UMotionInfo@U3D_IDTF@@@@6B@ 00488710     FileParser.obj
 0004:00000728       ??_R0?AV?$IFXArray@UMotionInfo@U3D_IDTF@@@@@8 00488728     FileParser.obj
 0004:00000758       ??_R3?$IFXArray@UMotionInfo@U3D_IDTF@@@@8 00488758     FileParser.obj
 0004:00000768       ??_R2?$IFXArray@UMotionInfo@U3D_IDTF@@@@8 00488768     FileParser.obj
 0004:00000770       ??_R1A@?0A@A@?$IFXArray@UMotionInfo@U3D_IDTF@@@@8 00488770     FileParser.obj
 0004:00000788       ??_R4BoneWeightList@U3D_IDTF@@6B@ 00488788     FileParser.obj
 0004:000007a0       ??_R0?AVBoneWeightList@U3D_IDTF@@@8 004887a0     FileParser.obj
 0004:000007c8       ??_R3BoneWeightList@U3D_IDTF@@8 004887c8     FileParser.obj
 0004:000007d8       ??_R2BoneWeightList@U3D_IDTF@@8 004887d8     FileParser.obj
 0004:000007e0       ??_R1A@?0A@A@BoneWeightList@U3D_IDTF@@8 004887e0     FileParser.obj
 0004:000007f8       ??_R4?$IFXArray@H@@6B@     004887f8     FileParser.obj
 0004:00000810       ??_R0?AV?$IFXArray@H@@@8   00488810     FileParser.obj
 0004:00000830       ??_R3?$IFXArray@H@@8       00488830     FileParser.obj
 0004:00000840       ??_R2?$IFXArray@H@@8       00488840     FileParser.obj
 0004:00000848       ??_R1A@?0A@A@?$IFXArray@H@@8 00488848     FileParser.obj
 0004:00000860       ??_R4BoneWeightModifier@U3D_IDTF@@6B@ 00488860     FileParser.obj
 0004:00000878       ??_R0?AVBoneWeightModifier@U3D_IDTF@@@8 00488878     FileParser.obj
 0004:000008a8       ??_R3BoneWeightModifier@U3D_IDTF@@8 004888a8     FileParser.obj
 0004:000008b8       ??_R2BoneWeightModifier@U3D_IDTF@@8 004888b8     FileParser.obj
 0004:000008c8       ??_R1A@?0A@A@BoneWeightModifier@U3D_IDTF@@8 004888c8     FileParser.obj
 0004:000008e0       ??_R4?$IFXArray@VBoneWeightList@U3D_IDTF@@@@6B@ 004888e0     FileParser.obj
 0004:000008f8       ??_R0?AV?$IFXArray@VBoneWeightList@U3D_IDTF@@@@@8 004888f8     FileParser.obj
 0004:00000930       ??_R3?$IFXArray@VBoneWeightList@U3D_IDTF@@@@8 00488930     FileParser.obj
 0004:00000940       ??_R2?$IFXArray@VBoneWeightList@U3D_IDTF@@@@8 00488940     FileParser.obj
 0004:00000948       ??_R1A@?0A@A@?$IFXArray@VBoneWeightList@U3D_IDTF@@@@8 00488948     FileParser.obj
 0004:00000960       ??_R4CLODModifier@U3D_IDTF@@6B@ 00488960     FileParser.obj
 0004:00000978       ??_R0?AVCLODModifier@U3D_IDTF@@@8 00488978     FileParser.obj
 0004:000009a0       ??_R3CLODModifier@U3D_IDTF@@8 004889a0     FileParser.obj
 0004:000009b0       ??_R2CLODModifier@U3D_IDTF@@8 004889b0     FileParser.obj
 0004:000009c0       ??_R1A@?0A@A@CLODModifier@U3D_IDTF@@8 004889c0     FileParser.obj
 0004:000009d8       ??_R4SubdivisionModifier@U3D_IDTF@@6B@ 004889d8     FileParser.obj
 0004:000009f0       ??_R0?AVSubdivisionModifier@U3D_IDTF@@@8 004889f0     FileParser.obj
 0004:00000a20       ??_R3SubdivisionModifier@U3D_IDTF@@8 00488a20     FileParser.obj
 0004:00000a30       ??_R2SubdivisionModifier@U3D_IDTF@@8 00488a30     FileParser.obj
 0004:00000a40       ??_R1A@?0A@A@SubdivisionModifier@U3D_IDTF@@8 00488a40     FileParser.obj
 0004:00000a58       ??_R4GlyphCommand@U3D_IDTF@@6B@ 00488a58     FileParser.obj
 0004:00000a70       ??_R0?AVGlyphCommand@U3D_IDTF@@@8 00488a70     FileParser.obj
 0004:00000a98       ??_R3GlyphCommand@U3D_IDTF@@8 00488a98     FileParser.obj
 0004:00000aa8       ??_R2GlyphCommand@U3D_IDTF@@8 00488aa8     FileParser.obj
 0004:00000ab0       ??_R1A@?0A@A@GlyphCommand@U3D_IDTF@@8 00488ab0     FileParser.obj
 0004:00000ac8       ??_R4EndGlyph@U3D_IDTF@@6B@ 00488ac8     FileParser.obj
 0004:00000ae0       ??_R0?AVEndGlyph@U3D_IDTF@@@8 00488ae0     FileParser.obj
 0004:00000b00       ??_R3EndGlyph@U3D_IDTF@@8  00488b00     FileParser.obj
 0004:00000b10       ??_R2EndGlyph@U3D_IDTF@@8  00488b10     FileParser.obj
 0004:00000b18       ??_R1A@?0A@A@EndGlyph@U3D_IDTF@@8 00488b18     FileParser.obj
 0004:00000b30       ??_R4MoveTo@U3D_IDTF@@6B@  00488b30     FileParser.obj
 0004:00000b48       ??_R0?AVMoveTo@U3D_IDTF@@@8 00488b48     FileParser.obj
 0004:00000b68       ??_R3MoveTo@U3D_IDTF@@8    00488b68     FileParser.obj
 0004:00000b78       ??_R2MoveTo@U3D_IDTF@@8    00488b78     FileParser.obj
 0004:00000b80       ??_R1A@?0A@A@MoveTo@U3D_IDTF@@8 00488b80     FileParser.obj
 0004:00000b98       ??_R4LineTo@U3D_IDTF@@6B@  00488b98     FileParser.obj
 0004:00000bb0       ??_R0?AVLineTo@U3D_IDTF@@@8 00488bb0     FileParser.obj
 0004:00000bd0       ??_R3LineTo@U3D_IDTF@@8    00488bd0     FileParser.obj
 0004:00000be0       ??_R2LineTo@U3D_IDTF@@8    00488be0     FileParser.obj
 0004:00000be8       ??_R1A@?0A@A@LineTo@U3D_IDTF@@8 00488be8     FileParser.obj
 0004:00000c00       ??_R4CurveTo@U3D_IDTF@@6B@ 00488c00     FileParser.obj
 0004:00000c18       ??_R0?AVCurveTo@U3D_IDTF@@@8 00488c18     FileParser.obj
 0004:00000c38       ??_R3CurveTo@U3D_IDTF@@8   00488c38     FileParser.obj
 0004:00000c48       ??_R2CurveTo@U3D_IDTF@@8   00488c48     FileParser.obj
 0004:00000c50       ??_R1A@?0A@A@CurveTo@U3D_IDTF@@8 00488c50     FileParser.obj
 0004:00000c68       ??_R4GlyphCommandList@U3D_IDTF@@6B@ 00488c68     FileParser.obj
 0004:00000c80       ??_R0?AVGlyphCommandList@U3D_IDTF@@@8 00488c80     FileParser.obj
 0004:00000ca8       ??_R3GlyphCommandList@U3D_IDTF@@8 00488ca8     FileParser.obj
 0004:00000cb8       ??_R2GlyphCommandList@U3D_IDTF@@8 00488cb8     FileParser.obj
 0004:00000cc0       ??_R1A@?0A@A@GlyphCommandList@U3D_IDTF@@8 00488cc0     FileParser.obj
 0004:00000cd8       ??_R4?$IFXArray@PAVGlyphCommand@U3D_IDTF@@@@6B@ 00488cd8     FileParser.obj
 0004:00000cf0       ??_R0?AV?$IFXArray@PAVGlyphCommand@U3D_IDTF@@@@@8 00488cf0     FileParser.obj
 0004:00000d28       ??_R3?$IFXArray@PAVGlyphCommand@U3D_IDTF@@@@8 00488d28     FileParser.obj
 0004:00000d38       ??_R2?$IFXArray@PAVGlyphCommand@U3D_IDTF@@@@8 00488d38     FileParser.obj
 0004:00000d40       ??_R1A@?0A@A@?$IFXArray@PAVGlyphCommand@U3D_IDTF@@@@8 00488d40     FileParser.obj
 0004:00000d58       ??_R4?$IFXArray@VGlyphCommand@U3D_IDTF@@@@6B@ 00488d58     FileParser.obj
 0004:00000d70       ??_R0?AV?$IFXArray@VGlyphCommand@U3D_IDTF@@@@@8 00488d70     FileParser.obj
 0004:00000da8       ??_R3?$IFXArray@VGlyphCommand@U3D_IDTF@@@@8 00488da8     FileParser.obj
 0004:00000db8       ??_R2?$IFXArray@VGlyphCommand@U3D_IDTF@@@@8 00488db8     FileParser.obj
 0004:00000dc0       ??_R1A@?0A@A@?$IFXArray@VGlyphCommand@U3D_IDTF@@@@8 00488dc0     FileParser.obj
 0004:00000dd8       ??_R4?$IFXArray@VEndGlyph@U3D_IDTF@@@@6B@ 00488dd8     FileParser.obj
 0004:00000df0       ??_R0?AV?$IFXArray@VEndGlyph@U3D_IDTF@@@@@8 00488df0     FileParser.obj
 0004:00000e20       ??_R3?$IFXArray@VEndGlyph@U3D_IDTF@@@@8 00488e20     FileParser.obj
 0004:00000e30       ??_R2?$IFXArray@VEndGlyph@U3D_IDTF@@@@8 00488e30     FileParser.obj
 0004:00000e38       ??_R1A@?0A@A@?$IFXArray@VEndGlyph@U3D_IDTF@@@@8 00488e38     FileParser.obj
 0004:00000e50       ??_R4?$IFXArray@VMoveTo@U3D_IDTF@@@@6B@ 00488e50     FileParser.obj
 0004:00000e68       ??_R0?AV?$IFXArray@VMoveTo@U3D_IDTF@@@@@8 00488e68     FileParser.obj
 0004:00000e98       ??_R3?$IFXArray@VMoveTo@U3D_IDTF@@@@8 00488e98     FileParser.obj
 0004:00000ea8       ??_R2?$IFXArray@VMoveTo@U3D_IDTF@@@@8 00488ea8     FileParser.obj
 0004:00000eb0       ??_R1A@?0A@A@?$IFXArray@VMoveTo@U3D_IDTF@@@@8 00488eb0     FileParser.obj
 0004:00000ec8       ??_R4?$IFXArray@VLineTo@U3D_IDTF@@@@6B@ 00488ec8     FileParser.obj
 0004:00000ee0       ??_R0?AV?$IFXArray@VLineTo@U3D_IDTF@@@@@8 00488ee0     FileParser.obj
 0004:00000f10       ??_R3?$IFXArray@VLineTo@U3D_IDTF@@@@8 00488f10     FileParser.obj
 0004:00000f20       ??_R2?$IFXArray@VLineTo@U3D_IDTF@@@@8 00488f20     FileParser.obj
 0004:00000f28       ??_R1A@?0A@A@?$IFXArray@VLineTo@U3D_IDTF@@@@8 00488f28     FileParser.obj
 0004:00000f40       ??_R4?$IFXArray@VCurveTo@U3D_IDTF@@@@6B@ 00488f40     FileParser.obj
 0004:00000f58       ??_R0?AV?$IFXArray@VCurveTo@U3D_IDTF@@@@@8 00488f58     FileParser.obj
 0004:00000f88       ??_R3?$IFXArray@VCurveTo@U3D_IDTF@@@@8 00488f88     FileParser.obj
 0004:00000f98       ??_R2?$IFXArray@VCurveTo@U3D_IDTF@@@@8 00488f98     FileParser.obj
 0004:00000fa0       ??_R1A@?0A@A@?$IFXArray@VCurveTo@U3D_IDTF@@@@8 00488fa0     FileParser.obj
 0004:00000fb8       ??_R4GlyphModifier@U3D_IDTF@@6B@ 00488fb8     FileParser.obj
 0004:00000fd0       ??_R0?AVGlyphModifier@U3D_IDTF@@@8 00488fd0     FileParser.obj
 0004:00000ff8       ??_R3GlyphModifier@U3D_IDTF@@8 00488ff8     FileParser.obj
 0004:00001008       ??_R2GlyphModifier@U3D_IDTF@@8 00489008     FileParser.obj
 0004:00001018       ??_R1A@?0A@A@GlyphModifier@U3D_IDTF@@8 00489018     FileParser.obj
 0004:00001030       ??_R4FileParser@U3D_IDTF@@6B@ 00489030     FileParser.obj
 0004:00001048       ??_R0?AVFileParser@U3D_IDTF@@@8 00489048     FileParser.obj
 0004:00001070       ??_R3FileParser@U3D_IDTF@@8 00489070     FileParser.obj
 0004:00001080       ??_R2FileParser@U3D_IDTF@@8 00489080     FileParser.obj
 0004:00001090       ??_R1A@?0A@A@FileParser@U3D_IDTF@@8 00489090     FileParser.obj
 0004:000010a8       ??_R4IFXException@@6B@     004890a8     FileReferenceConverter.obj
 0004:000010c0       ??_R0?AVIFXException@@@8   004890c0     FileReferenceConverter.obj
 0004:000010e0       ??_R3IFXException@@8       004890e0     FileReferenceConverter.obj
 0004:000010f0       ??_R2IFXException@@8       004890f0     FileReferenceConverter.obj
 0004:000010f8       ??_R1A@?0A@A@IFXException@@8 004890f8     FileReferenceConverter.obj
 0004:00001110       ??_R0?AVIConverter@U3D_IDTF@@@8 00489110     FileReferenceConverter.obj
 0004:00001138       ??_R1A@?0A@A@IConverter@U3D_IDTF@@8 00489138     FileReferenceConverter.obj
 0004:00001150       ??_R4FileReferenceConverter@U3D_IDTF@@6B@ 00489150     FileReferenceConverter.obj
 0004:00001168       ??_R0?AVFileReferenceConverter@U3D_IDTF@@@8 00489168     FileReferenceConverter.obj
 0004:00001198       ??_R3FileReferenceConverter@U3D_IDTF@@8 00489198     FileReferenceConverter.obj
 0004:000011a8       ??_R2FileReferenceConverter@U3D_IDTF@@8 004891a8     FileReferenceConverter.obj
 0004:000011b0       ??_R1A@?0A@A@FileReferenceConverter@U3D_IDTF@@8 004891b0     FileReferenceConverter.obj
 0004:000011c8       ??_R4?$IFXArray@UIFXObjectFilter@@@@6B@ 004891c8     FileReferenceConverter.obj
 0004:000011e0       ??_R0?AV?$IFXArray@UIFXObjectFilter@@@@@8 004891e0     FileReferenceConverter.obj
 0004:00001210       ??_R3?$IFXArray@UIFXObjectFilter@@@@8 00489210     FileReferenceConverter.obj
 0004:00001220       ??_R2?$IFXArray@UIFXObjectFilter@@@@8 00489220     FileReferenceConverter.obj
 0004:00001228       ??_R1A@?0A@A@?$IFXArray@UIFXObjectFilter@@@@8 00489228     FileReferenceConverter.obj
 0004:00001240       __CTA1?AVIFXException@@    00489240     FileReferenceConverter.obj
 0004:00001248       __CT??_R0?AVIFXException@@@8IFXException@20 00489248     FileReferenceConverter.obj
 0004:00001268       __TI1?AVIFXException@@     00489268     FileReferenceConverter.obj
 0004:00001278       ??_R4UrlList@U3D_IDTF@@6B@ 00489278     FileReferenceParser.obj
 0004:00001290       ??_R0?AVUrlList@U3D_IDTF@@@8 00489290     FileReferenceParser.obj
 0004:000012b0       ??_R3UrlList@U3D_IDTF@@8   004892b0     FileReferenceParser.obj
 0004:000012c0       ??_R2UrlList@U3D_IDTF@@8   004892c0     FileReferenceParser.obj
 0004:000012c8       ??_R1A@?0A@A@UrlList@U3D_IDTF@@8 004892c8     FileReferenceParser.obj
 0004:000012e0       ??_R4FileReferenceParser@U3D_IDTF@@6B@ 004892e0     FileReferenceParser.obj
 0004:000012f8       ??_R0?AVFileReferenceParser@U3D_IDTF@@@8 004892f8     FileReferenceParser.obj
 0004:00001328       ??_R3FileReferenceParser@U3D_IDTF@@8 00489328     FileReferenceParser.obj
 0004:00001338       ??_R2FileReferenceParser@U3D_IDTF@@8 00489338     FileReferenceParser.obj
 0004:00001348       ??_R1A@?0A@A@FileReferenceParser@U3D_IDTF@@8 00489348     FileReferenceParser.obj
 0004:00001360       ??_R4FileScanner@U3D_IDTF@@6B@ 00489360     FileScanner.obj
 0004:00001378       ??_R0?AVFileScanner@U3D_IDTF@@@8 00489378     FileScanner.obj
 0004:000013a0       ??_R3FileScanner@U3D_IDTF@@8 004893a0     FileScanner.obj
 0004:000013b0       ??_R2FileScanner@U3D_IDTF@@8 004893b0     FileScanner.obj
 0004:000013b8       ??_R1A@?0A@A@FileScanner@U3D_IDTF@@8 004893b8     FileScanner.obj
 0004:000013d0       ??_R4LineSetConverter@U3D_IDTF@@6B@ 004893d0     LineSetConverter.obj
 0004:000013e8       ??_R0?AVLineSetConverter@U3D_IDTF@@@8 004893e8     LineSetConverter.obj
 0004:00001410       ??_R3LineSetConverter@U3D_IDTF@@8 00489410     LineSetConverter.obj
 0004:00001420       ??_R2LineSetConverter@U3D_IDTF@@8 00489420     LineSetConverter.obj
 0004:00001430       ??_R1A@?0A@A@LineSetConverter@U3D_IDTF@@8 00489430     LineSetConverter.obj
 0004:00001448       ??_R1A@?0A@A@ModelConverter@U3D_IDTF@@8 00489448     LineSetConverter.obj
 0004:00001460       ??_R0?AVModelConverter@U3D_IDTF@@@8 00489460     LineSetConverter.obj
 0004:00001488       ??_R4Int2@U3D_IDTF@@6B@    00489488     LineSetResourceParser.obj
 0004:000014a0       ??_R0?AVInt2@U3D_IDTF@@@8  004894a0     LineSetResourceParser.obj
 0004:000014c0       ??_R3Int2@U3D_IDTF@@8      004894c0     LineSetResourceParser.obj
 0004:000014d0       ??_R2Int2@U3D_IDTF@@8      004894d0     LineSetResourceParser.obj
 0004:000014d8       ??_R1A@?0A@A@Int2@U3D_IDTF@@8 004894d8     LineSetResourceParser.obj
 0004:000014f0       ??_R4LineSetResourceParser@U3D_IDTF@@6B@ 004894f0     LineSetResourceParser.obj
 0004:00001508       ??_R0?AVLineSetResourceParser@U3D_IDTF@@@8 00489508     LineSetResourceParser.obj
 0004:00001538       ??_R3LineSetResourceParser@U3D_IDTF@@8 00489538     LineSetResourceParser.obj
 0004:00001548       ??_R2LineSetResourceParser@U3D_IDTF@@8 00489548     LineSetResourceParser.obj
 0004:00001558       ??_R1A@?0A@A@LineSetResourceParser@U3D_IDTF@@8 00489558     LineSetResourceParser.obj
 0004:00001570       ??_R1A@?0A@A@ModelResourceParser@U3D_IDTF@@8 00489570     LineSetResourceParser.obj
 0004:00001588       ??_R0?AVModelResourceParser@U3D_IDTF@@@8 00489588     LineSetResourceParser.obj
 0004:000015b8       ??_R4MaterialParser@U3D_IDTF@@6B@ 004895b8     MaterialParser.obj
 0004:000015d0       ??_R0?AVMaterialParser@U3D_IDTF@@@8 004895d0     MaterialParser.obj
 0004:000015f8       ??_R3MaterialParser@U3D_IDTF@@8 004895f8     MaterialParser.obj
 0004:00001608       ??_R2MaterialParser@U3D_IDTF@@8 00489608     MaterialParser.obj
 0004:00001618       ??_R1A@?0A@A@MaterialParser@U3D_IDTF@@8 00489618     MaterialParser.obj
 0004:00001630       ??_R4MeshConverter@U3D_IDTF@@6B@ 00489630     MeshConverter.obj
 0004:00001648       ??_R0?AVMeshConverter@U3D_IDTF@@@8 00489648     MeshConverter.obj
 0004:00001670       ??_R3MeshConverter@U3D_IDTF@@8 00489670     MeshConverter.obj
 0004:00001680       ??_R2MeshConverter@U3D_IDTF@@8 00489680     MeshConverter.obj
 0004:00001690       ??_R1A@?0A@A@MeshConverter@U3D_IDTF@@8 00489690     MeshConverter.obj
 0004:000016a8       ??_R4Int3@U3D_IDTF@@6B@    004896a8     MeshResourceParser.obj
 0004:000016c0       ??_R0?AVInt3@U3D_IDTF@@@8  004896c0     MeshResourceParser.obj
 0004:000016e0       ??_R3Int3@U3D_IDTF@@8      004896e0     MeshResourceParser.obj
 0004:000016f0       ??_R2Int3@U3D_IDTF@@8      004896f0     MeshResourceParser.obj
 0004:000016f8       ??_R1A@?0A@A@Int3@U3D_IDTF@@8 004896f8     MeshResourceParser.obj
 0004:00001710       ??_R4MeshResourceParser@U3D_IDTF@@6B@ 00489710     MeshResourceParser.obj
 0004:00001728       ??_R0?AVMeshResourceParser@U3D_IDTF@@@8 00489728     MeshResourceParser.obj
 0004:00001758       ??_R3MeshResourceParser@U3D_IDTF@@8 00489758     MeshResourceParser.obj
 0004:00001768       ??_R2MeshResourceParser@U3D_IDTF@@8 00489768     MeshResourceParser.obj
 0004:00001778       ??_R1A@?0A@A@MeshResourceParser@U3D_IDTF@@8 00489778     MeshResourceParser.obj
 0004:00001790       ??_R4MetaDataConverter@U3D_IDTF@@6B@ 00489790     MetaDataConverter.obj
 0004:000017a8       ??_R0?AVMetaDataConverter@U3D_IDTF@@@8 004897a8     MetaDataConverter.obj
 0004:000017d8       ??_R3MetaDataConverter@U3D_IDTF@@8 004897d8     MetaDataConverter.obj
 0004:000017e8       ??_R2MetaDataConverter@U3D_IDTF@@8 004897e8     MetaDataConverter.obj
 0004:000017f0       ??_R1A@?0A@A@MetaDataConverter@U3D_IDTF@@8 004897f0     MetaDataConverter.obj
 0004:00001808       ??_R4MetaDataParser@U3D_IDTF@@6B@ 00489808     MetaDataParser.obj
 0004:00001820       ??_R3MetaDataParser@U3D_IDTF@@8 00489820     MetaDataParser.obj
 0004:00001830       ??_R2MetaDataParser@U3D_IDTF@@8 00489830     MetaDataParser.obj
 0004:00001838       ??_R4ModelConverter@U3D_IDTF@@6B@ 00489838     ModelConverter.obj
 0004:00001850       ??_R3ModelConverter@U3D_IDTF@@8 00489850     ModelConverter.obj
 0004:00001860       ??_R2ModelConverter@U3D_IDTF@@8 00489860     ModelConverter.obj
 0004:00001868       ??_R4Point@U3D_IDTF@@6B@   00489868     ModelResourceParser.obj
 0004:00001880       ??_R0?AVPoint@U3D_IDTF@@@8 00489880     ModelResourceParser.obj
 0004:000018a0       ??_R3Point@U3D_IDTF@@8     004898a0     ModelResourceParser.obj
 0004:000018b0       ??_R2Point@U3D_IDTF@@8     004898b0     ModelResourceParser.obj
 0004:000018b8       ??_R1A@?0A@A@Point@U3D_IDTF@@8 004898b8     ModelResourceParser.obj
 0004:000018d0       ??_R4Color@U3D_IDTF@@6B@   004898d0     ModelResourceParser.obj
 0004:000018e8       ??_R0?AVColor@U3D_IDTF@@@8 004898e8     ModelResourceParser.obj
 0004:00001908       ??_R3Color@U3D_IDTF@@8     00489908     ModelResourceParser.obj
 0004:00001918       ??_R2Color@U3D_IDTF@@8     00489918     ModelResourceParser.obj
 0004:00001920       ??_R1A@?0A@A@Color@U3D_IDTF@@8 00489920     ModelResourceParser.obj
 0004:00001938       ??_R4?$IFXArray@I@@6B@     00489938     ModelResourceParser.obj
 0004:00001950       ??_R0?AV?$IFXArray@I@@@8   00489950     ModelResourceParser.obj
 0004:00001970       ??_R3?$IFXArray@I@@8       00489970     ModelResourceParser.obj
 0004:00001980       ??_R2?$IFXArray@I@@8       00489980     ModelResourceParser.obj
 0004:00001988       ??_R1A@?0A@A@?$IFXArray@I@@8 00489988     ModelResourceParser.obj
 0004:000019a0       ??_R4Quat@U3D_IDTF@@6B@    004899a0     ModelResourceParser.obj
 0004:000019b8       ??_R0?AVQuat@U3D_IDTF@@@8  004899b8     ModelResourceParser.obj
 0004:000019d8       ??_R3Quat@U3D_IDTF@@8      004899d8     ModelResourceParser.obj
 0004:000019e8       ??_R2Quat@U3D_IDTF@@8      004899e8     ModelResourceParser.obj
 0004:000019f0       ??_R1A@?0A@A@Quat@U3D_IDTF@@8 004899f0     ModelResourceParser.obj
 0004:00001a08       ??_R4ModelResourceParser@U3D_IDTF@@6B@ 00489a08     ModelResourceParser.obj
 0004:00001a20       ??_R3ModelResourceParser@U3D_IDTF@@8 00489a20     ModelResourceParser.obj
 0004:00001a30       ??_R2ModelResourceParser@U3D_IDTF@@8 00489a30     ModelResourceParser.obj
 0004:00001a40       ??_R4ModifierConverter@U3D_IDTF@@6B@ 00489a40     ModifierConverter.obj
 0004:00001a58       ??_R0?AVModifierConverter@U3D_IDTF@@@8 00489a58     ModifierConverter.obj
 0004:00001a88       ??_R3ModifierConverter@U3D_IDTF@@8 00489a88     ModifierConverter.obj
 0004:00001a98       ??_R2ModifierConverter@U3D_IDTF@@8 00489a98     ModifierConverter.obj
 0004:00001aa0       ??_R1A@?0A@A@ModifierConverter@U3D_IDTF@@8 00489aa0     ModifierConverter.obj
 0004:00001ab8       ??_R4ModifierParser@U3D_IDTF@@6B@ 00489ab8     ModifierParser.obj
 0004:00001ad0       ??_R0?AVModifierParser@U3D_IDTF@@@8 00489ad0     ModifierParser.obj
 0004:00001af8       ??_R3ModifierParser@U3D_IDTF@@8 00489af8     ModifierParser.obj
 0004:00001b08       ??_R2ModifierParser@U3D_IDTF@@8 00489b08     ModifierParser.obj
 0004:00001b18       ??_R1A@?0A@A@ModifierParser@U3D_IDTF@@8 00489b18     ModifierParser.obj
 0004:00001b30       ??_R4IFXViewLayer@@6B@     00489b30     NodeConverter.obj
 0004:00001b48       ??_R0?AVIFXViewLayer@@@8   00489b48     NodeConverter.obj
 0004:00001b68       ??_R3IFXViewLayer@@8       00489b68     NodeConverter.obj
 0004:00001b78       ??_R2IFXViewLayer@@8       00489b78     NodeConverter.obj
 0004:00001b80       ??_R1A@?0A@A@IFXViewLayer@@8 00489b80     NodeConverter.obj
 0004:00001b98       ??_R4NodeConverter@U3D_IDTF@@6B@ 00489b98     NodeConverter.obj
 0004:00001bb0       ??_R0?AVNodeConverter@U3D_IDTF@@@8 00489bb0     NodeConverter.obj
 0004:00001bd8       ??_R3NodeConverter@U3D_IDTF@@8 00489bd8     NodeConverter.obj
 0004:00001be8       ??_R2NodeConverter@U3D_IDTF@@8 00489be8     NodeConverter.obj
 0004:00001bf0       ??_R1A@?0A@A@NodeConverter@U3D_IDTF@@8 00489bf0     NodeConverter.obj
 0004:00001c08       ??_R4ParentData@U3D_IDTF@@6B@ 00489c08     NodeParser.obj
 0004:00001c20       ??_R0?AVParentData@U3D_IDTF@@@8 00489c20     NodeParser.obj
 0004:00001c48       ??_R3ParentData@U3D_IDTF@@8 00489c48     NodeParser.obj
 0004:00001c58       ??_R2ParentData@U3D_IDTF@@8 00489c58     NodeParser.obj
 0004:00001c60       ??_R1A@?0A@A@ParentData@U3D_IDTF@@8 00489c60     NodeParser.obj
 0004:00001c78       ??_R4NodeParser@U3D_IDTF@@6B@ 00489c78     NodeParser.obj
 0004:00001c90       ??_R0?AVNodeParser@U3D_IDTF@@@8 00489c90     NodeParser.obj
 0004:00001cb8       ??_R3NodeParser@U3D_IDTF@@8 00489cb8     NodeParser.obj
 0004:00001cc8       ??_R2NodeParser@U3D_IDTF@@8 00489cc8     NodeParser.obj
 0004:00001cd8       ??_R1A@?0A@A@NodeParser@U3D_IDTF@@8 00489cd8     NodeParser.obj
 0004:00001cf0       ??_R4PointSetConverter@U3D_IDTF@@6B@ 00489cf0     PointSetConverter.obj
 0004:00001d08       ??_R0?AVPointSetConverter@U3D_IDTF@@@8 00489d08     PointSetConverter.obj
 0004:00001d38       ??_R3PointSetConverter@U3D_IDTF@@8 00489d38     PointSetConverter.obj
 0004:00001d48       ??_R2PointSetConverter@U3D_IDTF@@8 00489d48     PointSetConverter.obj
 0004:00001d58       ??_R1A@?0A@A@PointSetConverter@U3D_IDTF@@8 00489d58     PointSetConverter.obj
 0004:00001d70       ??_R4PointSetResourceParser@U3D_IDTF@@6B@ 00489d70     PointSetResourceParser.obj
 0004:00001d88       ??_R0?AVPointSetResourceParser@U3D_IDTF@@@8 00489d88     PointSetResourceParser.obj
 0004:00001db8       ??_R3PointSetResourceParser@U3D_IDTF@@8 00489db8     PointSetResourceParser.obj
 0004:00001dc8       ??_R2PointSetResourceParser@U3D_IDTF@@8 00489dc8     PointSetResourceParser.obj
 0004:00001dd8       ??_R1A@?0A@A@PointSetResourceParser@U3D_IDTF@@8 00489dd8     PointSetResourceParser.obj
 0004:00001df0       ??_R4ResourceConverter@U3D_IDTF@@6B@ 00489df0     ResourceConverter.obj
 0004:00001e08       ??_R0?AVResourceConverter@U3D_IDTF@@@8 00489e08     ResourceConverter.obj
 0004:00001e38       ??_R3ResourceConverter@U3D_IDTF@@8 00489e38     ResourceConverter.obj
 0004:00001e48       ??_R2ResourceConverter@U3D_IDTF@@8 00489e48     ResourceConverter.obj
 0004:00001e50       ??_R1A@?0A@A@ResourceConverter@U3D_IDTF@@8 00489e50     ResourceConverter.obj
 0004:00001e68       ??_R4Resource@U3D_IDTF@@6B@ 00489e68     ResourceListParser.obj
 0004:00001e80       ??_R0?AVResource@U3D_IDTF@@@8 00489e80     ResourceListParser.obj
 0004:00001ea0       ??_R3Resource@U3D_IDTF@@8  00489ea0     ResourceListParser.obj
 0004:00001eb0       ??_R2Resource@U3D_IDTF@@8  00489eb0     ResourceListParser.obj
 0004:00001eb8       ??_R1A@?0A@A@Resource@U3D_IDTF@@8 00489eb8     ResourceListParser.obj
 0004:00001ed0       ??_R4ViewResource@U3D_IDTF@@6B@ 00489ed0     ResourceListParser.obj
 0004:00001ee8       ??_R0?AVViewResource@U3D_IDTF@@@8 00489ee8     ResourceListParser.obj
 0004:00001f10       ??_R3ViewResource@U3D_IDTF@@8 00489f10     ResourceListParser.obj
 0004:00001f20       ??_R2ViewResource@U3D_IDTF@@8 00489f20     ResourceListParser.obj
 0004:00001f30       ??_R1A@?0A@A@ViewResource@U3D_IDTF@@8 00489f30     ResourceListParser.obj
 0004:00001f48       ??_R4LightResource@U3D_IDTF@@6B@ 00489f48     ResourceListParser.obj
 0004:00001f60       ??_R0?AVLightResource@U3D_IDTF@@@8 00489f60     ResourceListParser.obj
 0004:00001f88       ??_R3LightResource@U3D_IDTF@@8 00489f88     ResourceListParser.obj
 0004:00001f98       ??_R2LightResource@U3D_IDTF@@8 00489f98     ResourceListParser.obj
 0004:00001fa8       ??_R1A@?0A@A@LightResource@U3D_IDTF@@8 00489fa8     ResourceListParser.obj
 0004:00001fc0       ??_R4MeshResource@U3D_IDTF@@6B@ 00489fc0     ResourceListParser.obj
 0004:00001fd8       ??_R0?AVMeshResource@U3D_IDTF@@@8 00489fd8     ResourceListParser.obj
 0004:00002000       ??_R3MeshResource@U3D_IDTF@@8 0048a000     ResourceListParser.obj
 0004:00002010       ??_R2MeshResource@U3D_IDTF@@8 0048a010     ResourceListParser.obj
 0004:00002020       ??_R1A@?0A@A@MeshResource@U3D_IDTF@@8 0048a020     ResourceListParser.obj
 0004:00002038       ??_R1A@?0A@A@ModelResource@U3D_IDTF@@8 0048a038     ResourceListParser.obj
 0004:00002050       ??_R0?AVModelResource@U3D_IDTF@@@8 0048a050     ResourceListParser.obj
 0004:00002078       ??_R4?$IFXArray@VInt3@U3D_IDTF@@@@6B@ 0048a078     ResourceListParser.obj
 0004:00002090       ??_R0?AV?$IFXArray@VInt3@U3D_IDTF@@@@@8 0048a090     ResourceListParser.obj
 0004:000020c0       ??_R3?$IFXArray@VInt3@U3D_IDTF@@@@8 0048a0c0     ResourceListParser.obj
 0004:000020d0       ??_R2?$IFXArray@VInt3@U3D_IDTF@@@@8 0048a0d0     ResourceListParser.obj
 0004:000020d8       ??_R1A@?0A@A@?$IFXArray@VInt3@U3D_IDTF@@@@8 0048a0d8     ResourceListParser.obj
 0004:000020f0       ??_R4?$IFXArray@UFaceTexCoords@U3D_IDTF@@@@6B@ 0048a0f0     ResourceListParser.obj
 0004:00002108       ??_R0?AV?$IFXArray@UFaceTexCoords@U3D_IDTF@@@@@8 0048a108     ResourceListParser.obj
 0004:00002140       ??_R3?$IFXArray@UFaceTexCoords@U3D_IDTF@@@@8 0048a140     ResourceListParser.obj
 0004:00002150       ??_R2?$IFXArray@UFaceTexCoords@U3D_IDTF@@@@8 0048a150     ResourceListParser.obj
 0004:00002158       ??_R1A@?0A@A@?$IFXArray@UFaceTexCoords@U3D_IDTF@@@@8 0048a158     ResourceListParser.obj
 0004:00002170       ??_R4LineSetResource@U3D_IDTF@@6B@ 0048a170     ResourceListParser.obj
 0004:00002188       ??_R0?AVLineSetResource@U3D_IDTF@@@8 0048a188     ResourceListParser.obj
 0004:000021b0       ??_R3LineSetResource@U3D_IDTF@@8 0048a1b0     ResourceListParser.obj
 0004:000021c0       ??_R2LineSetResource@U3D_IDTF@@8 0048a1c0     ResourceListParser.obj
 0004:000021d0       ??_R1A@?0A@A@LineSetResource@U3D_IDTF@@8 0048a1d0     ResourceListParser.obj
 0004:000021e8       ??_R4?$IFXArray@VInt2@U3D_IDTF@@@@6B@ 0048a1e8     ResourceListParser.obj
 0004:00002200       ??_R0?AV?$IFXArray@VInt2@U3D_IDTF@@@@@8 0048a200     ResourceListParser.obj
 0004:00002230       ??_R3?$IFXArray@VInt2@U3D_IDTF@@@@8 0048a230     ResourceListParser.obj
 0004:00002240       ??_R2?$IFXArray@VInt2@U3D_IDTF@@@@8 0048a240     ResourceListParser.obj
 0004:00002248       ??_R1A@?0A@A@?$IFXArray@VInt2@U3D_IDTF@@@@8 0048a248     ResourceListParser.obj
 0004:00002260       ??_R4?$IFXArray@ULineTexCoords@U3D_IDTF@@@@6B@ 0048a260     ResourceListParser.obj
 0004:00002278       ??_R0?AV?$IFXArray@ULineTexCoords@U3D_IDTF@@@@@8 0048a278     ResourceListParser.obj
 0004:000022b0       ??_R3?$IFXArray@ULineTexCoords@U3D_IDTF@@@@8 0048a2b0     ResourceListParser.obj
 0004:000022c0       ??_R2?$IFXArray@ULineTexCoords@U3D_IDTF@@@@8 0048a2c0     ResourceListParser.obj
 0004:000022c8       ??_R1A@?0A@A@?$IFXArray@ULineTexCoords@U3D_IDTF@@@@8 0048a2c8     ResourceListParser.obj
 0004:000022e0       ??_R4PointSetResource@U3D_IDTF@@6B@ 0048a2e0     ResourceListParser.obj
 0004:000022f8       ??_R0?AVPointSetResource@U3D_IDTF@@@8 0048a2f8     ResourceListParser.obj
 0004:00002320       ??_R3PointSetResource@U3D_IDTF@@8 0048a320     ResourceListParser.obj
 0004:00002330       ??_R2PointSetResource@U3D_IDTF@@8 0048a330     ResourceListParser.obj
 0004:00002340       ??_R1A@?0A@A@PointSetResource@U3D_IDTF@@8 0048a340     ResourceListParser.obj
 0004:00002358       ??_R4?$IFXArray@UPointTexCoords@U3D_IDTF@@@@6B@ 0048a358     ResourceListParser.obj
 0004:00002370       ??_R0?AV?$IFXArray@UPointTexCoords@U3D_IDTF@@@@@8 0048a370     ResourceListParser.obj
 0004:000023a8       ??_R3?$IFXArray@UPointTexCoords@U3D_IDTF@@@@8 0048a3a8     ResourceListParser.obj
 0004:000023b8       ??_R2?$IFXArray@UPointTexCoords@U3D_IDTF@@@@8 0048a3b8     ResourceListParser.obj
 0004:000023c0       ??_R1A@?0A@A@?$IFXArray@UPointTexCoords@U3D_IDTF@@@@8 0048a3c0     ResourceListParser.obj
 0004:000023d8       ??_R4TextureLayer@U3D_IDTF@@6B@ 0048a3d8     ResourceListParser.obj
 0004:000023f0       ??_R0?AVTextureLayer@U3D_IDTF@@@8 0048a3f0     ResourceListParser.obj
 0004:00002418       ??_R3TextureLayer@U3D_IDTF@@8 0048a418     ResourceListParser.obj
 0004:00002428       ??_R2TextureLayer@U3D_IDTF@@8 0048a428     ResourceListParser.obj
 0004:00002430       ??_R1A@?0A@A@TextureLayer@U3D_IDTF@@8 0048a430     ResourceListParser.obj
 0004:00002448       ??_R4Shader@U3D_IDTF@@6B@  0048a448     ResourceListParser.obj
 0004:00002460       ??_R0?AVShader@U3D_IDTF@@@8 0048a460     ResourceListParser.obj
 0004:00002480       ??_R3Shader@U3D_IDTF@@8    0048a480     ResourceListParser.obj
 0004:00002490       ??_R2Shader@U3D_IDTF@@8    0048a490     ResourceListParser.obj
 0004:000024a0       ??_R1A@?0A@A@Shader@U3D_IDTF@@8 0048a4a0     ResourceListParser.obj
 0004:000024b8       ??_R4?$IFXArray@VTextureLayer@U3D_IDTF@@@@6B@ 0048a4b8     ResourceListParser.obj
 0004:000024d0       ??_R0?AV?$IFXArray@VTextureLayer@U3D_IDTF@@@@@8 0048a4d0     ResourceListParser.obj
 0004:00002508       ??_R3?$IFXArray@VTextureLayer@U3D_IDTF@@@@8 0048a508     ResourceListParser.obj
 0004:00002518       ??_R2?$IFXArray@VTextureLayer@U3D_IDTF@@@@8 0048a518     ResourceListParser.obj
 0004:00002520       ??_R1A@?0A@A@?$IFXArray@VTextureLayer@U3D_IDTF@@@@8 0048a520     ResourceListParser.obj
 0004:00002538       ??_R4Material@U3D_IDTF@@6B@ 0048a538     ResourceListParser.obj
 0004:00002550       ??_R0?AVMaterial@U3D_IDTF@@@8 0048a550     ResourceListParser.obj
 0004:00002570       ??_R3Material@U3D_IDTF@@8  0048a570     ResourceListParser.obj
 0004:00002580       ??_R2Material@U3D_IDTF@@8  0048a580     ResourceListParser.obj
 0004:00002590       ??_R1A@?0A@A@Material@U3D_IDTF@@8 0048a590     ResourceListParser.obj
 0004:000025a8       ??_R4ImageFormat@U3D_IDTF@@6B@ 0048a5a8     ResourceListParser.obj
 0004:000025c0       ??_R0?AVImageFormat@U3D_IDTF@@@8 0048a5c0     ResourceListParser.obj
 0004:000025e8       ??_R3ImageFormat@U3D_IDTF@@8 0048a5e8     ResourceListParser.obj
 0004:000025f8       ??_R2ImageFormat@U3D_IDTF@@8 0048a5f8     ResourceListParser.obj
 0004:00002600       ??_R1A@?0A@A@ImageFormat@U3D_IDTF@@8 0048a600     ResourceListParser.obj
 0004:00002618       ??_R4Texture@U3D_IDTF@@6B@ 0048a618     ResourceListParser.obj
 0004:00002630       ??_R0?AVTexture@U3D_IDTF@@@8 0048a630     ResourceListParser.obj
 0004:00002650       ??_R3Texture@U3D_IDTF@@8   0048a650     ResourceListParser.obj
 0004:00002660       ??_R2Texture@U3D_IDTF@@8   0048a660     ResourceListParser.obj
 0004:00002670       ??_R1A@?0A@A@Texture@U3D_IDTF@@8 0048a670     ResourceListParser.obj
 0004:00002688       ??_R4?$IFXArray@VImageFormat@U3D_IDTF@@@@6B@ 0048a688     ResourceListParser.obj
 0004:000026a0       ??_R0?AV?$IFXArray@VImageFormat@U3D_IDTF@@@@@8 0048a6a0     ResourceListParser.obj
 0004:000026d8       ??_R3?$IFXArray@VImageFormat@U3D_IDTF@@@@8 0048a6d8     ResourceListParser.obj
 0004:000026e8       ??_R2?$IFXArray@VImageFormat@U3D_IDTF@@@@8 0048a6e8     ResourceListParser.obj
 0004:000026f0       ??_R1A@?0A@A@?$IFXArray@VImageFormat@U3D_IDTF@@@@8 0048a6f0     ResourceListParser.obj
 0004:00002708       ??_R4?$IFXArray@UKeyFrame@U3D_IDTF@@@@6B@ 0048a708     ResourceListParser.obj
 0004:00002720       ??_R0?AV?$IFXArray@UKeyFrame@U3D_IDTF@@@@@8 0048a720     ResourceListParser.obj
 0004:00002750       ??_R3?$IFXArray@UKeyFrame@U3D_IDTF@@@@8 0048a750     ResourceListParser.obj
 0004:00002760       ??_R2?$IFXArray@UKeyFrame@U3D_IDTF@@@@8 0048a760     ResourceListParser.obj
 0004:00002768       ??_R1A@?0A@A@?$IFXArray@UKeyFrame@U3D_IDTF@@@@8 0048a768     ResourceListParser.obj
 0004:00002780       ??_R4MotionResource@U3D_IDTF@@6B@ 0048a780     ResourceListParser.obj
 0004:00002798       ??_R0?AVMotionResource@U3D_IDTF@@@8 0048a798     ResourceListParser.obj
 0004:000027c0       ??_R3MotionResource@U3D_IDTF@@8 0048a7c0     ResourceListParser.obj
 0004:000027d0       ??_R2MotionResource@U3D_IDTF@@8 0048a7d0     ResourceListParser.obj
 0004:000027e0       ??_R1A@?0A@A@MotionResource@U3D_IDTF@@8 0048a7e0     ResourceListParser.obj
 0004:000027f8       ??_R4?$IFXArray@VMotionTrack@U3D_IDTF@@@@6B@ 0048a7f8     ResourceListParser.obj
 0004:00002810       ??_R0?AV?$IFXArray@VMotionTrack@U3D_IDTF@@@@@8 0048a810     ResourceListParser.obj
 0004:00002848       ??_R3?$IFXArray@VMotionTrack@U3D_IDTF@@@@8 0048a848     ResourceListParser.obj
 0004:00002858       ??_R2?$IFXArray@VMotionTrack@U3D_IDTF@@@@8 0048a858     ResourceListParser.obj
 0004:00002860       ??_R1A@?0A@A@?$IFXArray@VMotionTrack@U3D_IDTF@@@@8 0048a860     ResourceListParser.obj
 0004:00002878       ??_R4ResourceListParser@U3D_IDTF@@6B@ 0048a878     ResourceListParser.obj
 0004:00002890       ??_R0?AVResourceListParser@U3D_IDTF@@@8 0048a890     ResourceListParser.obj
 0004:000028c0       ??_R3ResourceListParser@U3D_IDTF@@8 0048a8c0     ResourceListParser.obj
 0004:000028d0       ??_R2ResourceListParser@U3D_IDTF@@8 0048a8d0     ResourceListParser.obj
 0004:000028e0       ??_R1A@?0A@A@ResourceListParser@U3D_IDTF@@8 0048a8e0     ResourceListParser.obj
 0004:000028f8       ??_R4SceneData@U3D_IDTF@@6B@ 0048a8f8     SceneConverter.obj
 0004:00002910       ??_R0?AVSceneData@U3D_IDTF@@@8 0048a910     SceneConverter.obj
 0004:00002938       ??_R3SceneData@U3D_IDTF@@8 0048a938     SceneConverter.obj
 0004:00002948       ??_R2SceneData@U3D_IDTF@@8 0048a948     SceneConverter.obj
 0004:00002950       ??_R1A@?0A@A@SceneData@U3D_IDTF@@8 0048a950     SceneConverter.obj
 0004:00002968       ??_R4SceneConverter@U3D_IDTF@@6B@ 0048a968     SceneConverter.obj
 0004:00002980       ??_R0?AVSceneConverter@U3D_IDTF@@@8 0048a980     SceneConverter.obj
 0004:000029a8       ??_R3SceneConverter@U3D_IDTF@@8 0048a9a8     SceneConverter.obj
 0004:000029b8       ??_R2SceneConverter@U3D_IDTF@@8 0048a9b8     SceneConverter.obj
 0004:000029c0       ??_R1A@?0A@A@SceneConverter@U3D_IDTF@@8 0048a9c0     SceneConverter.obj
 0004:000029d8       ??_R4ShaderParser@U3D_IDTF@@6B@ 0048a9d8     ShaderParser.obj
 0004:000029f0       ??_R0?AVShaderParser@U3D_IDTF@@@8 0048a9f0     ShaderParser.obj
 0004:00002a18       ??_R3ShaderParser@U3D_IDTF@@8 0048aa18     ShaderParser.obj
 0004:00002a28       ??_R2ShaderParser@U3D_IDTF@@8 0048aa28     ShaderParser.obj
 0004:00002a38       ??_R1A@?0A@A@ShaderParser@U3D_IDTF@@8 0048aa38     ShaderParser.obj
 0004:00002a50       ??_R4?$IFXArray@PAVIFXString@@@@6B@ 0048aa50     TextureConverter.obj
 0004:00002a68       ??_R0?AV?$IFXArray@PAVIFXString@@@@@8 0048aa68     TextureConverter.obj
 0004:00002a90       ??_R3?$IFXArray@PAVIFXString@@@@8 0048aa90     TextureConverter.obj
 0004:00002aa0       ??_R2?$IFXArray@PAVIFXString@@@@8 0048aaa0     TextureConverter.obj
 0004:00002aa8       ??_R1A@?0A@A@?$IFXArray@PAVIFXString@@@@8 0048aaa8     TextureConverter.obj
 0004:00002ac0       ??_R4TextureConverter@U3D_IDTF@@6B@ 0048aac0     TextureConverter.obj
 0004:00002ad8       ??_R0?AVTextureConverter@U3D_IDTF@@@8 0048aad8     TextureConverter.obj
 0004:00002b00       ??_R3TextureConverter@U3D_IDTF@@8 0048ab00     TextureConverter.obj
 0004:00002b10       ??_R2TextureConverter@U3D_IDTF@@8 0048ab10     TextureConverter.obj
 0004:00002b18       ??_R1A@?0A@A@TextureConverter@U3D_IDTF@@8 0048ab18     TextureConverter.obj
 0004:00002b30       ??_R4TextureParser@U3D_IDTF@@6B@ 0048ab30     TextureParser.obj
 0004:00002b48       ??_R0?AVTextureParser@U3D_IDTF@@@8 0048ab48     TextureParser.obj
 0004:00002b70       ??_R3TextureParser@U3D_IDTF@@8 0048ab70     TextureParser.obj
 0004:00002b80       ??_R2TextureParser@U3D_IDTF@@8 0048ab80     TextureParser.obj
 0004:00002b90       ??_R1A@?0A@A@TextureParser@U3D_IDTF@@8 0048ab90     TextureParser.obj
 0004:00002ba8       ??_R4UrlListParser@U3D_IDTF@@6B@ 0048aba8     UrlListParser.obj
 0004:00002bc0       ??_R0?AVUrlListParser@U3D_IDTF@@@8 0048abc0     UrlListParser.obj
 0004:00002be8       ??_R3UrlListParser@U3D_IDTF@@8 0048abe8     UrlListParser.obj
 0004:00002bf8       ??_R2UrlListParser@U3D_IDTF@@8 0048abf8     UrlListParser.obj
 0004:00002c08       ??_R1A@?0A@A@UrlListParser@U3D_IDTF@@8 0048ac08     UrlListParser.obj
 0004:00002c20       ??_R4IFXString@@6B@        0048ac20     IFXCoreStatic:IFXString.obj
 0004:00002c38       ??_R0?AVIFXString@@@8      0048ac38     IFXCoreStatic:IFXString.obj
 0004:00002c50       ??_R3IFXString@@8          0048ac50     IFXCoreStatic:IFXString.obj
 0004:00002c60       ??_R2IFXString@@8          0048ac60     IFXCoreStatic:IFXString.obj
 0004:00002c68       ??_R1A@?0A@A@IFXString@@8  0048ac68     IFXCoreStatic:IFXString.obj
 0004:00002c88       ??_R4ParentList@U3D_IDTF@@6B@ 0048ac88     IDTFCommon:ParentList.obj
 0004:00002ca0       ??_R0?AVParentList@U3D_IDTF@@@8 0048aca0     IDTFCommon:ParentList.obj
 0004:00002cc8       ??_R3ParentList@U3D_IDTF@@8 0048acc8     IDTFCommon:ParentList.obj
 0004:00002cd8       ??_R2ParentList@U3D_IDTF@@8 0048acd8     IDTFCommon:ParentList.obj
 0004:00002ce0       ??_R1A@?0A@A@ParentList@U3D_IDTF@@8 0048ace0     IDTFCommon:ParentList.obj
 0004:00002cf8       ??_R4?$IFXArray@VParentData@U3D_IDTF@@@@6B@ 0048acf8     IDTFCommon:ParentList.obj
 0004:00002d10       ??_R0?AV?$IFXArray@VParentData@U3D_IDTF@@@@@8 0048ad10     IDTFCommon:ParentList.obj
 0004:00002d40       ??_R3?$IFXArray@VParentData@U3D_IDTF@@@@8 0048ad40     IDTFCommon:ParentList.obj
 0004:00002d50       ??_R2?$IFXArray@VParentData@U3D_IDTF@@@@8 0048ad50     IDTFCommon:ParentList.obj
 0004:00002d58       ??_R1A@?0A@A@?$IFXArray@VParentData@U3D_IDTF@@@@8 0048ad58     IDTFCommon:ParentList.obj
 0004:00002d70       ??_R4MetaDataList@U3D_IDTF@@6B@ 0048ad70     IDTFCommon:MetaDataList.obj
 0004:00002d88       ??_R3MetaDataList@U3D_IDTF@@8 0048ad88     IDTFCommon:MetaDataList.obj
 0004:00002d98       ??_R2MetaDataList@U3D_IDTF@@8 0048ad98     IDTFCommon:MetaDataList.obj
 0004:00002da0       ??_R4?$IFXArray@VMetaData@U3D_IDTF@@@@6B@ 0048ada0     IDTFCommon:MetaDataList.obj
 0004:00002db8       ??_R0?AV?$IFXArray@VMetaData@U3D_IDTF@@@@@8 0048adb8     IDTFCommon:MetaDataList.obj
 0004:00002de8       ??_R3?$IFXArray@VMetaData@U3D_IDTF@@@@8 0048ade8     IDTFCommon:MetaDataList.obj
 0004:00002df8       ??_R2?$IFXArray@VMetaData@U3D_IDTF@@@@8 0048adf8     IDTFCommon:MetaDataList.obj
 0004:00002e00       ??_R1A@?0A@A@?$IFXArray@VMetaData@U3D_IDTF@@@@8 0048ae00     IDTFCommon:MetaDataList.obj
 0004:00002e18       ??_R4StringMetaData@U3D_IDTF@@6B@ 0048ae18     IDTFCommon:MetaDataList.obj
 0004:00002e30       ??_R0?AVStringMetaData@U3D_IDTF@@@8 0048ae30     IDTFCommon:MetaDataList.obj
 0004:00002e58       ??_R3StringMetaData@U3D_IDTF@@8 0048ae58     IDTFCommon:MetaDataList.obj
 0004:00002e68       ??_R2StringMetaData@U3D_IDTF@@8 0048ae68     IDTFCommon:MetaDataList.obj
 0004:00002e70       ??_R1A@?0A@A@StringMetaData@U3D_IDTF@@8 0048ae70     IDTFCommon:MetaDataList.obj
 0004:00002e88       ??_R4MetaData@U3D_IDTF@@6B@ 0048ae88     IDTFCommon:MetaDataList.obj
 0004:00002ea0       ??_R0?AVMetaData@U3D_IDTF@@@8 0048aea0     IDTFCommon:MetaDataList.obj
 0004:00002ec0       ??_R3MetaData@U3D_IDTF@@8  0048aec0     IDTFCommon:MetaDataList.obj
 0004:00002ed0       ??_R2MetaData@U3D_IDTF@@8  0048aed0     IDTFCommon:MetaDataList.obj
 0004:00002ee0       ??_R1A@?0A@A@MetaData@U3D_IDTF@@8 0048aee0     IDTFCommon:MetaDataList.obj
 0004:00002ef8       ??_R1BA@?0A@A@BinaryMetaData@U3D_IDTF@@8 0048aef8     IDTFCommon:MetaDataList.obj
 0004:00002f10       ??_R0?AVBinaryMetaData@U3D_IDTF@@@8 0048af10     IDTFCommon:MetaDataList.obj
 0004:00002f38       ??_R4NodeList@U3D_IDTF@@6B@ 0048af38     IDTFCommon:NodeList.obj
 0004:00002f50       ??_R0?AVNodeList@U3D_IDTF@@@8 0048af50     IDTFCommon:NodeList.obj
 0004:00002f70       ??_R3NodeList@U3D_IDTF@@8  0048af70     IDTFCommon:NodeList.obj
 0004:00002f80       ??_R2NodeList@U3D_IDTF@@8  0048af80     IDTFCommon:NodeList.obj
 0004:00002f88       ??_R1A@?0A@A@NodeList@U3D_IDTF@@8 0048af88     IDTFCommon:NodeList.obj
 0004:00002fa0       ??_R4?$IFXArray@PAVNode@U3D_IDTF@@@@6B@ 0048afa0     IDTFCommon:NodeList.obj
 0004:00002fb8       ??_R0?AV?$IFXArray@PAVNode@U3D_IDTF@@@@@8 0048afb8     IDTFCommon:NodeList.obj
 0004:00002fe8       ??_R3?$IFXArray@PAVNode@U3D_IDTF@@@@8 0048afe8     IDTFCommon:NodeList.obj
 0004:00002ff8       ??_R2?$IFXArray@PAVNode@U3D_IDTF@@@@8 0048aff8     IDTFCommon:NodeList.obj
 0004:00003000       ??_R1A@?0A@A@?$IFXArray@PAVNode@U3D_IDTF@@@@8 0048b000     IDTFCommon:NodeList.obj
 0004:00003018       ??_R4?$IFXArray@VLightNode@U3D_IDTF@@@@6B@ 0048b018     IDTFCommon:NodeList.obj
 0004:00003030       ??_R0?AV?$IFXArray@VLightNode@U3D_IDTF@@@@@8 0048b030     IDTFCommon:NodeList.obj
 0004:00003060       ??_R3?$IFXArray@VLightNode@U3D_IDTF@@@@8 0048b060     IDTFCommon:NodeList.obj
 0004:00003070       ??_R2?$IFXArray@VLightNode@U3D_IDTF@@@@8 0048b070     IDTFCommon:NodeList.obj
 0004:00003078       ??_R1A@?0A@A@?$IFXArray@VLightNode@U3D_IDTF@@@@8 0048b078     IDTFCommon:NodeList.obj
 0004:00003090       ??_R4?$IFXArray@VViewNode@U3D_IDTF@@@@6B@ 0048b090     IDTFCommon:NodeList.obj
 0004:000030a8       ??_R0?AV?$IFXArray@VViewNode@U3D_IDTF@@@@@8 0048b0a8     IDTFCommon:NodeList.obj
 0004:000030d8       ??_R3?$IFXArray@VViewNode@U3D_IDTF@@@@8 0048b0d8     IDTFCommon:NodeList.obj
 0004:000030e8       ??_R2?$IFXArray@VViewNode@U3D_IDTF@@@@8 0048b0e8     IDTFCommon:NodeList.obj
 0004:000030f0       ??_R1A@?0A@A@?$IFXArray@VViewNode@U3D_IDTF@@@@8 0048b0f0     IDTFCommon:NodeList.obj
 0004:00003108       ??_R4?$IFXArray@VModelNode@U3D_IDTF@@@@6B@ 0048b108     IDTFCommon:NodeList.obj
 0004:00003120       ??_R0?AV?$IFXArray@VModelNode@U3D_IDTF@@@@@8 0048b120     IDTFCommon:NodeList.obj
 0004:00003150       ??_R3?$IFXArray@VModelNode@U3D_IDTF@@@@8 0048b150     IDTFCommon:NodeList.obj
 0004:00003160       ??_R2?$IFXArray@VModelNode@U3D_IDTF@@@@8 0048b160     IDTFCommon:NodeList.obj
 0004:00003168       ??_R1A@?0A@A@?$IFXArray@VModelNode@U3D_IDTF@@@@8 0048b168     IDTFCommon:NodeList.obj
 0004:00003180       ??_R4?$IFXArray@VNode@U3D_IDTF@@@@6B@ 0048b180     IDTFCommon:NodeList.obj
 0004:00003198       ??_R0?AV?$IFXArray@VNode@U3D_IDTF@@@@@8 0048b198     IDTFCommon:NodeList.obj
 0004:000031c8       ??_R3?$IFXArray@VNode@U3D_IDTF@@@@8 0048b1c8     IDTFCommon:NodeList.obj
 0004:000031d8       ??_R2?$IFXArray@VNode@U3D_IDTF@@@@8 0048b1d8     IDTFCommon:NodeList.obj
 0004:000031e0       ??_R1A@?0A@A@?$IFXArray@VNode@U3D_IDTF@@@@8 0048b1e0     IDTFCommon:NodeList.obj
 0004:000031f8       ??_R4LightResourceList@U3D_IDTF@@6B@ 0048b1f8     IDTFCommon:SceneResources.obj
 0004:00003210       ??_R0?AVLightResourceList@U3D_IDTF@@@8 0048b210     IDTFCommon:SceneResources.obj
 0004:00003240       ??_R3LightResourceList@U3D_IDTF@@8 0048b240     IDTFCommon:SceneResources.obj
 0004:00003250       ??_R2LightResourceList@U3D_IDTF@@8 0048b250     IDTFCommon:SceneResources.obj
 0004:00003258       ??_R1A@?0A@A@LightResourceList@U3D_IDTF@@8 0048b258     IDTFCommon:SceneResources.obj
 0004:00003270       ??_R1A@?0A@A@ResourceList@U3D_IDTF@@8 0048b270     IDTFCommon:SceneResources.obj
 0004:00003288       ??_R0?AVResourceList@U3D_IDTF@@@8 0048b288     IDTFCommon:SceneResources.obj
 0004:000032b0       ??_R4?$IFXArray@VLightResource@U3D_IDTF@@@@6B@ 0048b2b0     IDTFCommon:SceneResources.obj
 0004:000032c8       ??_R0?AV?$IFXArray@VLightResource@U3D_IDTF@@@@@8 0048b2c8     IDTFCommon:SceneResources.obj
 0004:00003300       ??_R3?$IFXArray@VLightResource@U3D_IDTF@@@@8 0048b300     IDTFCommon:SceneResources.obj
 0004:00003310       ??_R2?$IFXArray@VLightResource@U3D_IDTF@@@@8 0048b310     IDTFCommon:SceneResources.obj
 0004:00003318       ??_R1A@?0A@A@?$IFXArray@VLightResource@U3D_IDTF@@@@8 0048b318     IDTFCommon:SceneResources.obj
 0004:00003330       ??_R4ViewResourceList@U3D_IDTF@@6B@ 0048b330     IDTFCommon:SceneResources.obj
 0004:00003348       ??_R0?AVViewResourceList@U3D_IDTF@@@8 0048b348     IDTFCommon:SceneResources.obj
 0004:00003370       ??_R3ViewResourceList@U3D_IDTF@@8 0048b370     IDTFCommon:SceneResources.obj
 0004:00003380       ??_R2ViewResourceList@U3D_IDTF@@8 0048b380     IDTFCommon:SceneResources.obj
 0004:00003388       ??_R1A@?0A@A@ViewResourceList@U3D_IDTF@@8 0048b388     IDTFCommon:SceneResources.obj
 0004:000033a0       ??_R4?$IFXArray@VViewResource@U3D_IDTF@@@@6B@ 0048b3a0     IDTFCommon:SceneResources.obj
 0004:000033b8       ??_R0?AV?$IFXArray@VViewResource@U3D_IDTF@@@@@8 0048b3b8     IDTFCommon:SceneResources.obj
 0004:000033f0       ??_R3?$IFXArray@VViewResource@U3D_IDTF@@@@8 0048b3f0     IDTFCommon:SceneResources.obj
 0004:00003400       ??_R2?$IFXArray@VViewResource@U3D_IDTF@@@@8 0048b400     IDTFCommon:SceneResources.obj
 0004:00003408       ??_R1A@?0A@A@?$IFXArray@VViewResource@U3D_IDTF@@@@8 0048b408     IDTFCommon:SceneResources.obj
 0004:00003420       ??_R4ShaderResourceList@U3D_IDTF@@6B@ 0048b420     IDTFCommon:SceneResources.obj
 0004:00003438       ??_R0?AVShaderResourceList@U3D_IDTF@@@8 0048b438     IDTFCommon:SceneResources.obj
 0004:00003468       ??_R3ShaderResourceList@U3D_IDTF@@8 0048b468     IDTFCommon:SceneResources.obj
 0004:00003478       ??_R2ShaderResourceList@U3D_IDTF@@8 0048b478     IDTFCommon:SceneResources.obj
 0004:00003480       ??_R1A@?0A@A@ShaderResourceList@U3D_IDTF@@8 0048b480     IDTFCommon:SceneResources.obj
 0004:00003498       ??_R4?$IFXArray@VShader@U3D_IDTF@@@@6B@ 0048b498     IDTFCommon:SceneResources.obj
 0004:000034b0       ??_R0?AV?$IFXArray@VShader@U3D_IDTF@@@@@8 0048b4b0     IDTFCommon:SceneResources.obj
 0004:000034e0       ??_R3?$IFXArray@VShader@U3D_IDTF@@@@8 0048b4e0     IDTFCommon:SceneResources.obj
 0004:000034f0       ??_R2?$IFXArray@VShader@U3D_IDTF@@@@8 0048b4f0     IDTFCommon:SceneResources.obj
 0004:000034f8       ??_R1A@?0A@A@?$IFXArray@VShader@U3D_IDTF@@@@8 0048b4f8     IDTFCommon:SceneResources.obj
 0004:00003510       ??_R4MotionResourceList@U3D_IDTF@@6B@ 0048b510     IDTFCommon:SceneResources.obj
 0004:00003528       ??_R0?AVMotionResourceList@U3D_IDTF@@@8 0048b528     IDTFCommon:SceneResources.obj
 0004:00003558       ??_R3MotionResourceList@U3D_IDTF@@8 0048b558     IDTFCommon:SceneResources.obj
 0004:00003568       ??_R2MotionResourceList@U3D_IDTF@@8 0048b568     IDTFCommon:SceneResources.obj
 0004:00003570       ??_R1A@?0A@A@MotionResourceList@U3D_IDTF@@8 0048b570     IDTFCommon:SceneResources.obj
 0004:00003588       ??_R4?$IFXArray@VMotionResource@U3D_IDTF@@@@6B@ 0048b588     IDTFCommon:SceneResources.obj
 0004:000035a0       ??_R0?AV?$IFXArray@VMotionResource@U3D_IDTF@@@@@8 0048b5a0     IDTFCommon:SceneResources.obj
 0004:000035d8       ??_R3?$IFXArray@VMotionResource@U3D_IDTF@@@@8 0048b5d8     IDTFCommon:SceneResources.obj
 0004:000035e8       ??_R2?$IFXArray@VMotionResource@U3D_IDTF@@@@8 0048b5e8     IDTFCommon:SceneResources.obj
 0004:000035f0       ??_R1A@?0A@A@?$IFXArray@VMotionResource@U3D_IDTF@@@@8 0048b5f0     IDTFCommon:SceneResources.obj
 0004:00003608       ??_R4MaterialResourceList@U3D_IDTF@@6B@ 0048b608     IDTFCommon:SceneResources.obj
 0004:00003620       ??_R0?AVMaterialResourceList@U3D_IDTF@@@8 0048b620     IDTFCommon:SceneResources.obj
 0004:00003650       ??_R3MaterialResourceList@U3D_IDTF@@8 0048b650     IDTFCommon:SceneResources.obj
 0004:00003660       ??_R2MaterialResourceList@U3D_IDTF@@8 0048b660     IDTFCommon:SceneResources.obj
 0004:00003668       ??_R1A@?0A@A@MaterialResourceList@U3D_IDTF@@8 0048b668     IDTFCommon:SceneResources.obj
 0004:00003680       ??_R4?$IFXArray@VMaterial@U3D_IDTF@@@@6B@ 0048b680     IDTFCommon:SceneResources.obj
 0004:00003698       ??_R0?AV?$IFXArray@VMaterial@U3D_IDTF@@@@@8 0048b698     IDTFCommon:SceneResources.obj
 0004:000036c8       ??_R3?$IFXArray@VMaterial@U3D_IDTF@@@@8 0048b6c8     IDTFCommon:SceneResources.obj
 0004:000036d8       ??_R2?$IFXArray@VMaterial@U3D_IDTF@@@@8 0048b6d8     IDTFCommon:SceneResources.obj
 0004:000036e0       ??_R1A@?0A@A@?$IFXArray@VMaterial@U3D_IDTF@@@@8 0048b6e0     IDTFCommon:SceneResources.obj
 0004:000036f8       ??_R4TextureResourceList@U3D_IDTF@@6B@ 0048b6f8     IDTFCommon:SceneResources.obj
 0004:00003710       ??_R0?AVTextureResourceList@U3D_IDTF@@@8 0048b710     IDTFCommon:SceneResources.obj
 0004:00003740       ??_R3TextureResourceList@U3D_IDTF@@8 0048b740     IDTFCommon:SceneResources.obj
 0004:00003750       ??_R2TextureResourceList@U3D_IDTF@@8 0048b750     IDTFCommon:SceneResources.obj
 0004:00003758       ??_R1A@?0A@A@TextureResourceList@U3D_IDTF@@8 0048b758     IDTFCommon:SceneResources.obj
 0004:00003770       ??_R4?$IFXArray@VTexture@U3D_IDTF@@@@6B@ 0048b770     IDTFCommon:SceneResources.obj
 0004:00003788       ??_R0?AV?$IFXArray@VTexture@U3D_IDTF@@@@@8 0048b788     IDTFCommon:SceneResources.obj
 0004:000037b8       ??_R3?$IFXArray@VTexture@U3D_IDTF@@@@8 0048b7b8     IDTFCommon:SceneResources.obj
 0004:000037c8       ??_R2?$IFXArray@VTexture@U3D_IDTF@@@@8 0048b7c8     IDTFCommon:SceneResources.obj
 0004:000037d0       ??_R1A@?0A@A@?$IFXArray@VTexture@U3D_IDTF@@@@8 0048b7d0     IDTFCommon:SceneResources.obj
 0004:000037e8       ??_R4SceneResources@U3D_IDTF@@6B@ 0048b7e8     IDTFCommon:SceneResources.obj
 0004:00003800       ??_R0?AVSceneResources@U3D_IDTF@@@8 0048b800     IDTFCommon:SceneResources.obj
 0004:00003828       ??_R3SceneResources@U3D_IDTF@@8 0048b828     IDTFCommon:SceneResources.obj
 0004:00003838       ??_R2SceneResources@U3D_IDTF@@8 0048b838     IDTFCommon:SceneResources.obj
 0004:00003840       ??_R1A@?0A@A@SceneResources@U3D_IDTF@@8 0048b840     IDTFCommon:SceneResources.obj
 0004:00003858       ??_R4ResourceList@U3D_IDTF@@6B@ 0048b858     IDTFCommon:ResourceList.obj
 0004:00003870       ??_R3ResourceList@U3D_IDTF@@8 0048b870     IDTFCommon:ResourceList.obj
 0004:00003880       ??_R2ResourceList@U3D_IDTF@@8 0048b880     IDTFCommon:ResourceList.obj
 0004:00003888       ??_R4ModifierList@U3D_IDTF@@6B@ 0048b888     IDTFCommon:ModifierList.obj
 0004:000038a0       ??_R0?AVModifierList@U3D_IDTF@@@8 0048b8a0     IDTFCommon:ModifierList.obj
 0004:000038c8       ??_R3ModifierList@U3D_IDTF@@8 0048b8c8     IDTFCommon:ModifierList.obj
 0004:000038d8       ??_R2ModifierList@U3D_IDTF@@8 0048b8d8     IDTFCommon:ModifierList.obj
 0004:000038e0       ??_R1A@?0A@A@ModifierList@U3D_IDTF@@8 0048b8e0     IDTFCommon:ModifierList.obj
 0004:000038f8       ??_R4?$IFXArray@PAVModifier@U3D_IDTF@@@@6B@ 0048b8f8     IDTFCommon:ModifierList.obj
 0004:00003910       ??_R0?AV?$IFXArray@PAVModifier@U3D_IDTF@@@@@8 0048b910     IDTFCommon:ModifierList.obj
 0004:00003940       ??_R3?$IFXArray@PAVModifier@U3D_IDTF@@@@8 0048b940     IDTFCommon:ModifierList.obj
 0004:00003950       ??_R2?$IFXArray@PAVModifier@U3D_IDTF@@@@8 0048b950     IDTFCommon:ModifierList.obj
 0004:00003958       ??_R1A@?0A@A@?$IFXArray@PAVModifier@U3D_IDTF@@@@8 0048b958     IDTFCommon:ModifierList.obj
 0004:00003970       ??_R4?$IFXArray@VShadingModifier@U3D_IDTF@@@@6B@ 0048b970     IDTFCommon:ModifierList.obj
 0004:00003988       ??_R0?AV?$IFXArray@VShadingModifier@U3D_IDTF@@@@@8 0048b988     IDTFCommon:ModifierList.obj
 0004:000039c0       ??_R3?$IFXArray@VShadingModifier@U3D_IDTF@@@@8 0048b9c0     IDTFCommon:ModifierList.obj
 0004:000039d0       ??_R2?$IFXArray@VShadingModifier@U3D_IDTF@@@@8 0048b9d0     IDTFCommon:ModifierList.obj
 0004:000039d8       ??_R1A@?0A@A@?$IFXArray@VShadingModifier@U3D_IDTF@@@@8 0048b9d8     IDTFCommon:ModifierList.obj
 0004:000039f0       ??_R4?$IFXArray@VAnimationModifier@U3D_IDTF@@@@6B@ 0048b9f0     IDTFCommon:ModifierList.obj
 0004:00003a08       ??_R0?AV?$IFXArray@VAnimationModifier@U3D_IDTF@@@@@8 0048ba08     IDTFCommon:ModifierList.obj
 0004:00003a40       ??_R3?$IFXArray@VAnimationModifier@U3D_IDTF@@@@8 0048ba40     IDTFCommon:ModifierList.obj
 0004:00003a50       ??_R2?$IFXArray@VAnimationModifier@U3D_IDTF@@@@8 0048ba50     IDTFCommon:ModifierList.obj
 0004:00003a58       ??_R1A@?0A@A@?$IFXArray@VAnimationModifier@U3D_IDTF@@@@8 0048ba58     IDTFCommon:ModifierList.obj
 0004:00003a70       ??_R4?$IFXArray@VBoneWeightModifier@U3D_IDTF@@@@6B@ 0048ba70     IDTFCommon:ModifierList.obj
 0004:00003a88       ??_R0?AV?$IFXArray@VBoneWeightModifier@U3D_IDTF@@@@@8 0048ba88     IDTFCommon:ModifierList.obj
 0004:00003ac0       ??_R3?$IFXArray@VBoneWeightModifier@U3D_IDTF@@@@8 0048bac0     IDTFCommon:ModifierList.obj
 0004:00003ad0       ??_R2?$IFXArray@VBoneWeightModifier@U3D_IDTF@@@@8 0048bad0     IDTFCommon:ModifierList.obj
 0004:00003ad8       ??_R1A@?0A@A@?$IFXArray@VBoneWeightModifier@U3D_IDTF@@@@8 0048bad8     IDTFCommon:ModifierList.obj
 0004:00003af0       ??_R4?$IFXArray@VCLODModifier@U3D_IDTF@@@@6B@ 0048baf0     IDTFCommon:ModifierList.obj
 0004:00003b08       ??_R0?AV?$IFXArray@VCLODModifier@U3D_IDTF@@@@@8 0048bb08     IDTFCommon:ModifierList.obj
 0004:00003b40       ??_R3?$IFXArray@VCLODModifier@U3D_IDTF@@@@8 0048bb40     IDTFCommon:ModifierList.obj
 0004:00003b50       ??_R2?$IFXArray@VCLODModifier@U3D_IDTF@@@@8 0048bb50     IDTFCommon:ModifierList.obj
 0004:00003b58       ??_R1A@?0A@A@?$IFXArray@VCLODModifier@U3D_IDTF@@@@8 0048bb58     IDTFCommon:ModifierList.obj
 0004:00003b70       ??_R4?$IFXArray@VSubdivisionModifier@U3D_IDTF@@@@6B@ 0048bb70     IDTFCommon:ModifierList.obj
 0004:00003b88       ??_R0?AV?$IFXArray@VSubdivisionModifier@U3D_IDTF@@@@@8 0048bb88     IDTFCommon:ModifierList.obj
 0004:00003bc8       ??_R3?$IFXArray@VSubdivisionModifier@U3D_IDTF@@@@8 0048bbc8     IDTFCommon:ModifierList.obj
 0004:00003bd8       ??_R2?$IFXArray@VSubdivisionModifier@U3D_IDTF@@@@8 0048bbd8     IDTFCommon:ModifierList.obj
 0004:00003be0       ??_R1A@?0A@A@?$IFXArray@VSubdivisionModifier@U3D_IDTF@@@@8 0048bbe0     IDTFCommon:ModifierList.obj
 0004:00003bf8       ??_R4?$IFXArray@VGlyphModifier@U3D_IDTF@@@@6B@ 0048bbf8     IDTFCommon:ModifierList.obj
 0004:00003c10       ??_R0?AV?$IFXArray@VGlyphModifier@U3D_IDTF@@@@@8 0048bc10     IDTFCommon:ModifierList.obj
 0004:00003c48       ??_R3?$IFXArray@VGlyphModifier@U3D_IDTF@@@@8 0048bc48     IDTFCommon:ModifierList.obj
 0004:00003c58       ??_R2?$IFXArray@VGlyphModifier@U3D_IDTF@@@@8 0048bc58     IDTFCommon:ModifierList.obj
 0004:00003c60       ??_R1A@?0A@A@?$IFXArray@VGlyphModifier@U3D_IDTF@@@@8 0048bc60     IDTFCommon:ModifierList.obj
 0004:00003c78       ??_R4FileReference@U3D_IDTF@@6B@ 0048bc78     IDTFCommon:FileReference.obj
 0004:00003c90       ??_R0?AVFileReference@U3D_IDTF@@@8 0048bc90     IDTFCommon:FileReference.obj
 0004:00003cb8       ??_R3FileReference@U3D_IDTF@@8 0048bcb8     IDTFCommon:FileReference.obj
 0004:00003cc8       ??_R2FileReference@U3D_IDTF@@8 0048bcc8     IDTFCommon:FileReference.obj
 0004:00003cd0       ??_R1A@?0A@A@FileReference@U3D_IDTF@@8 0048bcd0     IDTFCommon:FileReference.obj
 0004:00003ce8       ??_R4?$IFXArray@VFilter@U3D_IDTF@@@@6B@ 0048bce8     IDTFCommon:FileReference.obj
 0004:00003d00       ??_R0?AV?$IFXArray@VFilter@U3D_IDTF@@@@@8 0048bd00     IDTFCommon:FileReference.obj
 0004:00003d30       ??_R3?$IFXArray@VFilter@U3D_IDTF@@@@8 0048bd30     IDTFCommon:FileReference.obj
 0004:00003d40       ??_R2?$IFXArray@VFilter@U3D_IDTF@@@@8 0048bd40     IDTFCommon:FileReference.obj
 0004:00003d48       ??_R1A@?0A@A@?$IFXArray@VFilter@U3D_IDTF@@@@8 0048bd48     IDTFCommon:FileReference.obj
 0004:00003d60       ??_R4Filter@U3D_IDTF@@6B@  0048bd60     IDTFCommon:FileReference.obj
 0004:00003d78       ??_R0?AVFilter@U3D_IDTF@@@8 0048bd78     IDTFCommon:FileReference.obj
 0004:00003d98       ??_R3Filter@U3D_IDTF@@8    0048bd98     IDTFCommon:FileReference.obj
 0004:00003da8       ??_R2Filter@U3D_IDTF@@8    0048bda8     IDTFCommon:FileReference.obj
 0004:00003db0       ??_R1A@?0A@A@Filter@U3D_IDTF@@8 0048bdb0     IDTFCommon:FileReference.obj
 0004:00003dc8       ??_R4ShadingDescriptionList@U3D_IDTF@@6B@ 0048bdc8     IDTFCommon:ModelResource.obj
 0004:00003de0       ??_R0?AVShadingDescriptionList@U3D_IDTF@@@8 0048bde0     IDTFCommon:ModelResource.obj
 0004:00003e10       ??_R3ShadingDescriptionList@U3D_IDTF@@8 0048be10     IDTFCommon:ModelResource.obj
 0004:00003e20       ??_R2ShadingDescriptionList@U3D_IDTF@@8 0048be20     IDTFCommon:ModelResource.obj
 0004:00003e28       ??_R1A@?0A@A@ShadingDescriptionList@U3D_IDTF@@8 0048be28     IDTFCommon:ModelResource.obj
 0004:00003e40       ??_R4?$IFXArray@VShadingDescription@U3D_IDTF@@@@6B@ 0048be40     IDTFCommon:ModelResource.obj
 0004:00003e58       ??_R0?AV?$IFXArray@VShadingDescription@U3D_IDTF@@@@@8 0048be58     IDTFCommon:ModelResource.obj
 0004:00003e90       ??_R3?$IFXArray@VShadingDescription@U3D_IDTF@@@@8 0048be90     IDTFCommon:ModelResource.obj
 0004:00003ea0       ??_R2?$IFXArray@VShadingDescription@U3D_IDTF@@@@8 0048bea0     IDTFCommon:ModelResource.obj
 0004:00003ea8       ??_R1A@?0A@A@?$IFXArray@VShadingDescription@U3D_IDTF@@@@8 0048bea8     IDTFCommon:ModelResource.obj
 0004:00003ec0       ??_R4?$IFXArray@UBoneInfo@U3D_IDTF@@@@6B@ 0048bec0     IDTFCommon:ModelResource.obj
 0004:00003ed8       ??_R0?AV?$IFXArray@UBoneInfo@U3D_IDTF@@@@@8 0048bed8     IDTFCommon:ModelResource.obj
 0004:00003f08       ??_R3?$IFXArray@UBoneInfo@U3D_IDTF@@@@8 0048bf08     IDTFCommon:ModelResource.obj
 0004:00003f18       ??_R2?$IFXArray@UBoneInfo@U3D_IDTF@@@@8 0048bf18     IDTFCommon:ModelResource.obj
 0004:00003f20       ??_R1A@?0A@A@?$IFXArray@UBoneInfo@U3D_IDTF@@@@8 0048bf20     IDTFCommon:ModelResource.obj
 0004:00003f38       ??_R4ModelResource@U3D_IDTF@@6B@ 0048bf38     IDTFCommon:ModelResource.obj
 0004:00003f50       ??_R3ModelResource@U3D_IDTF@@8 0048bf50     IDTFCommon:ModelResource.obj
 0004:00003f60       ??_R2ModelResource@U3D_IDTF@@8 0048bf60     IDTFCommon:ModelResource.obj
 0004:00003f70       ??_R4?$IFXArray@VPoint@U3D_IDTF@@@@6B@ 0048bf70     IDTFCommon:ModelResource.obj
 0004:00003f88       ??_R0?AV?$IFXArray@VPoint@U3D_IDTF@@@@@8 0048bf88     IDTFCommon:ModelResource.obj
 0004:00003fb8       ??_R3?$IFXArray@VPoint@U3D_IDTF@@@@8 0048bfb8     IDTFCommon:ModelResource.obj
 0004:00003fc8       ??_R2?$IFXArray@VPoint@U3D_IDTF@@@@8 0048bfc8     IDTFCommon:ModelResource.obj
 0004:00003fd0       ??_R1A@?0A@A@?$IFXArray@VPoint@U3D_IDTF@@@@8 0048bfd0     IDTFCommon:ModelResource.obj
 0004:00003fe8       ??_R4?$IFXArray@VColor@U3D_IDTF@@@@6B@ 0048bfe8     IDTFCommon:ModelResource.obj
 0004:00004000       ??_R0?AV?$IFXArray@VColor@U3D_IDTF@@@@@8 0048c000     IDTFCommon:ModelResource.obj
 0004:00004030       ??_R3?$IFXArray@VColor@U3D_IDTF@@@@8 0048c030     IDTFCommon:ModelResource.obj
 0004:00004040       ??_R2?$IFXArray@VColor@U3D_IDTF@@@@8 0048c040     IDTFCommon:ModelResource.obj
 0004:00004048       ??_R1A@?0A@A@?$IFXArray@VColor@U3D_IDTF@@@@8 0048c048     IDTFCommon:ModelResource.obj
 0004:00004060       ??_R4?$IFXArray@VIFXVector4@@@@6B@ 0048c060     IDTFCommon:ModelResource.obj
 0004:00004078       ??_R0?AV?$IFXArray@VIFXVector4@@@@@8 0048c078     IDTFCommon:ModelResource.obj
 0004:000040a0       ??_R3?$IFXArray@VIFXVector4@@@@8 0048c0a0     IDTFCommon:ModelResource.obj
 0004:000040b0       ??_R2?$IFXArray@VIFXVector4@@@@8 0048c0b0     IDTFCommon:ModelResource.obj
 0004:000040b8       ??_R1A@?0A@A@?$IFXArray@VIFXVector4@@@@8 0048c0b8     IDTFCommon:ModelResource.obj
 0004:000040d0       ??_R4ModelResourceList@U3D_IDTF@@6B@ 0048c0d0     IDTFCommon:ModelResourceList.obj
 0004:000040e8       ??_R0?AVModelResourceList@U3D_IDTF@@@8 0048c0e8     IDTFCommon:ModelResourceList.obj
 0004:00004118       ??_R3ModelResourceList@U3D_IDTF@@8 0048c118     IDTFCommon:ModelResourceList.obj
 0004:00004128       ??_R2ModelResourceList@U3D_IDTF@@8 0048c128     IDTFCommon:ModelResourceList.obj
 0004:00004130       ??_R1A@?0A@A@ModelResourceList@U3D_IDTF@@8 0048c130     IDTFCommon:ModelResourceList.obj
 0004:00004148       ??_R4?$IFXArray@PAVModelResource@U3D_IDTF@@@@6B@ 0048c148     IDTFCommon:ModelResourceList.obj
 0004:00004160       ??_R0?AV?$IFXArray@PAVModelResource@U3D_IDTF@@@@@8 0048c160     IDTFCommon:ModelResourceList.obj
 0004:00004198       ??_R3?$IFXArray@PAVModelResource@U3D_IDTF@@@@8 0048c198     IDTFCommon:ModelResourceList.obj
 0004:000041a8       ??_R2?$IFXArray@PAVModelResource@U3D_IDTF@@@@8 0048c1a8     IDTFCommon:ModelResourceList.obj
 0004:000041b0       ??_R1A@?0A@A@?$IFXArray@PAVModelResource@U3D_IDTF@@@@8 0048c1b0     IDTFCommon:ModelResourceList.obj
 0004:000041c8       ??_R4?$IFXArray@VMeshResource@U3D_IDTF@@@@6B@ 0048c1c8     IDTFCommon:ModelResourceList.obj
 0004:000041e0       ??_R0?AV?$IFXArray@VMeshResource@U3D_IDTF@@@@@8 0048c1e0     IDTFCommon:ModelResourceList.obj
 0004:00004218       ??_R3?$IFXArray@VMeshResource@U3D_IDTF@@@@8 0048c218     IDTFCommon:ModelResourceList.obj
 0004:00004228       ??_R2?$IFXArray@VMeshResource@U3D_IDTF@@@@8 0048c228     IDTFCommon:ModelResourceList.obj
 0004:00004230       ??_R1A@?0A@A@?$IFXArray@VMeshResource@U3D_IDTF@@@@8 0048c230     IDTFCommon:ModelResourceList.obj
 0004:00004248       ??_R4?$IFXArray@VLineSetResource@U3D_IDTF@@@@6B@ 0048c248     IDTFCommon:ModelResourceList.obj
 0004:00004260       ??_R0?AV?$IFXArray@VLineSetResource@U3D_IDTF@@@@@8 0048c260     IDTFCommon:ModelResourceList.obj
 0004:00004298       ??_R3?$IFXArray@VLineSetResource@U3D_IDTF@@@@8 0048c298     IDTFCommon:ModelResourceList.obj
 0004:000042a8       ??_R2?$IFXArray@VLineSetResource@U3D_IDTF@@@@8 0048c2a8     IDTFCommon:ModelResourceList.obj
 0004:000042b0       ??_R1A@?0A@A@?$IFXArray@VLineSetResource@U3D_IDTF@@@@8 0048c2b0     IDTFCommon:ModelResourceList.obj
 0004:000042c8       ??_R4?$IFXArray@VPointSetResource@U3D_IDTF@@@@6B@ 0048c2c8     IDTFCommon:ModelResourceList.obj
 0004:000042e0       ??_R0?AV?$IFXArray@VPointSetResource@U3D_IDTF@@@@@8 0048c2e0     IDTFCommon:ModelResourceList.obj
 0004:00004318       ??_R3?$IFXArray@VPointSetResource@U3D_IDTF@@@@8 0048c318     IDTFCommon:ModelResourceList.obj
 0004:00004328       ??_R2?$IFXArray@VPointSetResource@U3D_IDTF@@@@8 0048c328     IDTFCommon:ModelResourceList.obj
 0004:00004330       ??_R1A@?0A@A@?$IFXArray@VPointSetResource@U3D_IDTF@@@@8 0048c330     IDTFCommon:ModelResourceList.obj
 0004:00004348       ??_R4SceneUtilities@U3D_IDTF@@6B@ 0048c348     IDTFConverterHelpers:SceneUtilities.obj
 0004:00004360       ??_R0?AVSceneUtilities@U3D_IDTF@@@8 0048c360     IDTFConverterHelpers:SceneUtilities.obj
 0004:00004388       ??_R3SceneUtilities@U3D_IDTF@@8 0048c388     IDTFConverterHelpers:SceneUtilities.obj
 0004:00004398       ??_R2SceneUtilities@U3D_IDTF@@8 0048c398     IDTFConverterHelpers:SceneUtilities.obj
 0004:000043a0       ??_R1A@?0A@A@SceneUtilities@U3D_IDTF@@8 0048c3a0     IDTFConverterHelpers:SceneUtilities.obj
 0004:000043b8       ??_R4TGAImage@U3D_IDTF@@6B@ 0048c3b8     IDTFConverterHelpers:TGAImage.obj
 0004:000043d0       ??_R0?AVTGAImage@U3D_IDTF@@@8 0048c3d0     IDTFConverterHelpers:TGAImage.obj
 0004:000043f0       ??_R3TGAImage@U3D_IDTF@@8  0048c3f0     IDTFConverterHelpers:TGAImage.obj
 0004:00004400       ??_R2TGAImage@U3D_IDTF@@8  0048c400     IDTFConverterHelpers:TGAImage.obj
 0004:00004408       ??_R1A@?0A@A@TGAImage@U3D_IDTF@@8 0048c408     IDTFConverterHelpers:TGAImage.obj
 0004:00004420       ??_R4IFXRenderClear@@6B@   0048c420     IDTFConverterHelpers:DebugInfo.obj
 0004:00004438       ??_R0?AVIFXRenderClear@@@8 0048c438     IDTFConverterHelpers:DebugInfo.obj
 0004:00004458       ??_R3IFXRenderClear@@8     0048c458     IDTFConverterHelpers:DebugInfo.obj
 0004:00004468       ??_R2IFXRenderClear@@8     0048c468     IDTFConverterHelpers:DebugInfo.obj
 0004:00004470       ??_R1A@?0A@A@IFXRenderClear@@8 0048c470     IDTFConverterHelpers:DebugInfo.obj
 0004:00004488       ??_R4IFXRenderFog@@6B@     0048c488     IDTFConverterHelpers:DebugInfo.obj
 0004:000044a0       ??_R0?AVIFXRenderFog@@@8   0048c4a0     IDTFConverterHelpers:DebugInfo.obj
 0004:000044c0       ??_R3IFXRenderFog@@8       0048c4c0     IDTFConverterHelpers:DebugInfo.obj
 0004:000044d0       ??_R2IFXRenderFog@@8       0048c4d0     IDTFConverterHelpers:DebugInfo.obj
 0004:000044d8       ??_R1A@?0A@A@IFXRenderFog@@8 0048c4d8     IDTFConverterHelpers:DebugInfo.obj
 0004:000044f0       ??_R4IFXListContext@@6B@   0048c4f0     IDTFConverterHelpers:DebugInfo.obj
 0004:00004508       ??_R0?AVIFXListContext@@@8 0048c508     IDTFConverterHelpers:DebugInfo.obj
 0004:00004528       ??_R3IFXListContext@@8     0048c528     IDTFConverterHelpers:DebugInfo.obj
 0004:00004538       ??_R2IFXListContext@@8     0048c538     IDTFConverterHelpers:DebugInfo.obj
 0004:00004540       ??_R1A@?0A@A@IFXListContext@@8 0048c540     IDTFConverterHelpers:DebugInfo.obj
 0004:00004558       ??_R4DebugInfo@U3D_IDTF@@6B@ 0048c558     IDTFConverterHelpers:DebugInfo.obj
 0004:00004570       ??_R0?AVDebugInfo@U3D_IDTF@@@8 0048c570     IDTFConverterHelpers:DebugInfo.obj
 0004:00004598       ??_R3DebugInfo@U3D_IDTF@@8 0048c598     IDTFConverterHelpers:DebugInfo.obj
 0004:000045a8       ??_R2DebugInfo@U3D_IDTF@@8 0048c5a8     IDTFConverterHelpers:DebugInfo.obj
 0004:000045b0       ??_R1A@?0A@A@DebugInfo@U3D_IDTF@@8 0048c5b0     IDTFConverterHelpers:DebugInfo.obj
 0004:000045c8       __NLG_Destination          0048c5c8     LIBCMT:exsup.obj
 0004:000045d8       ??_R0?AVtype_info@@@8      0048c5d8     LIBCMT:typinfo.obj
 0004:000045f0       __fltused                  0048c5f0     LIBCMT:fpinit.obj
 0004:000045f4       __ldused                   0048c5f4     LIBCMT:fpinit.obj
 0004:000045f8       __FPinit                   0048c5f8     LIBCMT:fpinit.obj
 0004:000045fc       __FPmtinit                 0048c5fc     LIBCMT:fpinit.obj
 0004:00004600       __FPmtterm                 0048c600     LIBCMT:fpinit.obj
 0004:00004604       ?__pMyUnhandledExceptionFilter@@3PAXA 0048c604     LIBCMT:throw.obj
 0004:00004608       __aexit_rtn                0048c608     LIBCMT:wcrt0.obj
 0004:0000460c       ___app_type                0048c60c     LIBCMT:wcrt0.obj
 0004:00004618       ___initiallocinfo          0048c618     LIBCMT:setlocal.obj
 0004:0000466c       ___ptlocinfo               0048c66c     LIBCMT:setlocal.obj
 0004:000047a8       ___lc_category             0048c7a8     LIBCMT:setlocal.obj
 0004:000047f4       ___security_cookie         0048c7f4     LIBCMT:seccook.obj
 0004:000047f8       ___tlsindex                0048c7f8     LIBCMT:tidtable.obj
 0004:000047fc       ?__pInconsistency@@3P6AXXZA 0048c7fc     LIBCMT:hooks.obj
 0004:00004920       __cfltcvt_tab              0048c920     LIBCMT:cmiscdat.obj
 0004:00004938       __iob                      0048c938     LIBCMT:_file.obj
 0004:00004bb8       ___nullstring              0048cbb8     LIBCMT:output.obj
 0004:00004bbc       ___wnullstring             0048cbbc     LIBCMT:output.obj
 0004:00004bc0       __amblksiz                 0048cbc0     LIBCMT:heapinit.obj
 0004:00004d38       ___badioinfo               0048cd38     LIBCMT:ioinit.obj
 0004:00004df8       __XcptActTab               0048cdf8     LIBCMT:winxfltr.obj
 0004:00004e70       __First_FPE_Indx           0048ce70     LIBCMT:winxfltr.obj
 0004:00004e74       __Num_FPE                  0048ce74     LIBCMT:winxfltr.obj
 0004:00004e78       __XcptActTabSize           0048ce78     LIBCMT:winxfltr.obj
 0004:00004e7c       __XcptActTabCount          0048ce7c     LIBCMT:winxfltr.obj
 0004:00004e80       ___lc_time_curr            0048ce80     LIBCMT:strftime.obj
 0004:00004e88       ___lc_time_c               0048ce88     LIBCMT:strftime.obj
 0004:00004f40       __pctype                   0048cf40     LIBCMT:ctype.obj
 0004:00004f44       __pwctype                  0048cf44     LIBCMT:ctype.obj
 0004:00004f48       ___lconv_static_decimal    0048cf48     LIBCMT:lconv.obj
 0004:00004f4c       ___lconv_c                 0048cf4c     LIBCMT:lconv.obj
 0004:00004f7c       ___lconv                   0048cf7c     LIBCMT:lconv.obj
 0004:00004f80       ___lc_clike                0048cf80     LIBCMT:nlsdata2.obj
 0004:00004f90       ___mb_cur_max              0048cf90     LIBCMT:nlsdata1.obj
 0004:00004f94       ___decimal_point           0048cf94     LIBCMT:nlsdata1.obj
 0004:00004f98       ___decimal_point_length    0048cf98     LIBCMT:nlsdata1.obj
 0004:00004fa0       __timezone                 0048cfa0     LIBCMT:timeset.obj
 0004:00004fa4       __daylight                 0048cfa4     LIBCMT:timeset.obj
 0004:00004fa8       __dstbias                  0048cfa8     LIBCMT:timeset.obj
 0004:00005030       __tzname                   0048d030     LIBCMT:timeset.obj
 0004:00005180       __lpdays                   0048d180     LIBCMT:days.obj
 0004:000051b4       __days                     0048d1b4     LIBCMT:days.obj
 0004:000051f0       __pow10pos                 0048d1f0     LIBCMT:constpow.obj
 0004:00005350       __pow10neg                 0048d350     LIBCMT:constpow.obj
 0004:000054b0       ?_IFXMatrix4x4_Multiply@@3P6AXPAMPBM1@ZA 0048d4b0     IFXCoreStatic:IFXMatrix4x4.obj
 0004:000054b4       ?_IFXMatrix4x4_MakeIdentity@@3P6AXPAM@ZA 0048d4b4     IFXCoreStatic:IFXMatrix4x4.obj
 0004:000054b8       ?_IFXMatrix4x4_Scale@@3P6AXPAMPBM@ZA 0048d4b8     IFXCoreStatic:IFXMatrix4x4.obj
 0004:000054bc       ?_IFXMatrix4x4_Transpose@@3P6AXPAM@ZA 0048d4bc     IFXCoreStatic:IFXMatrix4x4.obj
 0004:000054c0       ?_IFXMatrix4x4_CalcDeterminant3x3@@3P6AMPBM@ZA 0048d4c0     IFXCoreStatic:IFXMatrix4x4.obj
 0004:000054c4       ?_IFXMatrix4x4_CalcDeterminant@@3P6AMPBM@ZA 0048d4c4     IFXCoreStatic:IFXMatrix4x4.obj
 0004:000054c8       ?_IFXMatrix4x4_Invert3x4@@3P6AHPAMPBM@ZA 0048d4c8     IFXCoreStatic:IFXMatrix4x4.obj
 0004:000054cc       ?_IFXMatrix4x4_Invert@@3P6AHPAMPBM@ZA 0048d4cc     IFXCoreStatic:IFXMatrix4x4.obj
 0004:000054d0       ?_IFXMatrix4x4_Multiply3x4@@3P6AXPAMPBM1@ZA 0048d4d0     IFXCoreStatic:IFXMatrix4x4.obj
 0004:000054d8       ??_R4IFXCoreList@@6B@      0048d4d8     IFXCoreStatic:IFXCoreList.obj
 0004:000054f0       ??_R0?AVIFXCoreList@@@8    0048d4f0     IFXCoreStatic:IFXCoreList.obj
 0004:00005510       ??_R3IFXCoreList@@8        0048d510     IFXCoreStatic:IFXCoreList.obj
 0004:00005520       ??_R2IFXCoreList@@8        0048d520     IFXCoreStatic:IFXCoreList.obj
 0004:00005528       ??_R1A@?0A@A@IFXCoreList@@8 0048d528     IFXCoreStatic:IFXCoreList.obj
 0004:00005540       __LIB_VERSIONIMF           0048d540     libmmt:libm_error.omu
 0004:00005544       _pmatherrf                 0048d544     libmmt:libm_error.omu
 0004:00005548       _pmatherr                  0048d548     libmmt:libm_error.omu
 0004:0000554c       _pmatherrl                 0048d54c     libmmt:libm_error.omu
 0004:00005d60       ?g_QPCFrequency@@3T_LARGE_INTEGER@@A 0048dd60     IFXCoreStatic:IFXOSUtilities.obj
 0004:00005d68       ?g_bUseQPC@@3HA            0048dd68     IFXCoreStatic:IFXOSUtilities.obj
 0004:00005d6c       ?g_eax@@3IA                0048dd6c     IFXCoreStatic:IFXOSUtilities.obj
 0004:00005d70       ?g_ebx@@3IA                0048dd70     IFXCoreStatic:IFXOSUtilities.obj
 0004:00005d74       ?g_ecx@@3IA                0048dd74     IFXCoreStatic:IFXOSUtilities.obj
 0004:00005d78       ?g_edx@@3IA                0048dd78     IFXCoreStatic:IFXOSUtilities.obj
 0004:00005dc0       ?g_DbgInfo@U3D_IDTF@@3VDebugInfo@1@A 0048ddc0     IDTFConverterHelpers:DebugInfo.obj
 0004:00005e40       ___fastflag                0048de40     LIBCMT:fpinit.obj
 0004:00005e44       __adjust_fdiv              0048de44     LIBCMT:fpinit.obj
 0004:00005e48       ___pPurecall               0048de48     LIBCMT:purevirt.obj
 0004:00005e4c       __aenvptr                  0048de4c     LIBCMT:wcrt0.obj
 0004:00005e50       __wenvptr                  0048de50     LIBCMT:wcrt0.obj
 0004:00005e54       ___error_mode              0048de54     LIBCMT:wcrt0.obj
 0004:00005e58       __umaskval                 0048de58     LIBCMT:crt0dat.obj
 0004:00005e5c       __osplatform               0048de5c     LIBCMT:crt0dat.obj
 0004:00005e60       __osver                    0048de60     LIBCMT:crt0dat.obj
 0004:00005e64       __winver                   0048de64     LIBCMT:crt0dat.obj
 0004:00005e68       __winmajor                 0048de68     LIBCMT:crt0dat.obj
 0004:00005e6c       __winminor                 0048de6c     LIBCMT:crt0dat.obj
 0004:00005e70       ___argc                    0048de70     LIBCMT:crt0dat.obj
 0004:00005e74       ___argv                    0048de74     LIBCMT:crt0dat.obj
 0004:00005e78       ___wargv                   0048de78     LIBCMT:crt0dat.obj
 0004:00005e7c       __environ                  0048de7c     LIBCMT:crt0dat.obj
 0004:00005e80       ___initenv                 0048de80     LIBCMT:crt0dat.obj
 0004:00005e84       __wenviron                 0048de84     LIBCMT:crt0dat.obj
 0004:00005e88       ___winitenv                0048de88     LIBCMT:crt0dat.obj
 0004:00005e8c       __pgmptr                   0048de8c     LIBCMT:crt0dat.obj
 0004:00005e90       __wpgmptr                  0048de90     LIBCMT:crt0dat.obj
 0004:00005e94       __exitflag                 0048de94     LIBCMT:crt0dat.obj
 0004:00005e98       __C_Termination_Done       0048de98     LIBCMT:crt0dat.obj
 0004:00005e9c       __C_Exit_Done              0048de9c     LIBCMT:crt0dat.obj
 0004:00005ec8       _gpFlsAlloc                0048dec8     LIBCMT:tidtable.obj
 0004:00005ecc       _gpFlsGetValue             0048decc     LIBCMT:tidtable.obj
 0004:00005ed0       _gpFlsSetValue             0048ded0     LIBCMT:tidtable.obj
 0004:00005ed4       _gpFlsFree                 0048ded4     LIBCMT:tidtable.obj
 0004:00006028       __cflush                   0048e028     LIBCMT:_file.obj
 0004:0000602c       __stdbuf                   0048e02c     LIBCMT:_sftbuf.obj
 0004:00006034       ?_pnhHeap@@3P6AHI@ZA       0048e034     LIBCMT:handler.obj
 0004:00006038       __newmode                  0048e038     LIBCMT:_newmode.obj
 0004:00006040       __adbgmsg                  0048e040     LIBCMT:crt0msg.obj
 0004:00006270       ___lconv_static_null       0048e270     LIBCMT:lconv.obj
 0004:00006274       ___lc_time_intl            0048e274     LIBCMT:inittime.obj
 0004:00006278       ___lconv_intl              0048e278     LIBCMT:initmon.obj
 0004:000062a0       ___lc_handle               0048e2a0     LIBCMT:nlsdata2.obj
 0004:000062b8       ___lc_codepage             0048e2b8     LIBCMT:nlsdata2.obj
 0004:000062bc       ___lc_collate_cp           0048e2bc     LIBCMT:nlsdata2.obj
 0004:000062c4       ___lc_id                   0048e2c4     LIBCMT:nlsdata3.obj
 0004:00006448       __commode                  0048e448     LIBCMT:ncommode.obj
 0004:00006454       __fmode                    0048e454     LIBCMT:txtmode.obj
 0004:0000645c       ___intel_cpu_indicator     0048e45c     libirc:cpu_disp.obj
 0004:00006460       ?m_pAllocator@IFXCoreList@@1PAVIFXUnitAllocator@@A 0048e460     IFXCoreStatic:IFXCoreList.obj
 0004:00006464       ?m_listCount@IFXCoreList@@1IA 0048e464     IFXCoreStatic:IFXCoreList.obj
 0004:00006468       ___mblcid                  0048e468     <common>
 0004:0000646c       ___ptmbcinfo               0048e46c     <common>
 0004:00006470       ___ismbcodepage            0048e470     <common>
 0004:00006480       __mbctype                  0048e480     <common>
 0004:00006584       ___mbcodepage              0048e584     <common>
 0004:00006590       ___mbulinfo                0048e590     <common>
 0004:000065a0       __mbcasemap                0048e5a0     <common>
 0004:000066a0       ___ctype1                  0048e6a0     <common>
 0004:000066a4       ___ctype1_refcount         0048e6a4     <common>
 0004:000066a8       ___lconv_mon_refcount      0048e6a8     <common>
 0004:000066ac       ___lconv_intl_refcount     0048e6ac     <common>
 0004:000066b0       ___lconv_num_refcount      0048e6b0     <common>
 0004:000066b4       __nhandle                  0048e6b4     <common>
 0004:000066c0       ___pioinfo                 0048e6c0     <common>
 0004:000067c0       ___sbh_pHeaderDefer        0048e7c0     <common>
 0004:000067c4       ___sbh_cntHeaderList       0048e7c4     <common>
 0004:000067c8       ___sbh_pHeaderList         0048e7c8     <common>
 0004:000067cc       ___sbh_threshold           0048e7cc     <common>
 0004:000067d0       ___sbh_pHeaderScan         0048e7d0     <common>
 0004:000067d4       ___sbh_sizeHeaderList      0048e7d4     <common>
 0004:000067d8       ___sbh_indGroupDefer       0048e7d8     <common>
 0004:000067dc       __crtheap                  0048e7dc     <common>
 0004:000067e0       ___active_heap             0048e7e0     <common>
 0004:000067e4       ___piob                    0048e7e4     <common>
 0004:00006800       __bufin                    0048e800     <common>
 0004:00007800       __nstream                  0048f800     <common>
 0004:00007804       ___env_initialized         0048f804     <common>
 0004:00007808       ___onexitend               0048f808     <common>
 0004:0000780c       ___onexitbegin             0048f80c     <common>
 0004:00007810       ___mbctype_initialized     0048f810     <common>
 0004:00007814       __wcmdln                   0048f814     <common>
 0005:00000004       ??_7BlockParser@U3D_IDTF@@6B@ 00490004     BlockParser.obj
 0005:00000054       ??_7File@U3D_IDTF@@6B@     00490054     File.obj
 0005:00001a84       ??_7IFXCoreArray@@6B@      00491a84     FileParser.obj
 0005:00001aac       ??_7Node@U3D_IDTF@@6B@     00491aac     FileParser.obj
 0005:00001ab4       ??_7LightNode@U3D_IDTF@@6B@ 00491ab4     FileParser.obj
 0005:00001abc       ??_7ViewNodeData@U3D_IDTF@@6B@ 00491abc     FileParser.obj
 0005:00001ac4       ??_7?$IFXArray@UViewTexture@U3D_IDTF@@@@6B@ 00491ac4     FileParser.obj
 0005:00001af0       ??_7ViewNode@U3D_IDTF@@6B@ 00491af0     FileParser.obj
 0005:00001af8       ??_7ModelNode@U3D_IDTF@@6B@ 00491af8     FileParser.obj
 0005:00001b00       ??_7Modifier@U3D_IDTF@@6B@ 00491b00     FileParser.obj
 0005:00001b08       ??_7ShadingModifier@U3D_IDTF@@6B@ 00491b08     FileParser.obj
 0005:00001b10       ??_7?$IFXArray@VShaderList@U3D_IDTF@@@@6B@ 00491b10     FileParser.obj
 0005:00001b3c       ??_7?$IFXArray@VIFXString@@@@6B@ 00491b3c     FileParser.obj
 0005:00001b68       ??_7AnimationModifier@U3D_IDTF@@6B@ 00491b68     FileParser.obj
 0005:00001b70       ??_7?$IFXArray@UMotionInfo@U3D_IDTF@@@@6B@ 00491b70     FileParser.obj
 0005:00001b9c       ??_7BoneWeightList@U3D_IDTF@@6B@ 00491b9c     FileParser.obj
 0005:00001ba4       ??_7?$IFXArray@H@@6B@      00491ba4     FileParser.obj
 0005:00001bd0       ??_7BoneWeightModifier@U3D_IDTF@@6B@ 00491bd0     FileParser.obj
 0005:00001bd8       ??_7?$IFXArray@VBoneWeightList@U3D_IDTF@@@@6B@ 00491bd8     FileParser.obj
 0005:00001c04       ??_7CLODModifier@U3D_IDTF@@6B@ 00491c04     FileParser.obj
 0005:00001c0c       ??_7SubdivisionModifier@U3D_IDTF@@6B@ 00491c0c     FileParser.obj
 0005:00001c14       ??_7GlyphCommand@U3D_IDTF@@6B@ 00491c14     FileParser.obj
 0005:00001c1c       ??_7EndGlyph@U3D_IDTF@@6B@ 00491c1c     FileParser.obj
 0005:00001c24       ??_7MoveTo@U3D_IDTF@@6B@   00491c24     FileParser.obj
 0005:00001c2c       ??_7LineTo@U3D_IDTF@@6B@   00491c2c     FileParser.obj
 0005:00001c34       ??_7CurveTo@U3D_IDTF@@6B@  00491c34     FileParser.obj
 0005:00001c3c       ??_7GlyphCommandList@U3D_IDTF@@6B@ 00491c3c     FileParser.obj
 0005:00001c44       ??_7?$IFXArray@PAVGlyphCommand@U3D_IDTF@@@@6B@ 00491c44     FileParser.obj
 0005:00001c70       ??_7?$IFXArray@VGlyphCommand@U3D_IDTF@@@@6B@ 00491c70     FileParser.obj
 0005:00001c9c       ??_7?$IFXArray@VEndGlyph@U3D_IDTF@@@@6B@ 00491c9c     FileParser.obj
 0005:00001cc8       ??_7?$IFXArray@VMoveTo@U3D_IDTF@@@@6B@ 00491cc8     FileParser.obj
 0005:00001cf4       ??_7?$IFXArray@VLineTo@U3D_IDTF@@@@6B@ 00491cf4     FileParser.obj
 0005:00001d20       ??_7?$IFXArray@VCurveTo@U3D_IDTF@@@@6B@ 00491d20     FileParser.obj
 0005:00001d4c       ??_7GlyphModifier@U3D_IDTF@@6B@ 00491d4c     FileParser.obj
 0005:00001d54       ??_7FileParser@U3D_IDTF@@6B@ 00491d54     FileParser.obj
 0005:00001ff4       ??_7IFXException@@6B@      00491ff4     FileReferenceConverter.obj
 0005:00001ffc       ??_7FileReferenceConverter@U3D_IDTF@@6B@ 00491ffc     FileReferenceConverter.obj
 0005:00002008       ??_7?$IFXArray@UIFXObjectFilter@@@@6B@ 00492008     FileReferenceConverter.obj
 0005:000020c4       ??_7UrlList@U3D_IDTF@@6B@  004920c4     FileReferenceParser.obj
 0005:000020cc       ??_7FileReferenceParser@U3D_IDTF@@6B@ 004920cc     FileReferenceParser.obj
 0005:000020d4       ??_7FileScanner@U3D_IDTF@@6B@ 004920d4     FileScanner.obj
 0005:000020dc       ??_7LineSetConverter@U3D_IDTF@@6B@ 004920dc     LineSetConverter.obj
 0005:000020e8       ??_7Int2@U3D_IDTF@@6B@     004920e8     LineSetResourceParser.obj
 0005:000020f0       ??_7LineSetResourceParser@U3D_IDTF@@6B@ 004920f0     LineSetResourceParser.obj
 0005:000020f8       ??_7MaterialParser@U3D_IDTF@@6B@ 004920f8     MaterialParser.obj
 0005:00002100       ??_7MeshConverter@U3D_IDTF@@6B@ 00492100     MeshConverter.obj
 0005:0000210c       ??_7Int3@U3D_IDTF@@6B@     0049210c     MeshResourceParser.obj
 0005:00002114       ??_7MeshResourceParser@U3D_IDTF@@6B@ 00492114     MeshResourceParser.obj
 0005:0000211c       ??_7MetaDataConverter@U3D_IDTF@@6B@ 0049211c     MetaDataConverter.obj
 0005:00002128       ??_7MetaDataParser@U3D_IDTF@@6B@ 00492128     MetaDataParser.obj
 0005:0000217c       ??_7ModelConverter@U3D_IDTF@@6B@ 0049217c     ModelConverter.obj
 0005:000022ac       ??_7Point@U3D_IDTF@@6B@    004922ac     ModelResourceParser.obj
 0005:000022b4       ??_7Color@U3D_IDTF@@6B@    004922b4     ModelResourceParser.obj
 0005:000022bc       ??_7?$IFXArray@I@@6B@      004922bc     ModelResourceParser.obj
 0005:000022e8       ??_7Quat@U3D_IDTF@@6B@     004922e8     ModelResourceParser.obj
 0005:000022f0       ??_7ModelResourceParser@U3D_IDTF@@6B@ 004922f0     ModelResourceParser.obj
 0005:000022f8       ??_7ModifierConverter@U3D_IDTF@@6B@ 004922f8     ModifierConverter.obj
 0005:00002304       ??_7ModifierParser@U3D_IDTF@@6B@ 00492304     ModifierParser.obj
 0005:0000230c       ??_7IFXViewLayer@@6B@      0049230c     NodeConverter.obj
 0005:00002314       ??_7NodeConverter@U3D_IDTF@@6B@ 00492314     NodeConverter.obj
 0005:00002364       ??_7ParentData@U3D_IDTF@@6B@ 00492364     NodeParser.obj
 0005:0000236c       ??_7NodeParser@U3D_IDTF@@6B@ 0049236c     NodeParser.obj
 0005:00002374       ??_7PointSetConverter@U3D_IDTF@@6B@ 00492374     PointSetConverter.obj
 0005:00002380       ??_7PointSetResourceParser@U3D_IDTF@@6B@ 00492380     PointSetResourceParser.obj
 0005:00002388       ??_7ResourceConverter@U3D_IDTF@@6B@ 00492388     ResourceConverter.obj
 0005:0000424c       ??_7Resource@U3D_IDTF@@6B@ 0049424c     ResourceListParser.obj
 0005:00004254       ??_7ViewResource@U3D_IDTF@@6B@ 00494254     ResourceListParser.obj
 0005:0000425c       ??_7LightResource@U3D_IDTF@@6B@ 0049425c     ResourceListParser.obj
 0005:00004264       ??_7MeshResource@U3D_IDTF@@6B@ 00494264     ResourceListParser.obj
 0005:0000426c       ??_7?$IFXArray@VInt3@U3D_IDTF@@@@6B@ 0049426c     ResourceListParser.obj
 0005:00004298       ??_7?$IFXArray@UFaceTexCoords@U3D_IDTF@@@@6B@ 00494298     ResourceListParser.obj
 0005:000042c4       ??_7LineSetResource@U3D_IDTF@@6B@ 004942c4     ResourceListParser.obj
 0005:000042cc       ??_7?$IFXArray@VInt2@U3D_IDTF@@@@6B@ 004942cc     ResourceListParser.obj
 0005:000042f8       ??_7?$IFXArray@ULineTexCoords@U3D_IDTF@@@@6B@ 004942f8     ResourceListParser.obj
 0005:00004324       ??_7PointSetResource@U3D_IDTF@@6B@ 00494324     ResourceListParser.obj
 0005:0000432c       ??_7?$IFXArray@UPointTexCoords@U3D_IDTF@@@@6B@ 0049432c     ResourceListParser.obj
 0005:00004358       ??_7TextureLayer@U3D_IDTF@@6B@ 00494358     ResourceListParser.obj
 0005:00004360       ??_7Shader@U3D_IDTF@@6B@   00494360     ResourceListParser.obj
 0005:00004368       ??_7?$IFXArray@VTextureLayer@U3D_IDTF@@@@6B@ 00494368     ResourceListParser.obj
 0005:00004394       ??_7Material@U3D_IDTF@@6B@ 00494394     ResourceListParser.obj
 0005:0000439c       ??_7ImageFormat@U3D_IDTF@@6B@ 0049439c     ResourceListParser.obj
 0005:000043a4       ??_7Texture@U3D_IDTF@@6B@  004943a4     ResourceListParser.obj
 0005:000043ac       ??_7?$IFXArray@VImageFormat@U3D_IDTF@@@@6B@ 004943ac     ResourceListParser.obj
 0005:000043d8       ??_7?$IFXArray@UKeyFrame@U3D_IDTF@@@@6B@ 004943d8     ResourceListParser.obj
 0005:00004404       ??_7MotionResource@U3D_IDTF@@6B@ 00494404     ResourceListParser.obj
 0005:0000440c       ??_7?$IFXArray@VMotionTrack@U3D_IDTF@@@@6B@ 0049440c     ResourceListParser.obj
 0005:00004438       ??_7ResourceListParser@U3D_IDTF@@6B@ 00494438     ResourceListParser.obj
 0005:000044d4       ??_7SceneData@U3D_IDTF@@6B@ 004944d4     SceneConverter.obj
 0005:000044dc       ??_7SceneConverter@U3D_IDTF@@6B@ 004944dc     SceneConverter.obj
 0005:000044e8       ??_7ShaderParser@U3D_IDTF@@6B@ 004944e8     ShaderParser.obj
 0005:000045fc       ??_7?$IFXArray@PAVIFXString@@@@6B@ 004945fc     TextureConverter.obj
 0005:00004628       ??_7TextureConverter@U3D_IDTF@@6B@ 00494628     TextureConverter.obj
 0005:00004634       ??_7TextureParser@U3D_IDTF@@6B@ 00494634     TextureParser.obj
 0005:0000463c       ??_7UrlListParser@U3D_IDTF@@6B@ 0049463c     UrlListParser.obj
 0005:00004644       ??_7IFXString@@6B@         00494644     IFXCoreStatic:IFXString.obj
 0005:000047e4       ??_7ParentList@U3D_IDTF@@6B@ 004947e4     IDTFCommon:ParentList.obj
 0005:000047ec       ??_7?$IFXArray@VParentData@U3D_IDTF@@@@6B@ 004947ec     IDTFCommon:ParentList.obj
 0005:0000491c       ??_7MetaDataList@U3D_IDTF@@6B@ 0049491c     IDTFCommon:MetaDataList.obj
 0005:00004924       ??_7?$IFXArray@VMetaData@U3D_IDTF@@@@6B@ 00494924     IDTFCommon:MetaDataList.obj
 0005:00004950       ??_7StringMetaData@U3D_IDTF@@6B@ 00494950     IDTFCommon:MetaDataList.obj
 0005:00004958       ??_7MetaData@U3D_IDTF@@6B@ 00494958     IDTFCommon:MetaDataList.obj
 0005:0000596c       ??_7NodeList@U3D_IDTF@@6B@ 0049596c     IDTFCommon:NodeList.obj
 0005:00005974       ??_7?$IFXArray@PAVNode@U3D_IDTF@@@@6B@ 00495974     IDTFCommon:NodeList.obj
 0005:000059a0       ??_7?$IFXArray@VLightNode@U3D_IDTF@@@@6B@ 004959a0     IDTFCommon:NodeList.obj
 0005:000059cc       ??_7?$IFXArray@VViewNode@U3D_IDTF@@@@6B@ 004959cc     IDTFCommon:NodeList.obj
 0005:000059f8       ??_7?$IFXArray@VModelNode@U3D_IDTF@@@@6B@ 004959f8     IDTFCommon:NodeList.obj
 0005:00005a24       ??_7?$IFXArray@VNode@U3D_IDTF@@@@6B@ 00495a24     IDTFCommon:NodeList.obj
 0005:000079e4       ??_7LightResourceList@U3D_IDTF@@6B@ 004979e4     IDTFCommon:SceneResources.obj
 0005:000079ec       ??_7?$IFXArray@VLightResource@U3D_IDTF@@@@6B@ 004979ec     IDTFCommon:SceneResources.obj
 0005:00007a18       ??_7ViewResourceList@U3D_IDTF@@6B@ 00497a18     IDTFCommon:SceneResources.obj
 0005:00007a20       ??_7?$IFXArray@VViewResource@U3D_IDTF@@@@6B@ 00497a20     IDTFCommon:SceneResources.obj
 0005:00007a4c       ??_7ShaderResourceList@U3D_IDTF@@6B@ 00497a4c     IDTFCommon:SceneResources.obj
 0005:00007a54       ??_7?$IFXArray@VShader@U3D_IDTF@@@@6B@ 00497a54     IDTFCommon:SceneResources.obj
 0005:00007a80       ??_7MotionResourceList@U3D_IDTF@@6B@ 00497a80     IDTFCommon:SceneResources.obj
 0005:00007a88       ??_7?$IFXArray@VMotionResource@U3D_IDTF@@@@6B@ 00497a88     IDTFCommon:SceneResources.obj
 0005:00007ab4       ??_7MaterialResourceList@U3D_IDTF@@6B@ 00497ab4     IDTFCommon:SceneResources.obj
 0005:00007abc       ??_7?$IFXArray@VMaterial@U3D_IDTF@@@@6B@ 00497abc     IDTFCommon:SceneResources.obj
 0005:00007ae8       ??_7TextureResourceList@U3D_IDTF@@6B@ 00497ae8     IDTFCommon:SceneResources.obj
 0005:00007af0       ??_7?$IFXArray@VTexture@U3D_IDTF@@@@6B@ 00497af0     IDTFCommon:SceneResources.obj
 0005:00007b1c       ??_7SceneResources@U3D_IDTF@@6B@ 00497b1c     IDTFCommon:SceneResources.obj
 0005:00007b24       ??_7ResourceList@U3D_IDTF@@6B@ 00497b24     IDTFCommon:ResourceList.obj
 0005:00009ba4       ??_7ModifierList@U3D_IDTF@@6B@ 00499ba4     IDTFCommon:ModifierList.obj
 0005:00009bac       ??_7?$IFXArray@PAVModifier@U3D_IDTF@@@@6B@ 00499bac     IDTFCommon:ModifierList.obj
 0005:00009bd8       ??_7?$IFXArray@VShadingModifier@U3D_IDTF@@@@6B@ 00499bd8     IDTFCommon:ModifierList.obj
 0005:00009c04       ??_7?$IFXArray@VAnimationModifier@U3D_IDTF@@@@6B@ 00499c04     IDTFCommon:ModifierList.obj
 0005:00009c30       ??_7?$IFXArray@VBoneWeightModifier@U3D_IDTF@@@@6B@ 00499c30     IDTFCommon:ModifierList.obj
 0005:00009c5c       ??_7?$IFXArray@VCLODModifier@U3D_IDTF@@@@6B@ 00499c5c     IDTFCommon:ModifierList.obj
 0005:00009c88       ??_7?$IFXArray@VSubdivisionModifier@U3D_IDTF@@@@6B@ 00499c88     IDTFCommon:ModifierList.obj
 0005:00009cb4       ??_7?$IFXArray@VGlyphModifier@U3D_IDTF@@@@6B@ 00499cb4     IDTFCommon:ModifierList.obj
 0005:00009de4       ??_7FileReference@U3D_IDTF@@6B@ 00499de4     IDTFCommon:FileReference.obj
 0005:00009dec       ??_7?$IFXArray@VFilter@U3D_IDTF@@@@6B@ 00499dec     IDTFCommon:FileReference.obj
 0005:00009e18       ??_7Filter@U3D_IDTF@@6B@   00499e18     IDTFCommon:FileReference.obj
 0005:0000a69c       ??_7ShadingDescriptionList@U3D_IDTF@@6B@ 0049a69c     IDTFCommon:ModelResource.obj
 0005:0000a6a4       ??_7?$IFXArray@VShadingDescription@U3D_IDTF@@@@6B@ 0049a6a4     IDTFCommon:ModelResource.obj
 0005:0000a6d0       ??_7?$IFXArray@UBoneInfo@U3D_IDTF@@@@6B@ 0049a6d0     IDTFCommon:ModelResource.obj
 0005:0000a6fc       ??_7ModelResource@U3D_IDTF@@6B@ 0049a6fc     IDTFCommon:ModelResource.obj
 0005:0000a704       ??_7?$IFXArray@VPoint@U3D_IDTF@@@@6B@ 0049a704     IDTFCommon:ModelResource.obj
 0005:0000a730       ??_7?$IFXArray@VColor@U3D_IDTF@@@@6B@ 0049a730     IDTFCommon:ModelResource.obj
 0005:0000a75c       ??_7?$IFXArray@VIFXVector4@@@@6B@ 0049a75c     IDTFCommon:ModelResource.obj
 0005:0000b924       ??_7ModelResourceList@U3D_IDTF@@6B@ 0049b924     IDTFCommon:ModelResourceList.obj
 0005:0000b92c       ??_7?$IFXArray@PAVModelResource@U3D_IDTF@@@@6B@ 0049b92c     IDTFCommon:ModelResourceList.obj
 0005:0000b958       ??_7?$IFXArray@VMeshResource@U3D_IDTF@@@@6B@ 0049b958     IDTFCommon:ModelResourceList.obj
 0005:0000b984       ??_7?$IFXArray@VLineSetResource@U3D_IDTF@@@@6B@ 0049b984     IDTFCommon:ModelResourceList.obj
 0005:0000b9b0       ??_7?$IFXArray@VPointSetResource@U3D_IDTF@@@@6B@ 0049b9b0     IDTFCommon:ModelResourceList.obj
 0005:0000b9dc       ??_7SceneUtilities@U3D_IDTF@@6B@ 0049b9dc     IDTFConverterHelpers:SceneUtilities.obj
 0005:0000b9e4       ??_7TGAImage@U3D_IDTF@@6B@ 0049b9e4     IDTFConverterHelpers:TGAImage.obj
 0005:0000b9ec       ??_7IFXRenderClear@@6B@    0049b9ec     IDTFConverterHelpers:DebugInfo.obj
 0005:0000b9f4       ??_7IFXRenderFog@@6B@      0049b9f4     IDTFConverterHelpers:DebugInfo.obj
 0005:0000b9fc       ??_7IFXListContext@@6B@    0049b9fc     IDTFConverterHelpers:DebugInfo.obj
 0005:0000ba04       ??_7DebugInfo@U3D_IDTF@@6B@ 0049ba04     IDTFConverterHelpers:DebugInfo.obj
 0005:0000ba0c       ??_7IFXCoreList@@6B@       0049ba0c     IFXCoreStatic:IFXCoreList.obj
 0006:00000000       ??_C@_0BA@A@Exit?5code?5?$DN?5?$CFx?6?$AA@ 0049c000     ConverterDriver.obj
 0006:00000010       ??_C@_15A@r?$AAb?$AA?$AA?$AA@ 0049c010     File.obj
 0006:00000018       ??_C@_11A@?$AA?$AA@        0049c018     FileParser.obj
 0006:0000001c       ??_C@_1M@A@F?$AAR?$AAO?$AAN?$AAT?$AA?$AA?$AA@ 0049c01c     FileParser.obj
 0006:00000028       ??_C@_0L@A@POSTMANGLE?$AA@ 0049c028     FileReferenceConverter.obj
 0006:00000034       ??_C@_0BA@A@PREPENDCOLLIDED?$AA@ 0049c034     FileReferenceConverter.obj
 0006:00000044       ??_C@_0M@A@PREPEND_ALL?$AA@ 0049c044     FileReferenceConverter.obj
 0006:00000050       ??_C@_07A@DISCARD?$AA@     0049c050     FileReferenceConverter.obj
 0006:00000058       ??_C@_07A@REPLACE?$AA@     0049c058     FileReferenceConverter.obj
 0006:00000060       ??_C@_15A@?$CF?$AAg?$AA?$AA?$AA@ 0049c060     FileScanner.obj
 0006:00000068       ??_C@_15A@?$CF?$AAX?$AA?$AA?$AA@ 0049c068     FileScanner.obj
 0006:00000070       ??_C@_0BL@A@?5?9?5Failure?5unlocking?5mesh?6?$AA@ 0049c070     MeshConverter.obj
 0006:0000008c       ??_C@_1BE@A@?$DM?$AAu?$AAn?$AAn?$AAa?$AAm?$AAe?$AAd?$AA?$DO?$AA?$AA?$AA@ 0049c08c     ModelConverter.obj
 0006:000000a0       ??_C@_0BC@A@Modifiers?5?$CI?$CFd?$CJ?7?7?7?$AA@ 0049c0a0     ModifierConverter.obj
 0006:000000b4       ??_C@_01A@?$HM?$AA@        0049c0b4     ModifierConverter.obj
 0006:000000b8       ??_C@_06A@?7Done?6?$AA@    0049c0b8     ModifierConverter.obj
 0006:000000c0       ??_C@_08A@?7Failed?6?$AA@  0049c0c0     ModifierConverter.obj
 0006:000000cc       ??_C@_04A@TRUE?$AA@        0049c0cc     ModifierParser.obj
 0006:000000d4       ??_C@_0O@A@Nodes?5?$CI?$CFd?$CJ?7?7?7?$AA@ 0049c0d4     NodeConverter.obj
 0006:000000e4       ??_C@_19A@B?$AAA?$AAC?$AAK?$AA?$AA?$AA@ 0049c0e4     NodeConverter.obj
 0006:000000f0       ??_C@_19A@N?$AAO?$AAN?$AAE?$AA?$AA?$AA@ 0049c0f0     NodeConverter.obj
 0006:000000fc       ??_C@_19A@B?$AAO?$AAT?$AAH?$AA?$AA?$AA@ 0049c0fc     NodeConverter.obj
 0006:00000108       ??_C@_0M@A@Converting?6?$AA@ 0049c108     ResourceConverter.obj
 0006:00000114       ??_C@_0BI@A@Motion?5Resources?5?$CI?$CFd?$CJ?7?7?$AA@ 0049c114     ResourceConverter.obj
 0006:0000012c       ??_C@_0BI@A@Shader?5Resources?5?$CI?$CFd?$CJ?7?7?$AA@ 0049c12c     ResourceConverter.obj
 0006:00000144       ??_C@_0BK@A@Material?5Resources?5?$CI?$CFd?$CJ?7?7?$AA@ 0049c144     ResourceConverter.obj
 0006:00000160       ??_C@_0BJ@A@Texture?5Resources?5?$CI?$CFd?$CJ?7?7?$AA@ 0049c160     ResourceConverter.obj
 0006:0000017c       ??_C@_0BH@A@Model?5Resources?5?$CI?$CFd?$CJ?7?7?$AA@ 0049c17c     ResourceConverter.obj
 0006:00000194       ??_C@_0BH@A@Light?5Resources?5?$CI?$CFd?$CJ?7?7?$AA@ 0049c194     ResourceConverter.obj
 0006:000001ac       ??_C@_0BG@A@View?5Resources?5?$CI?$CFd?$CJ?7?7?$AA@ 0049c1ac     ResourceConverter.obj
 0006:000001c4       ??_C@_19A@T?$AAR?$AAU?$AAE?$AA?$AA?$AA@ 0049c1c4     ResourceConverter.obj
 0006:000001d0       ??_C@_1O@A@G?$AAE?$AAQ?$AAU?$AAA?$AAL?$AA?$AA?$AA@ 0049c1d0     ResourceConverter.obj
 0006:000001e0       ??_C@_1O@A@L?$AAE?$AAQ?$AAU?$AAA?$AAL?$AA?$AA?$AA@ 0049c1e0     ResourceConverter.obj
 0006:000001f0       ??_C@_1BE@A@N?$AAO?$AAT?$AA_?$AAE?$AAQ?$AAU?$AAA?$AAL?$AA?$AA?$AA@ 0049c1f0     ResourceConverter.obj
 0006:00000204       ??_C@_1M@A@E?$AAQ?$AAU?$AAA?$AAL?$AA?$AA?$AA@ 0049c204     ResourceConverter.obj
 0006:00000210       ??_C@_1BA@A@G?$AAR?$AAE?$AAA?$AAT?$AAE?$AAR?$AA?$AA?$AA@ 0049c210     ResourceConverter.obj
 0006:00000220       ??_C@_19A@L?$AAE?$AAS?$AAS?$AA?$AA?$AA@ 0049c220     ResourceConverter.obj
 0006:0000022c       ??_C@_1M@A@N?$AAE?$AAV?$AAE?$AAR?$AA?$AA?$AA@ 0049c22c     ResourceConverter.obj
 0006:00000238       ??_C@_1CA@A@I?$AAN?$AAV?$AA_?$AAA?$AAL?$AAP?$AAH?$AAA?$AA_?$AAB?$AAL?$AAE?$AAN?$AAD?$AA?$AA?$AA@ 0049c238     ResourceConverter.obj
 0006:00000258       ??_C@_1BC@A@M?$AAU?$AAL?$AAT?$AAI?$AAP?$AAL?$AAY?$AA?$AA?$AA@ 0049c258     ResourceConverter.obj
 0006:0000026c       ??_C@_17A@A?$AAD?$AAD?$AA?$AA?$AA@ 0049c26c     ResourceConverter.obj
 0006:00000274       ??_C@_1BM@A@T?$AAM?$AA_?$AAR?$AAE?$AAF?$AAL?$AAE?$AAC?$AAT?$AAI?$AAO?$AAN?$AA?$AA?$AA@ 0049c274     ResourceConverter.obj
 0006:00000290       ??_C@_1BK@A@T?$AAM?$AA_?$AAS?$AAP?$AAH?$AAE?$AAR?$AAI?$AAC?$AAA?$AAL?$AA?$AA?$AA@ 0049c290     ResourceConverter.obj
 0006:000002ac       ??_C@_1BO@A@T?$AAM?$AA_?$AAC?$AAY?$AAL?$AAI?$AAN?$AAD?$AAR?$AAI?$AAC?$AAA?$AAL?$AA?$AA?$AA@ 0049c2ac     ResourceConverter.obj
 0006:000002cc       ??_C@_1BE@A@T?$AAM?$AA_?$AAP?$AAL?$AAA?$AAN?$AAA?$AAR?$AA?$AA?$AA@ 0049c2cc     ResourceConverter.obj
 0006:000002e0       ??_C@_1M@A@B?$AAL?$AAE?$AAN?$AAD?$AA?$AA?$AA@ 0049c2e0     ResourceConverter.obj
 0006:000002ec       ??_C@_1BA@A@R?$AAE?$AAP?$AAL?$AAA?$AAC?$AAE?$AA?$AA?$AA@ 0049c2ec     ResourceConverter.obj
 0006:000002fc       ??_C@_1M@A@A?$AAL?$AAP?$AAH?$AAA?$AA?$AA?$AA@ 0049c2fc     ResourceConverter.obj
 0006:00000308       ??_C@_1M@A@F?$AAA?$AAL?$AAS?$AAE?$AA?$AA?$AA@ 0049c308     ResourceListParser.obj
 0006:00000314       ??_C@_06A@JPEG24?$AA@      0049c314     ResourceListParser.obj
 0006:0000031c       ??_C@_05A@FALSE?$AA@       0049c31c     ResourceListParser.obj
 0006:00000324       ??_C@_03A@RGB?$AA@         0049c324     ResourceListParser.obj
 0006:00000328       ??_C@_1O@A@?$DM?$AAN?$AAU?$AAL?$AAL?$AA?$DO?$AA?$AA?$AA@ 0049c328     ResourceListParser.obj
 0006:00000338       ??_C@_1CC@A@V?$AAI?$AAE?$AAW?$AA_?$AAC?$AAL?$AAE?$AAA?$AAR?$AA_?$AAC?$AAO?$AAL?$AAO?$AAR?$AA?$AA?$AA@ 0049c338     ResourceListParser.obj
 0006:00000360       ??_C@_1EA@A@?5?$AA?9?$AA?9?$AA?5?$AAE?$AAr?$AAr?$AAo?$AAr?$AA?5?$AA?9?$AA?5?$AAc?$AAo?$AAu?$AAl?$AAd?$AA?5?$AAn?$AAo?$AAt?$AA?5?$AAl?$AAo?$AAa?$AAd?$AA?5?$AA?$CF?$AAl?$AAs?$AA?6?$AA?$AA?$AA@ 0049c360     TextureConverter.obj
 0006:000003a0       ??_C@_0DJ@A@Error?3?5Format?5defined?5do?5not?5match?5actual?5format?5of?5TGA?6?$AA@ 0049c3a0     TextureConverter.obj
 0006:000003e0       ??_C@_0FK@A@?9?9?5Warning?3?5texture?5size?5was?5changed?5because?5it?5exceedsupper?5limit?5on?5texture?5dimensions?6?$AA@ 0049c3e0     TextureConverter.obj
 0006:00000440       ??_C@_1NG@A@?$CF?$AAl?$AAs?$AA?6?$AA?6?$AAF?$AAi?$AAl?$AAe?$AA?3?$AA?7?$AA?7?$AA?$CF?$AAl?$AAs?$AA?6?$AAL?$AAi?$AAn?$AAe?$AA?3?$AA?7?$AA?7?$AA?$CF?$AAd?$AA?6?$AAE?$AAx?$AAp?$AAr?$AAe?$AAs?$AAs?$AAi?$AAo?$AAn?$AA?3?$AA?7?$AA?$CF?$AAl?$AAs?$AA?6?$AA?6?$AAA?$AAb?$AAo?$AAr?$AAt?$AA?5?$AA?$DN?$AA?5?$AAS?$AAt?$AAo?$AAp?$AA?5?$AAD?$AAe?$AAb?$AAu?$AAg?$AAg?$AAi?$AAn?$AAg?$AA?6?$AAR?$AAe?$AAt?$AAr?$AAy?$AA?5?$AA?$DN?$AA?5?$AAD?$AAe?$AAb?$AAu?$AAg?$AA?6?$AAI?$AAg?$AAn?$AAo?$AAr?$AAe?$AA?5?$AA?$DN?$AA?5?$AAC?$AAo?$AAn?$AAt?$AAi?$AAn?$AAu?$AAe?$AA?5?$AAR?$AAu?$AAn?$AAn?$AAi?$AAn?$AAg?$AA?6?$AA?$AA?$AA@ 0049c440     IFXCoreStatic:IFXOSUtilities.obj
 0006:00000520       ??_C@_1CE@A@A?$AAs?$AAs?$AAe?$AAr?$AAt?$AAi?$AAo?$AAn?$AA?5?$AAF?$AAa?$AAi?$AAl?$AAe?$AAd?$AA?$CB?$AA?$AA?$AA@ 0049c520     IFXCoreStatic:IFXOSUtilities.obj
 0006:00000560       ??_C@_1FO@A@I?$AAg?$AAn?$AAo?$AAr?$AAe?$AA?5?$AAa?$AAl?$AAl?$AA?5?$AAf?$AAu?$AAt?$AAu?$AAr?$AAe?$AA?5?$AAi?$AAn?$AAs?$AAt?$AAa?$AAn?$AAc?$AAe?$AAs?$AA?5?$AAo?$AAf?$AA?5?$AAt?$AAh?$AAi?$AAs?$AA?5?$AAa?$AAs?$AAs?$AAe?$AAr?$AAt?$AAi?$AAo?$AAn?$AA?$DP?$AA?$AA?$AA@ 0049c560     IFXCoreStatic:IFXOSUtilities.obj
 0006:000005c0       ??_C@_1BE@A@I?$AAF?$AAX?$AAA?$AAS?$AAS?$AAE?$AAR?$AAT?$AA?$AA?$AA@ 0049c5c0     IFXCoreStatic:IFXOSUtilities.obj
 0006:000005d4       ??_C@_07A@English?$AA@     0049c5d4     IFXCoreStatic:IFXOSUtilities.obj
 0006:000005dc       ??_C@_0BB@A@IFXCOMInitialize?$AA@ 0049c5dc     IFXCoreStatic:IFXCoreStatic.obj
 0006:000005f0       ??_C@_0BD@A@IFXCOMUninitialize?$AA@ 0049c5f0     IFXCoreStatic:IFXCoreStatic.obj
 0006:00000604       ??_C@_0BD@A@IFXCreateComponent?$AA@ 0049c604     IFXCoreStatic:IFXCoreStatic.obj
 0006:00000618       ??_C@_0M@A@IFXAllocate?$AA@ 0049c618     IFXCoreStatic:IFXCoreStatic.obj
 0006:00000624       ??_C@_0O@A@IFXDeallocate?$AA@ 0049c624     IFXCoreStatic:IFXCoreStatic.obj
 0006:00000634       ??_C@_0O@A@IFXReallocate?$AA@ 0049c634     IFXCoreStatic:IFXCoreStatic.obj
 0006:00000644       ??_C@_0BF@A@IFXRegisterComponent?$AA@ 0049c644     IFXCoreStatic:IFXCoreStatic.obj
 0006:0000065c       ??_C@_0BG@A@IFXGetMemoryFunctions?$AA@ 0049c65c     IFXCoreStatic:IFXCoreStatic.obj
 0006:00000674       ??_C@_0BG@A@IFXSetMemoryFunctions?$AA@ 0049c674     IFXCoreStatic:IFXCoreStatic.obj
 0006:0000068c       ??_C@_1BI@A@I?$AAF?$AAX?$AAC?$AAo?$AAr?$AAe?$AA?4?$AAd?$AAl?$AAl?$AA?$AA?$AA@ 0049c68c     IFXCoreStatic:IFXOSLoader.obj
 0006:000006a4       ??_C@_1BC@A@O?$AAP?$AAE?$AAN?$AAG?$AAL?$AA3?$AA2?$AA?$AA?$AA@ 0049c6a4     IFXCoreStatic:IFXOSLoader.obj
 0006:000006b8       ??_C@_04A@TYPE?$AA@        0049c6b8     IDTFCommon:FileReference.obj
 0006:000006c0       ??_C@_04A@NAME?$AA@        0049c6c0     IDTFCommon:FileReference.obj
 0006:000006c8       ??_C@_1BK@A@D?$AAe?$AAb?$AAu?$AAg?$AAo?$AAu?$AAt?$AA?4?$AAu?$AA3?$AAd?$AA?$AA?$AA@ 0049c6c8     IDTFConverterHelpers:ConverterHelpers.obj
 0006:000006e4       ??_C@_15A@?9?$AAo?$AA?$AA?$AA@ 0049c6e4     IDTFConverterHelpers:ConverterHelpers.obj
 0006:000006ec       ??_C@_1BA@A@?9?$AAo?$AAu?$AAt?$AAp?$AAu?$AAt?$AA?$AA?$AA@ 0049c6ec     IDTFConverterHelpers:ConverterHelpers.obj
 0006:000006fc       ??_C@_15A@?$CF?$AAd?$AA?$AA?$AA@ 0049c6fc     IDTFConverterHelpers:ConverterHelpers.obj
 0006:00000704       ??_C@_17A@?9?$AAd?$AAl?$AA?$AA?$AA@ 0049c704     IDTFConverterHelpers:ConverterHelpers.obj
 0006:0000070c       ??_C@_1BI@A@?9?$AAd?$AAe?$AAb?$AAu?$AAg?$AAl?$AAe?$AAv?$AAe?$AAl?$AA?$AA?$AA@ 0049c70c     IDTFConverterHelpers:ConverterHelpers.obj
 0006:00000724       ??_C@_15A@?9?$AAp?$AA?$AA?$AA@ 0049c724     IDTFConverterHelpers:ConverterHelpers.obj
 0006:0000072c       ??_C@_1BC@A@?9?$AAp?$AAr?$AAo?$AAf?$AAi?$AAl?$AAe?$AA?$AA?$AA@ 0049c72c     IDTFConverterHelpers:ConverterHelpers.obj
 0006:00000740       ??_C@_15A@?$CF?$AAf?$AA?$AA?$AA@ 0049c740     IDTFConverterHelpers:ConverterHelpers.obj
 0006:00000748       ??_C@_17A@?9?$AAs?$AAf?$AA?$AA?$AA@ 0049c748     IDTFConverterHelpers:ConverterHelpers.obj
 0006:00000750       ??_C@_1BO@A@?9?$AAs?$AAc?$AAa?$AAl?$AAi?$AAn?$AAg?$AAf?$AAa?$AAc?$AAt?$AAo?$AAr?$AA?$AA?$AA@ 0049c750     IDTFConverterHelpers:ConverterHelpers.obj
 0006:00000770       ??_C@_17A@?9?$AAp?$AAq?$AA?$AA?$AA@ 0049c770     IDTFConverterHelpers:ConverterHelpers.obj
 0006:00000778       ??_C@_1BE@A@?9?$AAp?$AAq?$AAu?$AAa?$AAl?$AAi?$AAt?$AAy?$AA?$AA?$AA@ 0049c778     IDTFConverterHelpers:ConverterHelpers.obj
 0006:0000078c       ??_C@_19A@?9?$AAt?$AAc?$AAq?$AA?$AA?$AA@ 0049c78c     IDTFConverterHelpers:ConverterHelpers.obj
 0006:00000798       ??_C@_1BG@A@?9?$AAt?$AAc?$AAq?$AAu?$AAa?$AAl?$AAi?$AAt?$AAy?$AA?$AA?$AA@ 0049c798     IDTFConverterHelpers:ConverterHelpers.obj
 0006:000007b0       ??_C@_17A@?9?$AAn?$AAq?$AA?$AA?$AA@ 0049c7b0     IDTFConverterHelpers:ConverterHelpers.obj
 0006:000007b8       ??_C@_1BE@A@?9?$AAn?$AAq?$AAu?$AAa?$AAl?$AAi?$AAt?$AAy?$AA?$AA?$AA@ 0049c7b8     IDTFConverterHelpers:ConverterHelpers.obj
 0006:000007cc       ??_C@_19A@?9?$AAd?$AAc?$AAq?$AA?$AA?$AA@ 0049c7cc     IDTFConverterHelpers:ConverterHelpers.obj
 0006:000007d8       ??_C@_1BE@A@?9?$AAd?$AAc?$AAu?$AAa?$AAl?$AAi?$AAt?$AAy?$AA?$AA?$AA@ 0049c7d8     IDTFConverterHelpers:ConverterHelpers.obj
 0006:000007ec       ??_C@_19A@?9?$AAs?$AAc?$AAq?$AA?$AA?$AA@ 0049c7ec     IDTFConverterHelpers:ConverterHelpers.obj
 0006:000007f8       ??_C@_1BG@A@?9?$AAs?$AAc?$AAq?$AAu?$AAa?$AAl?$AAi?$AAt?$AAy?$AA?$AA?$AA@ 0049c7f8     IDTFConverterHelpers:ConverterHelpers.obj
 0006:00000810       ??_C@_17A@?9?$AAg?$AAq?$AA?$AA?$AA@ 0049c810     IDTFConverterHelpers:ConverterHelpers.obj
 0006:00000818       ??_C@_1BE@A@?9?$AAg?$AAq?$AAu?$AAa?$AAl?$AAi?$AAt?$AAy?$AA?$AA?$AA@ 0049c818     IDTFConverterHelpers:ConverterHelpers.obj
 0006:0000082c       ??_C@_17A@?9?$AAt?$AAq?$AA?$AA?$AA@ 0049c82c     IDTFConverterHelpers:ConverterHelpers.obj
 0006:00000834       ??_C@_1BE@A@?9?$AAt?$AAq?$AAu?$AAa?$AAl?$AAi?$AAt?$AAy?$AA?$AA?$AA@ 0049c834     IDTFConverterHelpers:ConverterHelpers.obj
 0006:00000848       ??_C@_17A@?9?$AAa?$AAq?$AA?$AA?$AA@ 0049c848     IDTFConverterHelpers:ConverterHelpers.obj
 0006:00000850       ??_C@_1BE@A@?9?$AAa?$AAq?$AAu?$AAa?$AAl?$AAi?$AAt?$AAy?$AA?$AA?$AA@ 0049c850     IDTFConverterHelpers:ConverterHelpers.obj
 0006:00000864       ??_C@_19A@?9?$AAr?$AAz?$AAf?$AA?$AA?$AA@ 0049c864     IDTFConverterHelpers:ConverterHelpers.obj
 0006:00000870       ??_C@_1CC@A@?9?$AAr?$AAe?$AAm?$AAo?$AAv?$AAe?$AAz?$AAe?$AAr?$AAo?$AAf?$AAa?$AAc?$AAe?$AAs?$AA?$AA?$AA@ 0049c870     IDTFConverterHelpers:ConverterHelpers.obj
 0006:00000894       ??_C@_19A@?9?$AAz?$AAf?$AAt?$AA?$AA?$AA@ 0049c894     IDTFConverterHelpers:ConverterHelpers.obj
 0006:000008a0       ??_C@_1CG@A@?9?$AAz?$AAe?$AAr?$AAo?$AAf?$AAa?$AAc?$AAe?$AAt?$AAo?$AAl?$AAe?$AAr?$AAa?$AAn?$AAc?$AAe?$AA?$AA?$AA@ 0049c8a0     IDTFConverterHelpers:ConverterHelpers.obj
 0006:000008c8       ??_C@_17A@?9?$AAe?$AAn?$AA?$AA?$AA@ 0049c8c8     IDTFConverterHelpers:ConverterHelpers.obj
 0006:000008d0       ??_C@_1CA@A@?9?$AAe?$AAx?$AAc?$AAl?$AAu?$AAd?$AAe?$AAn?$AAo?$AAr?$AAm?$AAa?$AAl?$AAs?$AA?$AA?$AA@ 0049c8d0     IDTFConverterHelpers:ConverterHelpers.obj
 0006:000008f0       ??_C@_17A@?9?$AAe?$AAo?$AA?$AA?$AA@ 0049c8f0     IDTFConverterHelpers:ConverterHelpers.obj
 0006:000008f8       ??_C@_1BO@A@?9?$AAe?$AAx?$AAp?$AAo?$AAr?$AAt?$AAo?$AAp?$AAt?$AAi?$AAo?$AAn?$AAs?$AA?$AA?$AA@ 0049c8f8     IDTFConverterHelpers:ConverterHelpers.obj
 0006:00000918       ??_C@_17A@?9?$AAt?$AAl?$AA?$AA?$AA@ 0049c918     IDTFConverterHelpers:ConverterHelpers.obj
 0006:00000920       ??_C@_1BM@A@?9?$AAt?$AAe?$AAx?$AAt?$AAu?$AAr?$AAe?$AAl?$AAi?$AAm?$AAi?$AAt?$AA?$AA?$AA@ 0049c920     IDTFConverterHelpers:ConverterHelpers.obj
 0006:0000093c       ??_C@_15A@?9?$AAi?$AA?$AA?$AA@ 0049c93c     IDTFConverterHelpers:ConverterHelpers.obj
 0006:00000944       ??_C@_1O@A@?9?$AAi?$AAn?$AAp?$AAu?$AAt?$AA?$AA?$AA@ 0049c944     IDTFConverterHelpers:ConverterHelpers.obj
 0006:00000954       ??_C@_17A@?9?$AAp?$AAf?$AA?$AA?$AA@ 0049c954     IDTFConverterHelpers:ConverterHelpers.obj
 0006:0000095c       ??_C@_1O@A@?9?$AAp?$AAf?$AAi?$AAl?$AAe?$AA?$AA?$AA@ 0049c95c     IDTFConverterHelpers:ConverterHelpers.obj
 0006:00000980       ??_C@_1EC@A@D?$AAi?$AAd?$AA?5?$AAn?$AAo?$AAt?$AA?5?$AAr?$AAe?$AAc?$AAo?$AAg?$AAn?$AAi?$AAz?$AAe?$AA?5?$AAk?$AAe?$AAy?$AAw?$AAo?$AAr?$AAd?$AA?5?$AA?$DN?$AA?5?$AA?$CF?$AAl?$AAs?$AA?6?$AA?$AA?$AA@ 0049c980     IDTFConverterHelpers:ConverterHelpers.obj
 0006:000009e0       ??_C@_01A@?6?$AA@          0049c9e0     IDTFConverterHelpers:ConverterHelpers.obj
 0006:000009e4       ??_C@_1CO@A@I?$AAn?$AAp?$AAu?$AAt?$AA?5?$AAf?$AAi?$AAl?$AAe?$AA?5?$AAn?$AAa?$AAm?$AAe?$AA?5?$AA?$DN?$AA?5?$AA?$CF?$AAl?$AAs?$AA?6?$AA?$AA?$AA@ 0049c9e4     IDTFConverterHelpers:ConverterHelpers.obj
 0006:00000a14       ??_C@_1DA@A@O?$AAu?$AAt?$AAp?$AAu?$AAt?$AA?5?$AAf?$AAi?$AAl?$AAe?$AA?5?$AAn?$AAa?$AAm?$AAe?$AA?5?$AA?$DN?$AA?5?$AA?$CF?$AAl?$AAs?$AA?6?$AA?$AA?$AA@ 0049ca14     IDTFConverterHelpers:ConverterHelpers.obj
 0006:00000a44       ??_C@_0O@A@Profile?5?$DN?5?$CFd?6?$AA@ 0049ca44     IDTFConverterHelpers:ConverterHelpers.obj
 0006:00000a54       ??_C@_0BF@A@Scaling?5factor?5?$DN?5?$CFf?6?$AA@ 0049ca54     IDTFConverterHelpers:ConverterHelpers.obj
 0006:00000a6c       ??_C@_0BC@A@Debug?5level?5?$DN?5?$CFd?6?$AA@ 0049ca6c     IDTFConverterHelpers:ConverterHelpers.obj
 0006:00000a80       ??_C@_0BH@A@Position?5Quality?5?$DN?5?$CFd?6?$AA@ 0049ca80     IDTFConverterHelpers:ConverterHelpers.obj
 0006:00000a98       ??_C@_0CB@A@Texture?5Coordinate?5Quality?5?$DN?5?$CFd?6?$AA@ 0049ca98     IDTFConverterHelpers:ConverterHelpers.obj
 0006:00000abc       ??_C@_0BF@A@Normal?5Quality?5?$DN?5?$CFd?6?$AA@ 0049cabc     IDTFConverterHelpers:ConverterHelpers.obj
 0006:00000ad4       ??_C@_0BM@A@Diffuse?5Color?5Quality?5?$DN?5?$CFd?6?$AA@ 0049cad4     IDTFConverterHelpers:ConverterHelpers.obj
 0006:00000af0       ??_C@_0BO@A@Specular?5Color?5?5Quality?5?$DN?5?$CFd?6?$AA@ 0049caf0     IDTFConverterHelpers:ConverterHelpers.obj
 0006:00000b10       ??_C@_0BP@A@Geometry?5Default?5Quality?5?$DN?5?$CFd?6?$AA@ 0049cb10     IDTFConverterHelpers:ConverterHelpers.obj
 0006:00000b30       ??_C@_0BG@A@Texture?5Quality?5?$DN?5?$CFd?6?$AA@ 0049cb30     IDTFConverterHelpers:ConverterHelpers.obj
 0006:00000b48       ??_C@_0BI@A@Animation?5Quality?5?$DN?5?$CFd?6?$AA@ 0049cb48     IDTFConverterHelpers:ConverterHelpers.obj
 0006:00000b60       ??_C@_0CD@A@Zero?5Area?5Faces?5Removal?5?$DN?5ENABLED?6?$AA@ 0049cb60     IDTFConverterHelpers:ConverterHelpers.obj
 0006:00000b84       ??_C@_0BP@A@Zero?5Area?5Face?5Tolerance?5?$DN?5?$CFf?6?$AA@ 0049cb84     IDTFConverterHelpers:ConverterHelpers.obj
 0006:00000ba4       ??_C@_0CE@A@Zero?5Area?5Faces?5Removal?5?$DN?5DISABLED?6?$AA@ 0049cba4     IDTFConverterHelpers:ConverterHelpers.obj
 0006:00000bc8       ??_C@_0BG@A@Exclude?5Normals?5?$DN?5?$CFs?6?$AA@ 0049cbc8     IDTFConverterHelpers:ConverterHelpers.obj
 0006:00000be0       ??_C@_0BK@A@Export?5Option?5Flags?5?$DN?5?$CFx?6?$AA@ 0049cbe0     IDTFConverterHelpers:ConverterHelpers.obj
 0006:00000bfc       ??_C@_0BJ@A@Texture?5size?5limit?5?$DN?5?$CFd?6?$AA@ 0049cbfc     IDTFConverterHelpers:ConverterHelpers.obj
 0006:00000c18       ??_C@_02A@?6?6?$AA@        0049cc18     IDTFConverterHelpers:ConverterHelpers.obj
 0006:00000c20       ??_C@_1EG@A@?$CF?$AAl?$AAs?$AA?5?$AA?$DM?$AAa?$AAr?$AAg?$AAu?$AAm?$AAe?$AAn?$AAt?$AAs?$AA?$DO?$AA?5?$AA?$DM?$AAi?$AAn?$AAp?$AAu?$AAt?$AA_?$AAf?$AAi?$AAl?$AAe?$AA_?$AAl?$AAi?$AAs?$AAt?$AA?$DO?$AA?6?$AA?$AA?$AA@ 0049cc20     IDTFConverterHelpers:ConverterHelpers.obj
 0006:00000c80       ??_C@_0DN@A@Note?3?5argument?5order?5is?5important?5?9?5what?5happens?5depends?5on?6?$AA@ 0049cc80     IDTFConverterHelpers:ConverterHelpers.obj
 0006:00000cc0       ??_C@_0CK@A@?5?5?5?5?5?5what?5arguments?5were?5already?5parsed?6?$AA@ 0049ccc0     IDTFConverterHelpers:ConverterHelpers.obj
 0006:00000cec       ??_C@_0M@A@Debugging?3?6?$AA@ 0049ccec     IDTFConverterHelpers:ConverterHelpers.obj
 0006:00000cf8       ??_C@_0BK@A@?5?5?5?5?9debuglevel?5?$DMnumber?$DO?6?$AA@ 0049ccf8     IDTFConverterHelpers:ConverterHelpers.obj
 0006:00000d14       ??_C@_0DJ@A@?5?5?5?5?5?5?5?50?5?9?5no?5debug?5dump?5?9?5silent?5conversion?5?$CIdefault?$CJ?6?$AA@ 0049cd14     IDTFConverterHelpers:ConverterHelpers.obj
 0006:00000d50       ??_C@_0DA@A@?5?5?5?5?5?5?5?51?5?9?5dump?5debug?5information?5to?5the?5file?6?$AA@ 0049cd50     IDTFConverterHelpers:ConverterHelpers.obj
 0006:00000d80       ??_C@_0BB@A@Export?5Options?3?6?$AA@ 0049cd80     IDTFConverterHelpers:ConverterHelpers.obj
 0006:00000d94       ??_C@_0DB@A@?5?5?5?5?9profile?5or?5?9p?5?$DMnumber?$DO?3?5profile?5identifier?6?$AA@ 0049cd94     IDTFConverterHelpers:ConverterHelpers.obj
 0006:00000dc8       ??_C@_0DK@A@?5?5?5?5?9scalingfactor?5or?5?9sf?5?$DMnumber?$DO?3?5units?5scaling?5factor?6?$AA@ 0049cdc8     IDTFConverterHelpers:ConverterHelpers.obj
 0006:00000e20       ??_C@_0EC@A@?5?5?5?5?9pquality?5or?5?9pq?5?$DMnumber?50?5to?51000?$DO?3?5mesh?8s?5position?5quality?6?$AA@ 0049ce20     IDTFConverterHelpers:ConverterHelpers.obj
 0006:00000e80       ??_C@_0EO@A@?5?5?5?5?9tcquality?5or?5?9tcq?5?$DMnumber?50?5to?51000?$DO?3?5mesh?8s?5texture?5coordinate?5quality?6?$AA@ 0049ce80     IDTFConverterHelpers:ConverterHelpers.obj
 0006:00000ee0       ??_C@_0EA@A@?5?5?5?5?9nquality?5or?5?9nq?5?$DMnumber?50?5to?51000?$DO?3?5mesh?8s?5normal?5quality?6?$AA@ 0049cee0     IDTFConverterHelpers:ConverterHelpers.obj
 0006:00000f20       ??_C@_0EJ@A@?5?5?5?5?9dcquality?5or?5?9dcq?5?$DMnumber?50?5to?51000?$DO?3?5mesh?8s?5diffuse?5color?5quality?6?$AA@ 0049cf20     IDTFConverterHelpers:ConverterHelpers.obj
 0006:00000f80       ??_C@_0EK@A@?5?5?5?5?9scquality?5or?5?9scq?5?$DMnumber?50?5to?51000?$DO?3?5mesh?8s?5specular?5color?5quality?6?$AA@ 0049cf80     IDTFConverterHelpers:ConverterHelpers.obj
 0006:00000fe0       ??_C@_0ED@A@?5?5?5?5?9gquality?5or?5?9gq?5?$DMnumber?50?5to?51000?$DO?3?5geometry?5default?5quality?6?$AA@ 0049cfe0     IDTFConverterHelpers:ConverterHelpers.obj
 0006:00001040       ??_C@_0DJ@A@?5?5?5?5?9tquality?5or?5?9tq?5?$DMnumber?50?5to?5100?$DO?3?5texture?5quality?6?$AA@ 0049d040     IDTFConverterHelpers:ConverterHelpers.obj
 0006:0000107c       ??_C@_0DM@A@?5?5?5?5?9aquality?5or?5?9aq?5?$DMnumber?50?5to?51000?$DO?3?5animation?5quality?6?$AA@ 0049d07c     IDTFConverterHelpers:ConverterHelpers.obj
 0006:000010c0       ??_C@_0FJ@A@?5?5?5?5?9removezerofaces?5or?5?9rzf?5?$DMnumber?50?5or?51?$DO?3?5disable?5or?5enable?5zero?5area?5faces?5removal?6?$AA@ 0049d0c0     IDTFConverterHelpers:ConverterHelpers.obj
 0006:00001120       ??_C@_0FC@A@?5?5?5?5?9zerofacetolerance?5or?5?9zft?5?$DMpositive?5float?5number?$DO?3?5zero?5area?5face?5tolerance?6?$AA@ 0049d120     IDTFConverterHelpers:ConverterHelpers.obj
 0006:00001180       ??_C@_0FB@A@?5?5?5?5?9excludenormals?5or?5?9en?5?$DMnumber?50?5or?51?$DO?3?5disable?5or?5enable?5normals?5exclusion?6?$AA@ 0049d180     IDTFConverterHelpers:ConverterHelpers.obj
 0006:000011e0       ??_C@_0CE@A@?5?5?5?5?9exportoptions?5or?5?9eo?5?$DMnumber?$DO?6?$AA@ 0049d1e0     IDTFConverterHelpers:ConverterHelpers.obj
 0006:00001204       ??_C@_0CF@A@?5?5?5?5?5?5?5?50?5?5?5?5?5?9?5do?5not?5export?5scene?6?$AA@ 0049d204     IDTFConverterHelpers:ConverterHelpers.obj
 0006:0000122c       ??_C@_0CC@A@?5?5?5?5?5?5?5?51?5?5?5?5?5?9?5export?5animation?6?$AA@ 0049d22c     IDTFConverterHelpers:ConverterHelpers.obj
 0006:00001250       ??_C@_0CB@A@?5?5?5?5?5?5?5?52?5?5?5?5?5?9?5export?5geometry?6?$AA@ 0049d250     IDTFConverterHelpers:ConverterHelpers.obj
 0006:00001274       ??_C@_0BP@A@?5?5?5?5?5?5?5?54?5?5?5?5?5?9?5export?5lights?6?$AA@ 0049d274     IDTFConverterHelpers:ConverterHelpers.obj
 0006:00001294       ??_C@_0CC@A@?5?5?5?5?5?5?5?58?5?5?5?5?5?9?5export?5materials?6?$AA@ 0049d294     IDTFConverterHelpers:ConverterHelpers.obj
 0006:000012b8       ??_C@_0CH@A@?5?5?5?5?5?5?5?516?5?5?5?5?9?5export?5node?5hierarchy?6?$AA@ 0049d2b8     IDTFConverterHelpers:ConverterHelpers.obj
 0006:000012e0       ??_C@_0CA@A@?5?5?5?5?5?5?5?532?5?5?5?5?9?5export?5shaders?6?$AA@ 0049d2e0     IDTFConverterHelpers:ConverterHelpers.obj
 0006:00001300       ??_C@_0CB@A@?5?5?5?5?5?5?5?564?5?5?5?5?9?5export?5textures?6?$AA@ 0049d300     IDTFConverterHelpers:ConverterHelpers.obj
 0006:00001324       ??_C@_0CN@A@?5?5?5?5?5?5?5?565535?5?9?5export?5everything?5?$CIdefault?$CJ?6?$AA@ 0049d324     IDTFConverterHelpers:ConverterHelpers.obj
 0006:00001360       ??_C@_0GK@A@?5?5?5?5?9texturelimit?5or?5?9tl?5?$DMnumber?$DO?3?5limit?5textures?5to?5?$DMnumber?$DO?5by?5?$DMnumber?$DO?5in?5size?5?$CI0?5?$DN?5None?$CJ?0?5up?5to?54096?6?$AA@ 0049d360     IDTFConverterHelpers:ConverterHelpers.obj
 0006:000013e0       ??_C@_05A@I?1O?3?6?$AA@    0049d3e0     IDTFConverterHelpers:ConverterHelpers.obj
 0006:000013e8       ??_C@_0BH@A@?5?5?5?5?9input?5?$DMfilename?$DO?6?$AA@ 0049d3e8     IDTFConverterHelpers:ConverterHelpers.obj
 0006:00001400       ??_C@_0BI@A@?5?5?5?5?9output?5?$DMfilename?$DO?6?$AA@ 0049d400     IDTFConverterHelpers:ConverterHelpers.obj
 0006:00001420       ??_C@_0GA@A@?5?5?5?5?9pfile?5?$DMfilename?$DO?5?9?5Read?5user?5options?5from?5a?5parameter?5file?4?5Overrides?5command?5line?5params?6?$AA@ 0049d420     IDTFConverterHelpers:ConverterHelpers.obj
 0006:00001480       ??_C@_0BP@A@Bad?5pointers?5passed?5to?5parser?6?$AA@ 0049d480     IDTFConverterHelpers:ConverterHelpers.obj
 0006:000014a0       ??_C@_13A@r?$AA?$AA?$AA@   0049d4a0     IDTFConverterHelpers:ConverterHelpers.obj
 0006:000014a4       ??_C@_1DC@A@U?$AAn?$AAa?$AAb?$AAl?$AAe?$AA?5?$AAt?$AAo?$AA?5?$AAo?$AAp?$AAe?$AAn?$AA?5?$AAf?$AAi?$AAl?$AAe?$AA?5?$AA?$CF?$AAl?$AAs?$AA?6?$AA?$AA?$AA@ 0049d4a4     IDTFConverterHelpers:ConverterHelpers.obj
 0006:000014d8       ??_C@_13A@?5?$AA?$AA?$AA@  0049d4d8     IDTFConverterHelpers:ConverterHelpers.obj
 0006:000014dc       ??_C@_13A@?$CC?$AA?$AA?$AA@ 0049d4dc     IDTFConverterHelpers:ConverterHelpers.obj
 0006:000014e0       ??_C@_13A@?6?$AA?$AA?$AA@  0049d4e0     IDTFConverterHelpers:ConverterHelpers.obj
 0006:000014e4       ??_C@_1M@A@M?$AAO?$AAD?$AAE?$AAL?$AA?$AA?$AA@ 0049d4e4     IDTFConverterHelpers:ModifierUtilities.obj
 0006:000014f0       ??_C@_19A@N?$AAO?$AAD?$AAE?$AA?$AA?$AA@ 0049d4f0     IDTFConverterHelpers:ModifierUtilities.obj
 0006:000014fc       ??_C@_15A@w?$AAb?$AA?$AA?$AA@ 0049d4fc     IDTFConverterHelpers:TGAImage.obj
 0006:00001504       ??_C@_0P@A@?4DebugInfo?4txt?$AA@ 0049d504     IDTFConverterHelpers:DebugInfo.obj
 0006:00001514       ??_C@_01A@w?$AA@           0049d514     IDTFConverterHelpers:DebugInfo.obj
 0006:00001518       ??_C@_0BD@A@Debug?5Info?5for?5?$CFs?6?$AA@ 0049d518     IDTFConverterHelpers:DebugInfo.obj
 0006:0000152c       ??_C@_0BA@A@Dumped?5at?3?5?5?$CFs?6?$AA@ 0049d52c     IDTFConverterHelpers:DebugInfo.obj
 0006:0000153c       ??_C@_0BF@A@?7?7Shader?5Properties?6?$AA@ 0049d53c     IDTFConverterHelpers:DebugInfo.obj
 0006:00001554       ??_C@_0BJ@A@?7?7?7Shader?5priority?3?5?5?$CFd?6?$AA@ 0049d554     IDTFConverterHelpers:DebugInfo.obj
 0006:00001570       ??_C@_0BF@A@?7?7?7Enabled?5Channels?3?$AA@ 0049d570     IDTFConverterHelpers:DebugInfo.obj
 0006:00001588       ??_C@_06A@?5?5Base?$AA@    0049d588     IDTFConverterHelpers:DebugInfo.obj
 0006:00001590       ??_C@_07A@?5?5Gloss?$AA@   0049d590     IDTFConverterHelpers:DebugInfo.obj
 0006:00001598       ??_C@_0BD@A@?5?5SpecularLighting?$AA@ 0049d598     IDTFConverterHelpers:DebugInfo.obj
 0006:000015ac       ??_C@_0BC@A@?5?5DiffuseLighting?$AA@ 0049d5ac     IDTFConverterHelpers:DebugInfo.obj
 0006:000015c0       ??_C@_0N@A@?5?5Reflection?$AA@ 0049d5c0     IDTFConverterHelpers:DebugInfo.obj
 0006:000015d0       ??_C@_0L@A@?5?5Material?$AA@ 0049d5d0     IDTFConverterHelpers:DebugInfo.obj
 0006:000015dc       ??_C@_0N@A@?5?5UseDiffuse?$AA@ 0049d5dc     IDTFConverterHelpers:DebugInfo.obj
 0006:000015ec       ??_C@_06A@?5?5Flat?$AA@    0049d5ec     IDTFConverterHelpers:DebugInfo.obj
 0006:000015f4       ??_C@_06A@?5?5Wire?$AA@    0049d5f4     IDTFConverterHelpers:DebugInfo.obj
 0006:000015fc       ??_C@_07A@?5?5Point?$AA@   0049d5fc     IDTFConverterHelpers:DebugInfo.obj
 0006:00001604       ??_C@_04A@None?$AA@        0049d604     IDTFConverterHelpers:DebugInfo.obj
 0006:0000160c       ??_C@_0BB@A@?7?7?7Use?5Diffuse?0?5?$AA@ 0049d60c     IDTFConverterHelpers:DebugInfo.obj
 0006:00001620       ??_C@_0BI@A@?7?7?7Do?5not?5use?5Diffuse?0?5?$AA@ 0049d620     IDTFConverterHelpers:DebugInfo.obj
 0006:00001638       ??_C@_0BF@A@Alpha?5Test?5Enabled?0?5?$AA@ 0049d638     IDTFConverterHelpers:DebugInfo.obj
 0006:00001650       ??_C@_0BG@A@Alpha?5Test?5Disabled?0?5?$AA@ 0049d650     IDTFConverterHelpers:DebugInfo.obj
 0006:00001668       ??_C@_0BC@A@Lighting?5Enabled?6?$AA@ 0049d668     IDTFConverterHelpers:DebugInfo.obj
 0006:0000167c       ??_C@_0BD@A@Lighting?5Disabled?6?$AA@ 0049d67c     IDTFConverterHelpers:DebugInfo.obj
 0006:00001690       ??_C@_0BF@A@?7?7?7Material?5ID?3?5?5?$CFd?6?$AA@ 0049d690     IDTFConverterHelpers:DebugInfo.obj
 0006:000016a8       ??_C@_0DB@A@?7?7?7Base?5ID?3?5?5?$CFd?5?5?5?5Base?5?$CIDiffuse?$CJ?5Intensity?3?5?$CFf?6?$AA@ 0049d6a8     IDTFConverterHelpers:DebugInfo.obj
 0006:000016dc       ??_C@_0CJ@A@?7?7?7GlossID?3?5?5?$CFd?5?5?5?5Gloss?5Intensity?3?5?5?$CFf?6?$AA@ 0049d6dc     IDTFConverterHelpers:DebugInfo.obj
 0006:00001720       ??_C@_0EC@A@?7?7?7Specular?5Lighting?5ID?3?5?5?$CFd?5?5?5?5Specular?5Lighting?5Intensity?3?5?5?$CFf?6?$AA@ 0049d720     IDTFConverterHelpers:DebugInfo.obj
 0006:00001780       ??_C@_0DP@A@?7?7?7Diffuse?5Lighting?5ID?3?5?5?$CFd?5?5?5?5Diffuse?5Lighing?5Intensity?3?5?5?$CFf?6?$AA@ 0049d780     IDTFConverterHelpers:DebugInfo.obj
 0006:000017c0       ??_C@_0DE@A@?7?7?7Reflection?5ID?3?5?5?$CFd?5?5?5?5Reflection?5Intensity?3?5?5?$CFf?6?$AA@ 0049d7c0     IDTFConverterHelpers:DebugInfo.obj
 0006:000017f4       ??_C@_0BK@A@?7?9?9?9?9?9?9?9?9?9?9?9?9?9?9?9?9?9?9?9?9?9?9?9?6?$AA@ 0049d7f4     IDTFConverterHelpers:DebugInfo.obj
 0006:00001810       ??_C@_04A@?7?7?7?7?$AA@    0049d810     IDTFConverterHelpers:DebugInfo.obj
 0006:00001818       ??_C@_0BK@A@Blend?5Function?3?5?5Multiply?$AA@ 0049d818     IDTFConverterHelpers:DebugInfo.obj
 0006:00001834       ??_C@_0BF@A@Blend?5Function?3?5?5Add?$AA@ 0049d834     IDTFConverterHelpers:DebugInfo.obj
 0006:0000184c       ??_C@_0BJ@A@Blend?5Function?3?5?5Replace?$AA@ 0049d84c     IDTFConverterHelpers:DebugInfo.obj
 0006:00001868       ??_C@_0BH@A@Blend?5Function?3?5?5Blend?$AA@ 0049d868     IDTFConverterHelpers:DebugInfo.obj
 0006:00001880       ??_C@_0BJ@A@?0?5?5Blend?5Source?3?5?5Alpha?6?$AA@ 0049d880     IDTFConverterHelpers:DebugInfo.obj
 0006:0000189c       ??_C@_0BM@A@?0?5?5Blend?5Source?3?5?5Constant?6?$AA@ 0049d89c     IDTFConverterHelpers:DebugInfo.obj
 0006:000018b8       ??_C@_0BE@A@Texture?5Mode?3?5?5None?$AA@ 0049d8b8     IDTFConverterHelpers:DebugInfo.obj
 0006:000018cc       ??_C@_0BG@A@Texture?5Mode?3?5?5Planar?$AA@ 0049d8cc     IDTFConverterHelpers:DebugInfo.obj
 0006:000018e4       ??_C@_0BL@A@Texture?5Mode?3?5?5Cylindrical?$AA@ 0049d8e4     IDTFConverterHelpers:DebugInfo.obj
 0006:00001900       ??_C@_0BJ@A@Texture?5Mode?3?5?5Spherical?$AA@ 0049d900     IDTFConverterHelpers:DebugInfo.obj
 0006:0000191c       ??_C@_0BK@A@Texture?5Mode?3?5?5Reflection?$AA@ 0049d91c     IDTFConverterHelpers:DebugInfo.obj
 0006:00001938       ??_C@_0BM@A@?5?0?5Texture?5Repeat?5U?5?$DN?5TRUE?6?$AA@ 0049d938     IDTFConverterHelpers:DebugInfo.obj
 0006:00001954       ??_C@_0BN@A@?5?0?5Texture?5Repeat?5U?5?$DN?5FALSE?6?$AA@ 0049d954     IDTFConverterHelpers:DebugInfo.obj
 0006:00001974       ??_C@_0BM@A@?5?0?5Texture?5Repeat?5V?5?$DN?5TRUE?6?$AA@ 0049d974     IDTFConverterHelpers:DebugInfo.obj
 0006:00001990       ??_C@_0BN@A@?5?0?5Texture?5Repeat?5V?5?$DN?5FALSE?6?$AA@ 0049d990     IDTFConverterHelpers:DebugInfo.obj
 0006:000019b0       ??_C@_0BM@A@?5?0?5Texture?5Repeat?5W?5?$DN?5TRUE?6?$AA@ 0049d9b0     IDTFConverterHelpers:DebugInfo.obj
 0006:000019cc       ??_C@_0BN@A@?5?0?5Texture?5Repeat?5W?5?$DN?5FALSE?6?$AA@ 0049d9cc     IDTFConverterHelpers:DebugInfo.obj
 0006:000019ec       ??_C@_0BI@A@?7?7?7?7Blend?5Constant?3?5?$CFf?6?$AA@ 0049d9ec     IDTFConverterHelpers:DebugInfo.obj
 0006:00001a04       ??_C@_0BH@A@?7?7?7?7Texture?5Transform?6?$AA@ 0049da04     IDTFConverterHelpers:DebugInfo.obj
 0006:00001a1c       ??_C@_05A@?7?7?7?7?7?$AA@  0049da1c     IDTFConverterHelpers:DebugInfo.obj
 0006:00001a24       ??_C@_0BE@A@?7?7?7?7Wrap?5Transform?6?$AA@ 0049da24     IDTFConverterHelpers:DebugInfo.obj
 0006:00001a38       ??_C@_0CA@A@?7?7Animation?5modifier?5settings?3?6?$AA@ 0049da38     IDTFConverterHelpers:DebugInfo.obj
 0006:00001a58       ??_C@_0CM@A@?7?7?7Is?5Single?5Track?$DN?$CFd?0?5Motions?5Queued?5?$DN?5?$CFd?6?$AA@ 0049da58     IDTFConverterHelpers:DebugInfo.obj
 0006:00001a84       ??_C@_0CF@A@?7?7?7Animation?5modifier?5motion?5queue?3?6?$AA@ 0049da84     IDTFConverterHelpers:DebugInfo.obj
 0006:00001aac       ??_C@_08A@?7?7?7?7?$CFd?5?$CI?$AA@ 0049daac     IDTFConverterHelpers:DebugInfo.obj
 0006:00001ab8       ??_C@_0CI@A@?$CJ?3?5?5Start?5?$DN?5?$CFf?0?5Stop?5?$DN?5?$CFf?0?5Offset?5?$DN?5?$CFf?6?$AA@ 0049dab8     IDTFConverterHelpers:DebugInfo.obj
 0006:00001ae0       ??_C@_0DA@A@?7?7?7?7?7Scale?5?$DN?5?$CFf?0?5Loop?3?5?$CFd?0?5Sync?3?5?$CFd?0?5Delay?3?5?$CFd?6?$AA@ 0049dae0     IDTFConverterHelpers:DebugInfo.obj
 0006:00001b10       ??_C@_0BG@A@?7?7?7No?5motions?5queued?6?$AA@ 0049db10     IDTFConverterHelpers:DebugInfo.obj
 0006:00001b28       ??_C@_0BK@A@?7?7?7Subdivision?5Modifier?3?6?$AA@ 0049db28     IDTFConverterHelpers:DebugInfo.obj
 0006:00001b44       ??_C@_0BJ@A@?7?7?7?7Subdivision?5enabled?0?$AA@ 0049db44     IDTFConverterHelpers:DebugInfo.obj
 0006:00001b60       ??_C@_0BK@A@?5?5?5?5Subdivision?5disabled?0?$AA@ 0049db60     IDTFConverterHelpers:DebugInfo.obj
 0006:00001b7c       ??_C@_0BA@A@?5Adaptive?5mode?6?$AA@ 0049db7c     IDTFConverterHelpers:DebugInfo.obj
 0006:00001b8c       ??_C@_0BE@A@?5Non?9adaptive?5mode?6?$AA@ 0049db8c     IDTFConverterHelpers:DebugInfo.obj
 0006:00001ba0       ??_C@_0CK@A@?7?7?7?7Depth?5?$DN?5?$CFd?0?5Tension?5?$DN?5?$CFf?0?5Error?5?$DN?5?$CFf?6?$AA@ 0049dba0     IDTFConverterHelpers:DebugInfo.obj
 0006:00001bcc       ??_C@_0BJ@A@?7?7?7LOD?5?$CICLOD?$CJ?5Modifier?3?6?$AA@ 0049dbcc     IDTFConverterHelpers:DebugInfo.obj
 0006:00001be8       ??_C@_0CB@A@?7?7?7?7Level?$DN?$CFf?0?5Bias?$DN?$CFf?0?5State?$DN?$CFd?$CJ?$AA@ 0049dbe8     IDTFConverterHelpers:DebugInfo.obj
 0006:00001c0c       ??_C@_0BI@A@?7?7Author?5CLOD?5Resource?6?$AA@ 0049dc0c     IDTFConverterHelpers:DebugInfo.obj
 0006:00001c24       ??_C@_0CN@A@?7?7?7Bounding?5Sphere?5at?5?$CFf?0?5?$CFf?0?5?$CFf?0?5radius?5?$CFf?6?$AA@ 0049dc24     IDTFConverterHelpers:DebugInfo.obj
 0006:00001c54       ??_C@_0CG@A@?7?7?7CLODLevel?5?$DN?5?$CFf?0?5Crease?5Angle?5?$DN?5?$CFf?6?$AA@ 0049dc54     IDTFConverterHelpers:DebugInfo.obj
 0006:00001c7c       ??_C@_0BH@A@?7?7?7Current?5Transform?3?6?$AA@ 0049dc7c     IDTFConverterHelpers:DebugInfo.obj
 0006:00001c94       ??_C@_0DD@A@?7?7?7Resolutions?3?5?5Min?5?$DN?5?$CFd?0?5Current?5?$DN?5?$CFd?0?5Max?5?$DN?5?$CFd?6?$AA@ 0049dc94     IDTFConverterHelpers:DebugInfo.obj
 0006:00001cc8       ??_C@_0BF@A@?7?7?7Mesh?5Statistics?3?6?$AA@ 0049dcc8     IDTFConverterHelpers:DebugInfo.obj
 0006:00001ce0       ??_C@_0DJ@A@?7?7?7?7Num?5Faces?5?$DN?5?$CFd?0?5Num?5Vertices?5?$DN?5?$CFd?0?5Num?5Normals?5?$DN?5?$CFd?6?$AA@ 0049dce0     IDTFConverterHelpers:DebugInfo.obj
 0006:00001d1c       ??_C@_0DH@A@?7?7?7?7Num?5Diffuse?5Colors?5?$DN?5?$CFd?0?5Num?5Specular?5Colors?5?$DN?5?$CFd?6?$AA@ 0049dd1c     IDTFConverterHelpers:DebugInfo.obj
 0006:00001d54       ??_C@_0DG@A@?7?7?7?7Num?5Texture?5Coordinates?5?$DN?5?$CFd?0?5Num?5Materials?5?$DN?5?$CFd?6?$AA@ 0049dd54     IDTFConverterHelpers:DebugInfo.obj
 0006:00001d8c       ??_C@_0DP@A@?7?7?7?7Num?5Allocated?5Texture?5Layers?5?$DN?5?$CFd?0?5Num?5Base?5Vertices?5?$DN?5?$CFd?6?$AA@ 0049dd8c     IDTFConverterHelpers:DebugInfo.obj
 0006:00001dcc       ??_C@_0BC@A@?7?7?7Submesh?5Data?3?6?$AA@ 0049ddcc     IDTFConverterHelpers:DebugInfo.obj
 0006:00001de0       ??_C@_0BM@A@?7?7?7?7?$CFd?3?5?5Face?5Updates?5?$DN?5?$CFd?6?$AA@ 0049dde0     IDTFConverterHelpers:DebugInfo.obj
 0006:00001dfc       ??_C@_0DF@A@?7?7?7?7?7NumTextureLayers?5?$DN?5?$CFd?0?5OriginalMaterialID?5?$DN?5?$CFd?6?$AA@ 0049ddfc     IDTFConverterHelpers:DebugInfo.obj
 0006:00001e34       ??_C@_0CO@A@?7?7?7?7?7DiffuseColors?5?$DN?5?$CFd?0?5SpecularColors?5?$DN?5?$CFd?6?$AA@ 0049de34     IDTFConverterHelpers:DebugInfo.obj
 0006:00001e64       ??_C@_0CE@A@?7?7?7?7?7Layer?5?$CFd?5has?5dimensions?5of?5?$CFd?6?$AA@ 0049de64     IDTFConverterHelpers:DebugInfo.obj
 0006:00001e88       ??_C@_0BL@A@?7?7Author?5LineSet?5Resource?6?$AA@ 0049de88     IDTFConverterHelpers:DebugInfo.obj
 0006:00001ea4       ??_C@_0BI@A@?7?7?7LineSet?5Statistics?3?6?$AA@ 0049dea4     IDTFConverterHelpers:DebugInfo.obj
 0006:00001ebc       ??_C@_0DK@A@?7?7?7?7Num?5Lines?5?$DN?5?$CFd?0?5Num?5Positions?5?$DN?5?$CFd?0?5Num?5Normals?5?$DN?5?$CFd?6?$AA@ 0049debc     IDTFConverterHelpers:DebugInfo.obj
 0006:00001ef8       ??_C@_0CH@A@?7?7?7?7Num?5Allocated?5Texture?5Layers?5?$DN?5?$CFd?6?$AA@ 0049def8     IDTFConverterHelpers:DebugInfo.obj
 0006:00001f20       ??_C@_0P@A@?7?7?7Line?5Data?3?6?$AA@ 0049df20     IDTFConverterHelpers:DebugInfo.obj
 0006:00001f30       ??_C@_0DE@A@?7?7?7?7NumTextureLayers?5?$DN?5?$CFd?0?5OriginalMaterialID?5?$DN?5?$CFd?6?$AA@ 0049df30     IDTFConverterHelpers:DebugInfo.obj
 0006:00001f64       ??_C@_0CN@A@?7?7?7?7DiffuseColors?5?$DN?5?$CFd?0?5SpecularColors?5?$DN?5?$CFd?6?$AA@ 0049df64     IDTFConverterHelpers:DebugInfo.obj
 0006:00001f94       ??_C@_0BM@A@?7?7?7Generator?5priority?3?5?5?$CFd?6?$AA@ 0049df94     IDTFConverterHelpers:DebugInfo.obj
 0006:00001fb0       ??_C@_0BJ@A@?7?7Bone?5Weight?5Generator?6?$AA@ 0049dfb0     IDTFConverterHelpers:DebugInfo.obj
 0006:00001fcc       ??_C@_0BJ@A@?7?7?7Number?5of?5Bones?5?$DN?5?$CFd?6?$AA@ 0049dfcc     IDTFConverterHelpers:DebugInfo.obj
 0006:00001fe8       ??_C@_0BF@A@?7?7?7Skeleton?5Bone?5?$CFd?6?$AA@ 0049dfe8     IDTFConverterHelpers:DebugInfo.obj
 0006:00002000       ??_C@_0BC@A@?7?7?7Bone?5Weights?3?6?$AA@ 0049e000     IDTFConverterHelpers:DebugInfo.obj
 0006:00002014       ??_C@_0CK@A@Dumping?5IFXMotion?5Object?5with?5?$CFd?5Tracks?4?6?$AA@ 0049e014     IDTFConverterHelpers:DebugInfo.obj
 0006:00002040       ??_C@_07A@Track?3?5?$AA@   0049e040     IDTFConverterHelpers:DebugInfo.obj
 0006:00002048       ??_C@_0BD@A@?7KeyFrame?5Time?3?5?$CFf?$AA@ 0049e048     IDTFConverterHelpers:DebugInfo.obj
 0006:0000205c       ??_C@_0O@A@?6?7?7POSITION?3?5?$AA@ 0049e05c     IDTFConverterHelpers:DebugInfo.obj
 0006:0000206c       ??_C@_0O@A@?6?7?7ROTATION?3?5?$AA@ 0049e06c     IDTFConverterHelpers:DebugInfo.obj
 0006:0000207c       ??_C@_0L@A@?6?7?7SCALE?3?5?$AA@ 0049e07c     IDTFConverterHelpers:DebugInfo.obj
 0006:00002088       ??_C@_0BH@A@?7?7Uses?5motion?5id?3?5?$CFd?5?$CI?$AA@ 0049e088     IDTFConverterHelpers:DebugInfo.obj
 0006:000020a0       ??_C@_02A@?$CJ?6?$AA@      0049e0a0     IDTFConverterHelpers:DebugInfo.obj
 0006:000020a4       ??_C@_0BF@A@?7?7Maps?5to?5no?5motion?6?$AA@ 0049e0a4     IDTFConverterHelpers:DebugInfo.obj
 0006:000020bc       ??_C@_0CD@A@?7?7Mixer?5Construct?5has?5?$CFd?5submaps?3?6?$AA@ 0049e0bc     IDTFConverterHelpers:DebugInfo.obj
 0006:000020e0       ??_C@_0CD@A@?7?7Mixer?5Construct?5has?5no?5submaps?4?6?$AA@ 0049e0e0     IDTFConverterHelpers:DebugInfo.obj
 0006:00002104       ??_C@_0BD@A@?7?7?7?9?5Mixer?5id?5?$CFd?5?$CI?$AA@ 0049e104     IDTFConverterHelpers:DebugInfo.obj
 0006:00002118       ??_C@_0M@A@?$CJ?5for?5bone?5?$AA@ 0049e118     IDTFConverterHelpers:DebugInfo.obj
 0006:00002124       ??_C@_0BK@A@?7?7Material?5priority?3?5?5?$CFd?6?$AA@ 0049e124     IDTFConverterHelpers:DebugInfo.obj
 0006:00002140       ??_C@_0BG@A@?7?7Material?5Resource?3?6?$AA@ 0049e140     IDTFConverterHelpers:DebugInfo.obj
 0006:00002158       ??_C@_0BG@A@?7?7?7Ambient?3?5?5?$CFf?5?$CFf?5?$CFf?$AA@ 0049e158     IDTFConverterHelpers:DebugInfo.obj
 0006:00002170       ??_C@_0BI@A@?5?5?5?5Diffuse?3?5?5?$CFf?5?$CFf?5?$CFf?6?$AA@ 0049e170     IDTFConverterHelpers:DebugInfo.obj
 0006:00002188       ??_C@_0BH@A@?7?7?7Specular?3?5?5?$CFf?5?$CFf?5?$CFf?$AA@ 0049e188     IDTFConverterHelpers:DebugInfo.obj
 0006:000021a0       ??_C@_0BJ@A@?5?5?5?5Emission?3?5?5?$CFf?5?$CFf?5?$CFf?6?$AA@ 0049e1a0     IDTFConverterHelpers:DebugInfo.obj
 0006:000021bc       ??_C@_0BA@A@?7?7?7Opacity?3?5?5?$CFf?$AA@ 0049e1bc     IDTFConverterHelpers:DebugInfo.obj
 0006:000021cc       ??_C@_0BA@A@?5?5?5?5Transparent?$AA@ 0049e1cc     IDTFConverterHelpers:DebugInfo.obj
 0006:000021dc       ??_C@_0BH@A@?5?5?5?5Reflectivity?3?5?5?$CFf?6?$AA@ 0049e1dc     IDTFConverterHelpers:DebugInfo.obj
 0006:000021f4       ??_C@_0BL@A@?6?7?9?9?9?9?9?9?9?9?9?9?9?9?9?9?9?9?9?9?9?9?9?9?9?6?$AA@ 0049e1f4     IDTFConverterHelpers:DebugInfo.obj
 0006:00002210       ??_C@_0BD@A@?7?7?7?7Bone?5Name?3?5?$CFs?6?$AA@ 0049e210     IDTFConverterHelpers:DebugInfo.obj
 0006:00002224       ??_C@_0BD@A@?7?7?7?7Parent?5ID?3?5?$CFd?6?$AA@ 0049e224     IDTFConverterHelpers:DebugInfo.obj
 0006:00002238       ??_C@_0BC@A@?7?7?7?7Bone?5Length?3?5?$AA@ 0049e238     IDTFConverterHelpers:DebugInfo.obj
 0006:0000224c       ??_C@_0BB@A@?6?7?7?7?7Bone?5Disp?3?5?$AA@ 0049e24c     IDTFConverterHelpers:DebugInfo.obj
 0006:00002260       ??_C@_0BF@A@?6?7?7?7?7Bone?5Rotation?3?5?$AA@ 0049e260     IDTFConverterHelpers:DebugInfo.obj
 0006:00002278       ??_C@_0BN@A@Quat?3?5?$CF10f?0?5?$CF10f?0?5?$CF10f?0?5?$CF10f?$AA@ 0049e278     IDTFConverterHelpers:DebugInfo.obj
 0006:00002298       ??_C@_0BJ@A@?7?7Texture?5priority?3?5?5?$CFd?6?$AA@ 0049e298     IDTFConverterHelpers:DebugInfo.obj
 0006:000022b4       ??_C@_0BM@A@?7?7Width?3?5?5?$CFd?0?5Height?3?5?$CFd?0?5?5?$AA@ 0049e2b4     IDTFConverterHelpers:DebugInfo.obj
 0006:000022d0       ??_C@_0BH@A@Supports?5Alpha?5Color?0?5?$AA@ 0049e2d0     IDTFConverterHelpers:DebugInfo.obj
 0006:000022e8       ??_C@_0BJ@A@No?5Alpha?5Color?5Support?0?5?$AA@ 0049e2e8     IDTFConverterHelpers:DebugInfo.obj
 0006:00002304       ??_C@_0BG@A@Format?3?5?58?9bit?5Alpha?6?$AA@ 0049e304     IDTFConverterHelpers:DebugInfo.obj
 0006:0000231c       ??_C@_0BF@A@Format?3?5?524?9bit?5RGB?6?$AA@ 0049e31c     IDTFConverterHelpers:DebugInfo.obj
 0006:00002334       ??_C@_0BG@A@Format?3?5?532?9bit?5RGBA?6?$AA@ 0049e334     IDTFConverterHelpers:DebugInfo.obj
 0006:0000234c       ??_C@_0BF@A@Format?5unknown?3?5?5?$CFd?6?$AA@ 0049e34c     IDTFConverterHelpers:DebugInfo.obj
 0006:00002364       ??_C@_0CJ@A@?7?7Compression?5State?3?5?5Force?5Decompress?0?5?$AA@ 0049e364     IDTFConverterHelpers:DebugInfo.obj
 0006:00002390       ??_C@_0CJ@A@?7?7Compression?5State?3?5?5Force?5Compressed?0?5?$AA@ 0049e390     IDTFConverterHelpers:DebugInfo.obj
 0006:000023bc       ??_C@_0CD@A@?7?7Compression?5State?5Unknown?3?5?5?$CFd?0?5?$AA@ 0049e3bc     IDTFConverterHelpers:DebugInfo.obj
 0006:000023e0       ??_C@_0BI@A@Keep?5Compressed?5?$DN?5TRUE?6?$AA@ 0049e3e0     IDTFConverterHelpers:DebugInfo.obj
 0006:000023f8       ??_C@_0BJ@A@Keep?5Compressed?5?$DN?5FALSE?6?$AA@ 0049e3f8     IDTFConverterHelpers:DebugInfo.obj
 0006:00002414       ??_C@_0BM@A@?7?7Render?5Format?3?5?5IFX_BGRA?6?$AA@ 0049e414     IDTFConverterHelpers:DebugInfo.obj
 0006:00002430       ??_C@_0BM@A@?7?7Render?5Format?3?5?5IFX_RGBA?6?$AA@ 0049e430     IDTFConverterHelpers:DebugInfo.obj
 0006:0000244c       ??_C@_0CB@A@?7?7Render?5Format?3?5?5IFX_RGBA_8888?6?$AA@ 0049e44c     IDTFConverterHelpers:DebugInfo.obj
 0006:00002470       ??_C@_0CB@A@?7?7Render?5Format?3?5?5IFX_RGBA_8880?6?$AA@ 0049e470     IDTFConverterHelpers:DebugInfo.obj
 0006:00002494       ??_C@_0CB@A@?7?7Render?5Format?3?5?5IFX_RGBA_5650?6?$AA@ 0049e494     IDTFConverterHelpers:DebugInfo.obj
 0006:000024b8       ??_C@_0CB@A@?7?7Render?5Format?3?5?5IFX_RGBA_5550?6?$AA@ 0049e4b8     IDTFConverterHelpers:DebugInfo.obj
 0006:000024dc       ??_C@_0CB@A@?7?7Render?5Format?3?5?5IFX_RGBA_5551?6?$AA@ 0049e4dc     IDTFConverterHelpers:DebugInfo.obj
 0006:00002500       ??_C@_0CB@A@?7?7Render?5Format?3?5?5IFX_RGBA_4444?6?$AA@ 0049e500     IDTFConverterHelpers:DebugInfo.obj
 0006:00002524       ??_C@_0CF@A@?7?7Render?5Format?3?5?5IFX_TEXCOMPRESS_1?6?$AA@ 0049e524     IDTFConverterHelpers:DebugInfo.obj
 0006:0000254c       ??_C@_0CF@A@?7?7Render?5Format?3?5?5IFX_TEXCOMPRESS_2?6?$AA@ 0049e54c     IDTFConverterHelpers:DebugInfo.obj
 0006:00002574       ??_C@_0CF@A@?7?7Render?5Format?3?5?5IFX_TEXCOMPRESS_3?6?$AA@ 0049e574     IDTFConverterHelpers:DebugInfo.obj
 0006:0000259c       ??_C@_0CF@A@?7?7Render?5Format?3?5?5IFX_TEXCOMPRESS_4?6?$AA@ 0049e59c     IDTFConverterHelpers:DebugInfo.obj
 0006:000025c4       ??_C@_0CF@A@?7?7Render?5Format?3?5?5IFX_TEXCOMPRESS_5?6?$AA@ 0049e5c4     IDTFConverterHelpers:DebugInfo.obj
 0006:000025ec       ??_C@_0CD@A@?7?7Render?5Format?3?5?5IFX_FMT_DEFAULT?6?$AA@ 0049e5ec     IDTFConverterHelpers:DebugInfo.obj
 0006:00002610       ??_C@_0BO@A@?7?7Render?5Format?5Unknown?3?5?5?$CFd?6?$AA@ 0049e610     IDTFConverterHelpers:DebugInfo.obj
 0006:00002630       ??_C@_0BC@A@?7?7Filter?5Modes?3?5?5?$AA@ 0049e630     IDTFConverterHelpers:DebugInfo.obj
 0006:00002644       ??_C@_0BK@A@Magnification?5?$DN?5NEAREST?0?5?$AA@ 0049e644     IDTFConverterHelpers:DebugInfo.obj
 0006:00002660       ??_C@_0BJ@A@Magnification?5?$DN?5LINEAR?0?5?$AA@ 0049e660     IDTFConverterHelpers:DebugInfo.obj
 0006:0000267c       ??_C@_0BL@A@Magnification?5Unknown?5?$CFd?0?5?$AA@ 0049e67c     IDTFConverterHelpers:DebugInfo.obj
 0006:00002698       ??_C@_0BJ@A@Minification?5?$DN?5NEAREST?0?5?$AA@ 0049e698     IDTFConverterHelpers:DebugInfo.obj
 0006:000026b4       ??_C@_0BI@A@Minification?5?$DN?5LINEAR?0?5?$AA@ 0049e6b4     IDTFConverterHelpers:DebugInfo.obj
 0006:000026cc       ??_C@_0BK@A@Minification?5Unknown?5?$CFd?0?5?$AA@ 0049e6cc     IDTFConverterHelpers:DebugInfo.obj
 0006:000026e8       ??_C@_0BC@A@MipMap?5?$DN?5NEAREST?6?$AA@ 0049e6e8     IDTFConverterHelpers:DebugInfo.obj
 0006:000026fc       ??_C@_0BB@A@MipMap?5?$DN?5LINEAR?6?$AA@ 0049e6fc     IDTFConverterHelpers:DebugInfo.obj
 0006:00002710       ??_C@_0P@A@MipMap?5?$DN?5NONE?6?$AA@ 0049e710     IDTFConverterHelpers:DebugInfo.obj
 0006:00002720       ??_C@_0BD@A@MipMap?5Unknown?5?$CFd?6?$AA@ 0049e720     IDTFConverterHelpers:DebugInfo.obj
 0006:00002734       ??_C@_0BO@A@?7?7Texture?5Source?5?$DN?5Imported?0?5?$AA@ 0049e734     IDTFConverterHelpers:DebugInfo.obj
 0006:00002754       ??_C@_0CB@A@?7?7Texture?5Source?5?$DN?5Cast?5Member?0?5?$AA@ 0049e754     IDTFConverterHelpers:DebugInfo.obj
 0006:00002778       ??_C@_0CC@A@?7?7Texture?5Source?5?$DN?5Image?5Object?0?5?$AA@ 0049e778     IDTFConverterHelpers:DebugInfo.obj
 0006:0000279c       ??_C@_0BO@A@?7?7Texture?5Source?5Unknown?5?$CFd?0?5?$AA@ 0049e79c     IDTFConverterHelpers:DebugInfo.obj
 0006:000027bc       ??_C@_0BD@A@Texture?5Type?5?$DN?52D?6?$AA@ 0049e7bc     IDTFConverterHelpers:DebugInfo.obj
 0006:000027d0       ??_C@_0BG@A@Texture?5Type?5?$DN?5Cubic?6?$AA@ 0049e7d0     IDTFConverterHelpers:DebugInfo.obj
 0006:000027e8       ??_C@_0BJ@A@Texture?5Type?5Unknown?5?$CFd?6?$AA@ 0049e7e8     IDTFConverterHelpers:DebugInfo.obj
 0006:00002804       ??_C@_0DE@A@?7?7Image?5Buffer?5Size?5?$DN?5?$CFd?0?5Image?5CODEC?5Quality?5?$DN?5?$CFd?6?$AA@ 0049e804     IDTFConverterHelpers:DebugInfo.obj
 0006:00002838       ??_C@_0CJ@A@?7?7Texture?5ID?5?$DN?5?$CFd?0?5Texture?5Version?5?$DN?5?$CFd?6?$AA@ 0049e838     IDTFConverterHelpers:DebugInfo.obj
 0006:00002864       ??_C@_0DH@A@?7?7Image?5CODEC?5CID?3?5?5?$CFx?9?$CFx?9?$CFx?9?$CF2x?$CF2x?$CF2x?$CF2x?$CF2x?$CF2x?$CF2x?$CF2x?6?$AA@ 0049e864     IDTFConverterHelpers:DebugInfo.obj
 0006:0000289c       ??_C@_0BD@A@?7?7Simulation?5Task?6?$AA@ 0049e89c     IDTFConverterHelpers:DebugInfo.obj
 0006:000028b0       ??_C@_02A@?0?5?$AA@        0049e8b0     IDTFConverterHelpers:DebugInfo.obj
 0006:000028b4       ??_C@_0L@A@BoneWeight?$AA@ 0049e8b4     IDTFConverterHelpers:DebugInfo.obj
 0006:000028c0       ??_C@_09A@Animation?$AA@   0049e8c0     IDTFConverterHelpers:DebugInfo.obj
 0006:000028cc       ??_C@_0M@A@Subdivision?$AA@ 0049e8cc     IDTFConverterHelpers:DebugInfo.obj
 0006:000028d8       ??_C@_03A@LOD?$AA@         0049e8d8     IDTFConverterHelpers:DebugInfo.obj
 0006:000028dc       ??_C@_07A@Shading?$AA@     0049e8dc     IDTFConverterHelpers:DebugInfo.obj
 0006:000028e4       ??_C@_07A@Unknown?$AA@     0049e8e4     IDTFConverterHelpers:DebugInfo.obj
 0006:000028ec       ??_C@_09A@?6?7?7?7?9?9?9?9?6?$AA@ 0049e8ec     IDTFConverterHelpers:DebugInfo.obj
 0006:000028f8       ??_C@_0BN@A@?7?7Number?5of?5instances?5?9?5?$CFd?3?6?$AA@ 0049e8f8     IDTFConverterHelpers:DebugInfo.obj
 0006:00002918       ??_C@_0CH@A@?7?7?7Current?5Transform?5for?5instance?5?$CFd?3?6?$AA@ 0049e918     IDTFConverterHelpers:DebugInfo.obj
 0006:00002940       ??_C@_03A@?7?7?7?$AA@      0049e940     IDTFConverterHelpers:DebugInfo.obj
 0006:00002944       ??_C@_0CM@A@?7?7Bounding?5Sphere?5at?5?$CFf?0?5?$CFf?0?5?$CFf?0?5radius?5?$CFf?6?$AA@ 0049e944     IDTFConverterHelpers:DebugInfo.obj
 0006:00002970       ??_C@_0CI@A@?7?7Mesh?5Resolution?3?5?5Current?$DN?$CFd?0?5Max?$DN?$CFd?6?$AA@ 0049e970     IDTFConverterHelpers:DebugInfo.obj
 0006:00002998       ??_C@_0CD@A@?7?7MeshGroup?5contains?5?$CFd?5submeshes?6?$AA@ 0049e998     IDTFConverterHelpers:DebugInfo.obj
 0006:000029bc       ??_C@_0DJ@A@?7?7?7?$CFd?3?5?5Vertices?5?9?5Allocated?3?5?5?$CFd?0?5Max?3?5?$CFd?0?5Current?3?5?$CFd?6?$AA@ 0049e9bc     IDTFConverterHelpers:DebugInfo.obj
 0006:000029f8       ??_C@_0DC@A@?7?7?7?7Faces?5?9?5Allocated?3?5?5?$CFd?0?5Max?3?5?$CFd?0?5Current?3?5?$CFd?6?$AA@ 0049e9f8     IDTFConverterHelpers:DebugInfo.obj
 0006:00002a2c       ??_C@_0DC@A@?7?7?7?7Lines?5?9?5Allocated?3?5?5?$CFd?0?5Max?3?5?$CFd?0?5Current?3?5?$CFd?6?$AA@ 0049ea2c     IDTFConverterHelpers:DebugInfo.obj
 0006:00002a60       ??_C@_0DK@A@?7?7?7?7Number?5Texture?5Coordinate?5Layers?5?$CFd?0?5HW?5TC?5Layers?5?$CFd?6?$AA@ 0049ea60     IDTFConverterHelpers:DebugInfo.obj
 0006:00002a9c       ??_C@_0DK@A@?7?7?7?7Has?5Positions?5?$CFd?0?5Normals?5?$CFd?0?5DColors?5?$CFd?0?5SColors?5?$CFd?6?$AA@ 0049ea9c     IDTFConverterHelpers:DebugInfo.obj
 0006:00002ad8       ??_C@_0DE@A@?7?7?7?7DiffuseBGR?5?$CFd?0?5SpecularBGR?5?$CFd?0?532bitIndices?5?$CFd?6?$AA@ 0049ead8     IDTFConverterHelpers:DebugInfo.obj
 0006:00002b20       ??_C@_0EG@A@?7?7?7?7Bytes?5Per?5layer?3?5?50?$DN?$CFd?0?51?$DN?$CFd?0?52?$DN?$CFd?0?53?$DN?$CFd?0?54?$DN?$CFd?0?55?$DN?$CFd?0?56?$DN?$CFd?0?57?$DN?$CFd?6?$AA@ 0049eb20     IDTFConverterHelpers:DebugInfo.obj
 0006:00002b80       ??_C@_0BI@A@?7?7?7?7Tex?5Coords?5In?5Use?3?5?$AA@ 0049eb80     IDTFConverterHelpers:DebugInfo.obj
 0006:00002b98       ??_C@_04A@?5TC0?$AA@       0049eb98     IDTFConverterHelpers:DebugInfo.obj
 0006:00002ba0       ??_C@_04A@?5TC1?$AA@       0049eba0     IDTFConverterHelpers:DebugInfo.obj
 0006:00002ba8       ??_C@_04A@?5TC2?$AA@       0049eba8     IDTFConverterHelpers:DebugInfo.obj
 0006:00002bb0       ??_C@_04A@?5TC3?$AA@       0049ebb0     IDTFConverterHelpers:DebugInfo.obj
 0006:00002bb8       ??_C@_04A@?5TC4?$AA@       0049ebb8     IDTFConverterHelpers:DebugInfo.obj
 0006:00002bc0       ??_C@_04A@?5TC5?$AA@       0049ebc0     IDTFConverterHelpers:DebugInfo.obj
 0006:00002bc8       ??_C@_04A@?5TC6?$AA@       0049ebc8     IDTFConverterHelpers:DebugInfo.obj
 0006:00002bd0       ??_C@_04A@?5TC7?$AA@       0049ebd0     IDTFConverterHelpers:DebugInfo.obj
 0006:00002bd8       ??_C@_0CD@A@?7?7Renderable?5contains?5?$CFd?5elements?6?$AA@ 0049ebd8     IDTFConverterHelpers:DebugInfo.obj
 0006:00002bfc       ??_C@_0CE@A@?7?7Shader?5Set?5Mapping?5for?5elements?3?6?$AA@ 0049ebfc     IDTFConverterHelpers:DebugInfo.obj
 0006:00002c20       ??_C@_0BJ@A@?7?7?7?$CFd?3?5?5ShaderIDs?5?$CI?$CFd?$CJ?3?5?$AA@ 0049ec20     IDTFConverterHelpers:DebugInfo.obj
 0006:00002c3c       ??_C@_02A@?$CFd?$AA@       0049ec3c     IDTFConverterHelpers:DebugInfo.obj
 0006:00002c40       ??_C@_0DE@A@?7?7?7?$CFd?3?5?5GetElementShaderList?5returned?5an?5error?3?5?$CFx?6?$AA@ 0049ec40     IDTFConverterHelpers:DebugInfo.obj
 0006:00002c74       ??_C@_0BE@A@?7?7View?5Parameters?3?6?$AA@ 0049ec74     IDTFConverterHelpers:DebugInfo.obj
 0006:00002c88       ??_C@_0CB@A@?7?7?7Orthographic?5view?0?5height?5?$CFf?6?$AA@ 0049ec88     IDTFConverterHelpers:DebugInfo.obj
 0006:00002cac       ??_C@_0CP@A@?7?7?7Perspective?5view?0?5field?5of?5view?5?$CFf?5degrees?6?$AA@ 0049ecac     IDTFConverterHelpers:DebugInfo.obj
 0006:00002cdc       ??_C@_0CD@A@?7?7?7Projection?5plane?5distance?5?$DN?5?$CFf?6?$AA@ 0049ecdc     IDTFConverterHelpers:DebugInfo.obj
 0006:00002d00       ??_C@_0CL@A@?7?7?7Offset?3?5?5X?$DN?$CFd?0?5Y?$DN?$CFd?$DL?5Size?3?5?5X?$DN?$CFd?0?5Y?$DN?$CFd?6?$AA@ 0049ed00     IDTFConverterHelpers:DebugInfo.obj
 0006:00002d2c       ??_C@_0CD@A@?7?7?7Near?5Clip?3?5?5?$CFf?$DL?5?5Far?5Clip?3?5?5?$CFf?6?$AA@ 0049ed2c     IDTFConverterHelpers:DebugInfo.obj
 0006:00002d50       ??_C@_0BC@A@?7?7?7Clear?5State?3?5?5?$AA@ 0049ed50     IDTFConverterHelpers:DebugInfo.obj
 0006:00002d64       ??_C@_0CD@A@Back?5?$CIcolor?$CJ?5buffer?5cleared?$DNTRUE?0?5?$AA@ 0049ed64     IDTFConverterHelpers:DebugInfo.obj
 0006:00002d88       ??_C@_0CE@A@Back?5?$CIcolor?$CJ?5buffer?5cleared?$DNFALSE?0?5?$AA@ 0049ed88     IDTFConverterHelpers:DebugInfo.obj
 0006:00002dac       ??_C@_0BM@A@Depth?5buffer?5cleared?$DNTRUE?0?5?$AA@ 0049edac     IDTFConverterHelpers:DebugInfo.obj
 0006:00002dc8       ??_C@_0BN@A@Depth?5buffer?5cleared?$DNFALSE?0?5?$AA@ 0049edc8     IDTFConverterHelpers:DebugInfo.obj
 0006:00002de8       ??_C@_0BN@A@Stencil?5buffer?5cleared?$DNTRUE?6?$AA@ 0049ede8     IDTFConverterHelpers:DebugInfo.obj
 0006:00002e08       ??_C@_0BO@A@Stencil?5buffer?5cleared?$DNFALSE?6?$AA@ 0049ee08     IDTFConverterHelpers:DebugInfo.obj
 0006:00002e28       ??_C@_0BD@A@?7?7?7Buffer?5Color?5?$DN?5?$AA@ 0049ee28     IDTFConverterHelpers:DebugInfo.obj
 0006:00002e3c       ??_C@_0CL@A@?6?7?7?7Buffer?5Depth?5?$DN?5?$CFf?0?5Stencil?5Value?5?$DN?5?$CFd?6?$AA@ 0049ee3c     IDTFConverterHelpers:DebugInfo.obj
 0006:00002e68       ??_C@_0BF@A@?7?7?7Stencils?5enabled?6?$AA@ 0049ee68     IDTFConverterHelpers:DebugInfo.obj
 0006:00002e80       ??_C@_0BG@A@?7?7?7Stencils?5disabled?6?$AA@ 0049ee80     IDTFConverterHelpers:DebugInfo.obj
 0006:00002e98       ??_C@_0BB@A@?7?7?7Fog?5enabled?3?6?$AA@ 0049ee98     IDTFConverterHelpers:DebugInfo.obj
 0006:00002eac       ??_C@_0BB@A@?7?7?7?7Linear?5Fog?0?5?$AA@ 0049eeac     IDTFConverterHelpers:DebugInfo.obj
 0006:00002ec0       ??_C@_0BG@A@?7?7?7?7Exponential?5Fog?0?5?$AA@ 0049eec0     IDTFConverterHelpers:DebugInfo.obj
 0006:00002ed8       ??_C@_0BO@A@?7?7?7?7Exponential?5squared?5Fog?5?0?$AA@ 0049eed8     IDTFConverterHelpers:DebugInfo.obj
 0006:00002ef8       ??_C@_0BM@A@Linear?5Near?5?$DN?5?$CFf?0?5Far?5?$DN?5?$CFf?6?$AA@ 0049eef8     IDTFConverterHelpers:DebugInfo.obj
 0006:00002f14       ??_C@_0BB@A@?7?7?7?7Fog?5color?3?5?5?$AA@ 0049ef14     IDTFConverterHelpers:DebugInfo.obj
 0006:00002f28       ??_C@_0BB@A@?7?7?7Fog?5disabled?6?$AA@ 0049ef28     IDTFConverterHelpers:DebugInfo.obj
 0006:00002f3c       ??_C@_0O@A@?7?7?9?9?5Ambient?6?$AA@ 0049ef3c     IDTFConverterHelpers:DebugInfo.obj
 0006:00002f4c       ??_C@_0BI@A@?7?7?9?9?5Directional?5light?6?$AA@ 0049ef4c     IDTFConverterHelpers:DebugInfo.obj
 0006:00002f64       ??_C@_0BC@A@?7?7?9?9?5Point?5light?6?$AA@ 0049ef64     IDTFConverterHelpers:DebugInfo.obj
 0006:00002f78       ??_C@_0BB@A@?7?7?9?9?5Spot?5light?6?$AA@ 0049ef78     IDTFConverterHelpers:DebugInfo.obj
 0006:00002f8c       ??_C@_0O@A@?7?7?9?9?5Unknown?6?$AA@ 0049ef8c     IDTFConverterHelpers:DebugInfo.obj
 0006:00002f9c       ??_C@_0CH@A@?7?7?7R?3?5?$CFf?0?5G?3?5?$CFf?0?5B?3?5?$CFf?0?5Alpha?5ignored?6?$AA@ 0049ef9c     IDTFConverterHelpers:DebugInfo.obj
 0006:00002fc4       ??_C@_0DK@A@?7?7?7Attenuation?3?5?5Const?5?$DN?5?$CFf?0?5Linear?5?$DN?5?$CFf?0?5Quadradic?5?$DN?5?$CFf?6?$AA@ 0049efc4     IDTFConverterHelpers:DebugInfo.obj
 0006:00003000       ??_C@_0BE@A@?7?7?7Spot?5Angle?3?5?5?$CFf?6?$AA@ 0049f000     IDTFConverterHelpers:DebugInfo.obj
 0006:00003014       ??_C@_0P@A@?7?7?7Attributes?3?$AA@ 0049f014     IDTFConverterHelpers:DebugInfo.obj
 0006:00003024       ??_C@_08A@?5Enabled?$AA@   0049f024     IDTFConverterHelpers:DebugInfo.obj
 0006:00003030       ??_C@_09A@?5Specular?$AA@  0049f030     IDTFConverterHelpers:DebugInfo.obj
 0006:0000303c       ??_C@_0L@A@?5SpotDecay?$AA@ 0049f03c     IDTFConverterHelpers:DebugInfo.obj
 0006:00003048       ??_C@_0BG@A@?7?7Node?5priority?3?5?5?$CFd?6?$AA@ 0049f048     IDTFConverterHelpers:DebugInfo.obj
 0006:00003060       ??_C@_0CN@A@?7?7Modifiers?5associated?5with?5this?5node?5?$CI?$CFd?$CJ?3?6?$AA@ 0049f060     IDTFConverterHelpers:DebugInfo.obj
 0006:00003090       ??_C@_0BE@A@X?3?5?$CFf?0?5Y?3?5?$CFf?0?5Z?3?5?$CFf?$AA@ 0049f090     IDTFConverterHelpers:DebugInfo.obj
 0006:000030a4       ??_C@_0CF@A@?$CIW?3?5?$CF10f?0?5X?3?5?$CF10f?0?5Y?3?5?$CF10f?0?5Z?3?5?$CF10f?$CJ?$AA@ 0049f0a4     IDTFConverterHelpers:DebugInfo.obj
 0006:000030cc       ??_C@_03A@?$CFs?$CI?$AA@   0049f0cc     IDTFConverterHelpers:DebugInfo.obj
 0006:000030d0       ??_C@_0CP@A@?$CF2d?3?5?5?$CF10f?0?5?$CF2d?3?5?5?$CF10f?0?5?$CF2d?3?5?5?$CF10f?0?5?$CF2d?3?5?5?$CF10f?$AA@ 0049f0d0     IDTFConverterHelpers:DebugInfo.obj
 0006:00003100       ??_C@_07A@F32?3?5?$CFf?$AA@ 0049f100     IDTFConverterHelpers:DebugInfo.obj
 0006:00003108       ??_C@_0CD@A@R?3?5?$CF10f?0?5G?3?5?$CF10f?0?5B?3?5?$CF10f?0?5A?3?5?$CF10f?$AA@ 0049f108     IDTFConverterHelpers:DebugInfo.obj
 0006:0000312c       ??_C@_0BK@A@R?3?5?$CF10f?0?5G?3?5?$CF10f?0?5B?3?5?$CF10f?$AA@ 0049f12c     IDTFConverterHelpers:DebugInfo.obj
 0006:00003148       ??_C@_0CE@A@?7?7?$CK?$CK?$CK?5Entry?5?$CFd?3?5?5Index?3?5?$CFd?5?5?5Name?3?5?$AA@ 0049f148     IDTFConverterHelpers:DebugInfo.obj
 0006:0000316c       ??_C@_0BA@A@?7Empty?5Palette?6?$AA@ 0049f16c     IDTFConverterHelpers:DebugInfo.obj
 0006:0000317c       ??_C@_0BE@A@?6?$CK?$CK?$CK?$CK?$CK?$CK?$CK?$CK?$CK?$CK?$CK?$CK?$CK?$CK?$CK?$CK?$CK?6?$AA@ 0049f17c     IDTFConverterHelpers:DebugInfo.obj
 0006:00003190       ??_C@_0O@A@Node?5Palette?6?$AA@ 0049f190     IDTFConverterHelpers:DebugInfo.obj
 0006:000031a0       ??_C@_0BD@A@?$CK?$CK?$CK?$CK?$CK?$CK?$CK?$CK?$CK?$CK?$CK?$CK?$CK?$CK?$CK?$CK?$CK?6?$AA@ 0049f1a0     IDTFConverterHelpers:DebugInfo.obj
 0006:000031b4       ??_C@_0CD@A@?7?$CK?$CK?$CK?5Entry?5?$CFd?3?5?5Index?3?5?$CFd?5?5?5Name?3?5?$AA@ 0049f1b4     IDTFConverterHelpers:DebugInfo.obj
 0006:000031d8       ??_C@_01A@?0?$AA@          0049f1d8     IDTFConverterHelpers:DebugInfo.obj
 0006:000031dc       ??_C@_0BD@A@?7NodeType?3?5?5Light?6?$AA@ 0049f1dc     IDTFConverterHelpers:DebugInfo.obj
 0006:000031f0       ??_C@_0BL@A@?7NodeType?3?5?5View?5?$CIcamera?$CJ?6?$AA@ 0049f1f0     IDTFConverterHelpers:DebugInfo.obj
 0006:0000320c       ??_C@_0CP@A@?7NodeType?3?5?5Model?0?5?5?5Generator?5PaletteID?3?5?5?$CFd?6?$AA@ 0049f20c     IDTFConverterHelpers:DebugInfo.obj
 0006:0000323c       ??_C@_0BF@A@?7NodeType?3?5?5Unknown?6?$AA@ 0049f23c     IDTFConverterHelpers:DebugInfo.obj
 0006:00003254       ??_C@_0BF@A@?6?7?$CK?$CK?$CK?$CK?$CK?$CK?$CK?$CK?$CK?$CK?$CK?$CK?$CK?$CK?$CK?$CK?$CK?6?$AA@ 0049f254     IDTFConverterHelpers:DebugInfo.obj
 0006:0000326c       ??_C@_0BE@A@?7Hierarchy?5display?6?$AA@ 0049f26c     IDTFConverterHelpers:DebugInfo.obj
 0006:00003280       ??_C@_0BE@A@?7?$CK?$CK?$CK?$CK?$CK?$CK?$CK?$CK?$CK?$CK?$CK?$CK?$CK?$CK?$CK?$CK?$CK?6?$AA@ 0049f280     IDTFConverterHelpers:DebugInfo.obj
 0006:00003294       ??_C@_05A@?7?$CF?$CK?4c?$AA@ 0049f294     IDTFConverterHelpers:DebugInfo.obj
 0006:0000329c       ??_C@_1M@A@W?$AAo?$AAr?$AAl?$AAd?$AA?$AA?$AA@ 0049f29c     IDTFConverterHelpers:DebugInfo.obj
 0006:000032a8       ??_C@_00A@?$AA@            0049f2a8     IDTFConverterHelpers:DebugInfo.obj
 0006:000032ac       ??_C@_0P@A@Light?5Palette?6?$AA@ 0049f2ac     IDTFConverterHelpers:DebugInfo.obj
 0006:000032bc       ??_C@_0O@A@View?5Palette?6?$AA@ 0049f2bc     IDTFConverterHelpers:DebugInfo.obj
 0006:000032cc       ??_C@_0BL@A@Generator?5?$CIModel?$CJ?5Palette?6?$AA@ 0049f2cc     IDTFConverterHelpers:DebugInfo.obj
 0006:000032e8       ??_C@_0BG@A@?7?7Unknown?5model?5type?6?$AA@ 0049f2e8     IDTFConverterHelpers:DebugInfo.obj
 0006:00003300       ??_C@_0CO@A@?7?7Modifiers?5associated?5with?5this?5model?5?$CI?$CFd?$CJ?3?6?$AA@ 0049f300     IDTFConverterHelpers:DebugInfo.obj
 0006:00003330       ??_C@_0DL@A@?6?7?9?9?9?9?9?9?9?9?9?9?9?9?9?9?9?9?9?9?9?9?9?9?9?9?9?9?9?9?9?9?9?9?9?9?9?9?9?9?9?9?9?9?9?9?9?9?9?9?9?9?9?9?9?9?9?6?$AA@ 0049f330     IDTFConverterHelpers:DebugInfo.obj
 0006:0000336c       ??_C@_0BC@A@Material?5Palette?6?$AA@ 0049f36c     IDTFConverterHelpers:DebugInfo.obj
 0006:00003380       ??_C@_0BA@A@Shader?5Palette?6?$AA@ 0049f380     IDTFConverterHelpers:DebugInfo.obj
 0006:00003390       ??_C@_0BA@A@Motion?5Palette?6?$AA@ 0049f390     IDTFConverterHelpers:DebugInfo.obj
 0006:000033a0       ??_C@_0DO@A@?5?5?5?5?$CK?$CK?$CK?$CK?$CK?$CK?$CK?$CK?$CK?$CK?$CK?$CK?$CK?$CK?$CK?$CK?$CK?$CK?$CK?$CK?$CK?$CK?$CK?$CK?$CK?$CK?$CK?$CK?$CK?$CK?$CK?$CK?$CK?$CK?$CK?$CK?$CK?$CK?$CK?$CK?$CK?$CK?$CK?$CK?$CK?$CK?$CK?$CK?$CK?$CK?$CK?$CK?$CK?$CK?$CK?$CK?6?$AA@ 0049f3a0     IDTFConverterHelpers:DebugInfo.obj
 0006:000033e0       ??_C@_0P@A@Mixer?5Palette?6?$AA@ 0049f3e0     IDTFConverterHelpers:DebugInfo.obj
 0006:000033f0       ??_C@_0BB@A@Texture?5Palette?6?$AA@ 0049f3f0     IDTFConverterHelpers:DebugInfo.obj
 0006:00003404       ??_C@_0BK@A@?6?$CK?$CK?$CK?$CK?$CK?$CK?$CK?$CK?$CK?$CK?$CK?$CK?$CK?$CK?$CK?$CK?$CK?$CK?$CK?$CK?$CK?$CK?$CK?6?$AA@ 0049f404     IDTFConverterHelpers:DebugInfo.obj
 0006:00003420       ??_C@_0BJ@A@Simulation?5Task?5Palette?6?$AA@ 0049f420     IDTFConverterHelpers:DebugInfo.obj
 0006:0000343c       ??_C@_0BJ@A@?$CK?$CK?$CK?$CK?$CK?$CK?$CK?$CK?$CK?$CK?$CK?$CK?$CK?$CK?$CK?$CK?$CK?$CK?$CK?$CK?$CK?$CK?$CK?6?$AA@ 0049f43c     IDTFConverterHelpers:DebugInfo.obj
 0006:00003458       ??_C@_0L@A@?7?7Unknown?6?$AA@ 0049f458     IDTFConverterHelpers:DebugInfo.obj
 0006:00003464       ??_C@_0BJ@A@Vector3?5?$HL?$CF?46G?5?$CF?46G?5?$CF?46G?$HN?$AA@ 0049f464     IFXCoreStatic:IFXVector3.obj
 0006:00003480       ??_C@_0P@A@?$CF?46G?5?$CF?46G?5?$CF?46G?$AA@ 0049f480     IFXCoreStatic:IFXVector3.obj
 0006:00003490       ??_C@_05A@sqrtl?$AA@       0049f490     libmmt:libm_error.omu
 0006:00003498       ??_C@_0BG@A@?$ANsqrtl?3?5DOMAIN?5error?6?$AA@ 0049f498     libmmt:libm_error.omu
 0006:000034b0       ??_C@_04A@sqrt?$AA@        0049f4b0     libmmt:libm_error.omu
 0006:000034b8       ??_C@_0BF@A@?$ANsqrt?3?5DOMAIN?5error?6?$AA@ 0049f4b8     libmmt:libm_error.omu
 0006:000034d0       ??_C@_05A@sqrtf?$AA@       0049f4d0     libmmt:libm_error.omu
 0006:000034d8       ??_C@_0BG@A@?$ANsqrtf?3?5DOMAIN?5error?6?$AA@ 0049f4d8     libmmt:libm_error.omu
 0006:000034f0       ??_C@_04A@logl?$AA@        0049f4f0     libmmt:libm_error.omu
 0006:000034f8       ??_C@_0BD@A@?$ANlogl?3?5SING?5error?6?$AA@ 0049f4f8     libmmt:libm_error.omu
 0006:0000350c       ??_C@_03A@log?$AA@         0049f50c     libmmt:libm_error.omu
 0006:00003510       ??_C@_0BC@A@?$ANlog?3?5SING?5error?6?$AA@ 0049f510     libmmt:libm_error.omu
 0006:00003524       ??_C@_04A@logf?$AA@        0049f524     libmmt:libm_error.omu
 0006:0000352c       ??_C@_0BD@A@?$ANlogf?3?5SING?5error?6?$AA@ 0049f52c     libmmt:libm_error.omu
 0006:00003540       ??_C@_0BF@A@?$ANlogl?3?5DOMAIN?5error?6?$AA@ 0049f540     libmmt:libm_error.omu
 0006:00003558       ??_C@_0BE@A@?$ANlog?3?5DOMAIN?5error?6?$AA@ 0049f558     libmmt:libm_error.omu
 0006:0000356c       ??_C@_0BF@A@?$ANlogf?3?5DOMAIN?5error?6?$AA@ 0049f56c     libmmt:libm_error.omu
 0006:00003584       ??_C@_06A@log1pl?$AA@      0049f584     libmmt:libm_error.omu
 0006:0000358c       ??_C@_0BF@A@?$ANlog1pl?3?5SING?5error?6?$AA@ 0049f58c     libmmt:libm_error.omu
 0006:000035a4       ??_C@_05A@log1p?$AA@       0049f5a4     libmmt:libm_error.omu
 0006:000035ac       ??_C@_0BE@A@?$ANlog1p?3?5SING?5error?6?$AA@ 0049f5ac     libmmt:libm_error.omu
 0006:000035c0       ??_C@_06A@log1pf?$AA@      0049f5c0     libmmt:libm_error.omu
 0006:000035c8       ??_C@_0BF@A@?$ANlog1pf?3?5SING?5error?6?$AA@ 0049f5c8     libmmt:libm_error.omu
 0006:000035e0       ??_C@_0BH@A@?$ANlog1pl?3?5DOMAIN?5error?6?$AA@ 0049f5e0     libmmt:libm_error.omu
 0006:000035f8       ??_C@_0BG@A@?$ANlog1p?3?5DOMAIN?5error?6?$AA@ 0049f5f8     libmmt:libm_error.omu
 0006:00003610       ??_C@_0BH@A@?$ANlog1pf?3?5DOMAIN?5error?6?$AA@ 0049f610     libmmt:libm_error.omu
 0006:00003628       ??_C@_06A@log10l?$AA@      0049f628     libmmt:libm_error.omu
 0006:00003630       ??_C@_0BF@A@?$ANlog10l?3?5SING?5error?6?$AA@ 0049f630     libmmt:libm_error.omu
 0006:00003648       ??_C@_05A@log10?$AA@       0049f648     libmmt:libm_error.omu
 0006:00003650       ??_C@_0BE@A@?$ANlog10?3?5SING?5error?6?$AA@ 0049f650     libmmt:libm_error.omu
 0006:00003664       ??_C@_06A@log10f?$AA@      0049f664     libmmt:libm_error.omu
 0006:0000366c       ??_C@_0BF@A@?$ANlog10f?3?5SING?5error?6?$AA@ 0049f66c     libmmt:libm_error.omu
 0006:00003684       ??_C@_0BH@A@?$ANlog10l?3?5DOMAIN?5error?6?$AA@ 0049f684     libmmt:libm_error.omu
 0006:0000369c       ??_C@_0BG@A@?$ANlog10?3?5DOMAIN?5error?6?$AA@ 0049f69c     libmmt:libm_error.omu
 0006:000036b4       ??_C@_0BH@A@?$ANlog10f?3?5DOMAIN?5error?6?$AA@ 0049f6b4     libmmt:libm_error.omu
 0006:000036cc       ??_C@_05A@log2l?$AA@       0049f6cc     libmmt:libm_error.omu
 0006:000036d4       ??_C@_0BE@A@?$ANlog2l?3?5SING?5error?6?$AA@ 0049f6d4     libmmt:libm_error.omu
 0006:000036e8       ??_C@_04A@log2?$AA@        0049f6e8     libmmt:libm_error.omu
 0006:000036f0       ??_C@_0BD@A@?$ANlog2?3?5SING?5error?6?$AA@ 0049f6f0     libmmt:libm_error.omu
 0006:00003704       ??_C@_05A@log2f?$AA@       0049f704     libmmt:libm_error.omu
 0006:0000370c       ??_C@_0BE@A@?$ANlog2f?3?5SING?5error?6?$AA@ 0049f70c     libmmt:libm_error.omu
 0006:00003720       ??_C@_0BG@A@?$ANlog2l?3?5DOMAIN?5error?6?$AA@ 0049f720     libmmt:libm_error.omu
 0006:00003738       ??_C@_0BF@A@?$ANlog2?3?5DOMAIN?5error?6?$AA@ 0049f738     libmmt:libm_error.omu
 0006:00003750       ??_C@_0BG@A@?$ANlog2f?3?5DOMAIN?5error?6?$AA@ 0049f750     libmmt:libm_error.omu
 0006:00003768       ??_C@_04A@expl?$AA@        0049f768     libmmt:libm_error.omu
 0006:00003770       ??_C@_03A@exp?$AA@         0049f770     libmmt:libm_error.omu
 0006:00003774       ??_C@_04A@expf?$AA@        0049f774     libmmt:libm_error.omu
 0006:0000377c       ??_C@_04A@powl?$AA@        0049f77c     libmmt:libm_error.omu
 0006:00003784       ??_C@_0BK@A@?$ANpowl?$CI0?00?$CJ?3?5DOMAIN?5error?6?$AA@ 0049f784     libmmt:libm_error.omu
 0006:000037a0       ??_C@_03A@pow?$AA@         0049f7a0     libmmt:libm_error.omu
 0006:000037a4       ??_C@_0BJ@A@?$ANpow?$CI0?00?$CJ?3?5DOMAIN?5error?6?$AA@ 0049f7a4     libmmt:libm_error.omu
 0006:000037c0       ??_C@_04A@powf?$AA@        0049f7c0     libmmt:libm_error.omu
 0006:000037c8       ??_C@_0BK@A@?$ANpowf?$CI0?00?$CJ?3?5DOMAIN?5error?6?$AA@ 0049f7c8     libmmt:libm_error.omu
 0006:000037e4       ??_C@_0CB@A@?$ANpowl?$CI0?0negative?$CJ?3?5DOMAIN?5error?6?$AA@ 0049f7e4     libmmt:libm_error.omu
 0006:00003808       ??_C@_0CA@A@?$ANpow?$CI0?0negative?$CJ?3?5DOMAIN?5error?6?$AA@ 0049f808     libmmt:libm_error.omu
 0006:00003828       ??_C@_0CB@A@?$ANpowf?$CI0?0negative?$CJ?3?5DOMAIN?5error?6?$AA@ 0049f828     libmmt:libm_error.omu
 0006:0000384c       ??_C@_0CL@A@?$ANpowl?$CInegative?0non?9integer?$CJ?3?5DOMAIN?5error?6?$AA@ 0049f84c     libmmt:libm_error.omu
 0006:00003878       ??_C@_0CK@A@?$ANpow?$CInegative?0non?9integer?$CJ?3?5DOMAIN?5error?6?$AA@ 0049f878     libmmt:libm_error.omu
 0006:000038a4       ??_C@_0CL@A@?$ANpowf?$CInegative?0non?9integer?$CJ?3?5DOMAIN?5error?6?$AA@ 0049f8a4     libmmt:libm_error.omu
 0006:000038d0       ??_C@_06A@atan2l?$AA@      0049f8d0     libmmt:libm_error.omu
 0006:000038d8       ??_C@_0BH@A@?$ANatan2l?3?5DOMAIN?5error?6?$AA@ 0049f8d8     libmmt:libm_error.omu
 0006:000038f0       ??_C@_05A@atan2?$AA@       0049f8f0     libmmt:libm_error.omu
 0006:000038f8       ??_C@_0BG@A@?$ANatan2?3?5DOMAIN?5error?6?$AA@ 0049f8f8     libmmt:libm_error.omu
 0006:00003910       ??_C@_06A@atan2f?$AA@      0049f910     libmmt:libm_error.omu
 0006:00003918       ??_C@_0BH@A@?$ANatan2f?3?5DOMAIN?5error?6?$AA@ 0049f918     libmmt:libm_error.omu
 0006:00003930       ??_C@_07A@atan2dl?$AA@     0049f930     libmmt:libm_error.omu
 0006:00003938       ??_C@_0BI@A@?$ANatan2dl?3?5DOMAIN?5error?6?$AA@ 0049f938     libmmt:libm_error.omu
 0006:00003950       ??_C@_06A@atan2d?$AA@      0049f950     libmmt:libm_error.omu
 0006:00003958       ??_C@_0BH@A@?$ANatan2d?3?5DOMAIN?5error?6?$AA@ 0049f958     libmmt:libm_error.omu
 0006:00003970       ??_C@_07A@atan2df?$AA@     0049f970     libmmt:libm_error.omu
 0006:00003978       ??_C@_0BI@A@?$ANatan2df?3?5DOMAIN?5error?6?$AA@ 0049f978     libmmt:libm_error.omu
 0006:00003990       ??_C@_06A@scalbl?$AA@      0049f990     libmmt:libm_error.omu
 0006:00003998       ??_C@_05A@scalb?$AA@       0049f998     libmmt:libm_error.omu
 0006:000039a0       ??_C@_06A@scalbf?$AA@      0049f9a0     libmmt:libm_error.omu
 0006:000039a8       ??_C@_06A@hypotl?$AA@      0049f9a8     libmmt:libm_error.omu
 0006:000039b0       ??_C@_05A@hypot?$AA@       0049f9b0     libmmt:libm_error.omu
 0006:000039b8       ??_C@_06A@hypotf?$AA@      0049f9b8     libmmt:libm_error.omu
 0006:000039c0       ??_C@_05A@acosl?$AA@       0049f9c0     libmmt:libm_error.omu
 0006:000039c8       ??_C@_0BG@A@?$ANacosl?3?5DOMAIN?5error?6?$AA@ 0049f9c8     libmmt:libm_error.omu
 0006:000039e0       ??_C@_04A@acos?$AA@        0049f9e0     libmmt:libm_error.omu
 0006:000039e8       ??_C@_0BF@A@?$ANacos?3?5DOMAIN?5error?6?$AA@ 0049f9e8     libmmt:libm_error.omu
 0006:00003a00       ??_C@_05A@acosf?$AA@       0049fa00     libmmt:libm_error.omu
 0006:00003a08       ??_C@_0BG@A@?$ANacosf?3?5DOMAIN?5error?6?$AA@ 0049fa08     libmmt:libm_error.omu
 0006:00003a20       ??_C@_05A@asinl?$AA@       0049fa20     libmmt:libm_error.omu
 0006:00003a28       ??_C@_0BG@A@?$ANasinl?3?5DOMAIN?5error?6?$AA@ 0049fa28     libmmt:libm_error.omu
 0006:00003a40       ??_C@_04A@asin?$AA@        0049fa40     libmmt:libm_error.omu
 0006:00003a48       ??_C@_0BF@A@?$ANasin?3?5DOMAIN?5error?6?$AA@ 0049fa48     libmmt:libm_error.omu
 0006:00003a60       ??_C@_05A@asinf?$AA@       0049fa60     libmmt:libm_error.omu
 0006:00003a68       ??_C@_0BG@A@?$ANasinf?3?5DOMAIN?5error?6?$AA@ 0049fa68     libmmt:libm_error.omu
 0006:00003a80       ??_C@_06A@acosdl?$AA@      0049fa80     libmmt:libm_error.omu
 0006:00003a88       ??_C@_0BH@A@?$ANacosdl?3?5DOMAIN?5error?6?$AA@ 0049fa88     libmmt:libm_error.omu
 0006:00003aa0       ??_C@_05A@acosd?$AA@       0049faa0     libmmt:libm_error.omu
 0006:00003aa8       ??_C@_0BG@A@?$ANacosd?3?5DOMAIN?5error?6?$AA@ 0049faa8     libmmt:libm_error.omu
 0006:00003ac0       ??_C@_06A@acosdf?$AA@      0049fac0     libmmt:libm_error.omu
 0006:00003ac8       ??_C@_0BH@A@?$ANacosdf?3?5DOMAIN?5error?6?$AA@ 0049fac8     libmmt:libm_error.omu
 0006:00003ae0       ??_C@_06A@asindl?$AA@      0049fae0     libmmt:libm_error.omu
 0006:00003ae8       ??_C@_0BH@A@?$ANasindl?3?5DOMAIN?5error?6?$AA@ 0049fae8     libmmt:libm_error.omu
 0006:00003b00       ??_C@_05A@asind?$AA@       0049fb00     libmmt:libm_error.omu
 0006:00003b08       ??_C@_0BG@A@?$ANasind?3?5DOMAIN?5error?6?$AA@ 0049fb08     libmmt:libm_error.omu
 0006:00003b20       ??_C@_06A@asindf?$AA@      0049fb20     libmmt:libm_error.omu
 0006:00003b28       ??_C@_0BH@A@?$ANasindf?3?5DOMAIN?5error?6?$AA@ 0049fb28     libmmt:libm_error.omu
 0006:00003b40       ??_C@_05A@coshl?$AA@       0049fb40     libmmt:libm_error.omu
 0006:00003b48       ??_C@_04A@cosh?$AA@        0049fb48     libmmt:libm_error.omu
 0006:00003b50       ??_C@_05A@coshf?$AA@       0049fb50     libmmt:libm_error.omu
 0006:00003b58       ??_C@_05A@sinhl?$AA@       0049fb58     libmmt:libm_error.omu
 0006:00003b60       ??_C@_04A@sinh?$AA@        0049fb60     libmmt:libm_error.omu
 0006:00003b68       ??_C@_05A@sinhf?$AA@       0049fb68     libmmt:libm_error.omu
 0006:00003b70       ??_C@_06A@acoshl?$AA@      0049fb70     libmmt:libm_error.omu
 0006:00003b78       ??_C@_0BH@A@?$ANacoshl?3?5DOMAIN?5error?6?$AA@ 0049fb78     libmmt:libm_error.omu
 0006:00003b90       ??_C@_05A@acosh?$AA@       0049fb90     libmmt:libm_error.omu
 0006:00003b98       ??_C@_0BG@A@?$ANacosh?3?5DOMAIN?5error?6?$AA@ 0049fb98     libmmt:libm_error.omu
 0006:00003bb0       ??_C@_06A@acoshf?$AA@      0049fbb0     libmmt:libm_error.omu
 0006:00003bb8       ??_C@_0BH@A@?$ANacoshf?3?5DOMAIN?5error?6?$AA@ 0049fbb8     libmmt:libm_error.omu
 0006:00003bd0       ??_C@_06A@atanhl?$AA@      0049fbd0     libmmt:libm_error.omu
 0006:00003bd8       ??_C@_0BH@A@?$ANatanhl?3?5DOMAIN?5error?6?$AA@ 0049fbd8     libmmt:libm_error.omu
 0006:00003bf0       ??_C@_05A@atanh?$AA@       0049fbf0     libmmt:libm_error.omu
 0006:00003bf8       ??_C@_0BG@A@?$ANatanh?3?5DOMAIN?5error?6?$AA@ 0049fbf8     libmmt:libm_error.omu
 0006:00003c10       ??_C@_06A@atanhf?$AA@      0049fc10     libmmt:libm_error.omu
 0006:00003c18       ??_C@_0BH@A@?$ANatanhf?3?5DOMAIN?5error?6?$AA@ 0049fc18     libmmt:libm_error.omu
 0006:00003c30       ??_C@_0BF@A@?$ANatanhl?3?5SING?5error?6?$AA@ 0049fc30     libmmt:libm_error.omu
 0006:00003c48       ??_C@_0BE@A@?$ANatanh?3?5SING?5error?6?$AA@ 0049fc48     libmmt:libm_error.omu
 0006:00003c5c       ??_C@_0BF@A@?$ANatanhf?3?5SING?5error?6?$AA@ 0049fc5c     libmmt:libm_error.omu
 0006:00003c74       ??_C@_06A@gammal?$AA@      0049fc74     libmmt:libm_error.omu
 0006:00003c7c       ??_C@_05A@gamma?$AA@       0049fc7c     libmmt:libm_error.omu
 0006:00003c84       ??_C@_06A@gammaf?$AA@      0049fc84     libmmt:libm_error.omu
 0006:00003c8c       ??_C@_0BF@A@?$ANgammal?3?5SING?5error?6?$AA@ 0049fc8c     libmmt:libm_error.omu
 0006:00003ca4       ??_C@_0BE@A@?$ANgamma?3?5SING?5error?6?$AA@ 0049fca4     libmmt:libm_error.omu
 0006:00003cb8       ??_C@_0BF@A@?$ANgammaf?3?5SING?5error?6?$AA@ 0049fcb8     libmmt:libm_error.omu
 0006:00003cd0       ??_C@_07A@lgammal?$AA@     0049fcd0     libmmt:libm_error.omu
 0006:00003cd8       ??_C@_06A@lgamma?$AA@      0049fcd8     libmmt:libm_error.omu
 0006:00003ce0       ??_C@_07A@lgammaf?$AA@     0049fce0     libmmt:libm_error.omu
 0006:00003ce8       ??_C@_0BG@A@?$ANlgammal?3?5SING?5error?6?$AA@ 0049fce8     libmmt:libm_error.omu
 0006:00003d00       ??_C@_0BF@A@?$ANlgamma?3?5SING?5error?6?$AA@ 0049fd00     libmmt:libm_error.omu
 0006:00003d18       ??_C@_0BG@A@?$ANlgammaf?3?5SING?5error?6?$AA@ 0049fd18     libmmt:libm_error.omu
 0006:00003d30       ??_C@_07A@tgammal?$AA@     0049fd30     libmmt:libm_error.omu
 0006:00003d38       ??_C@_06A@tgamma?$AA@      0049fd38     libmmt:libm_error.omu
 0006:00003d40       ??_C@_07A@tgammaf?$AA@     0049fd40     libmmt:libm_error.omu
 0006:00003d48       ??_C@_0BI@A@?$ANtgammal?3?5DOMAIN?5error?6?$AA@ 0049fd48     libmmt:libm_error.omu
 0006:00003d60       ??_C@_0BH@A@?$ANtgamma?3?5DOMAIN?5error?6?$AA@ 0049fd60     libmmt:libm_error.omu
 0006:00003d78       ??_C@_0BI@A@?$ANtgammaf?3?5DOMAIN?5error?6?$AA@ 0049fd78     libmmt:libm_error.omu
 0006:00003d90       ??_C@_03A@j0l?$AA@         0049fd90     libmmt:libm_error.omu
 0006:00003d94       ??_C@_0BD@A@?$ANj0l?3?5TLOSS?5error?6?$AA@ 0049fd94     libmmt:libm_error.omu
 0006:00003da8       ??_C@_02A@j0?$AA@          0049fda8     libmmt:libm_error.omu
 0006:00003dac       ??_C@_0BC@A@?$ANj0?3?5TLOSS?5error?6?$AA@ 0049fdac     libmmt:libm_error.omu
 0006:00003dc0       ??_C@_03A@j0f?$AA@         0049fdc0     libmmt:libm_error.omu
 0006:00003dc4       ??_C@_0BD@A@?$ANj0f?3?5TLOSS?5error?6?$AA@ 0049fdc4     libmmt:libm_error.omu
 0006:00003dd8       ??_C@_03A@j1l?$AA@         0049fdd8     libmmt:libm_error.omu
 0006:00003ddc       ??_C@_0BD@A@?$ANj1l?3?5TLOSS?5error?6?$AA@ 0049fddc     libmmt:libm_error.omu
 0006:00003df0       ??_C@_02A@j1?$AA@          0049fdf0     libmmt:libm_error.omu
 0006:00003df4       ??_C@_0BC@A@?$ANj1?3?5TLOSS?5error?6?$AA@ 0049fdf4     libmmt:libm_error.omu
 0006:00003e08       ??_C@_03A@j1f?$AA@         0049fe08     libmmt:libm_error.omu
 0006:00003e0c       ??_C@_0BD@A@?$ANj1f?3?5TLOSS?5error?6?$AA@ 0049fe0c     libmmt:libm_error.omu
 0006:00003e20       ??_C@_03A@jnl?$AA@         0049fe20     libmmt:libm_error.omu
 0006:00003e24       ??_C@_0BD@A@?$ANjnl?3?5TLOSS?5error?6?$AA@ 0049fe24     libmmt:libm_error.omu
 0006:00003e38       ??_C@_02A@jn?$AA@          0049fe38     libmmt:libm_error.omu
 0006:00003e3c       ??_C@_0BC@A@?$ANjn?3?5TLOSS?5error?6?$AA@ 0049fe3c     libmmt:libm_error.omu
 0006:00003e50       ??_C@_03A@jnf?$AA@         0049fe50     libmmt:libm_error.omu
 0006:00003e54       ??_C@_0BD@A@?$ANjnf?3?5TLOSS?5error?6?$AA@ 0049fe54     libmmt:libm_error.omu
 0006:00003e68       ??_C@_03A@y0l?$AA@         0049fe68     libmmt:libm_error.omu
 0006:00003e6c       ??_C@_0BD@A@?$ANy0l?3?5TLOSS?5error?6?$AA@ 0049fe6c     libmmt:libm_error.omu
 0006:00003e80       ??_C@_02A@y0?$AA@          0049fe80     libmmt:libm_error.omu
 0006:00003e84       ??_C@_0BC@A@?$ANy0?3?5TLOSS?5error?6?$AA@ 0049fe84     libmmt:libm_error.omu
 0006:00003e98       ??_C@_03A@y0f?$AA@         0049fe98     libmmt:libm_error.omu
 0006:00003e9c       ??_C@_0BD@A@?$ANy0f?3?5TLOSS?5error?6?$AA@ 0049fe9c     libmmt:libm_error.omu
 0006:00003eb0       ??_C@_0BE@A@?$ANy0l?3?5DOMAIN?5error?6?$AA@ 0049feb0     libmmt:libm_error.omu
 0006:00003ec4       ??_C@_0BD@A@?$ANy0?3?5DOMAIN?5error?6?$AA@ 0049fec4     libmmt:libm_error.omu
 0006:00003ed8       ??_C@_0BE@A@?$ANy0f?3?5DOMAIN?5error?6?$AA@ 0049fed8     libmmt:libm_error.omu
 0006:00003eec       ??_C@_03A@y1l?$AA@         0049feec     libmmt:libm_error.omu
 0006:00003ef0       ??_C@_0BD@A@?$ANy1l?3?5TLOSS?5error?6?$AA@ 0049fef0     libmmt:libm_error.omu
 0006:00003f04       ??_C@_02A@y1?$AA@          0049ff04     libmmt:libm_error.omu
 0006:00003f08       ??_C@_0BC@A@?$ANy1?3?5TLOSS?5error?6?$AA@ 0049ff08     libmmt:libm_error.omu
 0006:00003f1c       ??_C@_03A@y1f?$AA@         0049ff1c     libmmt:libm_error.omu
 0006:00003f20       ??_C@_0BD@A@?$ANy1f?3?5TLOSS?5error?6?$AA@ 0049ff20     libmmt:libm_error.omu
 0006:00003f34       ??_C@_0BE@A@?$ANy1l?3?5DOMAIN?5error?6?$AA@ 0049ff34     libmmt:libm_error.omu
 0006:00003f48       ??_C@_0BD@A@?$ANy1?3?5DOMAIN?5error?6?$AA@ 0049ff48     libmmt:libm_error.omu
 0006:00003f5c       ??_C@_0BE@A@?$ANy1f?3?5DOMAIN?5error?6?$AA@ 0049ff5c     libmmt:libm_error.omu
 0006:00003f70       ??_C@_03A@ynl?$AA@         0049ff70     libmmt:libm_error.omu
 0006:00003f74       ??_C@_0BD@A@?$ANynl?3?5TLOSS?5error?6?$AA@ 0049ff74     libmmt:libm_error.omu
 0006:00003f88       ??_C@_02A@yn?$AA@          0049ff88     libmmt:libm_error.omu
 0006:00003f8c       ??_C@_0BC@A@?$ANyn?3?5TLOSS?5error?6?$AA@ 0049ff8c     libmmt:libm_error.omu
 0006:00003fa0       ??_C@_03A@ynf?$AA@         0049ffa0     libmmt:libm_error.omu
 0006:00003fa4       ??_C@_0BD@A@?$ANynf?3?5TLOSS?5error?6?$AA@ 0049ffa4     libmmt:libm_error.omu
 0006:00003fb8       ??_C@_0BE@A@?$ANynl?3?5DOMAIN?5error?6?$AA@ 0049ffb8     libmmt:libm_error.omu
 0006:00003fcc       ??_C@_0BD@A@?$ANyn?3?5DOMAIN?5error?6?$AA@ 0049ffcc     libmmt:libm_error.omu
 0006:00003fe0       ??_C@_0BE@A@?$ANynf?3?5DOMAIN?5error?6?$AA@ 0049ffe0     libmmt:libm_error.omu
 0006:00003ff4       ??_C@_05A@fmodl?$AA@       0049fff4     libmmt:libm_error.omu
 0006:00003ffc       ??_C@_0BG@A@?$ANfmodl?3?5DOMAIN?5error?6?$AA@ 0049fffc     libmmt:libm_error.omu
 0006:00004014       ??_C@_04A@fmod?$AA@        004a0014     libmmt:libm_error.omu
 0006:0000401c       ??_C@_0BF@A@?$ANfmod?3?5DOMAIN?5error?6?$AA@ 004a001c     libmmt:libm_error.omu
 0006:00004034       ??_C@_05A@fmodf?$AA@       004a0034     libmmt:libm_error.omu
 0006:0000403c       ??_C@_0BG@A@?$ANfmodf?3?5DOMAIN?5error?6?$AA@ 004a003c     libmmt:libm_error.omu
 0006:00004054       ??_C@_0L@A@remainderl?$AA@ 004a0054     libmmt:libm_error.omu
 0006:00004060       ??_C@_0BL@A@?$ANremainderl?3?5DOMAIN?5error?6?$AA@ 004a0060     libmmt:libm_error.omu
 0006:0000407c       ??_C@_09A@remainder?$AA@   004a007c     libmmt:libm_error.omu
 0006:00004088       ??_C@_0BK@A@?$ANremainder?3?5DOMAIN?5error?6?$AA@ 004a0088     libmmt:libm_error.omu
 0006:000040a4       ??_C@_0L@A@remainderf?$AA@ 004a00a4     libmmt:libm_error.omu
 0006:000040b0       ??_C@_0BL@A@?$ANremainderf?3?5DOMAIN?5error?6?$AA@ 004a00b0     libmmt:libm_error.omu

 entry point at        0001:0004a58e

 Static symbols

 0001:000048d4       B56.EH                     004058d4 f i FileParser.obj
 0001:00005194       B70.EH                     00406194 f i FileParser.obj
 0001:000054d8       B78.EH                     004064d8 f i FileParser.obj
 0001:00005b48       B92.EH                     00406b48 f i FileParser.obj
 0001:00005fb8       B113.EH                    00406fb8 f i FileParser.obj
 0001:000061f4       B119.EH                    004071f4 f i FileParser.obj
 0001:0000643c       B125.EH                    0040743c f i FileParser.obj
 0001:00006684       B131.EH                    00407684 f i FileParser.obj
 0001:000068cc       B137.EH                    004078cc f i FileParser.obj
 0001:0000756c       B12.EH                     0040856c f i FileReferenceConverter.obj
 0001:0001435a       B7.EH                      0041535a f   ResourceConverter.obj
 0001:0001bbd4       B63.EH                     0041cbd4 f i ResourceListParser.obj
 0001:0001c49c       B79.EH                     0041d49c f i ResourceListParser.obj
 0001:0001ca60       B87.EH                     0041da60 f i ResourceListParser.obj
 0001:0001ce98       B95.EH                     0041de98 f i ResourceListParser.obj
 0001:0001d5a8       B103.EH                    0041e5a8 f i ResourceListParser.obj
 0001:0001ddcc       B117.EH                    0041edcc f i ResourceListParser.obj
 0001:000230d8       ___sti__$E                 004240d8 f   IFXCoreStatic:IFXCoreStatic.obj
 0001:000230ee       __$U0                      004240ee f   IFXCoreStatic:IFXCoreStatic.obj
 0001:00024b70       B14.EH                     00425b70 f i IDTFCommon:ParentList.obj
 0001:000284d0       B50.EH                     004294d0 f i IDTFCommon:NodeList.obj
 0001:0002894a       B56.EH                     0042994a f i IDTFCommon:NodeList.obj
 0001:00028c10       B62.EH                     00429c10 f i IDTFCommon:NodeList.obj
 0001:00028ea8       B68.EH                     00429ea8 f i IDTFCommon:NodeList.obj
 0001:0002b67c       B60.EH                     0042c67c f i IDTFCommon:SceneResources.obj
 0001:0002baf4       B74.EH                     0042caf4 f i IDTFCommon:SceneResources.obj
 0001:0002c0ea       B90.EH                     0042d0ea f i IDTFCommon:SceneResources.obj
 0001:0002c568       B114.EH                    0042d568 f i IDTFCommon:SceneResources.obj
 0001:0002c98e       B122.EH                    0042d98e f i IDTFCommon:SceneResources.obj
 0001:0002ce80       B138.EH                    0042de80 f i IDTFCommon:SceneResources.obj
 0001:00031994       B161.EH                    00432994 f i IDTFCommon:ModifierList.obj
 0001:00031d00       B167.EH                    00432d00 f i IDTFCommon:ModifierList.obj
 0001:00032084       B173.EH                    00433084 f i IDTFCommon:ModifierList.obj
 0001:00032324       B179.EH                    00433324 f i IDTFCommon:ModifierList.obj
 0001:000325d8       B185.EH                    004335d8 f i IDTFCommon:ModifierList.obj
 0001:00032d72       B191.EH                    00433d72 f i IDTFCommon:ModifierList.obj
 0001:000360e4       B45.EH                     004370e4 f i IDTFCommon:ModelResource.obj
 0001:0003648c       B53.EH                     0043748c f i IDTFCommon:ModelResource.obj
 0001:0003a86a       B92.EH                     0043b86a f i IDTFCommon:ModelResourceList.obj
 0001:0003af92       B98.EH                     0043bf92 f i IDTFCommon:ModelResourceList.obj
 0001:0003b522       B104.EH                    0043c522 f i IDTFCommon:ModelResourceList.obj
 0001:00048cfe       ___sti__$E                 00449cfe f   IDTFConverterHelpers:DebugInfo.obj
 0001:00048d74       __$U0                      00449d74 f   IDTFConverterHelpers:DebugInfo.obj
 0001:000496d0       $$$00001                   0044a6d0 f   LIBCMT:exsup.obj
 0001:000496f0       __unwind_handler           0044a6f0 f   LIBCMT:exsup.obj
 0001:000496f0       $$$00003                   0044a6f0 f   LIBCMT:exsup.obj
 0001:00049712       $$$00005                   0044a712 f   LIBCMT:exsup.obj
 0001:0004977a       $$$00007                   0044a77a f   LIBCMT:exsup.obj
 0001:000497be       $$$00011                   0044a7be f   LIBCMT:exsup.obj
 0001:0004987d       ?CatchGuardHandler@@YA?AW4_EXCEPTION_DISPOSITION@@PAUEHExceptionRecord@@PAUCatchGuardRN@@PAX2@Z 0044a87d f   LIBCMT:trnsctrl.obj
 0001:0004997f       ?TranslatorGuardHandler@@YA?AW4_EXCEPTION_DISPOSITION@@PAUEHExceptionRecord@@PAUTranslatorGuardRN@@PAX2@Z 0044a97f f   LIBCMT:trnsctrl.obj
 0001:0004a56a       _fast_error_exit           0044b56a f   LIBCMT:wcrt0.obj
 0001:0004a83a       __abstract_cw              0044b83a f   LIBCMT:ieee87.obj
 0001:0004a8cc       __hw_cw                    0044b8cc f   LIBCMT:ieee87.obj
 0001:0004aa53       __initterm                 0044ba53 f   LIBCMT:crt0dat.obj
 0001:0004aad5       _doexit                    0044bad5 f   LIBCMT:crt0dat.obj
 0001:0004aca8       ___updatetlocinfo_lk       0044bca8 f   LIBCMT:setlocal.obj
 0001:0004aef2       __setlocale_get_all        0044bef2 f   LIBCMT:setlocal.obj
 0001:0004b10d       __setlocale_set_cat        0044c10d f   LIBCMT:setlocal.obj
 0001:0004b39c       __setlocale_lk             0044c39c f   LIBCMT:setlocal.obj
 0001:0004b6cf       __onexit_lk                0044c6cf f   LIBCMT:onexit.obj
 0001:0004ba2d       _wcstoxl                   0044ca2d f   LIBCMT:wcstol.obj
 0001:0004c556       ?TypeMatch@@YAHPBU_s_HandlerType@@PBU_s_CatchableType@@PBU_s_ThrowInfo@@@Z 0044d556 f   LIBCMT:frame.obj
 0001:0004c5a5       ?FrameUnwindFilter@@YAHPAU_EXCEPTION_POINTERS@@@Z 0044d5a5 f   LIBCMT:frame.obj
 0001:0004c6d6       ?AdjustPointer@@YAPAXPAXABUPMD@@@Z 0044d6d6 f   LIBCMT:frame.obj
 0001:0004c6f5       ?CallCatchBlock@@YAPAXPAUEHExceptionRecord@@PAUEHRegistrationNode@@PAU_CONTEXT@@PBU_s_FuncInfo@@PAXHK@Z 0044d6f5 f   LIBCMT:frame.obj
 0001:0004c8b9       ?BuildCatchObject@@YAXPAUEHExceptionRecord@@PAXPBU_s_HandlerType@@PBU_s_CatchableType@@@Z 0044d8b9 f   LIBCMT:frame.obj
 0001:0004ca35       ?CatchIt@@YAXPAUEHExceptionRecord@@PAUEHRegistrationNode@@PAU_CONTEXT@@PAXPBU_s_FuncInfo@@PBU_s_HandlerType@@PBU_s_CatchableType@@PBU_s_TryBlockMapEntry@@H1E@Z 0044da35 f   LIBCMT:frame.obj
 0001:0004ca9c       ?FindHandlerForForeignException@@YAXPAUEHExceptionRecord@@PAUEHRegistrationNode@@PAU_CONTEXT@@PAXPBU_s_FuncInfo@@HH1@Z 0044da9c f   LIBCMT:frame.obj
 0001:0004cb5a       ?FindHandler@@YAXPAUEHExceptionRecord@@PAUEHRegistrationNode@@PAU_CONTEXT@@PAXPBU_s_FuncInfo@@EH1@Z 0044db5a f   LIBCMT:frame.obj
 0001:0004d455       $$$00003                   0044e455 f   LIBCMT:exsup3.obj
 0001:0004d5c7       __shift                    0044e5c7 f   LIBCMT:cvt.obj
 0001:0004d5e4       __cftoe2                   0044e5e4 f   LIBCMT:cvt.obj
 0001:0004d6fe       __cftof2                   0044e6fe f   LIBCMT:cvt.obj
 0001:0004db75       _write_char                0044eb75 f   LIBCMT:output.obj
 0001:0004dba8       _write_multi_char          0044eba8 f   LIBCMT:output.obj
 0001:0004dbcc       _write_string              0044ebcc f   LIBCMT:output.obj
 0001:0004f294       _flsall                    00450294 f   LIBCMT:fflush.obj
 0001:0004f855       __hextodec                 00450855 f   LIBCMT:winput.obj
 0001:0004f887       __un_inc                   00450887 f   LIBCMT:winput.obj
 0001:0004f896       __whiteout                 00450896 f   LIBCMT:winput.obj
 0001:000506da       _write_char                004516da f   LIBCMT:woutput.obj
 0001:000506ff       _write_multi_char          004516ff f   LIBCMT:woutput.obj
 0001:00050724       _write_string              00451724 f   LIBCMT:woutput.obj
 0001:0005136f       _wparse_cmdline            0045236f f   LIBCMT:wstdargv.obj
 0001:0005183d       _siglookup                 0045283d f   LIBCMT:winsig.obj
 0001:00051afd       __get_lc_time              00452afd f   LIBCMT:inittime.obj
 0001:00052dad       _TranslateName             00453dad f   LIBCMT:getqloc.obj
 0001:00052e0d       _GetLcidFromDefault        00453e0d f   LIBCMT:getqloc.obj
 0001:00052e27       _ProcessCodePage           00453e27 f   LIBCMT:getqloc.obj
 0001:00052e9d       _TestDefaultCountry        00453e9d f   LIBCMT:getqloc.obj
 0001:00052ebb       _crtGetLocaleInfoA@16      00453ebb f   LIBCMT:getqloc.obj
 0001:00052f9e       _LcidFromHexString         00453f9e f   LIBCMT:getqloc.obj
 0001:00052fd3       _GetPrimaryLen             00453fd3 f   LIBCMT:getqloc.obj
 0001:00052ff0       _CountryEnumProc@4         00453ff0 f   LIBCMT:getqloc.obj
 0001:00053084       _TestDefaultLanguage       00454084 f   LIBCMT:getqloc.obj
 0001:000530f5       _LangCountryEnumProc@4     004540f5 f   LIBCMT:getqloc.obj
 0001:0005330f       _LanguageEnumProc@4        0045430f f   LIBCMT:getqloc.obj
 0001:000533da       _GetLcidFromCountry        004543da f   LIBCMT:getqloc.obj
 0001:00053411       _GetLcidFromLangCountry    00454411 f   LIBCMT:getqloc.obj
 0001:00053497       _GetLcidFromLanguage       00454497 f   LIBCMT:getqloc.obj
 0001:000536a1       _report_failure            004546a1 f   LIBCMT:secchk.obj
 0001:00054d98       __tzset_lk                 00455d98 f   LIBCMT:tzset.obj
 0001:00055040       _cvtdate                   00456040 f   LIBCMT:tzset.obj
 0001:000551f8       __isindst_lk               004561f8 f   LIBCMT:tzset.obj
 0001:00055958       _CPtoLCID                  00456958 f   LIBCMT:mbctype.obj
 0001:00055987       _setSBCS                   00456987 f   LIBCMT:mbctype.obj
 0001:000559b0       _setSBUpLow                004569b0 f   LIBCMT:mbctype.obj
 0001:00055bab       __setmbcp_lk               00456bab f   LIBCMT:mbctype.obj
 0001:00055ec1       ___crtInitCritSecNoSpinCount@8 00456ec1 f   LIBCMT:initcrit.obj
 0001:00057875       _xtoa                      00458875 f   LIBCMT:xtoa.obj
 0001:00057ebc       __tsopen_lk                00458ebc f   LIBCMT:wopen.obj
 0001:0005827c       __tsopen_lk                0045927c f   LIBCMT:open.obj
 0001:00059994       _strncnt                   0045a994 f   LIBCMT:a_cmp.obj
 0001:00059d34       _findenv                   0045ad34 f   LIBCMT:setenv.obj
 0001:00059d81       _copy_environ              0045ad81 f   LIBCMT:setenv.obj
 0001:0005a060       _$$$00001                  0045b060 f   LIBCMT:strchr.obj
 0001:0005a130       ___intel_proc_init_ftzdaz  0045b130 f   libirc:proc_init.obj
 0002:00000010       B2.EH                      0046a010 f   BlockParser.obj
 0002:0000008e       B1.EH                      0046a08e f   ConverterDriver.obj
 0002:000000ba       B2.EH                      0046a0ba f   ConverterDriver.obj
 0002:000000e6       B3.EH                      0046a0e6 f   FileParser.obj
 0002:00000100       B146.EH                    0046a100 f   FileParser.obj
 0002:0000011a       B147.EH                    0046a11a f   FileParser.obj
 0002:00000134       B149.EH                    0046a134 f   FileParser.obj
 0002:0000014e       B150.EH                    0046a14e f   FileParser.obj
 0002:0000036e       B151.EH                    0046a36e f   FileParser.obj
 0002:00000388       B153.EH                    0046a388 f   FileParser.obj
 0002:000003a2       B154.EH                    0046a3a2 f   FileParser.obj
 0002:000003bc       B155.EH                    0046a3bc f   FileParser.obj
 0002:000003d6       B156.EH                    0046a3d6 f   FileParser.obj
 0002:00000680       B157.EH                    0046a680 f   FileParser.obj
 0002:0000069a       B160.EH                    0046a69a f   FileParser.obj
 0002:0000070a       B5.EH                      0046a70a f   FileParser.obj
 0002:00000724       B6.EH                      0046a724 f   FileParser.obj
 0002:00000796       B8.EH                      0046a796 f   FileParser.obj
 0002:000007b0       B11.EH                     0046a7b0 f   FileParser.obj
 0002:000007cc       B12.EH                     0046a7cc f   FileParser.obj
 0002:000007e8       B14.EH                     0046a7e8 f   FileParser.obj
 0002:00000836       B15.EH                     0046a836 f   FileParser.obj
 0002:00000850       B16.EH                     0046a850 f   FileParser.obj
 0002:0000086c       B18.EH                     0046a86c f   FileParser.obj
 0002:0000088a       B21.EH                     0046a88a f   FileParser.obj
 0002:000008b6       B22.EH                     0046a8b6 f   FileParser.obj
 0002:000008e2       B23.EH                     0046a8e2 f   FileParser.obj
 0002:0000090e       B24.EH                     0046a90e f   FileParser.obj
 0002:0000093a       B25.EH                     0046a93a f   FileParser.obj
 0002:00000a0e       B26.EH                     0046aa0e f   FileParser.obj
 0002:00000a2a       B28.EH                     0046aa2a f   FileParser.obj
 0002:00000a44       B29.EH                     0046aa44 f   FileParser.obj
 0002:00000a60       B30.EH                     0046aa60 f   FileParser.obj
 0002:00000a7c       B31.EH                     0046aa7c f   FileParser.obj
 0002:00000a98       B32.EH                     0046aa98 f   FileParser.obj
 0002:00000ab4       B33.EH                     0046aab4 f   FileParser.obj
 0002:00000ad0       B34.EH                     0046aad0 f   FileParser.obj
 0002:00000ba6       B36.EH                     0046aba6 f   FileParser.obj
 0002:00000bc0       B37.EH                     0046abc0 f   FileParser.obj
 0002:00000bdc       B38.EH                     0046abdc f   FileParser.obj
 0002:00000bf8       B39.EH                     0046abf8 f   FileParser.obj
 0002:00000c14       B40.EH                     0046ac14 f   FileParser.obj
 0002:00000c30       B41.EH                     0046ac30 f   FileParser.obj
 0002:00000c4c       B42.EH                     0046ac4c f   FileParser.obj
 0002:00000c68       B43.EH                     0046ac68 f   FileParser.obj
 0002:00000c84       B44.EH                     0046ac84 f   FileParser.obj
 0002:00000ca0       B45.EH                     0046aca0 f   FileParser.obj
 0002:00000cbc       B46.EH                     0046acbc f   FileParser.obj
 0002:00000cd8       B47.EH                     0046acd8 f   FileParser.obj
 0002:00000cf4       B48.EH                     0046acf4 f   FileParser.obj
 0002:00000d10       B52.EH                     0046ad10 f   FileParser.obj
 0002:00000d34       B54.EH                     0046ad34 f   FileParser.obj
 0002:00000d50       B55.EH                     0046ad50 f   FileParser.obj
 0002:00000d74       B57.EH                     0046ad74 f   FileParser.obj
 0002:00000da8       B59.EH                     0046ada8 f   FileParser.obj
 0002:00000dd2       B60.EH                     0046add2 f   FileParser.obj
 0002:00000df4       B62.EH                     0046adf4 f   FileParser.obj
 0002:00000e18       B65.EH                     0046ae18 f   FileParser.obj
 0002:00000e64       B68.EH                     0046ae64 f   FileParser.obj
 0002:00000e8e       B69.EH                     0046ae8e f   FileParser.obj
 0002:00000eb0       B71.EH                     0046aeb0 f   FileParser.obj
 0002:00000ecc       B74.EH                     0046aecc f   FileParser.obj
 0002:00000ef0       B76.EH                     0046aef0 f   FileParser.obj
 0002:00000f0c       B77.EH                     0046af0c f   FileParser.obj
 0002:00000f30       B79.EH                     0046af30 f   FileParser.obj
 0002:00000f6c       B81.EH                     0046af6c f   FileParser.obj
 0002:00000fba       B82.EH                     0046afba f   FileParser.obj
 0002:0000100c       B90.EH                     0046b00c f   FileParser.obj
 0002:00001030       B93.EH                     0046b030 f   FileParser.obj
 0002:0000105e       B97.EH                     0046b05e f   FileParser.obj
 0002:0000108a       B99.EH                     0046b08a f   FileParser.obj
 0002:000010b6       B101.EH                    0046b0b6 f   FileParser.obj
 0002:000010e2       B103.EH                    0046b0e2 f   FileParser.obj
 0002:00001104       B111.EH                    0046b104 f   FileParser.obj
 0002:00001128       B114.EH                    0046b128 f   FileParser.obj
 0002:0000114c       B117.EH                    0046b14c f   FileParser.obj
 0002:00001170       B120.EH                    0046b170 f   FileParser.obj
 0002:00001194       B123.EH                    0046b194 f   FileParser.obj
 0002:000011b8       B126.EH                    0046b1b8 f   FileParser.obj
 0002:000011dc       B129.EH                    0046b1dc f   FileParser.obj
 0002:00001200       B132.EH                    0046b200 f   FileParser.obj
 0002:00001224       B135.EH                    0046b224 f   FileParser.obj
 0002:00001248       B138.EH                    0046b248 f   FileParser.obj
 0002:0000129a       B141.EH                    0046b29a f   FileParser.obj
 0002:000012fc       B152.EH                    0046b2fc f   FileParser.obj
 0002:0000134e       B158.EH                    0046b34e f   FileParser.obj
 0002:000014ea       B159.EH                    0046b4ea f   FileParser.obj
 0002:00001588       B20.EH                     0046b588 f   FileReferenceConverter.obj
 0002:000015a6       B2.EH                      0046b5a6 f   FileReferenceConverter.obj
 0002:000015c0       B4.EH                      0046b5c0 f   FileReferenceConverter.obj
 0002:000015de       B8.EH                      0046b5de f   FileReferenceConverter.obj
 0002:00001600       B10.EH                     0046b600 f   FileReferenceConverter.obj
 0002:0000161e       B11.EH                     0046b61e f   FileReferenceConverter.obj
 0002:00001640       B13.EH                     0046b640 f   FileReferenceConverter.obj
 0002:0000165e       B15.EH                     0046b65e f   FileReferenceConverter.obj
 0002:0000167a       B16.EH                     0046b67a f   FileReferenceConverter.obj
 0002:00001694       B23.EH                     0046b694 f   FileReferenceConverter.obj
 0002:000016b0       B4.EH                      0046b6b0 f   FileReferenceParser.obj
 0002:000016ca       B18.EH                     0046b6ca f   FileReferenceParser.obj
 0002:00001756       B19.EH                     0046b756 f   FileReferenceParser.obj
 0002:00001770       B23.EH                     0046b770 f   FileReferenceParser.obj
 0002:00001798       B24.EH                     0046b798 f   FileReferenceParser.obj
 0002:000017c6       B5.EH                      0046b7c6 f   FileReferenceParser.obj
 0002:000017f2       B22.EH                     0046b7f2 f   FileReferenceParser.obj
 0002:00001820       B2.EH                      0046b820 f   FileScanner.obj
 0002:0000183c       B3.EH                      0046b83c f   FileScanner.obj
 0002:00001856       B5.EH                      0046b856 f   FileScanner.obj
 0002:00001870       B12.EH                     0046b870 f   FileScanner.obj
 0002:0000188a       B18.EH                     0046b88a f   FileScanner.obj
 0002:000018a4       B29.EH                     0046b8a4 f   FileScanner.obj
 0002:000018c0       B2.EH                      0046b8c0 f   LineSetConverter.obj
 0002:00001906       B4.EH                      0046b906 f   LineSetConverter.obj
 0002:00001920       B3.EH                      0046b920 f   LineSetResourceParser.obj
 0002:0000193a       B7.EH                      0046b93a f   LineSetResourceParser.obj
 0002:00001954       B3.EH                      0046b954 f   MaterialParser.obj
 0002:0000196e       B6.EH                      0046b96e f   MaterialParser.obj
 0002:00001988       B2.EH                      0046b988 f   MeshConverter.obj
 0002:000019de       B4.EH                      0046b9de f   MeshConverter.obj
 0002:000019f8       B3.EH                      0046b9f8 f   MeshResourceParser.obj
 0002:00001a12       B7.EH                      0046ba12 f   MeshResourceParser.obj
 0002:00001a2c       B4.EH                      0046ba2c f   MetaDataParser.obj
 0002:00001a64       B5.EH                      0046ba64 f   MetaDataParser.obj
 0002:00001ac4       B15.EH                     0046bac4 f   ModelConverter.obj
 0002:00001b82       B17.EH                     0046bb82 f   ModelConverter.obj
 0002:00001bae       B16.EH                     0046bbae f   ModelConverter.obj
 0002:00001bc8       B7.EH                      0046bbc8 f   ModelResourceParser.obj
 0002:00001c12       B19.EH                     0046bc12 f   ModelResourceParser.obj
 0002:00001c80       B24.EH                     0046bc80 f   ModelResourceParser.obj
 0002:00001c9a       B28.EH                     0046bc9a f   ModelResourceParser.obj
 0002:00001cb4       B30.EH                     0046bcb4 f   ModelResourceParser.obj
 0002:00001cce       B32.EH                     0046bcce f   ModelResourceParser.obj
 0002:00001ce8       B33.EH                     0046bce8 f   ModelResourceParser.obj
 0002:00001d04       B9.EH                      0046bd04 f   ModelResourceParser.obj
 0002:00001d20       B20.EH                     0046bd20 f   ModelResourceParser.obj
 0002:00001d4e       B22.EH                     0046bd4e f   ModelResourceParser.obj
 0002:00001d9e       B27.EH                     0046bd9e f   ModelResourceParser.obj
 0002:00001dde       B8.EH                      0046bdde f   ModifierConverter.obj
 0002:00001e16       B11.EH                     0046be16 f   ModifierConverter.obj
 0002:00001e4e       B13.EH                     0046be4e f   ModifierConverter.obj
 0002:00001eb6       B15.EH                     0046beb6 f   ModifierConverter.obj
 0002:00001f0c       B20.EH                     0046bf0c f   ModifierConverter.obj
 0002:00001f44       B24.EH                     0046bf44 f   ModifierConverter.obj
 0002:00001f60       B4.EH                      0046bf60 f   ModifierParser.obj
 0002:00001f7a       B30.EH                     0046bf7a f   ModifierParser.obj
 0002:00001f94       B31.EH                     0046bf94 f   ModifierParser.obj
 0002:00001fbc       B32.EH                     0046bfbc f   ModifierParser.obj
 0002:00002134       B33.EH                     0046c134 f   ModifierParser.obj
 0002:00002174       B39.EH                     0046c174 f   ModifierParser.obj
 0002:000021a4       B40.EH                     0046c1a4 f   ModifierParser.obj
 0002:00002244       B41.EH                     0046c244 f   ModifierParser.obj
 0002:00002338       B45.EH                     0046c338 f   ModifierParser.obj
 0002:000023fa       B47.EH                     0046c3fa f   ModifierParser.obj
 0002:00002414       B48.EH                     0046c414 f   ModifierParser.obj
 0002:0000244e       B8.EH                      0046c44e f   NodeConverter.obj
 0002:00002468       B9.EH                      0046c468 f   NodeConverter.obj
 0002:00002482       B11.EH                     0046c482 f   NodeConverter.obj
 0002:000024fc       B12.EH                     0046c4fc f   NodeConverter.obj
 0002:00002516       B15.EH                     0046c516 f   NodeConverter.obj
 0002:00002530       B17.EH                     0046c530 f   NodeConverter.obj
 0002:0000254c       B4.EH                      0046c54c f   NodeParser.obj
 0002:00002566       B20.EH                     0046c566 f   NodeParser.obj
 0002:0000259e       B21.EH                     0046c59e f   NodeParser.obj
 0002:000025cc       B22.EH                     0046c5cc f   NodeParser.obj
 0002:000025e6       B23.EH                     0046c5e6 f   NodeParser.obj
 0002:00002600       B26.EH                     0046c600 f   NodeParser.obj
 0002:00002742       B27.EH                     0046c742 f   NodeParser.obj
 0002:0000275c       B28.EH                     0046c75c f   NodeParser.obj
 0002:0000277a       B24.EH                     0046c77a f   NodeParser.obj
 0002:00002794       B2.EH                      0046c794 f   PointSetConverter.obj
 0002:000027da       B4.EH                      0046c7da f   PointSetConverter.obj
 0002:000027f4       B2.EH                      0046c7f4 f   PointSetResourceParser.obj
 0002:0000283c       B8.EH                      0046c83c f   ResourceConverter.obj
 0002:00002874       B12.EH                     0046c874 f   ResourceConverter.obj
 0002:000028ac       B14.EH                     0046c8ac f   ResourceConverter.obj
 0002:000028ce       B15.EH                     0046c8ce f   ResourceConverter.obj
 0002:000028e8       B17.EH                     0046c8e8 f   ResourceConverter.obj
 0002:00002920       B19.EH                     0046c920 f   ResourceConverter.obj
 0002:0000295e       B21.EH                     0046c95e f   ResourceConverter.obj
 0002:00002996       B24.EH                     0046c996 f   ResourceConverter.obj
 0002:000029b0       B25.EH                     0046c9b0 f   ResourceConverter.obj
 0002:000029de       B5.EH                      0046c9de f   ResourceListParser.obj
 0002:00002a0a       B126.EH                    0046ca0a f   ResourceListParser.obj
 0002:00002ad8       B129.EH                    0046cad8 f   ResourceListParser.obj
 0002:00002b96       B132.EH                    0046cb96 f   ResourceListParser.obj
 0002:00002bb0       B135.EH                    0046cbb0 f   ResourceListParser.obj
 0002:00002daa       B136.EH                    0046cdaa f   ResourceListParser.obj
 0002:00002fa4       B141.EH                    0046cfa4 f   ResourceListParser.obj
 0002:0000319e       B145.EH                    0046d19e f   ResourceListParser.obj
 0002:0000332e       B149.EH                    0046d32e f   ResourceListParser.obj
 0002:00003420       B152.EH                    0046d420 f   ResourceListParser.obj
 0002:0000353e       B156.EH                    0046d53e f   ResourceListParser.obj
 0002:000036c0       B166.EH                    0046d6c0 f   ResourceListParser.obj
 0002:000036ee       B3.EH                      0046d6ee f   ResourceListParser.obj
 0002:0000374a       B6.EH                      0046d74a f   ResourceListParser.obj
 0002:000037ba       B9.EH                      0046d7ba f   ResourceListParser.obj
 0002:0000381e       B16.EH                     0046d81e f   ResourceListParser.obj
 0002:000038e6       B17.EH                     0046d8e6 f   ResourceListParser.obj
 0002:000039de       B18.EH                     0046d9de f   ResourceListParser.obj
 0002:00003a88       B20.EH                     0046da88 f   ResourceListParser.obj
 0002:00003b0a       B21.EH                     0046db0a f   ResourceListParser.obj
 0002:00003b66       B22.EH                     0046db66 f   ResourceListParser.obj
 0002:00003b80       B25.EH                     0046db80 f   ResourceListParser.obj
 0002:00003b9c       B26.EH                     0046db9c f   ResourceListParser.obj
 0002:00003bb8       B27.EH                     0046dbb8 f   ResourceListParser.obj
 0002:00003bd4       B28.EH                     0046dbd4 f   ResourceListParser.obj
 0002:00003bf0       B29.EH                     0046dbf0 f   ResourceListParser.obj
 0002:00003c0c       B30.EH                     0046dc0c f   ResourceListParser.obj
 0002:00003c28       B31.EH                     0046dc28 f   ResourceListParser.obj
 0002:00003c44       B32.EH                     0046dc44 f   ResourceListParser.obj
 0002:00003c60       B33.EH                     0046dc60 f   ResourceListParser.obj
 0002:00003c94       B52.EH                     0046dc94 f   ResourceListParser.obj
 0002:00003cbe       B53.EH                     0046dcbe f   ResourceListParser.obj
 0002:00003ce0       B55.EH                     0046dce0 f   ResourceListParser.obj
 0002:00003d04       B58.EH                     0046dd04 f   ResourceListParser.obj
 0002:00003d50       B61.EH                     0046dd50 f   ResourceListParser.obj
 0002:00003d7a       B62.EH                     0046dd7a f   ResourceListParser.obj
 0002:00003d9c       B64.EH                     0046dd9c f   ResourceListParser.obj
 0002:00003dd0       B68.EH                     0046ddd0 f   ResourceListParser.obj
 0002:00003dfa       B69.EH                     0046ddfa f   ResourceListParser.obj
 0002:00003e1c       B71.EH                     0046de1c f   ResourceListParser.obj
 0002:00003e40       B74.EH                     0046de40 f   ResourceListParser.obj
 0002:00003e8c       B77.EH                     0046de8c f   ResourceListParser.obj
 0002:00003eb6       B78.EH                     0046deb6 f   ResourceListParser.obj
 0002:00003ed8       B80.EH                     0046ded8 f   ResourceListParser.obj
 0002:00003ef4       B82.EH                     0046def4 f   ResourceListParser.obj
 0002:00003f1e       B83.EH                     0046df1e f   ResourceListParser.obj
 0002:00003f50       B85.EH                     0046df50 f   ResourceListParser.obj
 0002:00003f7a       B86.EH                     0046df7a f   ResourceListParser.obj
 0002:00003f9c       B88.EH                     0046df9c f   ResourceListParser.obj
 0002:00003ff0       B90.EH                     0046dff0 f   ResourceListParser.obj
 0002:00004056       B91.EH                     0046e056 f   ResourceListParser.obj
 0002:000040c0       B93.EH                     0046e0c0 f   ResourceListParser.obj
 0002:000040e4       B96.EH                     0046e0e4 f   ResourceListParser.obj
 0002:00004184       B98.EH                     0046e184 f   ResourceListParser.obj
 0002:00004230       B99.EH                     0046e230 f   ResourceListParser.obj
 0002:000042e8       B101.EH                    0046e2e8 f   ResourceListParser.obj
 0002:0000430c       B104.EH                    0046e30c f   ResourceListParser.obj
 0002:0000434e       B107.EH                    0046e34e f   ResourceListParser.obj
 0002:00004370       B109.EH                    0046e370 f   ResourceListParser.obj
 0002:00004394       B112.EH                    0046e394 f   ResourceListParser.obj
 0002:000043ee       B115.EH                    0046e3ee f   ResourceListParser.obj
 0002:00004428       B116.EH                    0046e428 f   ResourceListParser.obj
 0002:0000444c       B118.EH                    0046e44c f   ResourceListParser.obj
 0002:0000447a       B130.EH                    0046e47a f   ResourceListParser.obj
 0002:000044ea       B131.EH                    0046e4ea f   ResourceListParser.obj
 0002:00004546       B134.EH                    0046e546 f   ResourceListParser.obj
 0002:00004560       B138.EH                    0046e560 f   ResourceListParser.obj
 0002:0000457c       B139.EH                    0046e57c f   ResourceListParser.obj
 0002:00004670       B140.EH                    0046e670 f   ResourceListParser.obj
 0002:0000468c       B143.EH                    0046e68c f   ResourceListParser.obj
 0002:00004780       B144.EH                    0046e780 f   ResourceListParser.obj
 0002:0000479c       B146.EH                    0046e79c f   ResourceListParser.obj
 0002:000047b8       B147.EH                    0046e7b8 f   ResourceListParser.obj
 0002:000048ac       B148.EH                    0046e8ac f   ResourceListParser.obj
 0002:000049a6       B151.EH                    0046e9a6 f   ResourceListParser.obj
 0002:000049c0       B153.EH                    0046e9c0 f   ResourceListParser.obj
 0002:00004a42       B155.EH                    0046ea42 f   ResourceListParser.obj
 0002:00004a5c       B158.EH                    0046ea5c f   ResourceListParser.obj
 0002:00004a78       B159.EH                    0046ea78 f   ResourceListParser.obj
 0002:00004ad6       B161.EH                    0046ead6 f   ResourceListParser.obj
 0002:00004b10       B162.EH                    0046eb10 f   ResourceListParser.obj
 0002:00004bda       B164.EH                    0046ebda f   ResourceListParser.obj
 0002:00004bf4       B165.EH                    0046ebf4 f   ResourceListParser.obj
 0002:00004c3c       B4.EH                      0046ec3c f   SceneConverter.obj
 0002:00004c82       B8.EH                      0046ec82 f   SceneConverter.obj
 0002:00004c9c       B10.EH                     0046ec9c f   SceneConverter.obj
 0002:00004cf4       B11.EH                     0046ecf4 f   SceneConverter.obj
 0002:00004d20       B15.EH                     0046ed20 f   SceneConverter.obj
 0002:00004d58       B16.EH                     0046ed58 f   SceneConverter.obj
 0002:00004d86       B5.EH                      0046ed86 f   SceneConverter.obj
 0002:00004db2       B13.EH                     0046edb2 f   SceneConverter.obj
 0002:00004dcc       B2.EH                      0046edcc f   ShaderParser.obj
 0002:00004e88       B5.EH                      0046ee88 f   ShaderParser.obj
 0002:00004f40       B20.EH                     0046ef40 f   TextureConverter.obj
 0002:00004f8a       B23.EH                     0046ef8a f   TextureConverter.obj
 0002:00004fa4       B1.EH                      0046efa4 f   TextureConverter.obj
 0002:00004fc0       B8.EH                      0046efc0 f   TextureConverter.obj
 0002:00004fdc       B17.EH                     0046efdc f   TextureConverter.obj
 0002:00005014       B22.EH                     0046f014 f   TextureConverter.obj
 0002:00005030       B4.EH                      0046f030 f   TextureParser.obj
 0002:0000504a       B19.EH                     0046f04a f   TextureParser.obj
 0002:000051d2       B20.EH                     0046f1d2 f   TextureParser.obj
 0002:00005360       B21.EH                     0046f360 f   TextureParser.obj
 0002:0000537c       B3.EH                      0046f37c f   UrlListParser.obj
 0002:00005396       B6.EH                      0046f396 f   UrlListParser.obj
 0002:000053b0       B7.EH                      0046f3b0 f   UrlListParser.obj
 0002:000053da       B4.EH                      0046f3da f   IFXCoreStatic:IFXOSLoader.obj
 0002:00005406       B3.EH                      0046f406 f   IDTFCommon:ParentList.obj
 0002:00005438       B18.EH                     0046f438 f   IDTFCommon:ParentList.obj
 0002:00005454       B5.EH                      0046f454 f   IDTFCommon:ParentList.obj
 0002:00005470       B6.EH                      0046f470 f   IDTFCommon:ParentList.obj
 0002:00005494       B12.EH                     0046f494 f   IDTFCommon:ParentList.obj
 0002:000054b8       B15.EH                     0046f4b8 f   IDTFCommon:ParentList.obj
 0002:000054d6       B17.EH                     0046f4d6 f   IDTFCommon:ParentList.obj
 0002:00005526       B4.EH                      0046f526 f   IDTFCommon:MetaDataList.obj
 0002:00005542       B6.EH                      0046f542 f   IDTFCommon:MetaDataList.obj
 0002:0000556e       B8.EH                      0046f56e f   IDTFCommon:MetaDataList.obj
 0002:000055ac       B16.EH                     0046f5ac f   IDTFCommon:MetaDataList.obj
 0002:000055de       B33.EH                     0046f5de f   IDTFCommon:MetaDataList.obj
 0002:000055f8       B10.EH                     0046f5f8 f   IDTFCommon:MetaDataList.obj
 0002:00005614       B11.EH                     0046f614 f   IDTFCommon:MetaDataList.obj
 0002:00005638       B15.EH                     0046f638 f   IDTFCommon:MetaDataList.obj
 0002:0000565c       B20.EH                     0046f65c f   IDTFCommon:MetaDataList.obj
 0002:0000570e       B10.EH                     0046f70e f   IDTFCommon:NodeList.obj
 0002:0000580c       B72.EH                     0046f80c f   IDTFCommon:NodeList.obj
 0002:00005870       B2.EH                      0046f870 f   IDTFCommon:NodeList.obj
 0002:000058e2       B3.EH                      0046f8e2 f   IDTFCommon:NodeList.obj
 0002:000059ca       B6.EH                      0046f9ca f   IDTFCommon:NodeList.obj
 0002:00005a4c       B8.EH                      0046fa4c f   IDTFCommon:NodeList.obj
 0002:00005a68       B13.EH                     0046fa68 f   IDTFCommon:NodeList.obj
 0002:00005a84       B14.EH                     0046fa84 f   IDTFCommon:NodeList.obj
 0002:00005aa0       B15.EH                     0046faa0 f   IDTFCommon:NodeList.obj
 0002:00005abc       B16.EH                     0046fabc f   IDTFCommon:NodeList.obj
 0002:00005ad8       B17.EH                     0046fad8 f   IDTFCommon:NodeList.obj
 0002:00005af4       B19.EH                     0046faf4 f   IDTFCommon:NodeList.obj
 0002:00005b10       B20.EH                     0046fb10 f   IDTFCommon:NodeList.obj
 0002:00005b2c       B21.EH                     0046fb2c f   IDTFCommon:NodeList.obj
 0002:00005b48       B22.EH                     0046fb48 f   IDTFCommon:NodeList.obj
 0002:00005b64       B23.EH                     0046fb64 f   IDTFCommon:NodeList.obj
 0002:00005bb6       B26.EH                     0046fbb6 f   IDTFCommon:NodeList.obj
 0002:00005c06       B27.EH                     0046fc06 f   IDTFCommon:NodeList.obj
 0002:00005c76       B28.EH                     0046fc76 f   IDTFCommon:NodeList.obj
 0002:00005d58       B37.EH                     0046fd58 f   IDTFCommon:NodeList.obj
 0002:00005e42       B38.EH                     0046fe42 f   IDTFCommon:NodeList.obj
 0002:00005ea0       B39.EH                     0046fea0 f   IDTFCommon:NodeList.obj
 0002:00005f24       B40.EH                     0046ff24 f   IDTFCommon:NodeList.obj
 0002:00005f8e       B48.EH                     0046ff8e f   IDTFCommon:NodeList.obj
 0002:00005fb0       B51.EH                     0046ffb0 f   IDTFCommon:NodeList.obj
 0002:000060ac       B54.EH                     004700ac f   IDTFCommon:NodeList.obj
 0002:000060d0       B57.EH                     004700d0 f   IDTFCommon:NodeList.obj
 0002:00006148       B60.EH                     00470148 f   IDTFCommon:NodeList.obj
 0002:0000616c       B63.EH                     0047016c f   IDTFCommon:NodeList.obj
 0002:000061d6       B66.EH                     004701d6 f   IDTFCommon:NodeList.obj
 0002:000061f8       B69.EH                     004701f8 f   IDTFCommon:NodeList.obj
 0002:0000637e       B31.EH                     0047037e f   IDTFCommon:SceneResources.obj
 0002:000064d6       B146.EH                    004704d6 f   IDTFCommon:SceneResources.obj
 0002:00006510       B5.EH                      00470510 f   IDTFCommon:SceneResources.obj
 0002:0000652c       B6.EH                      0047052c f   IDTFCommon:SceneResources.obj
 0002:00006568       B7.EH                      00470568 f   IDTFCommon:SceneResources.obj
 0002:00006584       B8.EH                      00470584 f   IDTFCommon:SceneResources.obj
 0002:000065c0       B17.EH                     004705c0 f   IDTFCommon:SceneResources.obj
 0002:000065dc       B18.EH                     004705dc f   IDTFCommon:SceneResources.obj
 0002:00006618       B21.EH                     00470618 f   IDTFCommon:SceneResources.obj
 0002:00006634       B22.EH                     00470634 f   IDTFCommon:SceneResources.obj
 0002:00006670       B28.EH                     00470670 f   IDTFCommon:SceneResources.obj
 0002:0000668c       B29.EH                     0047068c f   IDTFCommon:SceneResources.obj
 0002:000066c8       B32.EH                     004706c8 f   IDTFCommon:SceneResources.obj
 0002:000066e4       B33.EH                     004706e4 f   IDTFCommon:SceneResources.obj
 0002:00006720       B38.EH                     00470720 f   IDTFCommon:SceneResources.obj
 0002:0000675c       B39.EH                     0047075c f   IDTFCommon:SceneResources.obj
 0002:00006798       B40.EH                     00470798 f   IDTFCommon:SceneResources.obj
 0002:000067d4       B41.EH                     004707d4 f   IDTFCommon:SceneResources.obj
 0002:000067f0       B42.EH                     004707f0 f   IDTFCommon:SceneResources.obj
 0002:0000680c       B44.EH                     0047080c f   IDTFCommon:SceneResources.obj
 0002:00006828       B46.EH                     00470828 f   IDTFCommon:SceneResources.obj
 0002:00006844       B49.EH                     00470844 f   IDTFCommon:SceneResources.obj
 0002:00006860       B50.EH                     00470860 f   IDTFCommon:SceneResources.obj
 0002:0000687c       B52.EH                     0047087c f   IDTFCommon:SceneResources.obj
 0002:000068a6       B55.EH                     004708a6 f   IDTFCommon:SceneResources.obj
 0002:000068e6       B58.EH                     004708e6 f   IDTFCommon:SceneResources.obj
 0002:00006908       B61.EH                     00470908 f   IDTFCommon:SceneResources.obj
 0002:0000695a       B63.EH                     0047095a f   IDTFCommon:SceneResources.obj
 0002:000069c2       B72.EH                     004709c2 f   IDTFCommon:SceneResources.obj
 0002:000069e4       B75.EH                     004709e4 f   IDTFCommon:SceneResources.obj
 0002:00006aa2       B79.EH                     00470aa2 f   IDTFCommon:SceneResources.obj
 0002:00006b76       B88.EH                     00470b76 f   IDTFCommon:SceneResources.obj
 0002:00006b98       B91.EH                     00470b98 f   IDTFCommon:SceneResources.obj
 0002:00006bea       B103.EH                    00470bea f   IDTFCommon:SceneResources.obj
 0002:00006c52       B112.EH                    00470c52 f   IDTFCommon:SceneResources.obj
 0002:00006c74       B115.EH                    00470c74 f   IDTFCommon:SceneResources.obj
 0002:00006cf8       B117.EH                    00470cf8 f   IDTFCommon:SceneResources.obj
 0002:00006d94       B120.EH                    00470d94 f   IDTFCommon:SceneResources.obj
 0002:00006db8       B123.EH                    00470db8 f   IDTFCommon:SceneResources.obj
 0002:00006e2e       B127.EH                    00470e2e f   IDTFCommon:SceneResources.obj
 0002:00006eba       B136.EH                    00470eba f   IDTFCommon:SceneResources.obj
 0002:00006edc       B139.EH                    00470edc f   IDTFCommon:SceneResources.obj
 0002:00006f1e       B147.EH                    00470f1e f   IDTFCommon:SceneResources.obj
 0002:00006f5e       B148.EH                    00470f5e f   IDTFCommon:SceneResources.obj
 0002:00006f98       B157.EH                    00470f98 f   IDTFCommon:SceneResources.obj
 0002:00006fd4       B158.EH                    00470fd4 f   IDTFCommon:SceneResources.obj
 0002:00006ff2       B2.EH                      00470ff2 f   IDTFCommon:ResourceList.obj
 0002:000070da       B30.EH                     004710da f   IDTFCommon:ModifierList.obj
 0002:000071f0       B197.EH                    004711f0 f   IDTFCommon:ModifierList.obj
 0002:00007272       B3.EH                      00471272 f   IDTFCommon:ModifierList.obj
 0002:000072f2       B6.EH                      004712f2 f   IDTFCommon:ModifierList.obj
 0002:00007384       B10.EH                     00471384 f   IDTFCommon:ModifierList.obj
 0002:000073f6       B12.EH                     004713f6 f   IDTFCommon:ModifierList.obj
 0002:00007478       B13.EH                     00471478 f   IDTFCommon:ModifierList.obj
 0002:000075d8       B27.EH                     004715d8 f   IDTFCommon:ModifierList.obj
 0002:000075f4       B31.EH                     004715f4 f   IDTFCommon:ModifierList.obj
 0002:00007610       B33.EH                     00471610 f   IDTFCommon:ModifierList.obj
 0002:0000762c       B34.EH                     0047162c f   IDTFCommon:ModifierList.obj
 0002:00007648       B35.EH                     00471648 f   IDTFCommon:ModifierList.obj
 0002:00007664       B36.EH                     00471664 f   IDTFCommon:ModifierList.obj
 0002:00007680       B37.EH                     00471680 f   IDTFCommon:ModifierList.obj
 0002:0000769c       B38.EH                     0047169c f   IDTFCommon:ModifierList.obj
 0002:000076b8       B50.EH                     004716b8 f   IDTFCommon:ModifierList.obj
 0002:000076d4       B51.EH                     004716d4 f   IDTFCommon:ModifierList.obj
 0002:000076f0       B52.EH                     004716f0 f   IDTFCommon:ModifierList.obj
 0002:0000770c       B53.EH                     0047170c f   IDTFCommon:ModifierList.obj
 0002:00007728       B54.EH                     00471728 f   IDTFCommon:ModifierList.obj
 0002:00007744       B55.EH                     00471744 f   IDTFCommon:ModifierList.obj
 0002:00007760       B56.EH                     00471760 f   IDTFCommon:ModifierList.obj
 0002:000077d6       B67.EH                     004717d6 f   IDTFCommon:ModifierList.obj
 0002:00007856       B68.EH                     00471856 f   IDTFCommon:ModifierList.obj
 0002:000078ca       B77.EH                     004718ca f   IDTFCommon:ModifierList.obj
 0002:0000794a       B78.EH                     0047194a f   IDTFCommon:ModifierList.obj
 0002:000079d0       B93.EH                     004719d0 f   IDTFCommon:ModifierList.obj
 0002:00007a64       B94.EH                     00471a64 f   IDTFCommon:ModifierList.obj
 0002:00007ab2       B101.EH                    00471ab2 f   IDTFCommon:ModifierList.obj
 0002:00007b22       B102.EH                    00471b22 f   IDTFCommon:ModifierList.obj
 0002:00007b80       B103.EH                    00471b80 f   IDTFCommon:ModifierList.obj
 0002:00007c04       B104.EH                    00471c04 f   IDTFCommon:ModifierList.obj
 0002:00007d64       B151.EH                    00471d64 f   IDTFCommon:ModifierList.obj
 0002:00007df2       B159.EH                    00471df2 f   IDTFCommon:ModifierList.obj
 0002:00007e14       B162.EH                    00471e14 f   IDTFCommon:ModifierList.obj
 0002:00007ea2       B165.EH                    00471ea2 f   IDTFCommon:ModifierList.obj
 0002:00007ec4       B168.EH                    00471ec4 f   IDTFCommon:ModifierList.obj
 0002:00007f64       B171.EH                    00471f64 f   IDTFCommon:ModifierList.obj
 0002:00007f88       B174.EH                    00471f88 f   IDTFCommon:ModifierList.obj
 0002:00007fee       B177.EH                    00471fee f   IDTFCommon:ModifierList.obj
 0002:00008010       B180.EH                    00472010 f   IDTFCommon:ModifierList.obj
 0002:00008088       B183.EH                    00472088 f   IDTFCommon:ModifierList.obj
 0002:000080ac       B186.EH                    004720ac f   IDTFCommon:ModifierList.obj
 0002:00008268       B189.EH                    00472268 f   IDTFCommon:ModifierList.obj
 0002:0000828c       B192.EH                    0047228c f   IDTFCommon:ModifierList.obj
 0002:000082a8       B199.EH                    004722a8 f   IDTFCommon:ModifierList.obj
 0002:000082dc       B200.EH                    004722dc f   IDTFCommon:ModifierList.obj
 0002:00008310       B201.EH                    00472310 f   IDTFCommon:ModifierList.obj
 0002:00008340       B3.EH                      00472340 f   IDTFCommon:FileReference.obj
 0002:000083d4       B5.EH                      004723d4 f   IDTFCommon:FileReference.obj
 0002:000083f0       B22.EH                     004723f0 f   IDTFCommon:FileReference.obj
 0002:00008490       B33.EH                     00472490 f   IDTFCommon:FileReference.obj
 0002:000084b8       B38.EH                     004724b8 f   IDTFCommon:FileReference.obj
 0002:000084d4       B9.EH                      004724d4 f   IDTFCommon:FileReference.obj
 0002:000084f0       B11.EH                     004724f0 f   IDTFCommon:FileReference.obj
 0002:00008514       B21.EH                     00472514 f   IDTFCommon:FileReference.obj
 0002:00008538       B25.EH                     00472538 f   IDTFCommon:FileReference.obj
 0002:000086d6       B10.EH                     004726d6 f   IDTFCommon:ModelResource.obj
 0002:000088f4       B82.EH                     004728f4 f   IDTFCommon:ModelResource.obj
 0002:00008922       B5.EH                      00472922 f   IDTFCommon:ModelResource.obj
 0002:0000893c       B6.EH                      0047293c f   IDTFCommon:ModelResource.obj
 0002:00008958       B12.EH                     00472958 f   IDTFCommon:ModelResource.obj
 0002:00008974       B13.EH                     00472974 f   IDTFCommon:ModelResource.obj
 0002:00008990       B14.EH                     00472990 f   IDTFCommon:ModelResource.obj
 0002:000089be       B18.EH                     004729be f   IDTFCommon:ModelResource.obj
 0002:000089d8       B19.EH                     004729d8 f   IDTFCommon:ModelResource.obj
 0002:00008a02       B21.EH                     00472a02 f   IDTFCommon:ModelResource.obj
 0002:00008a1c       B23.EH                     00472a1c f   IDTFCommon:ModelResource.obj
 0002:00008a38       B24.EH                     00472a38 f   IDTFCommon:ModelResource.obj
 0002:00008a54       B25.EH                     00472a54 f   IDTFCommon:ModelResource.obj
 0002:00008a70       B26.EH                     00472a70 f   IDTFCommon:ModelResource.obj
 0002:00008a8c       B27.EH                     00472a8c f   IDTFCommon:ModelResource.obj
 0002:00008aa8       B34.EH                     00472aa8 f   IDTFCommon:ModelResource.obj
 0002:00008adc       B43.EH                     00472adc f   IDTFCommon:ModelResource.obj
 0002:00008b0a       B44.EH                     00472b0a f   IDTFCommon:ModelResource.obj
 0002:00008b2c       B46.EH                     00472b2c f   IDTFCommon:ModelResource.obj
 0002:00008b48       B48.EH                     00472b48 f   IDTFCommon:ModelResource.obj
 0002:00008b7c       B51.EH                     00472b7c f   IDTFCommon:ModelResource.obj
 0002:00008bce       B52.EH                     00472bce f   IDTFCommon:ModelResource.obj
 0002:00008bf0       B54.EH                     00472bf0 f   IDTFCommon:ModelResource.obj
 0002:00008c14       B57.EH                     00472c14 f   IDTFCommon:ModelResource.obj
 0002:00008c38       B60.EH                     00472c38 f   IDTFCommon:ModelResource.obj
 0002:00008c5c       B63.EH                     00472c5c f   IDTFCommon:ModelResource.obj
 0002:00008c80       B66.EH                     00472c80 f   IDTFCommon:ModelResource.obj
 0002:00008ca4       B69.EH                     00472ca4 f   IDTFCommon:ModelResource.obj
 0002:00008cc8       B72.EH                     00472cc8 f   IDTFCommon:ModelResource.obj
 0002:00008d58       B13.EH                     00472d58 f   IDTFCommon:ModelResourceList.obj
 0002:00008e04       B110.EH                    00472e04 f   IDTFCommon:ModelResourceList.obj
 0002:00008ef8       B3.EH                      00472ef8 f   IDTFCommon:ModelResourceList.obj
 0002:00008fec       B7.EH                      00472fec f   IDTFCommon:ModelResourceList.obj
 0002:000090e0       B10.EH                     004730e0 f   IDTFCommon:ModelResourceList.obj
 0002:000090fc       B14.EH                     004730fc f   IDTFCommon:ModelResourceList.obj
 0002:00009118       B16.EH                     00473118 f   IDTFCommon:ModelResourceList.obj
 0002:00009134       B17.EH                     00473134 f   IDTFCommon:ModelResourceList.obj
 0002:00009150       B18.EH                     00473150 f   IDTFCommon:ModelResourceList.obj
 0002:0000916c       B25.EH                     0047316c f   IDTFCommon:ModelResourceList.obj
 0002:00009188       B26.EH                     00473188 f   IDTFCommon:ModelResourceList.obj
 0002:000091a4       B27.EH                     004731a4 f   IDTFCommon:ModelResourceList.obj
 0002:000091c0       B28.EH                     004731c0 f   IDTFCommon:ModelResourceList.obj
 0002:00009316       B47.EH                     00473316 f   IDTFCommon:ModelResourceList.obj
 0002:0000946a       B65.EH                     0047346a f   IDTFCommon:ModelResourceList.obj
 0002:0000955e       B75.EH                     0047355e f   IDTFCommon:ModelResourceList.obj
 0002:000096ce       B90.EH                     004736ce f   IDTFCommon:ModelResourceList.obj
 0002:000096f0       B93.EH                     004736f0 f   IDTFCommon:ModelResourceList.obj
 0002:00009862       B96.EH                     00473862 f   IDTFCommon:ModelResourceList.obj
 0002:00009884       B99.EH                     00473884 f   IDTFCommon:ModelResourceList.obj
 0002:00009992       B102.EH                    00473992 f   IDTFCommon:ModelResourceList.obj
 0002:000099b4       B105.EH                    004739b4 f   IDTFCommon:ModelResourceList.obj
 0002:000099e8       B112.EH                    004739e8 f   IDTFCommon:ModelResourceList.obj
 0002:00009a60       B3.EH                      00473a60 f   IDTFConverterHelpers:SceneUtilities.obj
 0002:00009ae6       B9.EH                      00473ae6 f   IDTFConverterHelpers:SceneUtilities.obj
 0002:00009b00       B12.EH                     00473b00 f   IDTFConverterHelpers:SceneUtilities.obj
 0002:00009b28       B13.EH                     00473b28 f   IDTFConverterHelpers:SceneUtilities.obj
 0002:00009b42       B15.EH                     00473b42 f   IDTFConverterHelpers:SceneUtilities.obj
 0002:00009b6a       B16.EH                     00473b6a f   IDTFConverterHelpers:SceneUtilities.obj
 0002:00009ba2       B18.EH                     00473ba2 f   IDTFConverterHelpers:SceneUtilities.obj
 0002:00009bca       B21.EH                     00473bca f   IDTFConverterHelpers:SceneUtilities.obj
 0002:00009bf2       B22.EH                     00473bf2 f   IDTFConverterHelpers:SceneUtilities.obj
 0002:00009c1a       B23.EH                     00473c1a f   IDTFConverterHelpers:SceneUtilities.obj
 0002:00009c34       B24.EH                     00473c34 f   IDTFConverterHelpers:SceneUtilities.obj
 0002:00009c4e       B25.EH                     00473c4e f   IDTFConverterHelpers:SceneUtilities.obj
 0002:00009c68       B26.EH                     00473c68 f   IDTFConverterHelpers:SceneUtilities.obj
 0002:00009c90       B27.EH                     00473c90 f   IDTFConverterHelpers:SceneUtilities.obj
 0002:00009caa       B29.EH                     00473caa f   IDTFConverterHelpers:SceneUtilities.obj
 0002:00009cc4       B30.EH                     00473cc4 f   IDTFConverterHelpers:SceneUtilities.obj
 0002:00009cde       B31.EH                     00473cde f   IDTFConverterHelpers:SceneUtilities.obj
 0002:00009d24       B32.EH                     00473d24 f   IDTFConverterHelpers:SceneUtilities.obj
