 IFXExporting

 Timestamp is 458c0694 (Fri Dec 22 19:23:48 2006)

 Preferred load address is 10000000

 Start         Length     Name                   Class
 0001:00000000 0004caceH .text                   CODE
 0002:00000000 000024dcH .text1                  CODE
 0003:00000000 00000180H .idata$5                DATA
 0003:00000180 000128ccH .rdata                  DATA
 0003:00012a4c 00000044H .rdata$r                DATA
 0003:00012a90 00000004H .rtc$IAA                DATA
 0003:00012a94 00000004H .rtc$IZZ                DATA
 0003:00012a98 00000004H .rtc$TAA                DATA
 0003:00012a9c 00000004H .rtc$TZZ                DATA
 0003:00012aa0 00000050H .idata$2                DATA
 0003:00012af0 00000014H .idata$3                DATA
 0003:00012b04 00000180H .idata$4                DATA
 0003:00012c84 000006b0H .idata$6                DATA
 0003:00013340 00000075H .edata                  DATA
 0004:00000000 00000004H .CRT$XCA                DATA
 0004:00000004 00000004H .CRT$XCAA               DATA
 0004:00000008 00000004H .CRT$XCU                DATA
 0004:0000000c 00000004H .CRT$XCZ                DATA
 0004:00000010 00000004H .CRT$XIA                DATA
 0004:00000014 0000000cH .CRT$XIC                DATA
 0004:00000020 00000004H .CRT$XIY                DATA
 0004:00000024 00000004H .CRT$XIZ                DATA
 0004:00000028 00000004H .CRT$XPA                DATA
 0004:0000002c 00000004H .CRT$XPX                DATA
 0004:00000030 00000004H .CRT$XPZ                DATA
 0004:00000034 00000004H .CRT$XTA                DATA
 0004:00000038 00000004H .CRT$XTB                DATA
 0004:0000003c 00000004H .CRT$XTZ                DATA
 0004:00000040 00003210H .data                   DATA
 0004:00003260 000021ccH .bss                    DATA
 0005:00000000 00000e28H _RDATA                  DATA
 0006:00000000 00000bc8H .data1                  DATA
 0007:00000000 00000118H .rsrc$01                DATA
 0007:00000120 00000d40H .rsrc$02                DATA

  Address         Publics by Value              Rva+Base     Lib:Object

 0000:00000000       ___safe_se_handler_count   00000000     <absolute>
 0000:00000000       ___safe_se_handler_table   00000000     <absolute>
 0000:00000000       __except_list              00000000     <absolute>
 0001:00000000       _DllMain@12                10001000 f   IFXExportingDllMain.obj
 0001:00000044       ?IFXExportingStartup@@YIHXZ 10001044 f   Exporting:IFXExporting.obj
 0001:0000004c       ?IFXExportingShutdown@@YIHXZ 1000104c f   Exporting:IFXExporting.obj
 0001:00000054       @IFXPluginRegister@8       10001054 f   Exporting:IFXExporting.obj
 0001:00000072       @IFXPluginCanUnloadNow@0   10001072 f   Exporting:IFXExporting.obj
 0001:00000084       ??_V@YAXPAX@Z              10001084 f   Exporting:IFXCorePluginStatic.obj
 0001:00000090       ??3@YAXPAX@Z               10001090 f   Exporting:IFXCorePluginStatic.obj
 0001:00000094       ??3.@YAXPAX@Z              10001094 f   Exporting:IFXCorePluginStatic.obj
 0001:000000a8       ??_U@YAPAXI@Z              100010a8 f   Exporting:IFXCorePluginStatic.obj
 0001:000000b4       ??2@YAPAXI@Z               100010b4 f   Exporting:IFXCorePluginStatic.obj
 0001:000000b8       ??2.@YAPAXI@Z              100010b8 f   Exporting:IFXCorePluginStatic.obj
 0001:000000cc       ??_GCIFXAuthorCLODEncoderX@@EAEPAXI@Z 100010cc f i Exporting:CIFXAuthorCLODEncoderX.obj
 0001:000000cc       ??_ECIFXAuthorCLODEncoderX@@EAEPAXI@Z 100010cc f i Exporting:CIFXAuthorCLODEncoderX.obj
 0001:000000f0       ??1CIFXAuthorCLODEncoderX@@EAE@XZ 100010f0 f   Exporting:CIFXAuthorCLODEncoderX.obj
 0001:00000200       ?CIFXAuthorCLODEncoderX_Factory@@YIHABUIFXGUID@@PAPAX@Z 10001200 f   Exporting:CIFXAuthorCLODEncoderX.obj
 0001:000003a0       ?AddRef@CIFXAuthorCLODEncoderX@@UAIIXZ 100013a0 f   Exporting:CIFXAuthorCLODEncoderX.obj
 0001:000003aa       ?Release@CIFXAuthorCLODEncoderX@@UAIIXZ 100013aa f   Exporting:CIFXAuthorCLODEncoderX.obj
 0001:000003c6       ?QueryInterface@CIFXAuthorCLODEncoderX@@UAIHABUIFXGUID@@PAPAX@Z 100013c6 f   Exporting:CIFXAuthorCLODEncoderX.obj
 0001:0000058c       ?SetObjectX@CIFXAuthorCLODEncoderX@@UAIXAAVIFXUnknown@@@Z 1000158c f   Exporting:CIFXAuthorCLODEncoderX.obj
 0001:00000600       ?EncodeX@CIFXAuthorCLODEncoderX@@UAIXAAVIFXString@@AAVIFXDataBlockQueueX@@N@Z 10001600 f   Exporting:CIFXAuthorCLODEncoderX.obj
 0001:00001210       ?CalculateQuantizationFactorsX@CIFXAuthorCLODEncoderX@@AAEXXZ 10002210 f   Exporting:CIFXAuthorCLODEncoderX.obj
 0001:00001ace       ?PrepareForMakingBlocksX@CIFXAuthorCLODEncoderX@@AAEXXZ 10002ace f   Exporting:CIFXAuthorCLODEncoderX.obj
 0001:00001ebc       ?MakeAuthorCLODDeclarationBlockX@CIFXAuthorCLODEncoderX@@AAEXAAVIFXString@@AAVIFXDataBlockQueueX@@@Z 10002ebc f   Exporting:CIFXAuthorCLODEncoderX.obj
 0001:00002ab0       ??0CIFXAuthorCLODEncoderX@@AAE@XZ 10003ab0 f   Exporting:CIFXAuthorCLODEncoderX.obj
 0001:00002b94       ?InitializeX@CIFXAuthorCLODEncoderX@@UAIXAAVIFXCoreServices@@@Z 10003b94 f   Exporting:CIFXAuthorCLODEncoderX.obj
 0001:00002bb4       ??_GCIFXAuthorMeshLocker@@UAEPAXI@Z 10003bb4 f i Exporting:CIFXAuthorCLODEncoderX.obj
 0001:00002bb4       ??_ECIFXAuthorMeshLocker@@UAEPAXI@Z 10003bb4 f i Exporting:CIFXAuthorCLODEncoderX.obj
 0001:00002bf0       ??_GIFXException@@UAEPAXI@Z 10003bf0 f i Exporting:CIFXAuthorCLODEncoderX.obj
 0001:00002bf0       ??_EIFXException@@UAEPAXI@Z 10003bf0 f i Exporting:CIFXAuthorCLODEncoderX.obj
 0001:00002c60       ??0IFXException@@QAE@ABV0@@Z 10003c60 f i Exporting:CIFXAuthorCLODEncoderX.obj
 0001:00002cd8       ??1IFXException@@UAE@XZ    10003cd8 f i Exporting:CIFXAuthorCLODEncoderX.obj
 0001:00002d2c       ?AddRef@CIFXAuthorCLODEncoderX@@$4PPPPPPPM@A@AIIXZ 10003d2c f i Exporting:CIFXAuthorCLODEncoderX.obj
 0001:00002d38       ?Release@CIFXAuthorCLODEncoderX@@$4PPPPPPPM@A@AIIXZ 10003d38 f i Exporting:CIFXAuthorCLODEncoderX.obj
 0001:00002d44       ?QueryInterface@CIFXAuthorCLODEncoderX@@$4PPPPPPPM@A@AIHABUIFXGUID@@PAPAX@Z 10003d44 f i Exporting:CIFXAuthorCLODEncoderX.obj
 0001:00002d50       ?SetObjectX@CIFXAuthorCLODEncoderX@@$4PPPPPPPM@A@AIXAAVIFXUnknown@@@Z 10003d50 f i Exporting:CIFXAuthorCLODEncoderX.obj
 0001:00002d5c       ?EncodeX@CIFXAuthorCLODEncoderX@@$4PPPPPPPM@A@AIXAAVIFXString@@AAVIFXDataBlockQueueX@@N@Z 10003d5c f i Exporting:CIFXAuthorCLODEncoderX.obj
 0001:00002d68       ??1?$IFXAutoRelease@VIFXMeshMap@@@@QAE@XZ 10003d68 f i Exporting:CIFXAuthorCLODEncoderX.obj
 0001:00002d68       ??1?$IFXAutoRelease@VIFXPalette@@@@QAE@XZ 10003d68 f i Exporting:CIFXShadingModifierEncoder.obj
 0001:00002d68       ??1?$IFXAutoRelease@VIFXSetX@@@@QAE@XZ 10003d68 f i Exporting:CIFXAuthorCLODEncoderX_P.obj
 0001:00002d68       ??1?$IFXAutoRelease@VIFXCoreServices@@@@QAE@XZ 10003d68 f i Exporting:CIFXAuthorCLODEncoderX.obj
 0001:00002d68       ??1?$IFXAutoRelease@VIFXDataBlockQueueX@@@@QAE@XZ 10003d68 f i Exporting:CIFXAuthorCLODEncoderX.obj
 0001:00002d68       ??1?$IFXAutoRelease@VIFXBitStreamX@@@@QAE@XZ 10003d68 f i Exporting:CIFXAuthorCLODEncoderX.obj
 0001:00002d68       ??1?$IFXAutoRelease@VIFXSetAdjacencyX@@@@QAE@XZ 10003d68 f i Exporting:CIFXAuthorCLODEncoderX_P.obj
 0001:00002d68       ??1?$IFXAutoRelease@VIFXBlockWriterX@@@@QAE@XZ 10003d68 f i Exporting:CIFXWriteManager.obj
 0001:00002d68       ??1?$IFXAutoRelease@VIFXAuthorGeomCompiler@@@@QAE@XZ 10003d68 f i Exporting:CIFXAuthorCLODEncoderX.obj
 0001:00002d68       ??1?$IFXAutoRelease@VIFXAuthorCLODMesh@@@@QAE@XZ 10003d68 f i Exporting:CIFXAuthorCLODEncoderX.obj
 0001:00002d68       ??1?$IFXAutoRelease@VIFXBitStreamCompressedX@@@@QAE@XZ 10003d68 f i Exporting:CIFXPointSetEncoder.obj
 0001:00002d84       ??1CIFXAuthorMeshLocker@@UAE@XZ 10003d84 f i Exporting:CIFXAuthorCLODEncoderX.obj
 0001:00002dac       ??1IFXBoneInfo@@QAE@XZ     10003dac f i Exporting:CIFXAuthorCLODEncoderX.obj
 0001:00002e10       ?InitializeX@CIFXAuthorCLODEncoderX@@$4PPPPPPPM@A@AIXAAVIFXCoreServices@@@Z 10003e10 f i Exporting:CIFXAuthorCLODEncoderX.obj
 0001:00002e1c       ??_GCIFXAnimationModifierEncoder@@EAEPAXI@Z 10003e1c f i Exporting:CIFXAnimationModifierEncoder.obj
 0001:00002e1c       ??_ECIFXAnimationModifierEncoder@@EAEPAXI@Z 10003e1c f i Exporting:CIFXAnimationModifierEncoder.obj
 0001:00002e40       ??1CIFXAnimationModifierEncoder@@EAE@XZ 10003e40 f   Exporting:CIFXAnimationModifierEncoder.obj
 0001:00002ea2       ?CIFXAnimationModifierEncoder_Factory@@YIHABUIFXGUID@@PAPAX@Z 10003ea2 f   Exporting:CIFXAnimationModifierEncoder.obj
 0001:00002fd8       ?AddRef@CIFXAnimationModifierEncoder@@UAIIXZ 10003fd8 f   Exporting:CIFXAnimationModifierEncoder.obj
 0001:00002fe2       ?Release@CIFXAnimationModifierEncoder@@UAIIXZ 10003fe2 f   Exporting:CIFXAnimationModifierEncoder.obj
 0001:00002ffe       ?QueryInterface@CIFXAnimationModifierEncoder@@UAIHABUIFXGUID@@PAPAX@Z 10003ffe f   Exporting:CIFXAnimationModifierEncoder.obj
 0001:000031d6       ?SetObjectX@CIFXAnimationModifierEncoder@@UAIXAAVIFXUnknown@@@Z 100041d6 f   Exporting:CIFXAnimationModifierEncoder.obj
 0001:00003258       ?EncodeX@CIFXAnimationModifierEncoder@@UAIXAAVIFXString@@AAVIFXDataBlockQueueX@@N@Z 10004258 f   Exporting:CIFXAnimationModifierEncoder.obj
 0001:000037c6       ??0CIFXAnimationModifierEncoder@@AAE@XZ 100047c6 f   Exporting:CIFXAnimationModifierEncoder.obj
 0001:00003846       ?InitializeX@CIFXAnimationModifierEncoder@@UAIXAAVIFXCoreServices@@@Z 10004846 f   Exporting:CIFXAnimationModifierEncoder.obj
 0001:00003954       ?AddRef@CIFXAnimationModifierEncoder@@$4PPPPPPPM@A@AIIXZ 10004954 f i Exporting:CIFXAnimationModifierEncoder.obj
 0001:00003960       ?Release@CIFXAnimationModifierEncoder@@$4PPPPPPPM@A@AIIXZ 10004960 f i Exporting:CIFXAnimationModifierEncoder.obj
 0001:0000396c       ?QueryInterface@CIFXAnimationModifierEncoder@@$4PPPPPPPM@A@AIHABUIFXGUID@@PAPAX@Z 1000496c f i Exporting:CIFXAnimationModifierEncoder.obj
 0001:00003978       ?SetObjectX@CIFXAnimationModifierEncoder@@$4PPPPPPPM@A@AIXAAVIFXUnknown@@@Z 10004978 f i Exporting:CIFXAnimationModifierEncoder.obj
 0001:00003984       ?EncodeX@CIFXAnimationModifierEncoder@@$4PPPPPPPM@A@AIXAAVIFXString@@AAVIFXDataBlockQueueX@@N@Z 10004984 f i Exporting:CIFXAnimationModifierEncoder.obj
 0001:00003990       ?InitializeX@CIFXAnimationModifierEncoder@@$4PPPPPPPM@A@AIXAAVIFXCoreServices@@@Z 10004990 f i Exporting:CIFXAnimationModifierEncoder.obj
 0001:0000399c       ??_ECIFXMaterialResourceEncoder@@EAEPAXI@Z 1000499c f i Exporting:CIFXMaterialResourceEncoder.obj
 0001:0000399c       ??_GCIFXMaterialResourceEncoder@@EAEPAXI@Z 1000499c f i Exporting:CIFXMaterialResourceEncoder.obj
 0001:000039c0       ??1CIFXMaterialResourceEncoder@@EAE@XZ 100049c0 f   Exporting:CIFXMaterialResourceEncoder.obj
 0001:00003a22       ?CIFXMaterialResourceEncoder_Factory@@YIHABUIFXGUID@@PAPAX@Z 10004a22 f   Exporting:CIFXMaterialResourceEncoder.obj
 0001:00003b58       ?AddRef@CIFXMaterialResourceEncoder@@UAIIXZ 10004b58 f   Exporting:CIFXMaterialResourceEncoder.obj
 0001:00003b62       ?Release@CIFXMaterialResourceEncoder@@UAIIXZ 10004b62 f   Exporting:CIFXMaterialResourceEncoder.obj
 0001:00003b7e       ?QueryInterface@CIFXMaterialResourceEncoder@@UAIHABUIFXGUID@@PAPAX@Z 10004b7e f   Exporting:CIFXMaterialResourceEncoder.obj
 0001:00003d56       ?SetObjectX@CIFXMaterialResourceEncoder@@UAIXAAVIFXUnknown@@@Z 10004d56 f   Exporting:CIFXMaterialResourceEncoder.obj
 0001:00003de8       ?EncodeX@CIFXMaterialResourceEncoder@@UAIXAAVIFXString@@AAVIFXDataBlockQueueX@@N@Z 10004de8 f   Exporting:CIFXMaterialResourceEncoder.obj
 0001:0000431c       ??0CIFXMaterialResourceEncoder@@AAE@XZ 1000531c f   Exporting:CIFXMaterialResourceEncoder.obj
 0001:0000439c       ?InitializeX@CIFXMaterialResourceEncoder@@UAIXAAVIFXCoreServices@@@Z 1000539c f   Exporting:CIFXMaterialResourceEncoder.obj
 0001:000044c0       ?AddRef@CIFXMaterialResourceEncoder@@$4PPPPPPPM@A@AIIXZ 100054c0 f i Exporting:CIFXMaterialResourceEncoder.obj
 0001:000044cc       ?Release@CIFXMaterialResourceEncoder@@$4PPPPPPPM@A@AIIXZ 100054cc f i Exporting:CIFXMaterialResourceEncoder.obj
 0001:000044d8       ?QueryInterface@CIFXMaterialResourceEncoder@@$4PPPPPPPM@A@AIHABUIFXGUID@@PAPAX@Z 100054d8 f i Exporting:CIFXMaterialResourceEncoder.obj
 0001:000044e4       ?SetObjectX@CIFXMaterialResourceEncoder@@$4PPPPPPPM@A@AIXAAVIFXUnknown@@@Z 100054e4 f i Exporting:CIFXMaterialResourceEncoder.obj
 0001:000044f0       ?EncodeX@CIFXMaterialResourceEncoder@@$4PPPPPPPM@A@AIXAAVIFXString@@AAVIFXDataBlockQueueX@@N@Z 100054f0 f i Exporting:CIFXMaterialResourceEncoder.obj
 0001:000044fc       ?InitializeX@CIFXMaterialResourceEncoder@@$4PPPPPPPM@A@AIXAAVIFXCoreServices@@@Z 100054fc f i Exporting:CIFXMaterialResourceEncoder.obj
 0001:00004508       ??_GCIFXMotionResourceEncoder@@EAEPAXI@Z 10005508 f i Exporting:CIFXMotionResourceEncoder.obj
 0001:00004508       ??_ECIFXMotionResourceEncoder@@EAEPAXI@Z 10005508 f i Exporting:CIFXMotionResourceEncoder.obj
 0001:0000452c       ??1CIFXMotionResourceEncoder@@EAE@XZ 1000552c f   Exporting:CIFXMotionResourceEncoder.obj
 0001:0000458e       ?CIFXMotionResourceEncoder_Factory@@YIHABUIFXGUID@@PAPAX@Z 1000558e f   Exporting:CIFXMotionResourceEncoder.obj
 0001:000046c4       ?AddRef@CIFXMotionResourceEncoder@@UAIIXZ 100056c4 f   Exporting:CIFXMotionResourceEncoder.obj
 0001:000046ce       ?Release@CIFXMotionResourceEncoder@@UAIIXZ 100056ce f   Exporting:CIFXMotionResourceEncoder.obj
 0001:000046ea       ?QueryInterface@CIFXMotionResourceEncoder@@UAIHABUIFXGUID@@PAPAX@Z 100056ea f   Exporting:CIFXMotionResourceEncoder.obj
 0001:000048c2       ?SetObjectX@CIFXMotionResourceEncoder@@UAIXAAVIFXUnknown@@@Z 100058c2 f   Exporting:CIFXMotionResourceEncoder.obj
 0001:00004944       ?EncodeX@CIFXMotionResourceEncoder@@UAIXAAVIFXString@@AAVIFXDataBlockQueueX@@N@Z 10005944 f   Exporting:CIFXMotionResourceEncoder.obj
 0001:00006676       ??0CIFXMotionResourceEncoder@@AAE@XZ 10007676 f   Exporting:CIFXMotionResourceEncoder.obj
 0001:000066f6       ?InitializeX@CIFXMotionResourceEncoder@@UAIXAAVIFXCoreServices@@@Z 100076f6 f   Exporting:CIFXMotionResourceEncoder.obj
 0001:00006830       ?AddRef@CIFXMotionResourceEncoder@@$4PPPPPPPM@A@AIIXZ 10007830 f i Exporting:CIFXMotionResourceEncoder.obj
 0001:0000683c       ?Release@CIFXMotionResourceEncoder@@$4PPPPPPPM@A@AIIXZ 1000783c f i Exporting:CIFXMotionResourceEncoder.obj
 0001:00006848       ?QueryInterface@CIFXMotionResourceEncoder@@$4PPPPPPPM@A@AIHABUIFXGUID@@PAPAX@Z 10007848 f i Exporting:CIFXMotionResourceEncoder.obj
 0001:00006854       ?SetObjectX@CIFXMotionResourceEncoder@@$4PPPPPPPM@A@AIXAAVIFXUnknown@@@Z 10007854 f i Exporting:CIFXMotionResourceEncoder.obj
 0001:00006860       ?EncodeX@CIFXMotionResourceEncoder@@$4PPPPPPPM@A@AIXAAVIFXString@@AAVIFXDataBlockQueueX@@N@Z 10007860 f i Exporting:CIFXMotionResourceEncoder.obj
 0001:0000686c       ?InitializeX@CIFXMotionResourceEncoder@@$4PPPPPPPM@A@AIXAAVIFXCoreServices@@@Z 1000786c f i Exporting:CIFXMotionResourceEncoder.obj
 0001:00006878       ??_ECIFXGlyphGeneratorEncoder@@EAEPAXI@Z 10007878 f i Exporting:CIFXGlyphModifierEncoder.obj
 0001:00006878       ??_GCIFXGlyphGeneratorEncoder@@EAEPAXI@Z 10007878 f i Exporting:CIFXGlyphModifierEncoder.obj
 0001:0000689c       ??1CIFXGlyphGeneratorEncoder@@EAE@XZ 1000789c f   Exporting:CIFXGlyphModifierEncoder.obj
 0001:00006980       ?CIFXGlyphGeneratorEncoder_Factory@@YIHABUIFXGUID@@PAPAX@Z 10007980 f   Exporting:CIFXGlyphModifierEncoder.obj
 0001:00006ac2       ?AddRef@CIFXGlyphGeneratorEncoder@@UAIIXZ 10007ac2 f   Exporting:CIFXGlyphModifierEncoder.obj
 0001:00006acc       ?Release@CIFXGlyphGeneratorEncoder@@UAIIXZ 10007acc f   Exporting:CIFXGlyphModifierEncoder.obj
 0001:00006ae8       ?QueryInterface@CIFXGlyphGeneratorEncoder@@UAIHABUIFXGUID@@PAPAX@Z 10007ae8 f   Exporting:CIFXGlyphModifierEncoder.obj
 0001:00006cc0       ?SetObjectX@CIFXGlyphGeneratorEncoder@@UAIXAAVIFXUnknown@@@Z 10007cc0 f   Exporting:CIFXGlyphModifierEncoder.obj
 0001:00006e00       ?EncodeX@CIFXGlyphGeneratorEncoder@@UAIXAAVIFXString@@AAVIFXDataBlockQueueX@@N@Z 10007e00 f   Exporting:CIFXGlyphModifierEncoder.obj
 0001:000079f4       ??0CIFXGlyphGeneratorEncoder@@AAE@XZ 100089f4 f   Exporting:CIFXGlyphModifierEncoder.obj
 0001:00007a7c       ?InitializeX@CIFXGlyphGeneratorEncoder@@UAIXAAVIFXCoreServices@@@Z 10008a7c f   Exporting:CIFXGlyphModifierEncoder.obj
 0001:00007b84       ?AddRef@CIFXGlyphGeneratorEncoder@@$4PPPPPPPM@A@AIIXZ 10008b84 f i Exporting:CIFXGlyphModifierEncoder.obj
 0001:00007b90       ?Release@CIFXGlyphGeneratorEncoder@@$4PPPPPPPM@A@AIIXZ 10008b90 f i Exporting:CIFXGlyphModifierEncoder.obj
 0001:00007b9c       ?QueryInterface@CIFXGlyphGeneratorEncoder@@$4PPPPPPPM@A@AIHABUIFXGUID@@PAPAX@Z 10008b9c f i Exporting:CIFXGlyphModifierEncoder.obj
 0001:00007ba8       ?SetObjectX@CIFXGlyphGeneratorEncoder@@$4PPPPPPPM@A@AIXAAVIFXUnknown@@@Z 10008ba8 f i Exporting:CIFXGlyphModifierEncoder.obj
 0001:00007bb4       ?EncodeX@CIFXGlyphGeneratorEncoder@@$4PPPPPPPM@A@AIXAAVIFXString@@AAVIFXDataBlockQueueX@@N@Z 10008bb4 f i Exporting:CIFXGlyphModifierEncoder.obj
 0001:00007bc0       ?InitializeX@CIFXGlyphGeneratorEncoder@@$4PPPPPPPM@A@AIXAAVIFXCoreServices@@@Z 10008bc0 f i Exporting:CIFXGlyphModifierEncoder.obj
 0001:00007bcc       ??_GCIFXShaderLitTextureEncoder@@EAEPAXI@Z 10008bcc f i Exporting:CIFXShaderLitTextureEncoder.obj
 0001:00007bcc       ??_ECIFXShaderLitTextureEncoder@@EAEPAXI@Z 10008bcc f i Exporting:CIFXShaderLitTextureEncoder.obj
 0001:00007bf0       ??1CIFXShaderLitTextureEncoder@@EAE@XZ 10008bf0 f   Exporting:CIFXShaderLitTextureEncoder.obj
 0001:00007c6e       ?CIFXShaderLitTextureEncoder_Factory@@YIHABUIFXGUID@@PAPAX@Z 10008c6e f   Exporting:CIFXShaderLitTextureEncoder.obj
 0001:00007dae       ?AddRef@CIFXShaderLitTextureEncoder@@UAIIXZ 10008dae f   Exporting:CIFXShaderLitTextureEncoder.obj
 0001:00007db8       ?Release@CIFXShaderLitTextureEncoder@@UAIIXZ 10008db8 f   Exporting:CIFXShaderLitTextureEncoder.obj
 0001:00007dd4       ?QueryInterface@CIFXShaderLitTextureEncoder@@UAIHABUIFXGUID@@PAPAX@Z 10008dd4 f   Exporting:CIFXShaderLitTextureEncoder.obj
 0001:00007fac       ?SetObjectX@CIFXShaderLitTextureEncoder@@UAIXAAVIFXUnknown@@@Z 10008fac f   Exporting:CIFXShaderLitTextureEncoder.obj
 0001:0000802e       ?EncodeX@CIFXShaderLitTextureEncoder@@UAIXAAVIFXString@@AAVIFXDataBlockQueueX@@N@Z 1000902e f   Exporting:CIFXShaderLitTextureEncoder.obj
 0001:0000896c       ??0CIFXShaderLitTextureEncoder@@AAE@XZ 1000996c f   Exporting:CIFXShaderLitTextureEncoder.obj
 0001:000089f2       ?InitializeX@CIFXShaderLitTextureEncoder@@UAIXAAVIFXCoreServices@@@Z 100099f2 f   Exporting:CIFXShaderLitTextureEncoder.obj
 0001:00008b00       ?AddRef@CIFXShaderLitTextureEncoder@@$4PPPPPPPM@A@AIIXZ 10009b00 f i Exporting:CIFXShaderLitTextureEncoder.obj
 0001:00008b0c       ?Release@CIFXShaderLitTextureEncoder@@$4PPPPPPPM@A@AIIXZ 10009b0c f i Exporting:CIFXShaderLitTextureEncoder.obj
 0001:00008b18       ?QueryInterface@CIFXShaderLitTextureEncoder@@$4PPPPPPPM@A@AIHABUIFXGUID@@PAPAX@Z 10009b18 f i Exporting:CIFXShaderLitTextureEncoder.obj
 0001:00008b24       ?SetObjectX@CIFXShaderLitTextureEncoder@@$4PPPPPPPM@A@AIXAAVIFXUnknown@@@Z 10009b24 f i Exporting:CIFXShaderLitTextureEncoder.obj
 0001:00008b30       ?EncodeX@CIFXShaderLitTextureEncoder@@$4PPPPPPPM@A@AIXAAVIFXString@@AAVIFXDataBlockQueueX@@N@Z 10009b30 f i Exporting:CIFXShaderLitTextureEncoder.obj
 0001:00008b3c       ?InitializeX@CIFXShaderLitTextureEncoder@@$4PPPPPPPM@A@AIXAAVIFXCoreServices@@@Z 10009b3c f i Exporting:CIFXShaderLitTextureEncoder.obj
 0001:00008b48       ??_ECIFXSubdivisionModifierEncoder@@EAEPAXI@Z 10009b48 f i Exporting:CIFXSubdivisionModifierEncoder.obj
 0001:00008b48       ??_GCIFXSubdivisionModifierEncoder@@EAEPAXI@Z 10009b48 f i Exporting:CIFXSubdivisionModifierEncoder.obj
 0001:00008b6c       ??1CIFXSubdivisionModifierEncoder@@EAE@XZ 10009b6c f   Exporting:CIFXSubdivisionModifierEncoder.obj
 0001:00008c50       ?CIFXSubdivisionModifierEncoder_Factory@@YIHABUIFXGUID@@PAPAX@Z 10009c50 f   Exporting:CIFXSubdivisionModifierEncoder.obj
 0001:00008d92       ?AddRef@CIFXSubdivisionModifierEncoder@@UAIIXZ 10009d92 f   Exporting:CIFXSubdivisionModifierEncoder.obj
 0001:00008d9c       ?Release@CIFXSubdivisionModifierEncoder@@UAIIXZ 10009d9c f   Exporting:CIFXSubdivisionModifierEncoder.obj
 0001:00008db8       ?QueryInterface@CIFXSubdivisionModifierEncoder@@UAIHABUIFXGUID@@PAPAX@Z 10009db8 f   Exporting:CIFXSubdivisionModifierEncoder.obj
 0001:00008f90       ?SetObjectX@CIFXSubdivisionModifierEncoder@@UAIXAAVIFXUnknown@@@Z 10009f90 f   Exporting:CIFXSubdivisionModifierEncoder.obj
 0001:000090d0       ?EncodeX@CIFXSubdivisionModifierEncoder@@UAIXAAVIFXString@@AAVIFXDataBlockQueueX@@N@Z 1000a0d0 f   Exporting:CIFXSubdivisionModifierEncoder.obj
 0001:0000956c       ??0CIFXSubdivisionModifierEncoder@@AAE@XZ 1000a56c f   Exporting:CIFXSubdivisionModifierEncoder.obj
 0001:000095f4       ?InitializeX@CIFXSubdivisionModifierEncoder@@UAIXAAVIFXCoreServices@@@Z 1000a5f4 f   Exporting:CIFXSubdivisionModifierEncoder.obj
 0001:00009720       ?AddRef@CIFXSubdivisionModifierEncoder@@$4PPPPPPPM@A@AIIXZ 1000a720 f i Exporting:CIFXSubdivisionModifierEncoder.obj
 0001:0000972c       ?Release@CIFXSubdivisionModifierEncoder@@$4PPPPPPPM@A@AIIXZ 1000a72c f i Exporting:CIFXSubdivisionModifierEncoder.obj
 0001:00009738       ?QueryInterface@CIFXSubdivisionModifierEncoder@@$4PPPPPPPM@A@AIHABUIFXGUID@@PAPAX@Z 1000a738 f i Exporting:CIFXSubdivisionModifierEncoder.obj
 0001:00009744       ?SetObjectX@CIFXSubdivisionModifierEncoder@@$4PPPPPPPM@A@AIXAAVIFXUnknown@@@Z 1000a744 f i Exporting:CIFXSubdivisionModifierEncoder.obj
 0001:00009750       ?EncodeX@CIFXSubdivisionModifierEncoder@@$4PPPPPPPM@A@AIXAAVIFXString@@AAVIFXDataBlockQueueX@@N@Z 1000a750 f i Exporting:CIFXSubdivisionModifierEncoder.obj
 0001:0000975c       ?InitializeX@CIFXSubdivisionModifierEncoder@@$4PPPPPPPM@A@AIXAAVIFXCoreServices@@@Z 1000a75c f i Exporting:CIFXSubdivisionModifierEncoder.obj
 0001:00009768       ??_GCIFXShadingModifierEncoder@@EAEPAXI@Z 1000a768 f i Exporting:CIFXShadingModifierEncoder.obj
 0001:00009768       ??_ECIFXShadingModifierEncoder@@EAEPAXI@Z 1000a768 f i Exporting:CIFXShadingModifierEncoder.obj
 0001:0000978c       ??1CIFXShadingModifierEncoder@@EAE@XZ 1000a78c f   Exporting:CIFXShadingModifierEncoder.obj
 0001:00009870       ?CIFXShadingModifierEncoder_Factory@@YIHABUIFXGUID@@PAPAX@Z 1000a870 f   Exporting:CIFXShadingModifierEncoder.obj
 0001:000099b2       ?AddRef@CIFXShadingModifierEncoder@@UAIIXZ 1000a9b2 f   Exporting:CIFXShadingModifierEncoder.obj
 0001:000099bc       ?Release@CIFXShadingModifierEncoder@@UAIIXZ 1000a9bc f   Exporting:CIFXShadingModifierEncoder.obj
 0001:000099d8       ?QueryInterface@CIFXShadingModifierEncoder@@UAIHABUIFXGUID@@PAPAX@Z 1000a9d8 f   Exporting:CIFXShadingModifierEncoder.obj
 0001:00009bb0       ?SetObjectX@CIFXShadingModifierEncoder@@UAIXAAVIFXUnknown@@@Z 1000abb0 f   Exporting:CIFXShadingModifierEncoder.obj
 0001:00009cf0       ?EncodeX@CIFXShadingModifierEncoder@@UAIXAAVIFXString@@AAVIFXDataBlockQueueX@@N@Z 1000acf0 f   Exporting:CIFXShadingModifierEncoder.obj
 0001:0000a19c       ??0CIFXShadingModifierEncoder@@AAE@XZ 1000b19c f   Exporting:CIFXShadingModifierEncoder.obj
 0001:0000a224       ?InitializeX@CIFXShadingModifierEncoder@@UAIXAAVIFXCoreServices@@@Z 1000b224 f   Exporting:CIFXShadingModifierEncoder.obj
 0001:0000a350       ?AddRef@CIFXShadingModifierEncoder@@$4PPPPPPPM@A@AIIXZ 1000b350 f i Exporting:CIFXShadingModifierEncoder.obj
 0001:0000a35c       ?Release@CIFXShadingModifierEncoder@@$4PPPPPPPM@A@AIIXZ 1000b35c f i Exporting:CIFXShadingModifierEncoder.obj
 0001:0000a368       ?QueryInterface@CIFXShadingModifierEncoder@@$4PPPPPPPM@A@AIHABUIFXGUID@@PAPAX@Z 1000b368 f i Exporting:CIFXShadingModifierEncoder.obj
 0001:0000a374       ?SetObjectX@CIFXShadingModifierEncoder@@$4PPPPPPPM@A@AIXAAVIFXUnknown@@@Z 1000b374 f i Exporting:CIFXShadingModifierEncoder.obj
 0001:0000a380       ?EncodeX@CIFXShadingModifierEncoder@@$4PPPPPPPM@A@AIXAAVIFXString@@AAVIFXDataBlockQueueX@@N@Z 1000b380 f i Exporting:CIFXShadingModifierEncoder.obj
 0001:0000a38c       ?InitializeX@CIFXShadingModifierEncoder@@$4PPPPPPPM@A@AIXAAVIFXCoreServices@@@Z 1000b38c f i Exporting:CIFXShadingModifierEncoder.obj
 0001:0000a398       ??_ECIFXGroupNodeEncoder@@EAEPAXI@Z 1000b398 f i Exporting:CIFXGroupNodeEncoder.obj
 0001:0000a398       ??_GCIFXGroupNodeEncoder@@EAEPAXI@Z 1000b398 f i Exporting:CIFXGroupNodeEncoder.obj
 0001:0000a3bc       ??1CIFXGroupNodeEncoder@@EAE@XZ 1000b3bc f   Exporting:CIFXGroupNodeEncoder.obj
 0001:0000a42a       ?CIFXGroupNodeEncoder_Factory@@YIHABUIFXGUID@@PAPAX@Z 1000b42a f   Exporting:CIFXGroupNodeEncoder.obj
 0001:0000a56a       ?AddRef@CIFXGroupNodeEncoder@@UAIIXZ 1000b56a f   Exporting:CIFXGroupNodeEncoder.obj
 0001:0000a574       ?Release@CIFXGroupNodeEncoder@@UAIIXZ 1000b574 f   Exporting:CIFXGroupNodeEncoder.obj
 0001:0000a590       ?QueryInterface@CIFXGroupNodeEncoder@@UAIHABUIFXGUID@@PAPAX@Z 1000b590 f   Exporting:CIFXGroupNodeEncoder.obj
 0001:0000a768       ?SetObjectX@CIFXGroupNodeEncoder@@UAIXAAVIFXUnknown@@@Z 1000b768 f   Exporting:CIFXGroupNodeEncoder.obj
 0001:0000a890       ?EncodeX@CIFXGroupNodeEncoder@@UAIXAAVIFXString@@AAVIFXDataBlockQueueX@@N@Z 1000b890 f   Exporting:CIFXGroupNodeEncoder.obj
 0001:0000aa6c       ??0CIFXGroupNodeEncoder@@AAE@XZ 1000ba6c f   Exporting:CIFXGroupNodeEncoder.obj
 0001:0000aaf0       ?InitializeX@CIFXGroupNodeEncoder@@UAIXAAVIFXCoreServices@@@Z 1000baf0 f   Exporting:CIFXGroupNodeEncoder.obj
 0001:0000ab78       ?AddRef@CIFXGroupNodeEncoder@@$4PPPPPPPM@A@AIIXZ 1000bb78 f i Exporting:CIFXGroupNodeEncoder.obj
 0001:0000ab84       ?Release@CIFXGroupNodeEncoder@@$4PPPPPPPM@A@AIIXZ 1000bb84 f i Exporting:CIFXGroupNodeEncoder.obj
 0001:0000ab90       ?QueryInterface@CIFXGroupNodeEncoder@@$4PPPPPPPM@A@AIHABUIFXGUID@@PAPAX@Z 1000bb90 f i Exporting:CIFXGroupNodeEncoder.obj
 0001:0000ab9c       ?SetObjectX@CIFXGroupNodeEncoder@@$4PPPPPPPM@A@AIXAAVIFXUnknown@@@Z 1000bb9c f i Exporting:CIFXGroupNodeEncoder.obj
 0001:0000aba8       ?EncodeX@CIFXGroupNodeEncoder@@$4PPPPPPPM@A@AIXAAVIFXString@@AAVIFXDataBlockQueueX@@N@Z 1000bba8 f i Exporting:CIFXGroupNodeEncoder.obj
 0001:0000abb4       ?InitializeX@CIFXGroupNodeEncoder@@$4PPPPPPPM@A@AIXAAVIFXCoreServices@@@Z 1000bbb4 f i Exporting:CIFXGroupNodeEncoder.obj
 0001:0000abc0       ??_ECIFXLightNodeEncoder@@EAEPAXI@Z 1000bbc0 f i Exporting:CIFXLightNodeEncoder.obj
 0001:0000abc0       ??_GCIFXLightNodeEncoder@@EAEPAXI@Z 1000bbc0 f i Exporting:CIFXLightNodeEncoder.obj
 0001:0000abe4       ??1CIFXLightNodeEncoder@@EAE@XZ 1000bbe4 f   Exporting:CIFXLightNodeEncoder.obj
 0001:0000ac52       ?CIFXLightNodeEncoder_Factory@@YIHABUIFXGUID@@PAPAX@Z 1000bc52 f   Exporting:CIFXLightNodeEncoder.obj
 0001:0000ad92       ?AddRef@CIFXLightNodeEncoder@@UAIIXZ 1000bd92 f   Exporting:CIFXLightNodeEncoder.obj
 0001:0000ad9c       ?Release@CIFXLightNodeEncoder@@UAIIXZ 1000bd9c f   Exporting:CIFXLightNodeEncoder.obj
 0001:0000adb8       ?QueryInterface@CIFXLightNodeEncoder@@UAIHABUIFXGUID@@PAPAX@Z 1000bdb8 f   Exporting:CIFXLightNodeEncoder.obj
 0001:0000af90       ?SetObjectX@CIFXLightNodeEncoder@@UAIXAAVIFXUnknown@@@Z 1000bf90 f   Exporting:CIFXLightNodeEncoder.obj
 0001:0000b0d0       ?EncodeX@CIFXLightNodeEncoder@@UAIXAAVIFXString@@AAVIFXDataBlockQueueX@@N@Z 1000c0d0 f   Exporting:CIFXLightNodeEncoder.obj
 0001:0000b4ea       ??0CIFXLightNodeEncoder@@AAE@XZ 1000c4ea f   Exporting:CIFXLightNodeEncoder.obj
 0001:0000b56e       ?InitializeX@CIFXLightNodeEncoder@@UAIXAAVIFXCoreServices@@@Z 1000c56e f   Exporting:CIFXLightNodeEncoder.obj
 0001:0000b604       ?AddRef@CIFXLightNodeEncoder@@$4PPPPPPPM@A@AIIXZ 1000c604 f i Exporting:CIFXLightNodeEncoder.obj
 0001:0000b610       ?Release@CIFXLightNodeEncoder@@$4PPPPPPPM@A@AIIXZ 1000c610 f i Exporting:CIFXLightNodeEncoder.obj
 0001:0000b61c       ?QueryInterface@CIFXLightNodeEncoder@@$4PPPPPPPM@A@AIHABUIFXGUID@@PAPAX@Z 1000c61c f i Exporting:CIFXLightNodeEncoder.obj
 0001:0000b628       ?SetObjectX@CIFXLightNodeEncoder@@$4PPPPPPPM@A@AIXAAVIFXUnknown@@@Z 1000c628 f i Exporting:CIFXLightNodeEncoder.obj
 0001:0000b634       ?EncodeX@CIFXLightNodeEncoder@@$4PPPPPPPM@A@AIXAAVIFXString@@AAVIFXDataBlockQueueX@@N@Z 1000c634 f i Exporting:CIFXLightNodeEncoder.obj
 0001:0000b640       ?InitializeX@CIFXLightNodeEncoder@@$4PPPPPPPM@A@AIXAAVIFXCoreServices@@@Z 1000c640 f i Exporting:CIFXLightNodeEncoder.obj
 0001:0000b64c       ??_ECIFXLightResourceEncoder@@EAEPAXI@Z 1000c64c f i Exporting:CIFXLightResourceEncoder.obj
 0001:0000b64c       ??_GCIFXLightResourceEncoder@@EAEPAXI@Z 1000c64c f i Exporting:CIFXLightResourceEncoder.obj
 0001:0000b670       ??1CIFXLightResourceEncoder@@EAE@XZ 1000c670 f   Exporting:CIFXLightResourceEncoder.obj
 0001:0000b70a       ?CIFXLightResourceEncoder_Factory@@YIHABUIFXGUID@@PAPAX@Z 1000c70a f   Exporting:CIFXLightResourceEncoder.obj
 0001:0000b84e       ?AddRef@CIFXLightResourceEncoder@@UAIIXZ 1000c84e f   Exporting:CIFXLightResourceEncoder.obj
 0001:0000b858       ?Release@CIFXLightResourceEncoder@@UAIIXZ 1000c858 f   Exporting:CIFXLightResourceEncoder.obj
 0001:0000b874       ?QueryInterface@CIFXLightResourceEncoder@@UAIHABUIFXGUID@@PAPAX@Z 1000c874 f   Exporting:CIFXLightResourceEncoder.obj
 0001:0000ba4c       ?SetObjectX@CIFXLightResourceEncoder@@UAIXAAVIFXUnknown@@@Z 1000ca4c f   Exporting:CIFXLightResourceEncoder.obj
 0001:0000bb1a       ?EncodeX@CIFXLightResourceEncoder@@UAIXAAVIFXString@@AAVIFXDataBlockQueueX@@N@Z 1000cb1a f   Exporting:CIFXLightResourceEncoder.obj
 0001:0000be56       ??0CIFXLightResourceEncoder@@AAE@XZ 1000ce56 f   Exporting:CIFXLightResourceEncoder.obj
 0001:0000bede       ?InitializeX@CIFXLightResourceEncoder@@UAIXAAVIFXCoreServices@@@Z 1000cede f   Exporting:CIFXLightResourceEncoder.obj
 0001:0000bf74       ?AddRef@CIFXLightResourceEncoder@@$4PPPPPPPM@A@AIIXZ 1000cf74 f i Exporting:CIFXLightResourceEncoder.obj
 0001:0000bf80       ?Release@CIFXLightResourceEncoder@@$4PPPPPPPM@A@AIIXZ 1000cf80 f i Exporting:CIFXLightResourceEncoder.obj
 0001:0000bf8c       ?QueryInterface@CIFXLightResourceEncoder@@$4PPPPPPPM@A@AIHABUIFXGUID@@PAPAX@Z 1000cf8c f i Exporting:CIFXLightResourceEncoder.obj
 0001:0000bf98       ?SetObjectX@CIFXLightResourceEncoder@@$4PPPPPPPM@A@AIXAAVIFXUnknown@@@Z 1000cf98 f i Exporting:CIFXLightResourceEncoder.obj
 0001:0000bfa4       ?EncodeX@CIFXLightResourceEncoder@@$4PPPPPPPM@A@AIXAAVIFXString@@AAVIFXDataBlockQueueX@@N@Z 1000cfa4 f i Exporting:CIFXLightResourceEncoder.obj
 0001:0000bfb0       ?InitializeX@CIFXLightResourceEncoder@@$4PPPPPPPM@A@AIXAAVIFXCoreServices@@@Z 1000cfb0 f i Exporting:CIFXLightResourceEncoder.obj
 0001:0000bfbc       ??_GCIFXViewResourceEncoder@@EAEPAXI@Z 1000cfbc f i Exporting:CIFXViewResourceEncoder.obj
 0001:0000bfbc       ??_ECIFXViewResourceEncoder@@EAEPAXI@Z 1000cfbc f i Exporting:CIFXViewResourceEncoder.obj
 0001:0000bfe0       ??1CIFXViewResourceEncoder@@EAE@XZ 1000cfe0 f   Exporting:CIFXViewResourceEncoder.obj
 0001:0000c07a       ?CIFXViewResourceEncoder_Factory@@YIHABUIFXGUID@@PAPAX@Z 1000d07a f   Exporting:CIFXViewResourceEncoder.obj
 0001:0000c1be       ?AddRef@CIFXViewResourceEncoder@@UAIIXZ 1000d1be f   Exporting:CIFXViewResourceEncoder.obj
 0001:0000c1c8       ?Release@CIFXViewResourceEncoder@@UAIIXZ 1000d1c8 f   Exporting:CIFXViewResourceEncoder.obj
 0001:0000c1e4       ?QueryInterface@CIFXViewResourceEncoder@@UAIHABUIFXGUID@@PAPAX@Z 1000d1e4 f   Exporting:CIFXViewResourceEncoder.obj
 0001:0000c3bc       ?SetObjectX@CIFXViewResourceEncoder@@UAIXAAVIFXUnknown@@@Z 1000d3bc f   Exporting:CIFXViewResourceEncoder.obj
 0001:0000c4be       ?EncodeX@CIFXViewResourceEncoder@@UAIXAAVIFXString@@AAVIFXDataBlockQueueX@@N@Z 1000d4be f   Exporting:CIFXViewResourceEncoder.obj
 0001:0000c9de       ??0CIFXViewResourceEncoder@@AAE@XZ 1000d9de f   Exporting:CIFXViewResourceEncoder.obj
 0001:0000ca66       ?InitializeX@CIFXViewResourceEncoder@@UAIXAAVIFXCoreServices@@@Z 1000da66 f   Exporting:CIFXViewResourceEncoder.obj
 0001:0000caec       ?AddRef@CIFXViewResourceEncoder@@$4PPPPPPPM@A@AIIXZ 1000daec f i Exporting:CIFXViewResourceEncoder.obj
 0001:0000caf8       ?Release@CIFXViewResourceEncoder@@$4PPPPPPPM@A@AIIXZ 1000daf8 f i Exporting:CIFXViewResourceEncoder.obj
 0001:0000cb04       ?QueryInterface@CIFXViewResourceEncoder@@$4PPPPPPPM@A@AIHABUIFXGUID@@PAPAX@Z 1000db04 f i Exporting:CIFXViewResourceEncoder.obj
 0001:0000cb10       ?SetObjectX@CIFXViewResourceEncoder@@$4PPPPPPPM@A@AIXAAVIFXUnknown@@@Z 1000db10 f i Exporting:CIFXViewResourceEncoder.obj
 0001:0000cb1c       ?EncodeX@CIFXViewResourceEncoder@@$4PPPPPPPM@A@AIXAAVIFXString@@AAVIFXDataBlockQueueX@@N@Z 1000db1c f i Exporting:CIFXViewResourceEncoder.obj
 0001:0000cb28       ?InitializeX@CIFXViewResourceEncoder@@$4PPPPPPPM@A@AIXAAVIFXCoreServices@@@Z 1000db28 f i Exporting:CIFXViewResourceEncoder.obj
 0001:0000cb34       ??_GCIFXModelNodeEncoder@@EAEPAXI@Z 1000db34 f i Exporting:CIFXModelNodeEncoder.obj
 0001:0000cb34       ??_ECIFXModelNodeEncoder@@EAEPAXI@Z 1000db34 f i Exporting:CIFXModelNodeEncoder.obj
 0001:0000cb58       ??1CIFXModelNodeEncoder@@EAE@XZ 1000db58 f   Exporting:CIFXModelNodeEncoder.obj
 0001:0000cbc6       ?CIFXModelNodeEncoder_Factory@@YIHABUIFXGUID@@PAPAX@Z 1000dbc6 f   Exporting:CIFXModelNodeEncoder.obj
 0001:0000cd06       ?AddRef@CIFXModelNodeEncoder@@UAIIXZ 1000dd06 f   Exporting:CIFXModelNodeEncoder.obj
 0001:0000cd10       ?Release@CIFXModelNodeEncoder@@UAIIXZ 1000dd10 f   Exporting:CIFXModelNodeEncoder.obj
 0001:0000cd2c       ?QueryInterface@CIFXModelNodeEncoder@@UAIHABUIFXGUID@@PAPAX@Z 1000dd2c f   Exporting:CIFXModelNodeEncoder.obj
 0001:0000cf04       ?SetObjectX@CIFXModelNodeEncoder@@UAIXAAVIFXUnknown@@@Z 1000df04 f   Exporting:CIFXModelNodeEncoder.obj
 0001:0000d02c       ?EncodeX@CIFXModelNodeEncoder@@UAIXAAVIFXString@@AAVIFXDataBlockQueueX@@N@Z 1000e02c f   Exporting:CIFXModelNodeEncoder.obj
 0001:0000d52a       ??0CIFXModelNodeEncoder@@AAE@XZ 1000e52a f   Exporting:CIFXModelNodeEncoder.obj
 0001:0000d5ae       ?InitializeX@CIFXModelNodeEncoder@@UAIXAAVIFXCoreServices@@@Z 1000e5ae f   Exporting:CIFXModelNodeEncoder.obj
 0001:0000d634       ?AddRef@CIFXModelNodeEncoder@@$4PPPPPPPM@A@AIIXZ 1000e634 f i Exporting:CIFXModelNodeEncoder.obj
 0001:0000d640       ?Release@CIFXModelNodeEncoder@@$4PPPPPPPM@A@AIIXZ 1000e640 f i Exporting:CIFXModelNodeEncoder.obj
 0001:0000d64c       ?QueryInterface@CIFXModelNodeEncoder@@$4PPPPPPPM@A@AIHABUIFXGUID@@PAPAX@Z 1000e64c f i Exporting:CIFXModelNodeEncoder.obj
 0001:0000d658       ?SetObjectX@CIFXModelNodeEncoder@@$4PPPPPPPM@A@AIXAAVIFXUnknown@@@Z 1000e658 f i Exporting:CIFXModelNodeEncoder.obj
 0001:0000d664       ?EncodeX@CIFXModelNodeEncoder@@$4PPPPPPPM@A@AIXAAVIFXString@@AAVIFXDataBlockQueueX@@N@Z 1000e664 f i Exporting:CIFXModelNodeEncoder.obj
 0001:0000d670       ?InitializeX@CIFXModelNodeEncoder@@$4PPPPPPPM@A@AIXAAVIFXCoreServices@@@Z 1000e670 f i Exporting:CIFXModelNodeEncoder.obj
 0001:0000d67c       ??_GCIFXViewNodeEncoder@@EAEPAXI@Z 1000e67c f i Exporting:CIFXViewNodeEncoder.obj
 0001:0000d67c       ??_ECIFXViewNodeEncoder@@EAEPAXI@Z 1000e67c f i Exporting:CIFXViewNodeEncoder.obj
 0001:0000d6a0       ??1CIFXViewNodeEncoder@@EAE@XZ 1000e6a0 f   Exporting:CIFXViewNodeEncoder.obj
 0001:0000d70e       ?CIFXViewNodeEncoder_Factory@@YIHABUIFXGUID@@PAPAX@Z 1000e70e f   Exporting:CIFXViewNodeEncoder.obj
 0001:0000d84e       ?AddRef@CIFXViewNodeEncoder@@UAIIXZ 1000e84e f   Exporting:CIFXViewNodeEncoder.obj
 0001:0000d858       ?Release@CIFXViewNodeEncoder@@UAIIXZ 1000e858 f   Exporting:CIFXViewNodeEncoder.obj
 0001:0000d874       ?QueryInterface@CIFXViewNodeEncoder@@UAIHABUIFXGUID@@PAPAX@Z 1000e874 f   Exporting:CIFXViewNodeEncoder.obj
 0001:0000da4c       ?SetObjectX@CIFXViewNodeEncoder@@UAIXAAVIFXUnknown@@@Z 1000ea4c f   Exporting:CIFXViewNodeEncoder.obj
 0001:0000db74       ?EncodeX@CIFXViewNodeEncoder@@UAIXAAVIFXString@@AAVIFXDataBlockQueueX@@N@Z 1000eb74 f   Exporting:CIFXViewNodeEncoder.obj
 0001:0000e7e6       ??0CIFXViewNodeEncoder@@AAE@XZ 1000f7e6 f   Exporting:CIFXViewNodeEncoder.obj
 0001:0000e86a       ?InitializeX@CIFXViewNodeEncoder@@UAIXAAVIFXCoreServices@@@Z 1000f86a f   Exporting:CIFXViewNodeEncoder.obj
 0001:0000e8f0       ??_GIFXViewLayer@@UAEPAXI@Z 1000f8f0 f i Exporting:CIFXViewNodeEncoder.obj
 0001:0000e8f0       ??_EIFXViewLayer@@UAEPAXI@Z 1000f8f0 f i Exporting:CIFXViewNodeEncoder.obj
 0001:0000e90c       ?AddRef@CIFXViewNodeEncoder@@$4PPPPPPPM@A@AIIXZ 1000f90c f i Exporting:CIFXViewNodeEncoder.obj
 0001:0000e918       ?Release@CIFXViewNodeEncoder@@$4PPPPPPPM@A@AIIXZ 1000f918 f i Exporting:CIFXViewNodeEncoder.obj
 0001:0000e924       ?QueryInterface@CIFXViewNodeEncoder@@$4PPPPPPPM@A@AIHABUIFXGUID@@PAPAX@Z 1000f924 f i Exporting:CIFXViewNodeEncoder.obj
 0001:0000e930       ?SetObjectX@CIFXViewNodeEncoder@@$4PPPPPPPM@A@AIXAAVIFXUnknown@@@Z 1000f930 f i Exporting:CIFXViewNodeEncoder.obj
 0001:0000e93c       ?EncodeX@CIFXViewNodeEncoder@@$4PPPPPPPM@A@AIXAAVIFXString@@AAVIFXDataBlockQueueX@@N@Z 1000f93c f i Exporting:CIFXViewNodeEncoder.obj
 0001:0000e948       ??1IFXViewLayer@@UAE@XZ    1000f948 f i Exporting:CIFXViewNodeEncoder.obj
 0001:0000e950       ?InitializeX@CIFXViewNodeEncoder@@$4PPPPPPPM@A@AIXAAVIFXCoreServices@@@Z 1000f950 f i Exporting:CIFXViewNodeEncoder.obj
 0001:0000e95c       ??_ECIFXFileReferenceEncoder@@EAEPAXI@Z 1000f95c f i Exporting:CIFXFileReferenceEncoder.obj
 0001:0000e95c       ??_GCIFXFileReferenceEncoder@@EAEPAXI@Z 1000f95c f i Exporting:CIFXFileReferenceEncoder.obj
 0001:0000e980       ??1CIFXFileReferenceEncoder@@EAE@XZ 1000f980 f   Exporting:CIFXFileReferenceEncoder.obj
 0001:0000ea40       ?CIFXFileReferenceEncoder_Factory@@YIHABUIFXGUID@@PAPAX@Z 1000fa40 f   Exporting:CIFXFileReferenceEncoder.obj
 0001:0000eb7a       ?AddRef@CIFXFileReferenceEncoder@@UAIIXZ 1000fb7a f   Exporting:CIFXFileReferenceEncoder.obj
 0001:0000eb84       ?Release@CIFXFileReferenceEncoder@@UAIIXZ 1000fb84 f   Exporting:CIFXFileReferenceEncoder.obj
 0001:0000eba0       ?QueryInterface@CIFXFileReferenceEncoder@@UAIHABUIFXGUID@@PAPAX@Z 1000fba0 f   Exporting:CIFXFileReferenceEncoder.obj
 0001:0000ed78       ?SetObjectX@CIFXFileReferenceEncoder@@UAIXAAVIFXUnknown@@@Z 1000fd78 f   Exporting:CIFXFileReferenceEncoder.obj
 0001:0000ede8       ?EncodeX@CIFXFileReferenceEncoder@@UAIXAAVIFXString@@AAVIFXDataBlockQueueX@@N@Z 1000fde8 f   Exporting:CIFXFileReferenceEncoder.obj
 0001:0000f45c       ??0CIFXFileReferenceEncoder@@AAE@XZ 1001045c f   Exporting:CIFXFileReferenceEncoder.obj
 0001:0000f4e0       ?InitializeX@CIFXFileReferenceEncoder@@UAIXAAVIFXCoreServices@@@Z 100104e0 f   Exporting:CIFXFileReferenceEncoder.obj
 0001:0000f500       ??_EIFXCoreArray@@UAEPAXI@Z 10010500 f i Exporting:CIFXFileReferenceEncoder.obj
 0001:0000f500       ??_GIFXCoreArray@@UAEPAXI@Z 10010500 f i Exporting:CIFXFileReferenceEncoder.obj
 0001:0000f51c       ??_E?$IFXArray@VIFXString@@@@UAEPAXI@Z 1001051c f i Exporting:CIFXFileReferenceEncoder.obj
 0001:0000f51c       ??_G?$IFXArray@VIFXString@@@@UAEPAXI@Z 1001051c f i Exporting:CIFXFileReferenceEncoder.obj
 0001:0000f634       ??_E?$IFXArray@UIFXObjectFilter@@@@UAEPAXI@Z 10010634 f i Exporting:CIFXFileReferenceEncoder.obj
 0001:0000f634       ??_G?$IFXArray@UIFXObjectFilter@@@@UAEPAXI@Z 10010634 f i Exporting:CIFXFileReferenceEncoder.obj
 0001:0000f74c       ?GetElementName@IFXCoreArray@@UAE?AVIFXString@@I@Z 1001074c f i Exporting:CIFXFileReferenceEncoder.obj
 0001:0000f764       ?GetElementSize@IFXCoreArray@@UAEII@Z 10010764 f i Exporting:CIFXFileReferenceEncoder.obj
 0001:0000f76c       ??0IFXObjectFilter@@QAE@XZ 1001076c f i Exporting:CIFXFileReferenceEncoder.obj
 0001:0000f77c       ??1IFXObjectFilter@@QAE@XZ 1001077c f i Exporting:CIFXFileReferenceEncoder.obj
 0001:0000f7cc       ?Construct@?$IFXArray@VIFXString@@@@EAEXI@Z 100107cc f i Exporting:CIFXFileReferenceEncoder.obj
 0001:0000f884       ?Destruct@?$IFXArray@VIFXString@@@@EAEXI@Z 10010884 f i Exporting:CIFXFileReferenceEncoder.obj
 0001:0000f8bc       ?DestructAll@?$IFXArray@VIFXString@@@@EAEXXZ 100108bc f i Exporting:CIFXFileReferenceEncoder.obj
 0001:0000f928       ?Preallocate@?$IFXArray@VIFXString@@@@EAEXI@Z 10010928 f i Exporting:CIFXFileReferenceEncoder.obj
 0001:0000fa04       ?Construct@?$IFXArray@UIFXObjectFilter@@@@EAEXI@Z 10010a04 f i Exporting:CIFXFileReferenceEncoder.obj
 0001:0000fab4       ?Destruct@?$IFXArray@UIFXObjectFilter@@@@EAEXI@Z 10010ab4 f i Exporting:CIFXFileReferenceEncoder.obj
 0001:0000fb58       ?DestructAll@?$IFXArray@UIFXObjectFilter@@@@EAEXXZ 10010b58 f i Exporting:CIFXFileReferenceEncoder.obj
 0001:0000fc08       ?Preallocate@?$IFXArray@UIFXObjectFilter@@@@EAEXI@Z 10010c08 f i Exporting:CIFXFileReferenceEncoder.obj
 0001:0000fce4       ??_EIFXString@@UAEPAXI@Z   10010ce4 f i Exporting:CIFXFileReferenceEncoder.obj
 0001:0000fd38       ?AddRef@CIFXFileReferenceEncoder@@$4PPPPPPPM@A@AIIXZ 10010d38 f i Exporting:CIFXFileReferenceEncoder.obj
 0001:0000fd44       ?Release@CIFXFileReferenceEncoder@@$4PPPPPPPM@A@AIIXZ 10010d44 f i Exporting:CIFXFileReferenceEncoder.obj
 0001:0000fd50       ?QueryInterface@CIFXFileReferenceEncoder@@$4PPPPPPPM@A@AIHABUIFXGUID@@PAPAX@Z 10010d50 f i Exporting:CIFXFileReferenceEncoder.obj
 0001:0000fd5c       ?SetObjectX@CIFXFileReferenceEncoder@@$4PPPPPPPM@A@AIXAAVIFXUnknown@@@Z 10010d5c f i Exporting:CIFXFileReferenceEncoder.obj
 0001:0000fd68       ?EncodeX@CIFXFileReferenceEncoder@@$4PPPPPPPM@A@AIXAAVIFXString@@AAVIFXDataBlockQueueX@@N@Z 10010d68 f i Exporting:CIFXFileReferenceEncoder.obj
 0001:0000fd74       ??1IFXCoreArray@@UAE@XZ    10010d74 f i Exporting:CIFXFileReferenceEncoder.obj
 0001:0000fd7c       ??1?$IFXArray@VIFXString@@@@UAE@XZ 10010d7c f i Exporting:CIFXFileReferenceEncoder.obj
 0001:0000fe84       ??1?$IFXArray@UIFXObjectFilter@@@@UAE@XZ 10010e84 f i Exporting:CIFXFileReferenceEncoder.obj
 0001:0000ff8c       ??1IFXFileReferenceParams@@QAE@XZ 10010f8c f i Exporting:CIFXFileReferenceEncoder.obj
 0001:000101bc       ?InitializeX@CIFXFileReferenceEncoder@@$4PPPPPPPM@A@AIXAAVIFXCoreServices@@@Z 100111bc f i Exporting:CIFXFileReferenceEncoder.obj
 0001:000101c8       ??_GIFXDataBlockNodeX@@QAEPAXI@Z 100111c8 f i Exporting:CIFXBlockPriorityQueueX.obj
 0001:000101c8       ??_EIFXDataBlockNodeX@@QAEPAXI@Z 100111c8 f i Exporting:CIFXBlockPriorityQueueX.obj
 0001:000101e0       ??1IFXDataBlockNodeX@@QAE@XZ 100111e0 f   Exporting:CIFXBlockPriorityQueueX.obj
 0001:000101e2       ?ClearX@CIFXBlockPriorityQueueX@@UAIXXZ 100111e2 f   Exporting:CIFXBlockPriorityQueueX.obj
 0001:00010266       ?CIFXBlockPriorityQueueX_Factory@@YIHABUIFXGUID@@PAPAX@Z 10011266 f   Exporting:CIFXBlockPriorityQueueX.obj
 0001:00010320       ??0CIFXBlockPriorityQueueX@@AAE@XZ 10011320 f   Exporting:CIFXBlockPriorityQueueX.obj
 0001:00010334       ??0IFXDataBlockNodeX@@QAE@XZ 10011334 f   Exporting:CIFXBlockPriorityQueueX.obj
 0001:0001034c       ?GetNextBlockX@CIFXBlockPriorityQueueX@@UAIXAAPAVIFXDataBlockX@@AAH@Z 1001134c f   Exporting:CIFXBlockPriorityQueueX.obj
 0001:00010534       ?PeekNextBlockX@CIFXBlockPriorityQueueX@@UAIXAAPAVIFXDataBlockX@@@Z 10011534 f   Exporting:CIFXBlockPriorityQueueX.obj
 0001:00010562       ?AppendBlockX@CIFXBlockPriorityQueueX@@UAIXAAVIFXDataBlockX@@@Z 10011562 f   Exporting:CIFXBlockPriorityQueueX.obj
 0001:000108aa       ?CopyX@CIFXBlockPriorityQueueX@@UAIXAAPAVIFXDataBlockQueueX@@@Z 100118aa f   Exporting:CIFXBlockPriorityQueueX.obj
 0001:000108d8       ?AddRef@CIFXBlockPriorityQueueX@@UAIIXZ 100118d8 f   Exporting:CIFXBlockPriorityQueueX.obj
 0001:000108e2       ?Release@CIFXBlockPriorityQueueX@@UAIIXZ 100118e2 f   Exporting:CIFXBlockPriorityQueueX.obj
 0001:000108fc       ?QueryInterface@CIFXBlockPriorityQueueX@@UAIHABUIFXGUID@@PAPAX@Z 100118fc f   Exporting:CIFXBlockPriorityQueueX.obj
 0001:00010a9c       ??1CIFXBlockPriorityQueueX@@EAE@XZ 10011a9c f   Exporting:CIFXBlockPriorityQueueX.obj
 0001:00010aa8       ??_ECIFXBlockPriorityQueueX@@EAEPAXI@Z 10011aa8 f i Exporting:CIFXBlockPriorityQueueX.obj
 0001:00010aa8       ??_GCIFXBlockPriorityQueueX@@EAEPAXI@Z 10011aa8 f i Exporting:CIFXBlockPriorityQueueX.obj
 0001:00010ad0       ??_GCIFXBlockWriterX@@EAEPAXI@Z 10011ad0 f i Exporting:CIFXBlockWriterX.obj
 0001:00010ad0       ??_ECIFXBlockWriterX@@EAEPAXI@Z 10011ad0 f i Exporting:CIFXBlockWriterX.obj
 0001:00010af4       ??1CIFXBlockWriterX@@EAE@XZ 10011af4 f   Exporting:CIFXBlockWriterX.obj
 0001:00010b70       ?CIFXBlockWriterX_Factory@@YIHABUIFXGUID@@PAPAX@Z 10011b70 f   Exporting:CIFXBlockWriterX.obj
 0001:00010c2a       ??0CIFXBlockWriterX@@AAE@XZ 10011c2a f   Exporting:CIFXBlockWriterX.obj
 0001:00010c4c       ?AddRef@CIFXBlockWriterX@@UAIIXZ 10011c4c f   Exporting:CIFXBlockWriterX.obj
 0001:00010c56       ?Release@CIFXBlockWriterX@@UAIIXZ 10011c56 f   Exporting:CIFXBlockWriterX.obj
 0001:00010c70       ?QueryInterface@CIFXBlockWriterX@@UAIHABUIFXGUID@@PAPAX@Z 10011c70 f   Exporting:CIFXBlockWriterX.obj
 0001:00010e10       ?WriteBlockX@CIFXBlockWriterX@@UAIXAAVIFXDataBlockX@@@Z 10011e10 f   Exporting:CIFXBlockWriterX.obj
 0001:00011446       ?InitializeX@CIFXBlockWriterX@@UAIXAAVIFXCoreServices@@AAVIFXWriteBufferX@@I@Z 10012446 f   Exporting:CIFXBlockWriterX.obj
 0001:00011798       ??_ECIFXWriteManager@@EAEPAXI@Z 10012798 f i Exporting:CIFXWriteManager.obj
 0001:00011798       ??_GCIFXWriteManager@@EAEPAXI@Z 10012798 f i Exporting:CIFXWriteManager.obj
 0001:000117bc       ??1CIFXWriteManager@@EAE@XZ 100127bc f   Exporting:CIFXWriteManager.obj
 0001:00011998       ?CIFXWriteManager_Factory@@YIHABUIFXGUID@@PAPAX@Z 10012998 f   Exporting:CIFXWriteManager.obj
 0001:00011a52       ??0CIFXWriteManager@@AAE@XZ 10012a52 f   Exporting:CIFXWriteManager.obj
 0001:00011bd0       ?AddRef@CIFXWriteManager@@UAIIXZ 10012bd0 f   Exporting:CIFXWriteManager.obj
 0001:00011bda       ?Release@CIFXWriteManager@@UAIIXZ 10012bda f   Exporting:CIFXWriteManager.obj
 0001:00011bf4       ?QueryInterface@CIFXWriteManager@@UAIHABUIFXGUID@@PAPAX@Z 10012bf4 f   Exporting:CIFXWriteManager.obj
 0001:00011d94       ?Write@CIFXWriteManager@@UAIHPAVIFXWriteBuffer@@I@Z 10012d94 f   Exporting:CIFXWriteManager.obj
 0001:00012186       ?PutPalette@CIFXWriteManager@@AAEXW4EIFXPalette@IFXSceneGraph@@@Z 10013186 f   Exporting:CIFXWriteManager.obj
 0001:0001308c       ?ComponentIsMarkedForWrite@CIFXWriteManager@@AAEXPAVIFXUnknown@@PAH@Z 1001408c f   Exporting:CIFXWriteManager.obj
 0001:00013224       ?HandleExtensionsX@CIFXWriteManager@@AAEXPAVIFXEncoderX@@PAVIFXDataBlockQueueX@@@Z 10014224 f   Exporting:CIFXWriteManager.obj
 0001:000135e8       ?CreateNewObjectDeclarationBlockX@CIFXWriteManager@@AAEXPAIPAUIFXExtensionData@@AAVIFXDataBlockQueueX@@@Z 100145e8 f   Exporting:CIFXWriteManager.obj
 0001:000138e0       ?WriteQueueX@CIFXWriteManager@@AAEXXZ 100148e0 f   Exporting:CIFXWriteManager.obj
 0001:000139b2       ?SetQualityFactor@CIFXWriteManager@@UAIHII@Z 100149b2 f   Exporting:CIFXWriteManager.obj
 0001:00013ac8       ?SetQualityOnPalette@CIFXWriteManager@@AAEXIW4EIFXPalette@IFXSceneGraph@@@Z 10014ac8 f   Exporting:CIFXWriteManager.obj
 0001:00013cbe       ?Initialize@CIFXWriteManager@@UAIHPAVIFXCoreServices@@@Z 10014cbe f   Exporting:CIFXWriteManager.obj
 0001:00013e1c       ??1?$IFXArray@UIFXExtBlocktype@CIFXWriteManager@@@@UAE@XZ 10014e1c f i Exporting:CIFXWriteManager.obj
 0001:00013f24       ??_E?$IFXArray@UIFXExtBlocktype@CIFXWriteManager@@@@UAEPAXI@Z 10014f24 f i Exporting:CIFXWriteManager.obj
 0001:00013f24       ??_G?$IFXArray@UIFXExtBlocktype@CIFXWriteManager@@@@UAEPAXI@Z 10014f24 f i Exporting:CIFXWriteManager.obj
 0001:0001403c       ??0IFXExtBlocktype@CIFXWriteManager@@QAE@XZ 1001503c f i Exporting:CIFXWriteManager.obj
 0001:00014048       ??1IFXExtBlocktype@CIFXWriteManager@@QAE@XZ 10015048 f i Exporting:CIFXWriteManager.obj
 0001:00014058       ?ResetElement@?$IFXArray@I@@UAEXAAI@Z 10015058 f i Exporting:CIFXPointSetEncoder.obj
 0001:00014058       ?ResetElement@?$IFXArray@UIFXExtBlocktype@CIFXWriteManager@@@@UAEXAAUIFXExtBlocktype@CIFXWriteManager@@@Z 10015058 f i Exporting:CIFXWriteManager.obj
 0001:00014058       ?ResetElement@?$IFXArray@VIFXString@@@@UAEXAAVIFXString@@@Z 10015058 f i Exporting:CIFXFileReferenceEncoder.obj
 0001:00014058       ?ResetElement@?$IFXArray@UIFXObjectFilter@@@@UAEXAAUIFXObjectFilter@@@Z 10015058 f i Exporting:CIFXFileReferenceEncoder.obj
 0001:0001405c       ?Construct@?$IFXArray@UIFXExtBlocktype@CIFXWriteManager@@@@EAEXI@Z 1001505c f i Exporting:CIFXWriteManager.obj
 0001:00014100       ?Destruct@?$IFXArray@UIFXExtBlocktype@CIFXWriteManager@@@@EAEXI@Z 10015100 f i Exporting:CIFXWriteManager.obj
 0001:00014148       ?DestructAll@?$IFXArray@UIFXExtBlocktype@CIFXWriteManager@@@@EAEXXZ 10015148 f i Exporting:CIFXWriteManager.obj
 0001:000141b4       ?Preallocate@?$IFXArray@UIFXExtBlocktype@CIFXWriteManager@@@@EAEXI@Z 100151b4 f i Exporting:CIFXWriteManager.obj
 0001:00014290       ?Resize@?$IFXArray@I@@EAEXI@Z 10015290 f i Exporting:CIFXPointSetEncoder.obj
 0001:00014290       ?Resize@?$IFXArray@UIFXExtBlocktype@CIFXWriteManager@@@@EAEXI@Z 10015290 f i Exporting:CIFXWriteManager.obj
 0001:00014290       ?Resize@?$IFXArray@VIFXString@@@@EAEXI@Z 10015290 f i Exporting:CIFXFileReferenceEncoder.obj
 0001:00014290       ?Resize@?$IFXArray@UIFXObjectFilter@@@@EAEXI@Z 10015290 f i Exporting:CIFXFileReferenceEncoder.obj
 0001:000142f4       ??1IFXExtensionData@@QAE@XZ 100152f4 f i Exporting:CIFXWriteManager.obj
 0001:00014374       ??_ECIFXAuthorGeomCompiler@@UAEPAXI@Z 10015374 f i Exporting:CIFXAuthorGeomCompiler.obj
 0001:00014374       ??_GCIFXAuthorGeomCompiler@@UAEPAXI@Z 10015374 f i Exporting:CIFXAuthorGeomCompiler.obj
 0001:00014398       ??1CIFXAuthorGeomCompiler@@UAE@XZ 10015398 f   Exporting:CIFXAuthorGeomCompiler.obj
 0001:000143c0       ?CIFXAuthorGeomCompiler_Factory@@YIHABUIFXGUID@@PAPAX@Z 100153c0 f   Exporting:CIFXAuthorGeomCompiler.obj
 0001:0001447a       ??0CIFXAuthorGeomCompiler@@QAE@XZ 1001547a f   Exporting:CIFXAuthorGeomCompiler.obj
 0001:0001448e       ?AddRef@CIFXAuthorGeomCompiler@@UAIIXZ 1001548e f   Exporting:CIFXAuthorGeomCompiler.obj
 0001:00014498       ?Release@CIFXAuthorGeomCompiler@@UAIIXZ 10015498 f   Exporting:CIFXAuthorGeomCompiler.obj
 0001:000144b2       ?QueryInterface@CIFXAuthorGeomCompiler@@UAIHABUIFXGUID@@PAPAX@Z 100154b2 f   Exporting:CIFXAuthorGeomCompiler.obj
 0001:00014652       ?SetSceneGraph@CIFXAuthorGeomCompiler@@UAIHPAVIFXSceneGraph@@@Z 10015652 f   Exporting:CIFXAuthorGeomCompiler.obj
 0001:00014684       ?Compile@CIFXAuthorGeomCompiler@@UAIHAAVIFXString@@PAVIFXAuthorMesh@@PAPAVIFXAuthorCLODResource@@HPAUIFXAuthorGeomCompilerParams@@@Z 10015684 f   Exporting:CIFXAuthorGeomCompiler.obj
 0001:00015136       ?Recompile@CIFXAuthorGeomCompiler@@UAIHPAVIFXAuthorCLODResource@@PAVIFXAuthorMeshMap@@PAPAV3@@Z 10016136 f   Exporting:CIFXAuthorGeomCompiler.obj
 0001:0001526c       ?UpdateProgress@CIFXAuthorGeomCompilerProgress@@UAIHM@Z 1001626c f i Exporting:CIFXAuthorGeomCompiler.obj
 0001:000152a0       ?InitializeProgress@CIFXAuthorGeomCompilerProgress@@UAIXM@Z 100162a0 f i Exporting:CIFXAuthorGeomCompiler.obj
 0001:000152ac       ??_ECIFXStdioWriteBufferX@@EAEPAXI@Z 100162ac f i Exporting:CIFXStdioWriteBufferX.obj
 0001:000152ac       ??_GCIFXStdioWriteBufferX@@EAEPAXI@Z 100162ac f i Exporting:CIFXStdioWriteBufferX.obj
 0001:000152d0       ??1CIFXStdioWriteBufferX@@EAE@XZ 100162d0 f   Exporting:CIFXStdioWriteBufferX.obj
 0001:0001530c       ?CIFXStdioWriteBufferX_Factory@@YIHABUIFXGUID@@PAPAX@Z 1001630c f   Exporting:CIFXStdioWriteBufferX.obj
 0001:0001546a       ?AddRef@CIFXStdioWriteBufferX@@UAIIXZ 1001646a f   Exporting:CIFXStdioWriteBufferX.obj
 0001:00015474       ?Release@CIFXStdioWriteBufferX@@UAIIXZ 10016474 f   Exporting:CIFXStdioWriteBufferX.obj
 0001:00015492       ?QueryInterface@CIFXStdioWriteBufferX@@UAIHABUIFXGUID@@PAPAX@Z 10016492 f   Exporting:CIFXStdioWriteBufferX.obj
 0001:000157fa       ?Write@CIFXStdioWriteBufferX@@UAIHPAE_KI@Z 100167fa f   Exporting:CIFXStdioWriteBufferX.obj
 0001:000158ae       ?WriteX@CIFXStdioWriteBufferX@@UAIXPAE_KI@Z 100168ae f   Exporting:CIFXStdioWriteBufferX.obj
 0001:000159d2       ?Open@CIFXStdioWriteBufferX@@UAIHPAG@Z 100169d2 f   Exporting:CIFXStdioWriteBufferX.obj
 0001:00015a1c       ?Close@CIFXStdioWriteBufferX@@UAIHXZ 10016a1c f   Exporting:CIFXStdioWriteBufferX.obj
 0001:00015a44       ??0CIFXStdioWriteBufferX@@AAE@XZ 10016a44 f   Exporting:CIFXStdioWriteBufferX.obj
 0001:00015af8       ?AddRef@CIFXStdioWriteBufferX@@$4PPPPPPPM@A@AIIXZ 10016af8 f i Exporting:CIFXStdioWriteBufferX.obj
 0001:00015b04       ?Release@CIFXStdioWriteBufferX@@$4PPPPPPPM@A@AIIXZ 10016b04 f i Exporting:CIFXStdioWriteBufferX.obj
 0001:00015b10       ?QueryInterface@CIFXStdioWriteBufferX@@$4PPPPPPPM@A@AIHABUIFXGUID@@PAPAX@Z 10016b10 f i Exporting:CIFXStdioWriteBufferX.obj
 0001:00015b1c       ??_ECIFXPointSetEncoder@@EAEPAXI@Z 10016b1c f i Exporting:CIFXPointSetEncoder.obj
 0001:00015b1c       ??_GCIFXPointSetEncoder@@EAEPAXI@Z 10016b1c f i Exporting:CIFXPointSetEncoder.obj
 0001:00015b40       ??1CIFXPointSetEncoder@@EAE@XZ 10016b40 f   Exporting:CIFXPointSetEncoder.obj
 0001:00015c32       ?CIFXPointSetEncoder_Factory@@YIHABUIFXGUID@@PAPAX@Z 10016c32 f   Exporting:CIFXPointSetEncoder.obj
 0001:00015dca       ?AddRef@CIFXPointSetEncoder@@UAIIXZ 10016dca f   Exporting:CIFXPointSetEncoder.obj
 0001:00015dda       ?Release@CIFXPointSetEncoder@@UAIIXZ 10016dda f   Exporting:CIFXPointSetEncoder.obj
 0001:00015df8       ?QueryInterface@CIFXPointSetEncoder@@UAIHABUIFXGUID@@PAPAX@Z 10016df8 f   Exporting:CIFXPointSetEncoder.obj
 0001:00015fe8       ?SetObjectX@CIFXPointSetEncoder@@UAIXAAVIFXUnknown@@@Z 10016fe8 f   Exporting:CIFXPointSetEncoder.obj
 0001:0001609c       ?EncodeX@CIFXPointSetEncoder@@UAIXAAVIFXString@@AAVIFXDataBlockQueueX@@N@Z 1001709c f   Exporting:CIFXPointSetEncoder.obj
 0001:0001682e       ?MakeDeclarationBlockX@CIFXPointSetEncoder@@AAEXAAVIFXString@@AAVIFXDataBlockQueueX@@@Z 1001782e f   Exporting:CIFXPointSetEncoder.obj
 0001:0001707e       ?CalculateQuantizationFactorsX@CIFXPointSetEncoder@@AAEXXZ 1001807e f   Exporting:CIFXPointSetEncoder.obj
 0001:000177be       ?MakeContinuationBlockX@CIFXPointSetEncoder@@AAEXAAVIFXString@@AAVIFXDataBlockQueueX@@@Z 100187be f   Exporting:CIFXPointSetEncoder.obj
 0001:00017ab0       ?WritePointUpdateX@CIFXPointSetEncoder@@AAEIIPAVIFXBitStreamCompressedX@@@Z 10018ab0 f   Exporting:CIFXPointSetEncoder.obj
 0001:00018dba       ?CalculatePredictedColorAtSplitPosX@CIFXPointSetEncoder@@AAEXHIIAAVIFXVector4@@@Z 10019dba f   Exporting:CIFXPointSetEncoder.obj
 0001:00019246       ?GetPointsAtPosition@CIFXPointSetEncoder@@AAEXIAAV?$IFXArray@I@@@Z 1001a246 f   Exporting:CIFXPointSetEncoder.obj
 0001:000192e2       ?CalculatePredictedTexCoordAtSplitPosX@CIFXPointSetEncoder@@AAEXIIIAAVIFXVector4@@@Z 1001a2e2 f   Exporting:CIFXPointSetEncoder.obj
 0001:0001964e       ?CalculatePredictedNormalAtSplitPosX@CIFXPointSetEncoder@@AAEXIIAAVIFXVector3@@@Z 1001a64e f   Exporting:CIFXPointSetEncoder.obj
 0001:00019986       ?PrepareForWriting@CIFXPointSetEncoder@@AAEXXZ 1001a986 f   Exporting:CIFXPointSetEncoder.obj
 0001:00019a5a       ??0CIFXPointSetEncoder@@AAE@XZ 1001aa5a f   Exporting:CIFXPointSetEncoder.obj
 0001:00019b36       ?QuantizePositionForWrite@CIFXPointSetEncoder@@AAEXAAVIFXVector3@@AAEAAI22@Z 1001ab36 f   Exporting:CIFXPointSetEncoder.obj
 0001:00019c70       ?QuantizeNormalForWrite@CIFXPointSetEncoder@@AAEXAAVIFXVector3@@AAEAAI22@Z 1001ac70 f   Exporting:CIFXPointSetEncoder.obj
 0001:00019daa       ?QuantizeColorForWrite@CIFXPointSetEncoder@@AAEXHAAVIFXVector4@@AAEAAI222@Z 1001adaa f   Exporting:CIFXPointSetEncoder.obj
 0001:00019f32       ?QuantizeTexCoordForWrite@CIFXPointSetEncoder@@AAEXAAVIFXVector4@@AAEAAI222@Z 1001af32 f   Exporting:CIFXPointSetEncoder.obj
 0001:0001a0cc       ?GetPointAttribIndexes@CIFXPointSetEncoder@@AAEXIW4AttribType@1@AAI@Z 1001b0cc f   Exporting:CIFXPointSetEncoder.obj
 0001:0001a13a       ?InitializeX@CIFXPointSetEncoder@@UAIXAAVIFXCoreServices@@@Z 1001b13a f   Exporting:CIFXPointSetEncoder.obj
 0001:0001a160       ??_E?$IFXArray@I@@UAEPAXI@Z 1001b160 f i Exporting:CIFXPointSetEncoder.obj
 0001:0001a160       ??_G?$IFXArray@I@@UAEPAXI@Z 1001b160 f i Exporting:CIFXPointSetEncoder.obj
 0001:0001a264       ?Construct@?$IFXArray@I@@EAEXI@Z 1001b264 f i Exporting:CIFXPointSetEncoder.obj
 0001:0001a2a4       ?Destruct@?$IFXArray@I@@EAEXI@Z 1001b2a4 f i Exporting:CIFXPointSetEncoder.obj
 0001:0001a2cc       ?DestructAll@?$IFXArray@I@@EAEXXZ 1001b2cc f i Exporting:CIFXPointSetEncoder.obj
 0001:0001a32c       ?Preallocate@?$IFXArray@I@@EAEXI@Z 1001b32c f i Exporting:CIFXPointSetEncoder.obj
 0001:0001a364       ?AddRef@CIFXPointSetEncoder@@$4PPPPPPPM@A@AIIXZ 1001b364 f i Exporting:CIFXPointSetEncoder.obj
 0001:0001a370       ?Release@CIFXPointSetEncoder@@$4PPPPPPPM@A@AIIXZ 1001b370 f i Exporting:CIFXPointSetEncoder.obj
 0001:0001a37c       ?QueryInterface@CIFXPointSetEncoder@@$4PPPPPPPM@A@AIHABUIFXGUID@@PAPAX@Z 1001b37c f i Exporting:CIFXPointSetEncoder.obj
 0001:0001a388       ?SetObjectX@CIFXPointSetEncoder@@$4PPPPPPPM@A@AIXAAVIFXUnknown@@@Z 1001b388 f i Exporting:CIFXPointSetEncoder.obj
 0001:0001a394       ?EncodeX@CIFXPointSetEncoder@@$4PPPPPPPM@A@AIXAAVIFXString@@AAVIFXDataBlockQueueX@@N@Z 1001b394 f i Exporting:CIFXPointSetEncoder.obj
 0001:0001a3a0       ??1?$IFXArray@I@@UAE@XZ    1001b3a0 f i Exporting:CIFXPointSetEncoder.obj
 0001:0001a490       ?InitializeX@CIFXPointSetEncoder@@$4PPPPPPPM@A@AIXAAVIFXCoreServices@@@Z 1001b490 f i Exporting:CIFXPointSetEncoder.obj
 0001:0001a49c       ??_ECIFXLineSetEncoder@@EAEPAXI@Z 1001b49c f i Exporting:CIFXLineSetEncoder.obj
 0001:0001a49c       ??_GCIFXLineSetEncoder@@EAEPAXI@Z 1001b49c f i Exporting:CIFXLineSetEncoder.obj
 0001:0001a4c0       ??1CIFXLineSetEncoder@@EAE@XZ 1001b4c0 f   Exporting:CIFXLineSetEncoder.obj
 0001:0001a5b2       ?CIFXLineSetEncoder_Factory@@YIHABUIFXGUID@@PAPAX@Z 1001b5b2 f   Exporting:CIFXLineSetEncoder.obj
 0001:0001a738       ?AddRef@CIFXLineSetEncoder@@UAIIXZ 1001b738 f   Exporting:CIFXLineSetEncoder.obj
 0001:0001a748       ?Release@CIFXLineSetEncoder@@UAIIXZ 1001b748 f   Exporting:CIFXLineSetEncoder.obj
 0001:0001a766       ?QueryInterface@CIFXLineSetEncoder@@UAIHABUIFXGUID@@PAPAX@Z 1001b766 f   Exporting:CIFXLineSetEncoder.obj
 0001:0001a956       ?SetObjectX@CIFXLineSetEncoder@@UAIXAAVIFXUnknown@@@Z 1001b956 f   Exporting:CIFXLineSetEncoder.obj
 0001:0001a9fa       ?EncodeX@CIFXLineSetEncoder@@UAIXAAVIFXString@@AAVIFXDataBlockQueueX@@N@Z 1001b9fa f   Exporting:CIFXLineSetEncoder.obj
 0001:0001b1ea       ?MakeDeclarationBlockX@CIFXLineSetEncoder@@AAEXAAVIFXString@@AAVIFXDataBlockQueueX@@@Z 1001c1ea f   Exporting:CIFXLineSetEncoder.obj
 0001:0001ba4c       ?CalculateQuantizationFactorsX@CIFXLineSetEncoder@@AAEXXZ 1001ca4c f   Exporting:CIFXLineSetEncoder.obj
 0001:0001c18c       ?MakeContinuationBlocksX@CIFXLineSetEncoder@@AAEXAAVIFXString@@AAVIFXDataBlockQueueX@@@Z 1001d18c f   Exporting:CIFXLineSetEncoder.obj
 0001:0001c480       ?WriteLineUpdateX@CIFXLineSetEncoder@@AAEIIPAVIFXBitStreamCompressedX@@@Z 1001d480 f   Exporting:CIFXLineSetEncoder.obj
 0001:0001e094       ?CalculatePredictedTexCoordAtSplitPosX@CIFXLineSetEncoder@@AAEXIIIAAVIFXVector4@@@Z 1001f094 f   Exporting:CIFXLineSetEncoder.obj
 0001:0001f06e       ?CalculatePredictedColorAtSplitPosX@CIFXLineSetEncoder@@AAEXHIIAAVIFXVector4@@@Z 1002006e f   Exporting:CIFXLineSetEncoder.obj
 0001:0002008e       ?GetLineTexCoord@CIFXLineSetEncoder@@AAEXIIIAAI0@Z 1002108e f   Exporting:CIFXLineSetEncoder.obj
 0001:00020100       ?CalculatePredictedNormalAtSplitPosX@CIFXLineSetEncoder@@AAEXIIAAVIFXVector3@@@Z 10021100 f   Exporting:CIFXLineSetEncoder.obj
 0001:000210dc       ?PrepareForWriting@CIFXLineSetEncoder@@AAEXXZ 100220dc f   Exporting:CIFXLineSetEncoder.obj
 0001:000211b0       ??0CIFXLineSetEncoder@@AAE@XZ 100221b0 f   Exporting:CIFXLineSetEncoder.obj
 0001:0002127a       ?QuantizePositionForWrite@CIFXLineSetEncoder@@AAEXAAVIFXVector3@@AAEAAI22@Z 1002227a f   Exporting:CIFXLineSetEncoder.obj
 0001:000213b4       ?QuantizeNormalForWrite@CIFXLineSetEncoder@@AAEXAAVIFXVector3@@AAEAAI22@Z 100223b4 f   Exporting:CIFXLineSetEncoder.obj
 0001:000214ee       ?QuantizeColorForWrite@CIFXLineSetEncoder@@AAEXHAAVIFXVector4@@AAEAAI222@Z 100224ee f   Exporting:CIFXLineSetEncoder.obj
 0001:00021676       ?QuantizeTexCoordForWrite@CIFXLineSetEncoder@@AAEXAAVIFXVector4@@AAEAAI222@Z 10022676 f   Exporting:CIFXLineSetEncoder.obj
 0001:00021810       ?GetLineAttribIndexes@CIFXLineSetEncoder@@AAEXIIW4AttribType@1@AAI1@Z 10022810 f   Exporting:CIFXLineSetEncoder.obj
 0001:000218b2       ?InitializeX@CIFXLineSetEncoder@@UAIXAAVIFXCoreServices@@@Z 100228b2 f   Exporting:CIFXLineSetEncoder.obj
 0001:000218d4       ?AddRef@CIFXLineSetEncoder@@$4PPPPPPPM@A@AIIXZ 100228d4 f i Exporting:CIFXLineSetEncoder.obj
 0001:000218e0       ?Release@CIFXLineSetEncoder@@$4PPPPPPPM@A@AIIXZ 100228e0 f i Exporting:CIFXLineSetEncoder.obj
 0001:000218ec       ?QueryInterface@CIFXLineSetEncoder@@$4PPPPPPPM@A@AIHABUIFXGUID@@PAPAX@Z 100228ec f i Exporting:CIFXLineSetEncoder.obj
 0001:000218f8       ?SetObjectX@CIFXLineSetEncoder@@$4PPPPPPPM@A@AIXAAVIFXUnknown@@@Z 100228f8 f i Exporting:CIFXLineSetEncoder.obj
 0001:00021904       ?EncodeX@CIFXLineSetEncoder@@$4PPPPPPPM@A@AIXAAVIFXString@@AAVIFXDataBlockQueueX@@N@Z 10022904 f i Exporting:CIFXLineSetEncoder.obj
 0001:00021910       ?InitializeX@CIFXLineSetEncoder@@$4PPPPPPPM@A@AIXAAVIFXCoreServices@@@Z 10022910 f i Exporting:CIFXLineSetEncoder.obj
 0001:0002191c       ??_GCIFXBoneWeightsModifierEncoder@@EAEPAXI@Z 1002291c f i Exporting:CIFXBoneWeightsModifierEncoder.obj
 0001:0002191c       ??_ECIFXBoneWeightsModifierEncoder@@EAEPAXI@Z 1002291c f i Exporting:CIFXBoneWeightsModifierEncoder.obj
 0001:00021940       ??1CIFXBoneWeightsModifierEncoder@@EAE@XZ 10022940 f   Exporting:CIFXBoneWeightsModifierEncoder.obj
 0001:00021a24       ?CIFXBoneWeightsModifierEncoder_Factory@@YIHABUIFXGUID@@PAPAX@Z 10022a24 f   Exporting:CIFXBoneWeightsModifierEncoder.obj
 0001:00021b66       ?AddRef@CIFXBoneWeightsModifierEncoder@@UAIIXZ 10022b66 f   Exporting:CIFXBoneWeightsModifierEncoder.obj
 0001:00021b70       ?Release@CIFXBoneWeightsModifierEncoder@@UAIIXZ 10022b70 f   Exporting:CIFXBoneWeightsModifierEncoder.obj
 0001:00021b8c       ?QueryInterface@CIFXBoneWeightsModifierEncoder@@UAIHABUIFXGUID@@PAPAX@Z 10022b8c f   Exporting:CIFXBoneWeightsModifierEncoder.obj
 0001:00021d64       ?SetObjectX@CIFXBoneWeightsModifierEncoder@@UAIXAAVIFXUnknown@@@Z 10022d64 f   Exporting:CIFXBoneWeightsModifierEncoder.obj
 0001:00021ea4       ?EncodeX@CIFXBoneWeightsModifierEncoder@@UAIXAAVIFXString@@AAVIFXDataBlockQueueX@@N@Z 10022ea4 f   Exporting:CIFXBoneWeightsModifierEncoder.obj
 0001:00022e58       ?GetVertexMapContainerX@@YAXPAVIFXMeshMap@@PAI1I@Z 10023e58 f   Exporting:CIFXBoneWeightsModifierEncoder.obj
 0001:00022f84       ??0CIFXBoneWeightsModifierEncoder@@AAE@XZ 10023f84 f   Exporting:CIFXBoneWeightsModifierEncoder.obj
 0001:0002300c       ?InitializeX@CIFXBoneWeightsModifierEncoder@@UAIXAAVIFXCoreServices@@@Z 1002400c f   Exporting:CIFXBoneWeightsModifierEncoder.obj
 0001:00023168       ?AddRef@CIFXBoneWeightsModifierEncoder@@$4PPPPPPPM@A@AIIXZ 10024168 f i Exporting:CIFXBoneWeightsModifierEncoder.obj
 0001:00023174       ?Release@CIFXBoneWeightsModifierEncoder@@$4PPPPPPPM@A@AIIXZ 10024174 f i Exporting:CIFXBoneWeightsModifierEncoder.obj
 0001:00023180       ?QueryInterface@CIFXBoneWeightsModifierEncoder@@$4PPPPPPPM@A@AIHABUIFXGUID@@PAPAX@Z 10024180 f i Exporting:CIFXBoneWeightsModifierEncoder.obj
 0001:0002318c       ?SetObjectX@CIFXBoneWeightsModifierEncoder@@$4PPPPPPPM@A@AIXAAVIFXUnknown@@@Z 1002418c f i Exporting:CIFXBoneWeightsModifierEncoder.obj
 0001:00023198       ?EncodeX@CIFXBoneWeightsModifierEncoder@@$4PPPPPPPM@A@AIXAAVIFXString@@AAVIFXDataBlockQueueX@@N@Z 10024198 f i Exporting:CIFXBoneWeightsModifierEncoder.obj
 0001:000231a4       ??1?$IFXAutoRelease@VIFXModifierChain@@@@QAE@XZ 100241a4 f i Exporting:CIFXWriteManager.obj
 0001:000231a4       ??1?$IFXAutoRelease@VIFXMetaDataX@@@@QAE@XZ 100241a4 f i Exporting:CIFXAuthorCLODEncoderX.obj
 0001:000231a4       ??1?$IFXAutoRelease@VIFXDataBlockX@@@@QAE@XZ 100241a4 f i Exporting:CIFXAuthorCLODEncoderX.obj
 0001:000231a4       ??1?$IFXAutoRelease@VIFXMarkerX@@@@QAE@XZ 100241a4 f i Exporting:CIFXAuthorCLODEncoderX.obj
 0001:000231a4       ??1?$IFXAutoRelease@VIFXWriteBufferX@@@@QAE@XZ 100241a4 f i Exporting:CIFXBlockWriterX.obj
 0001:000231a4       ??1?$IFXAutoRelease@VIFXShaderList@@@@QAE@XZ 100241a4 f i Exporting:CIFXShadingModifierEncoder.obj
 0001:000231a4       ??1?$IFXAutoRelease@VIFXModel@@@@QAE@XZ 100241a4 f i Exporting:CIFXBoneWeightsModifierEncoder.obj
 0001:000231a4       ??1?$IFXAutoRelease@VIFXSceneGraph@@@@QAE@XZ 100241a4 f i Exporting:CIFXAuthorCLODEncoderX.obj
 0001:000231a4       ??1?$IFXAutoRelease@VIFXAuthorLineSetResource@@@@QAE@XZ 100241a4 f i Exporting:CIFXLineSetEncoder.obj
 0001:000231a4       ??1?$IFXAutoRelease@VIFXExtensionEncoderX@@@@QAE@XZ 100241a4 f i Exporting:CIFXWriteManager.obj
 0001:000231a4       ??1?$IFXAutoRelease@VIFXModifier@@@@QAE@XZ 100241a4 f i Exporting:CIFXGlyphModifierEncoder.obj
 0001:000231a4       ??1?$IFXAutoRelease@VIFXAuthorPointSetResource@@@@QAE@XZ 100241a4 f i Exporting:CIFXPointSetEncoder.obj
 0001:000231a4       ??1?$IFXAutoRelease@VIFXFileReference@@@@QAE@XZ 100241a4 f i Exporting:CIFXFileReferenceEncoder.obj
 0001:000231a4       ??1?$IFXAutoRelease@VIFXMeshGroup@@@@QAE@XZ 100241a4 f i Exporting:CIFXBoneWeightsModifierEncoder.obj
 0001:000231a4       ??1?$IFXAutoRelease@VIFXAuthorLineSet@@@@QAE@XZ 100241a4 f i Exporting:CIFXLineSetEncoder.obj
 0001:000231a4       ??1?$IFXAutoRelease@VIFXEncoderX@@@@QAE@XZ 100241a4 f i Exporting:CIFXWriteManager.obj
 0001:000231a4       ??1?$IFXAutoRelease@VIFXAuthorPointSet@@@@QAE@XZ 100241a4 f i Exporting:CIFXPointSetEncoder.obj
 0001:000231a4       ??1?$IFXAutoRelease@VIFXAuthorCLODResource@@@@QAE@XZ 100241a4 f i Exporting:CIFXAuthorCLODEncoderX.obj
 0001:000231c8       ?InitializeX@CIFXBoneWeightsModifierEncoder@@$4PPPPPPPM@A@AIXAAVIFXCoreServices@@@Z 100241c8 f i Exporting:CIFXBoneWeightsModifierEncoder.obj
 0001:000231d4       ??_ECIFXCLODModifierEncoder@@EAEPAXI@Z 100241d4 f i Exporting:CIFXCLODModifierEncoder.obj
 0001:000231d4       ??_GCIFXCLODModifierEncoder@@EAEPAXI@Z 100241d4 f i Exporting:CIFXCLODModifierEncoder.obj
 0001:000231f8       ??1CIFXCLODModifierEncoder@@EAE@XZ 100241f8 f   Exporting:CIFXCLODModifierEncoder.obj
 0001:000232dc       ?CIFXCLODModifierEncoder_Factory@@YIHABUIFXGUID@@PAPAX@Z 100242dc f   Exporting:CIFXCLODModifierEncoder.obj
 0001:0002341e       ?AddRef@CIFXCLODModifierEncoder@@UAIIXZ 1002441e f   Exporting:CIFXCLODModifierEncoder.obj
 0001:00023428       ?Release@CIFXCLODModifierEncoder@@UAIIXZ 10024428 f   Exporting:CIFXCLODModifierEncoder.obj
 0001:00023444       ?QueryInterface@CIFXCLODModifierEncoder@@UAIHABUIFXGUID@@PAPAX@Z 10024444 f   Exporting:CIFXCLODModifierEncoder.obj
 0001:0002361c       ?SetObjectX@CIFXCLODModifierEncoder@@UAIXAAVIFXUnknown@@@Z 1002461c f   Exporting:CIFXCLODModifierEncoder.obj
 0001:0002375c       ?EncodeX@CIFXCLODModifierEncoder@@UAIXAAVIFXString@@AAVIFXDataBlockQueueX@@N@Z 1002475c f   Exporting:CIFXCLODModifierEncoder.obj
 0001:00023b3e       ??0CIFXCLODModifierEncoder@@AAE@XZ 10024b3e f   Exporting:CIFXCLODModifierEncoder.obj
 0001:00023bc6       ?InitializeX@CIFXCLODModifierEncoder@@UAIXAAVIFXCoreServices@@@Z 10024bc6 f   Exporting:CIFXCLODModifierEncoder.obj
 0001:00023cf4       ?AddRef@CIFXCLODModifierEncoder@@$4PPPPPPPM@A@AIIXZ 10024cf4 f i Exporting:CIFXCLODModifierEncoder.obj
 0001:00023d00       ?Release@CIFXCLODModifierEncoder@@$4PPPPPPPM@A@AIIXZ 10024d00 f i Exporting:CIFXCLODModifierEncoder.obj
 0001:00023d0c       ?QueryInterface@CIFXCLODModifierEncoder@@$4PPPPPPPM@A@AIHABUIFXGUID@@PAPAX@Z 10024d0c f i Exporting:CIFXCLODModifierEncoder.obj
 0001:00023d18       ?SetObjectX@CIFXCLODModifierEncoder@@$4PPPPPPPM@A@AIXAAVIFXUnknown@@@Z 10024d18 f i Exporting:CIFXCLODModifierEncoder.obj
 0001:00023d24       ?EncodeX@CIFXCLODModifierEncoder@@$4PPPPPPPM@A@AIXAAVIFXString@@AAVIFXDataBlockQueueX@@N@Z 10024d24 f i Exporting:CIFXCLODModifierEncoder.obj
 0001:00023d30       ?InitializeX@CIFXCLODModifierEncoder@@$4PPPPPPPM@A@AIXAAVIFXCoreServices@@@Z 10024d30 f i Exporting:CIFXCLODModifierEncoder.obj
 0001:00023d3c       ??_ECIFXDummyModifierEncoder@@EAEPAXI@Z 10024d3c f i Exporting:CIFXDummyModifierEncoder.obj
 0001:00023d3c       ??_GCIFXDummyModifierEncoder@@EAEPAXI@Z 10024d3c f i Exporting:CIFXDummyModifierEncoder.obj
 0001:00023d60       ??1CIFXDummyModifierEncoder@@EAE@XZ 10024d60 f   Exporting:CIFXDummyModifierEncoder.obj
 0001:00023e44       ?CIFXDummyModifierEncoder_Factory@@YIHABUIFXGUID@@PAPAX@Z 10024e44 f   Exporting:CIFXDummyModifierEncoder.obj
 0001:00023f86       ?AddRef@CIFXDummyModifierEncoder@@UAIIXZ 10024f86 f   Exporting:CIFXDummyModifierEncoder.obj
 0001:00023f90       ?Release@CIFXDummyModifierEncoder@@UAIIXZ 10024f90 f   Exporting:CIFXDummyModifierEncoder.obj
 0001:00023fac       ?QueryInterface@CIFXDummyModifierEncoder@@UAIHABUIFXGUID@@PAPAX@Z 10024fac f   Exporting:CIFXDummyModifierEncoder.obj
 0001:00024184       ?SetObjectX@CIFXDummyModifierEncoder@@UAIXAAVIFXUnknown@@@Z 10025184 f   Exporting:CIFXDummyModifierEncoder.obj
 0001:000242c4       ?EncodeX@CIFXDummyModifierEncoder@@UAIXAAVIFXString@@AAVIFXDataBlockQueueX@@N@Z 100252c4 f   Exporting:CIFXDummyModifierEncoder.obj
 0001:00024518       ??0CIFXDummyModifierEncoder@@AAE@XZ 10025518 f   Exporting:CIFXDummyModifierEncoder.obj
 0001:000245a0       ?InitializeX@CIFXDummyModifierEncoder@@UAIXAAVIFXCoreServices@@@Z 100255a0 f   Exporting:CIFXDummyModifierEncoder.obj
 0001:000246cc       ?AddRef@CIFXDummyModifierEncoder@@$4PPPPPPPM@A@AIIXZ 100256cc f i Exporting:CIFXDummyModifierEncoder.obj
 0001:000246d8       ?Release@CIFXDummyModifierEncoder@@$4PPPPPPPM@A@AIIXZ 100256d8 f i Exporting:CIFXDummyModifierEncoder.obj
 0001:000246e4       ?QueryInterface@CIFXDummyModifierEncoder@@$4PPPPPPPM@A@AIHABUIFXGUID@@PAPAX@Z 100256e4 f i Exporting:CIFXDummyModifierEncoder.obj
 0001:000246f0       ?SetObjectX@CIFXDummyModifierEncoder@@$4PPPPPPPM@A@AIXAAVIFXUnknown@@@Z 100256f0 f i Exporting:CIFXDummyModifierEncoder.obj
 0001:000246fc       ?EncodeX@CIFXDummyModifierEncoder@@$4PPPPPPPM@A@AIXAAVIFXString@@AAVIFXDataBlockQueueX@@N@Z 100256fc f i Exporting:CIFXDummyModifierEncoder.obj
 0001:00024708       ?InitializeX@CIFXDummyModifierEncoder@@$4PPPPPPPM@A@AIXAAVIFXCoreServices@@@Z 10025708 f i Exporting:CIFXDummyModifierEncoder.obj
 0001:00024714       ??0IFXString@@QAE@XZ       10025714 f   Exporting:IFXString.obj
 0001:00024726       ??0IFXString@@QAE@PBD@Z    10025726 f   Exporting:IFXString.obj
 0001:000247b8       ??0IFXString@@QAE@I@Z      100257b8 f   Exporting:IFXString.obj
 0001:000247fa       ?Clear@IFXString@@QAEHXZ   100257fa f   Exporting:IFXString.obj
 0001:0002481c       ?LengthU8@IFXString@@QBEIXZ 1002581c f   Exporting:IFXString.obj
 0001:00024838       ?GetLengthU8@IFXString@@QAEHPAI@Z 10025838 f   Exporting:IFXString.obj
 0001:00024864       ?IsEmpty@IFXString@@QAEHXZ 10025864 f   Exporting:IFXString.obj
 0001:0002487c       ?Assign@IFXString@@QAEHPBV1@@Z 1002587c f   Exporting:IFXString.obj
 0001:0002490a       ?Compare@IFXString@@QBEHPBG@Z 1002590a f   Exporting:IFXString.obj
 0001:00024940       ?CompareNoCase@IFXString@@QBEHPBG@Z 10025940 f   Exporting:IFXString.obj
 0001:000249ca       ??1IFXString@@UAE@XZ       100259ca f   Exporting:IFXString.obj
 0001:000249f0       ?ForceLowercase@IFXString@@QAEXXZ 100259f0 f   Exporting:IFXString.obj
 0001:00024a42       ??0IFXString@@QAE@PBV0@@Z  10025a42 f   Exporting:IFXString.obj
 0001:00024aa4       ??0IFXString@@QAE@PBG@Z    10025aa4 f   Exporting:IFXString.obj
 0001:00024b22       ?ForceUppercase@IFXString@@QAEXXZ 10025b22 f   Exporting:IFXString.obj
 0001:00024b74       ?ConvertToRawU8@IFXString@@QAEHPAEI@Z 10025b74 f   Exporting:IFXString.obj
 0001:00024bd0       ?Length@IFXString@@QBEIXZ  10025bd0 f   Exporting:IFXString.obj
 0001:00024be2       ?Substring@IFXString@@QBEHPAV1@II@Z 10025be2 f   Exporting:IFXString.obj
 0001:00024c60       ?Substring@IFXString@@QBEHPAGIII@Z 10025c60 f   Exporting:IFXString.obj
 0001:00024cc0       ?FindSubstring@IFXString@@QBEHPBGPAI@Z 10025cc0 f   Exporting:IFXString.obj
 0001:00024d62       ?SetAt@IFXString@@QAEHIPAG@Z 10025d62 f   Exporting:IFXString.obj
 0001:00024da4       ?GetAt@IFXString@@QAEHIPAG@Z 10025da4 f   Exporting:IFXString.obj
 0001:00024de6       ?IsDigit@IFXString@@QAEHI@Z 10025de6 f   Exporting:IFXString.obj
 0001:00024e16       ?ToString@IFXString@@QAEHID@Z 10025e16 f   Exporting:IFXString.obj
 0001:00024ea4       ?Assign@IFXString@@QAEHPBE@Z 10025ea4 f   Exporting:IFXString.obj
 0001:00024f3a       ?ToValue@IFXString@@QAEHPAID@Z 10025f3a f   Exporting:IFXString.obj
 0001:00024f84       ??HIFXString@@QBE?AV0@ABV0@@Z 10025f84 f   Exporting:IFXString.obj
 0001:00024fa6       ??0IFXString@@QAE@ABV0@@Z  10025fa6 f   Exporting:IFXString.obj
 0001:00024ff6       ?Concatenate@IFXString@@QAEHPBG@Z 10025ff6 f   Exporting:IFXString.obj
 0001:000250a0       ?Assign@IFXString@@QAEHPBG@Z 100260a0 f   Exporting:IFXString.obj
 0001:0002512e       ??HIFXString@@QBE?AV0@PBE@Z 1002612e f   Exporting:IFXString.obj
 0001:0002516e       ??0IFXString@@QAE@PBE@Z    1002616e f   Exporting:IFXString.obj
 0001:00025200       ??HIFXString@@QBE?AV0@PBG@Z 10026200 f   Exporting:IFXString.obj
 0001:0002521e       ?VSPrintf@IFXString@@QAEAAV1@PBGPAD@Z 1002621e f   Exporting:IFXString.obj
 0001:00025312       ?Match@IFXString@@QAEIPBGI@Z 10026312 f   Exporting:IFXString.obj
 0001:00025338       ?IFXMatrix4x4_Multiply@@YAXPAMPBM1@Z 10026338 f   Exporting:IFXMatrix4x4.obj
 0001:000255cc       ?IFXMatrix4x4_MakeIdentity@@YAXPAM@Z 100265cc f   Exporting:IFXMatrix4x4.obj
 0001:00025628       ?IFXMatrix4x4_Scale@@YAXPAMPBM@Z 10026628 f   Exporting:IFXMatrix4x4.obj
 0001:000256b6       ?IFXMatrix4x4_Transpose@@YAXPAM@Z 100266b6 f   Exporting:IFXMatrix4x4.obj
 0001:00025704       ?IFXMatrix4x4_CalcDeterminant3x3@@YAMPBM@Z 10026704 f   Exporting:IFXMatrix4x4.obj
 0001:0002577e       ?CalcDeterminant3x3@@YAMMMMMMMMMM@Z 1002677e f   Exporting:IFXMatrix4x4.obj
 0001:000257d0       ?IFXMatrix4x4_CalcDeterminant@@YAMPBM@Z 100267d0 f   Exporting:IFXMatrix4x4.obj
 0001:0002595c       ?IFXMatrix4x4_Invert@@YAHPAMPBM@Z 1002695c f   Exporting:IFXMatrix4x4.obj
 0001:000260e8       ?IFXMatrix4x4_Multiply3x4@@YAXPAMPBM1@Z 100270e8 f   Exporting:IFXMatrix4x4.obj
 0001:00026270       ??4IFXMatrix4x4@@QAEAAV0@ABVIFXQuaternion@@@Z 10027270 f   Exporting:IFXMatrix4x4.obj
 0001:00026398       ?Scale@IFXMatrix4x4@@QAEAAV1@ABVIFXVector3@@@Z 10027398 f   Exporting:IFXMatrix4x4.obj
 0001:00026426       ?Multiply3x4@IFXMatrix4x4@@QAEAAV1@ABV1@0@Z 10027426 f   Exporting:IFXMatrix4x4.obj
 0001:00026442       ?Multiply@IFXMatrix4x4@@QAEAAV1@ABV1@0@Z 10027442 f   Exporting:IFXMatrix4x4.obj
 0001:0002645e       ?Invert3x4@IFXMatrix4x4@@QAEHABV1@@Z 1002745e f   Exporting:IFXMatrix4x4.obj
 0001:00026472       ?IFXMatrix4x4_Invert3x4@@YAHPAMPBM@Z 10027472 f   Exporting:IFXMatrix4x4.obj
 0001:0002647a       ?IFXMatrix4x4_Invert3x4.@@YAHPAMPBM@Z 1002747a f   Exporting:IFXMatrix4x4.obj
 0001:00026694       ?Invert@IFXMatrix4x4@@QAEHABV1@@Z 10027694 f   Exporting:IFXMatrix4x4.obj
 0001:000266a6       ?CalcDeterminant@IFXMatrix4x4@@QBEMXZ 100276a6 f   Exporting:IFXMatrix4x4.obj
 0001:00026834       ?CalcDeterminant3x3@IFXMatrix4x4@@QBEMXZ 10027834 f   Exporting:IFXMatrix4x4.obj
 0001:0002684a       ?CalcDeterminant3x3@IFXMatrix4x4@@SAMMMMMMMMMM@Z 1002784a f   Exporting:IFXMatrix4x4.obj
 0001:000268a8       ?CalcTRS@IFXMatrix4x4@@QBEHPAVIFXVector3@@PAVIFXQuaternion@@0@Z 100278a8 f   Exporting:IFXMatrix4x4.obj
 0001:0002694a       ?MakeIdentity@IFXMatrix4x4@@QAEAAV1@XZ 1002794a f   Exporting:IFXMatrix4x4.obj
 0001:0002695a       ?Decompose@IFXMatrix4x4@@QBEHAAVIFXVector3@@AAV1@0@Z 1002795a f   Exporting:IFXMatrix4x4.obj
 0001:00027022       ?CalcAxisScale@IFXMatrix4x4@@QBEXAAVIFXVector3@@@Z 10028022 f   Exporting:IFXMatrix4x4.obj
 0001:0002721c       ?Transpose@IFXMatrix4x4@@QAEXXZ 1002821c f   Exporting:IFXMatrix4x4.obj
 0001:00027226       ?RotateAxis@IFXMatrix4x4@@QAEXABVIFXVector4@@M@Z 10028226 f   Exporting:IFXMatrix4x4.obj
 0001:0002740c       ?MakeAuthorCLODStaticGeometryBlockX@CIFXAuthorCLODEncoderX@@AAEXAAVIFXString@@AAVIFXDataBlockQueueX@@AAVIFXMeshMap@@@Z 1002840c f   Exporting:CIFXAuthorCLODEncoderX_S.obj
 0001:00027e1c       ?MakeAuthorCLODProgressiveGeometryBlocksX@CIFXAuthorCLODEncoderX@@AAEXAAVIFXString@@AAVIFXDataBlockQueueX@@AAPAVIFXMeshMap@@@Z 10028e1c f   Exporting:CIFXAuthorCLODEncoderX_P.obj
 0001:0002f758       ?CalculateFaceNormalX@CIFXAuthorCLODEncoderX@@AAEXIAAVIFXVector3@@@Z 10030758 f   Exporting:CIFXAuthorCLODEncoderX_P.obj
 0001:0002fcc4       ??1IFXAuthorVertexUpdate@@QAE@XZ 10030cc4 f i Exporting:CIFXAuthorCLODEncoderX_P.obj
 0001:0002fce0       ??4IFXAuthorVertexUpdate@@QAEAAU0@ABU0@@Z 10030ce0 f i Exporting:CIFXAuthorCLODEncoderX_P.obj
 0001:0002fe08       ??0IFXAuthorMaterial@@QAE@XZ 10030e08 f i Exporting:CIFXAuthorCLODEncoderX_P.obj
 0001:0002fe40       ??_HIFXAuthorFaceUpdate@@QAEPAU0@I@Z 10030e40 f i Exporting:CIFXAuthorCLODEncoderX_P.obj
 0001:0002fe74       ??_ECIFXNodeBaseEncoder@@MAEPAXI@Z 10030e74 f i Exporting:CIFXNodeBaseEncoder.obj
 0001:0002fe74       ??_GCIFXNodeBaseEncoder@@MAEPAXI@Z 10030e74 f i Exporting:CIFXNodeBaseEncoder.obj
 0001:0002fe98       ??1CIFXNodeBaseEncoder@@MAE@XZ 10030e98 f   Exporting:CIFXNodeBaseEncoder.obj
 0001:0002ff04       ??0CIFXNodeBaseEncoder@@IAE@XZ 10030f04 f   Exporting:CIFXNodeBaseEncoder.obj
 0001:0002ff1e       ?CommonNodeEncodeU3D@CIFXNodeBaseEncoder@@IAEXAAVIFXString@@N@Z 10030f1e f   Exporting:CIFXNodeBaseEncoder.obj
 0001:00030336       ?SetNode@CIFXNodeBaseEncoder@@IAEXAAVIFXNode@@@Z 10031336 f   Exporting:CIFXNodeBaseEncoder.obj
 0001:000303cc       ?Initialize@CIFXNodeBaseEncoder@@IAEXAAVIFXCoreServices@@@Z 100313cc f   Exporting:CIFXNodeBaseEncoder.obj
 0001:00030588       ??0IFXCoreArray@@QAE@I@Z   10031588 f   Exporting:IFXCoreArray.obj
 0001:000305a8       ?Clear@IFXCoreArray@@UAEXI@Z 100315a8 f   Exporting:IFXCoreArray.obj
 0001:000305dc       ?ResizeToExactly@IFXCoreArray@@QAEXI@Z 100315dc f   Exporting:IFXCoreArray.obj
 0001:00030638       ?ResizeToAtLeast@IFXCoreArray@@QAEXI@Z 10031638 f   Exporting:IFXCoreArray.obj
 0001:00030680       ??0IFXVertexMap@@QAE@XZ    10031680 f   Exporting:IFXVertexMap.obj
 0001:00030690       ??1IFXVertexMap@@QAE@XZ    10031690 f   Exporting:IFXVertexMap.obj
 0001:0003070e       ?GetNumMapEntries@IFXVertexMap@@QAEIXZ 1003170e f   Exporting:IFXVertexMap.obj
 0001:00030712       ?Concatenate@IFXVertexMap@@QAEHPAII@Z 10031712 f   Exporting:IFXVertexMap.obj
 0001:00030a14       ?ConcatenateVertexMap@IFXVertexMap@@QAEHPAV1@PAPAV1@@Z 10031a14 f   Exporting:IFXVertexMap.obj
 0001:00030ca0       ?AllocateMap@IFXVertexMap@@QAEHI@Z 10031ca0 f   Exporting:IFXVertexMap.obj
 0001:00030d76       ?AddVertex@IFXVertexMap@@QAEHIII@Z 10031d76 f   Exporting:IFXVertexMap.obj
 0001:00030e58       _WCMatch                   10031e58 f   Exporting:wcmatch.obj
 0001:00030e80       _WCMatchPos                10031e80 f   Exporting:wcmatch.obj
 0001:00030e8c       _WCMatchPos.               10031e8c f   Exporting:wcmatch.obj
 0001:00030f24       ?_wc_match@@YAPBGPBG0H@Z   10031f24 f   Exporting:wcmatch.obj
 0001:00030f30       ?_wc_match.@@YAPBGPBG0H@Z  10031f30 f   Exporting:wcmatch.obj
 0001:0003108c       ?_wc_specialchar@@YAHH@Z   1003208c f   Exporting:wcmatch.obj
 0001:00031090       ?_wc_specialchar.@@YAHH@Z  10032090 f   Exporting:wcmatch.obj
 0001:000310a8       ?_equal_chars@@YAHHHH@Z    100320a8 f   Exporting:wcmatch.obj
 0001:000310b4       ?_equal_chars.@@YAHHHH@Z   100320b4 f   Exporting:wcmatch.obj
 0001:000310f0       _WCPossible                100320f0 f   Exporting:wcmatch.obj
 0001:000310fc       _WCPossible.               100320fc f   Exporting:wcmatch.obj
 0001:0003116a       ?_wc_ci_strchr@@YAPBGPBGGH@Z 1003216a f   Exporting:wcmatch.obj
 0001:00031177       ?_wc_ci_strchr.@@YAPBGPBGGH@Z 10032177 f   Exporting:wcmatch.obj
 0001:000311d0       ??4IFXQuaternion@@QAEAAV0@ABVIFXMatrix4x4@@@Z 100321d0 f   Exporting:IFXQuaternion.obj
 0001:00031434       ?MakeRotation@IFXQuaternion@@QAEXMW4IFXAxisID@@@Z 10032434 f   Exporting:IFXQuaternion.obj
 0001:00031486       ?MakeRotation@IFXQuaternion@@QAEXMABVIFXVector3@@@Z 10032486 f   Exporting:IFXQuaternion.obj
 0001:000315d0       ?MakeRotation@IFXQuaternion@@QAEXABVIFXVector3@@0@Z 100325d0 f   Exporting:IFXQuaternion.obj
 0001:000318b6       ?ComputeAngleAxis@IFXQuaternion@@QBEXAAMAAVIFXVector3@@@Z 100328b6 f   Exporting:IFXQuaternion.obj
 0001:000319ba       ?Interpolate@IFXQuaternion@@QAEXMABV1@0@Z 100329ba f   Exporting:IFXQuaternion.obj
 0001:00031bf4       ?ExtractEulerZ@IFXQuaternion@@QAEMXZ 10032bf4 f   Exporting:IFXQuaternion.obj
 0001:00031e6e       ?ForcePositiveW@IFXQuaternion@@QAEXXZ 10032e6e f   Exporting:IFXQuaternion.obj
 0001:00031ea0       @IFXDeallocate@4           10032ea0 f   IFXCore:IFXCore.dll
 0001:00031ea6       @IFXAllocate@4             10032ea6 f   IFXCore:IFXCore.dll
 0001:00031eac       @IFXCreateComponent@12     10032eac f   IFXCore:IFXCore.dll
 0001:00031eb2       @IFXGetMemoryFunctions@12  10032eb2 f   IFXCore:IFXCore.dll
 0001:00031eb8       @IFXSetMemoryFunctions@12  10032eb8 f   IFXCore:IFXCore.dll
 0001:00031ebe       @IFXReallocate@8           10032ebe f   IFXCore:IFXCore.dll
 0001:00031ec4       _pow                       10032ec4 f   libmmt:pow_stub.omu
 0001:00031eec       _sqrt                      10032eec f   libmmt:sqrt_stub.omu
 0001:00031f14       _cos                       10032f14 f   libmmt:cos_stub.omu
 0001:00031f3c       _sin                       10032f3c f   libmmt:sin_stub.omu
 0001:00031f64       _acos                      10032f64 f   libmmt:acos_stub.omu
 0001:00031f8c       _atan2                     10032f8c f   libmmt:atan2_stub.omu
 0001:00031fb4       _pow.J                     10032fb4 f   libmmt:pow_wmt.omu
 0001:00033034       _pow.A                     10034034 f   libmmt:pow_gen.omu
 0001:00034068       _sqrt.J                    10035068 f   libmmt:sqrt_wmt.omu
 0001:000340e8       _sqrt.A                    100350e8 f   libmmt:sqrt_gen.omu
 0001:00034164       _cos.J                     10035164 f   libmmt:cos_wmt.omu
 0001:00034330       _cos.A                     10035330 f   libmmt:cos_gen.omu
 0001:000347e8       _sin.J                     100357e8 f   libmmt:sin_wmt.omu
 0001:000349cc       _sin.A                     100359cc f   libmmt:sin_gen.omu
 0001:00034ee0       _acos.J                    10035ee0 f   libmmt:acos_wmt.omu
 0001:000353fc       _acos.A                    100363fc f   libmmt:acos_gen.omu
 0001:00035834       _atan2.J                   10036834 f   libmmt:atan2_wmt.omu
 0001:00035e30       _atan2.A                   10036e30 f   libmmt:atan2_gen.omu
 0001:00035ebc       ___libm_error_support      10036ebc f   libmmt:libm_error.omu
 0001:0003ccf0       ___libm_sincos_huge        1003dcf0 f   libmmt:libm_sincos_huge.omu
 0001:0003d210       ___libm_reduce_pi04l       1003e210 f   libmmt:libm_reduce_pi04l.omu
 0001:0003d5fc       _matherrl                  1003e5fc f   libmmt:matherrl.omu
 0001:0003d5fc       _matherr                   1003e5fc f   libmmt:matherr.omu
 0001:0003d5fc       _matherrf                  1003e5fc f   libmmt:matherrf.omu
 0001:0003d604       __CRT_INIT@12              1003e604 f   LIBCMT:dllcrt0.obj
 0001:0003d785       __DllMainCRTStartup@12     1003e785 f   LIBCMT:dllcrt0.obj
 0001:0003d869       __amsg_exit                1003e869 f   LIBCMT:dllcrt0.obj
 0001:0003d89c       __fpclear                  1003e89c f   LIBCMT:fpinit.obj
 0001:0003d89d       __cfltcvt_init             1003e89d f   LIBCMT:fpinit.obj
 0001:0003d8d5       __fpmath                   1003e8d5 f   LIBCMT:fpinit.obj
 0001:0003d8f4       __global_unwind2           1003e8f4 f   LIBCMT:exsup.obj
 0001:0003d936       __local_unwind2            1003e936 f   LIBCMT:exsup.obj
 0001:0003d98e       __NLG_Return2              1003e98e     LIBCMT:exsup.obj
 0001:0003d99e       __abnormal_termination     1003e99e f   LIBCMT:exsup.obj
 0001:0003d9c1       __NLG_Notify1              1003e9c1 f   LIBCMT:exsup.obj
 0001:0003d9ca       __NLG_Notify               1003e9ca f   LIBCMT:exsup.obj
 0001:0003d9dd       __NLG_Dispatch             1003e9dd     LIBCMT:exsup.obj
 0001:0003d9e2       ?_JumpToContinuation@@YGXPAXPAUEHRegistrationNode@@@Z 1003e9e2 f   LIBCMT:trnsctrl.obj
 0001:0003da12       ?_CallMemberFunction2@@YGXPAX00H@Z 1003ea12 f   LIBCMT:trnsctrl.obj
 0001:0003da12       ?_CallMemberFunction0@@YGXPAX0@Z 1003ea12 f   LIBCMT:trnsctrl.obj
 0001:0003da12       ?_CallMemberFunction1@@YGXPAX00@Z 1003ea12 f   LIBCMT:trnsctrl.obj
 0001:0003da19       ?_UnwindNestedFrames@@YGXPAUEHRegistrationNode@@PAUEHExceptionRecord@@@Z 1003ea19 f   LIBCMT:trnsctrl.obj
 0001:0003da6b       ___CxxFrameHandler         1003ea6b f   LIBCMT:trnsctrl.obj
 0001:0003dadc       ?_CallSETranslator@@YAHPAUEHExceptionRecord@@PAUEHRegistrationNode@@PAX2PBU_s_FuncInfo@@H1@Z 1003eadc f   LIBCMT:trnsctrl.obj
 0001:0003dc55       ?_GetRangeOfTrysToCheck@@YAPBU_s_TryBlockMapEntry@@PBU_s_FuncInfo@@HHPAI1@Z 1003ec55 f   LIBCMT:trnsctrl.obj
 0001:0003dccf       ?_CreateFrameInfo@@YAPAUFrameInfo@@PAU1@PAX@Z 1003eccf f   LIBCMT:trnsctrl.obj
 0001:0003dcf7       ?IsExceptionObjectToBeDestroyed@@YAHPAX@Z 1003ecf7 f   LIBCMT:trnsctrl.obj
 0001:0003dd18       ?_FindAndUnlinkFrame@@YAXPAUFrameInfo@@@Z 1003ed18 f   LIBCMT:trnsctrl.obj
 0001:0003dd64       ?_CallCatchBlock2@@YAPAXPAUEHRegistrationNode@@PBU_s_FuncInfo@@PAXHK@Z 1003ed64 f   LIBCMT:trnsctrl.obj
 0001:0003ddbd       __CxxThrowException@8      1003edbd f   LIBCMT:throw.obj
 0001:0003ddf7       ??1type_info@@UAE@XZ       1003edf7 f   LIBCMT:typinfo.obj
 0001:0003de3d       ??_Etype_info@@UAEPAXI@Z   1003ee3d f i LIBCMT:typinfo.obj
 0001:0003de3d       ??_Gtype_info@@UAEPAXI@Z   1003ee3d f i LIBCMT:typinfo.obj
 0001:0003de59       __purecall                 1003ee59 f   LIBCMT:purevirt.obj
 0001:0003de6d       ?__ArrayUnwind@@YGXPAXIHP6EX0@Z@Z 1003ee6d f   LIBCMT:ehvecdtr.obj
 0001:0003decb       ??_M@YGXPAXIHP6EX0@Z@Z     1003eecb f   LIBCMT:ehvecdtr.obj
 0001:0003df2b       ??_L@YGXPAXIHP6EX0@Z1@Z    1003ef2b f   LIBCMT:ehvecctr.obj
 0001:0003df8d       __fclose_lk                1003ef8d f   LIBCMT:fclose.obj
 0001:0003dfd9       _fclose                    1003efd9 f   LIBCMT:fclose.obj
 0001:0003e02a       __fseek_lk                 1003f02a f   LIBCMT:fseek.obj
 0001:0003e0b9       _fseek                     1003f0b9 f   LIBCMT:fseek.obj
 0001:0003e102       __fwrite_lk                1003f102 f   LIBCMT:fwrite.obj
 0001:0003e209       _fwrite                    1003f209 f   LIBCMT:fwrite.obj
 0001:0003e255       _wcscat                    1003f255 f   LIBCMT:wcscat.obj
 0001:0003e27f       _wcscpy                    1003f27f f   LIBCMT:wcscat.obj
 0001:0003e29b       _wcscmp                    1003f29b f   LIBCMT:wcscmp.obj
 0001:0003e2cd       ___towlower_mt             1003f2cd f   LIBCMT:towlower.obj
 0001:0003e32e       _towlower                  1003f32e f   LIBCMT:towlower.obj
 0001:0003e379       _wcslen                    1003f379 f   LIBCMT:wcslen.obj
 0001:0003e38f       ___towupper_mt             1003f38f f   LIBCMT:towupper.obj
 0001:0003e3f0       _towupper                  1003f3f0 f   LIBCMT:towupper.obj
 0001:0003e433       _wcsncpy                   1003f433 f   LIBCMT:wcsncpy.obj
 0001:0003e470       _wcsncmp                   1003f470 f   LIBCMT:wcsncmp.obj
 0001:0003e4a5       _iswdigit                  1003f4a5 f   LIBCMT:_wctype.obj
 0001:0003e692       _wcstol                    1003f692 f   LIBCMT:wcstol.obj
 0001:0003e6a9       ?vswprintf@@YAHPA_WIPB_WPAD@Z 1003f6a9 f   LIBCMT:vswprinn.obj
 0001:0003e718       ?vswprintf@@YAHPAGIPBGPAD@Z 1003f718 f   LIBCMT:vswprinn.obj
 0001:0003e71d       ___toupper_mt              1003f71d f   LIBCMT:toupper.obj
 0001:0003e7e6       _toupper                   1003f7e6 f   LIBCMT:toupper.obj
 0001:0003e808       _wcschr                    1003f808 f   LIBCMT:wcschr.obj
 0001:0003e82a       ___initstdio               1003f82a f   LIBCMT:_file.obj
 0001:0003e8d3       ___endstdio                1003f8d3 f   LIBCMT:_file.obj
 0001:0003e8e7       __lock_file                1003f8e7 f   LIBCMT:_file.obj
 0001:0003e916       __lock_file2               1003f916 f   LIBCMT:_file.obj
 0001:0003e939       __unlock_file              1003f939 f   LIBCMT:_file.obj
 0001:0003e968       __unlock_file2             1003f968 f   LIBCMT:_file.obj
 0001:0003e98b       __errno                    1003f98b f   LIBCMT:dosmap.obj
 0001:0003e994       ___doserrno                1003f994 f   LIBCMT:dosmap.obj
 0001:0003e99d       __dosmaperr                1003f99d f   LIBCMT:dosmap.obj
 0001:0003ea10       _fputs                     1003fa10 f   LIBCMT:fputs.obj
 0001:0003ea81       ___crtExitProcess          1003fa81 f   LIBCMT:crt0dat.obj
 0001:0003eab1       __lockexit                 1003fab1 f   LIBCMT:crt0dat.obj
 0001:0003eaba       __unlockexit               1003faba f   LIBCMT:crt0dat.obj
 0001:0003eadb       __cinit                    1003fadb f   LIBCMT:crt0dat.obj
 0001:0003ec08       _exit                      1003fc08 f   LIBCMT:crt0dat.obj
 0001:0003ec19       __exit                     1003fc19 f   LIBCMT:crt0dat.obj
 0001:0003ec2a       __cexit                    1003fc2a f   LIBCMT:crt0dat.obj
 0001:0003ec39       ___crtTlsAlloc@4           1003fc39 f   LIBCMT:tidtable.obj
 0001:0003ec42       __mtterm                   1003fc42 f   LIBCMT:tidtable.obj
 0001:0003ec5f       __initptd                  1003fc5f f   LIBCMT:tidtable.obj
 0001:0003ec72       __getptd                   1003fc72 f   LIBCMT:tidtable.obj
 0001:0003ece3       __freefls@4                1003fce3 f   LIBCMT:tidtable.obj
 0001:0003ee2a       __freeptd                  1003fe2a f   LIBCMT:tidtable.obj
 0001:0003ee59       __mtinit                   1003fe59 f   LIBCMT:tidtable.obj
 0001:0003ef48       _free                      1003ff48 f   LIBCMT:free.obj
 0001:0003efb9       _calloc                    1003ffb9 f   LIBCMT:calloc.obj
 0001:0003f074       __ioinit                   10040074 f   LIBCMT:ioinit.obj
 0001:0003f272       __ioterm                   10040272 f   LIBCMT:ioinit.obj
 0001:0003f2be       __setenvp                  100402be f   LIBCMT:stdenvp.obj
 0001:0003f4f1       __setargv                  100404f1 f   LIBCMT:stdargv.obj
 0001:0003f593       ___crtGetEnvironmentStringsA 10040593 f   LIBCMT:a_env.obj
 0001:0003f6b5       __RTC_Initialize           100406b5 f   LIBCMT:initsect.obj
 0001:0003f6f9       __RTC_Terminate            100406f9 f   LIBCMT:initsect.obj
 0001:0003f73d       ___heap_select             1004073d f   LIBCMT:heapinit.obj
 0001:0003f757       __heap_init                10040757 f   LIBCMT:heapinit.obj
 0001:0003f7a8       __heap_term                100407a8 f   LIBCMT:heapinit.obj
 0001:0003f830       __chkstk                   10040830 f   LIBCMT:chkstk.obj
 0001:0003f830       __alloca_probe             10040830     LIBCMT:chkstk.obj
 0001:0003f86d       __XcptFilter               1004086d f   LIBCMT:winxfltr.obj
 0001:0003f9d1       ___CppXcptFilter           100409d1 f   LIBCMT:winxfltr.obj
 0001:0003f9ec       __SEH_prolog               100409ec f   LIBCMT:sehprolg.obj
 0001:0003fa27       __SEH_epilog               10040a27 f   LIBCMT:sehprolg.obj
 0001:0003fa40       __except_handler3          10040a40 f   LIBCMT:exsup3.obj
 0001:0003fb26       __seh_longjmp_unwind@4     10040b26 f   LIBCMT:exsup3.obj
 0001:0003fb41       __NMSG_WRITE               10040b41 f   LIBCMT:crt0msg.obj
 0001:0003fcb8       __FF_MSGBANNER             10040cb8 f   LIBCMT:crt0msg.obj
 0001:0003fcf1       __forcdecpt                10040cf1 f   LIBCMT:cvt.obj
 0001:0003fd2d       __cropzeros                10040d2d f   LIBCMT:cvt.obj
 0001:0003fd78       __positive                 10040d78 f   LIBCMT:cvt.obj
 0001:0003fd92       __fassign                  10040d92 f   LIBCMT:cvt.obj
 0001:0003fe9b       __cftoe                    10040e9b f   LIBCMT:cvt.obj
 0001:0003ffa3       __cftof                    10040fa3 f   LIBCMT:cvt.obj
 0001:00040005       __cftog                    10041005 f   LIBCMT:cvt.obj
 0001:0004009f       __cfltcvt                  1004109f f   LIBCMT:cvt.obj
 0001:000400f0       __setdefaultprecision      100410f0 f   LIBCMT:fp8.obj
 0001:00040102       __ms_p5_test_fdiv          10041102 f   LIBCMT:testfdiv.obj
 0001:00040142       __ms_p5_mp_test_fdiv       10041142 f   LIBCMT:testfdiv.obj
 0001:000401d8       ___FrameUnwindToState      100411d8 f   LIBCMT:frame.obj
 0001:000402a6       ___DestructExceptionObject 100412a6 f   LIBCMT:frame.obj
 0001:00040973       ___InternalCxxFrameHandler 10041973 f   LIBCMT:frame.obj
 0001:00040a15       ?terminate@@YAXXZ          10041a15 f   LIBCMT:hooks.obj
 0001:00040a4a       ?_inconsistency@@YAXXZ     10041a4a f   LIBCMT:hooks.obj
 0001:00040a80       __CallSettingFrame@12      10041a80 f   LIBCMT:lowhelpr.obj
 0001:00040aa7       __NLG_Return               10041aa7     LIBCMT:lowhelpr.obj
 0001:00040acc       ?__CxxUnhandledExceptionFilter@@YGJPAU_EXCEPTION_POINTERS@@@Z 10041acc f   LIBCMT:unhandld.obj
 0001:00040b1a       ?__CxxSetUnhandledExceptionFilter@@YAHXZ 10041b1a f   LIBCMT:unhandld.obj
 0001:00040b2d       ?__CxxRestoreUnhandledExceptionFilter@@YAXXZ 10041b2d f   LIBCMT:unhandld.obj
 0001:00040b3a       __mtinitlocks              10041b3a f   LIBCMT:mlock.obj
 0001:00040b83       __mtdeletelocks            10041b83 f   LIBCMT:mlock.obj
 0001:00040bd8       __unlock                   10041bd8 f   LIBCMT:mlock.obj
 0001:00040bed       __mtinitlocknum            10041bed f   LIBCMT:mlock.obj
 0001:00040c8d       __lock                     10041c8d f   LIBCMT:mlock.obj
 0001:00040cc0       _strcmp                    10041cc0 f   LIBCMT:strcmp.obj
 0001:00040d48       __close_lk                 10041d48 f   LIBCMT:close.obj
 0001:00040dcb       __close                    10041dcb f   LIBCMT:close.obj
 0001:00040e66       __freebuf                  10041e66 f   LIBCMT:_freebuf.obj
 0001:00040e91       __flush                    10041e91 f   LIBCMT:fflush.obj
 0001:00040eee       __fflush_lk                10041eee f   LIBCMT:fflush.obj
 0001:00040ff1       __flushall                 10041ff1 f   LIBCMT:fflush.obj
 0001:00040ffa       __lseek_lk                 10041ffa f   LIBCMT:lseek.obj
 0001:0004106e       __lseek                    1004206e f   LIBCMT:lseek.obj
 0001:00041119       __ftell_lk                 10042119 f   LIBCMT:ftell.obj
 0001:0004127b       __flsbuf                   1004227b f   LIBCMT:_flsbuf.obj
 0001:00041394       __write_lk                 10042394 f   LIBCMT:write.obj
 0001:00041562       __write                    10042562 f   LIBCMT:write.obj
 0001:00041610       _memcpy                    10042610 f   LIBCMT:memcpy.obj
 0001:0004194d       ___crtLCMapStringW         1004294d f   LIBCMT:w_map.obj
 0001:00041ba6       ___iswctype_mt             10042ba6 f   LIBCMT:iswctype.obj
 0001:00041bfd       _iswctype                  10042bfd f   LIBCMT:iswctype.obj
 0001:00041c4f       ___freetlocinfo            10042c4f f   LIBCMT:setlocal.obj
 0001:00041de0       __strcats                  10042de0 f   LIBCMT:setlocal.obj
 0001:00041e04       ___lc_strtolc              10042e04 f   LIBCMT:setlocal.obj
 0001:00041ee0       ___lc_lctostr              10042ee0 f   LIBCMT:setlocal.obj
 0001:00041f2e       ___updatetlocinfo          10042f2e f   LIBCMT:setlocal.obj
 0001:00042028       __expandlocale             10043028 f   LIBCMT:setlocal.obj
 0001:000425ec       _setlocale                 100435ec f   LIBCMT:setlocal.obj
 0001:00042746       __wchartodigit             10043746 f   LIBCMT:wchtodig.obj
 0001:00042943       __woutput                  10043943 f   LIBCMT:woutput.obj
 0001:00043173       ___crtLCMapStringA         10044173 f   LIBCMT:a_map.obj
 0001:0004352f       ___isctype_mt              1004452f f   LIBCMT:isctype.obj
 0001:000435a6       __fcloseall                100445a6 f   LIBCMT:closeall.obj
 0001:00043641       __stbuf                    10044641 f   LIBCMT:_sftbuf.obj
 0001:000436c9       __ftbuf                    100446c9 f   LIBCMT:_sftbuf.obj
 0001:00043700       _strlen                    10044700 f   LIBCMT:strlen.obj
 0001:0004380b       ___onexitinit              1004480b f   LIBCMT:onexit.obj
 0001:00043833       __onexit                   10044833 f   LIBCMT:onexit.obj
 0001:0004386b       _atexit                    1004486b f   LIBCMT:onexit.obj
 0001:00043bf1       __setmbcp                  10044bf1 f   LIBCMT:mbctype.obj
 0001:00043d41       ___initmbctable            10044d41 f   LIBCMT:mbctype.obj
 0001:00043d5f       ___sbh_heap_init           10044d5f f   LIBCMT:sbheap.obj
 0001:00043da7       ___sbh_find_block          10044da7 f   LIBCMT:sbheap.obj
 0001:00043dd2       ___sbh_free_block          10044dd2 f   LIBCMT:sbheap.obj
 0001:000440ea       ___sbh_alloc_new_region    100450ea f   LIBCMT:sbheap.obj
 0001:000441a1       ___sbh_alloc_new_group     100451a1 f   LIBCMT:sbheap.obj
 0001:000442a7       ___sbh_resize_block        100452a7 f   LIBCMT:sbheap.obj
 0001:00044586       ___sbh_alloc_block         10045586 f   LIBCMT:sbheap.obj
 0001:00044882       __callnewh                 10045882 f   LIBCMT:handler.obj
 0001:000448a0       _memset                    100458a0 f   LIBCMT:memset.obj
 0001:00044910       ___crtInitCritSecAndSpinCount 10045910 f   LIBCMT:initcrit.obj
 0001:0004499b       __heap_alloc               1004599b f   LIBCMT:malloc.obj
 0001:00044a16       __nh_malloc                10045a16 f   LIBCMT:malloc.obj
 0001:00044a42       _malloc                    10045a42 f   LIBCMT:malloc.obj
 0001:00044a60       _strcpy                    10045a60 f   LIBCMT:strcat.obj
 0001:00044a70       _strcat                    10045a70 f   LIBCMT:strcat.obj
 0001:00044b58       __ValidateEH3RN            10045b58 f   LIBCMT:eh3valid.obj
 0001:00044d81       ___crtMessageBoxA          10045d81 f   LIBCMT:crtmbox.obj
 0001:00044e80       _strncpy                   10045e80 f   LIBCMT:strncpy.obj
 0001:00044fd5       @__security_check_cookie@4 10045fd5 f   LIBCMT:secchk.obj
 0001:00044fe3       _isdigit                   10045fe3 f   LIBCMT:_ctype.obj
 0001:0004501d       ___tolower_mt              1004601d f   LIBCMT:tolower.obj
 0001:000450e5       _tolower                   100460e5 f   LIBCMT:tolower.obj
 0001:00045107       __ZeroTail                 10046107 f   LIBCMT:intrncvt.obj
 0001:00045139       __IncMan                   10046139 f   LIBCMT:intrncvt.obj
 0001:00045186       __RoundMan                 10046186 f   LIBCMT:intrncvt.obj
 0001:000451f8       __CopyMan                  100461f8 f   LIBCMT:intrncvt.obj
 0001:00045213       __IsZeroMan                10046213 f   LIBCMT:intrncvt.obj
 0001:0004522c       __ShrMan                   1004622c f   LIBCMT:intrncvt.obj
 0001:000452a7       __ld12cvt                  100462a7 f   LIBCMT:intrncvt.obj
 0001:000453ff       __ld12tod                  100463ff f   LIBCMT:intrncvt.obj
 0001:00045415       __ld12tof                  10046415 f   LIBCMT:intrncvt.obj
 0001:0004542b       __atodbl                   1004642b f   LIBCMT:intrncvt.obj
 0001:00045468       __atoflt                   10046468 f   LIBCMT:intrncvt.obj
 0001:000454b0       _memmove                   100464b0 f   LIBCMT:memmove.obj
 0001:000457ed       __fptostr                  100467ed f   LIBCMT:_fptostr.obj
 0001:00045864       ___dtold                   10046864 f   LIBCMT:cfout.obj
 0001:0004591e       __fltout2                  1004691e f   LIBCMT:cfout.obj
 0001:0004598a       __fptrap                   1004698a f   LIBCMT:crt0fp.obj
 0001:00045ab3       __control87                10046ab3 f   LIBCMT:ieee87.obj
 0001:00045ae5       __controlfp                10046ae5 f   LIBCMT:ieee87.obj
 0001:00045afb       ?_ValidateRead@@YAHPBXI@Z  10046afb f   LIBCMT:validate.obj
 0001:00045b17       ?_ValidateWrite@@YAHPAXI@Z 10046b17 f   LIBCMT:validate.obj
 0001:00045b33       ?_ValidateExecute@@YAHP6GHXZ@Z 10046b33 f   LIBCMT:validate.obj
 0001:00045b4b       _abort                     10046b4b f   LIBCMT:abort.obj
 0001:00045b63       __set_osfhnd               10046b63 f   LIBCMT:osfinfo.obj
 0001:00045bdf       __free_osfhnd              10046bdf f   LIBCMT:osfinfo.obj
 0001:00045c5e       __get_osfhandle            10046c5e f   LIBCMT:osfinfo.obj
 0001:00045c9f       __lock_fhandle             10046c9f f   LIBCMT:osfinfo.obj
 0001:00045d3f       __unlock_fhandle           10046d3f f   LIBCMT:osfinfo.obj
 0001:00045d61       __alloc_osfhnd             10046d61 f   LIBCMT:osfinfo.obj
 0001:00045edd       __commit                   10046edd f   LIBCMT:commit.obj
 0001:00045f99       __getbuf                   10046f99 f   LIBCMT:_getbuf.obj
 0001:00045fdd       __isatty                   10046fdd f   LIBCMT:isatty.obj
 0001:00046007       __lseeki64_lk              10047007 f   LIBCMT:lseeki64.obj
 0001:0004608a       __resetstkoflw             1004708a f   LIBCMT:resetstk.obj
 0001:0004616d       ___ansicp                  1004716d f   LIBCMT:convrtcp.obj
 0001:000461b0       ___convertcp               100471b0 f   LIBCMT:convrtcp.obj
 0001:00046379       ___crtGetStringTypeW       10047379 f   LIBCMT:w_str.obj
 0001:00046905       ___free_lc_time            10047905 f   LIBCMT:inittime.obj
 0001:00046a95       ___init_time               10047a95 f   LIBCMT:inittime.obj
 0001:00046af4       ___free_lconv_num          10047af4 f   LIBCMT:initnum.obj
 0001:00046b53       ___init_numeric            10047b53 f   LIBCMT:initnum.obj
 0001:00046d20       ___free_lconv_mon          10047d20 f   LIBCMT:initmon.obj
 0001:00046df9       ___init_monetary           10047df9 f   LIBCMT:initmon.obj
 0001:00047038       ___init_ctype              10048038 f   LIBCMT:initctyp.obj
 0001:00047222       ___init_collate            10048222 f   LIBCMT:initcoll.obj
 0001:00047222       ___init_dummy              10048222 f   LIBCMT:setlocal.obj
 0001:00047230       _strcspn                   10048230 f   LIBCMT:strcspn.obj
 0001:000479b5       ___get_qualified_locale    100489b5 f   LIBCMT:getqloc.obj
 0001:00047b70       _memcmp                    10048b70 f   LIBCMT:memcmp.obj
 0001:00047c28       ___crtGetStringTypeA       10048c28 f   LIBCMT:a_str.obj
 0001:00047df0       _strncmp                   10048df0 f   LIBCMT:strncmp.obj
 0001:00047e30       _strpbrk                   10048e30 f   LIBCMT:strpbrk.obj
 0001:00047e70       __putwc_lk                 10048e70 f   LIBCMT:fputwc.obj
 0001:00047f46       ___mbtowc_mt               10048f46 f   LIBCMT:mbtowc.obj
 0001:00048006       _mbtowc                    10049006 f   LIBCMT:mbtowc.obj
 0001:00048040       __aulldvrm                 10049040 f   LIBCMT:ulldvrm.obj
 0001:000480d5       _realloc                   100490d5 f   LIBCMT:realloc.obj
 0001:00048282       __msize                    10049282 f   LIBCMT:msize.obj
 0001:000482f8       ___security_init_cookie    100492f8 f   LIBCMT:seccinit.obj
 0001:0004835e       ___security_error_handler  1004935e f   LIBCMT:secfail.obj
 0001:000484a6       ___addl                    100494a6 f   LIBCMT:mantold.obj
 0001:000484c7       ___add_12                  100494c7 f   LIBCMT:mantold.obj
 0001:00048525       ___shl_12                  10049525 f   LIBCMT:mantold.obj
 0001:00048553       ___shr_12                  10049553 f   LIBCMT:mantold.obj
 0001:00048580       ___mtold12                 10049580 f   LIBCMT:mantold.obj
 0001:0004865e       ___strgtold12              1004965e f   LIBCMT:strgtold.obj
 0001:00048a92       _$I10_OUTPUT               10049a92 f   LIBCMT:x10fout.obj
 0001:00048d4e       _raise                     10049d4e f   LIBCMT:winsig.obj
 0001:00048ec7       _atol                      10049ec7 f   LIBCMT:atox.obj
 0001:00048f50       ___ascii_stricmp           10049f50 f   LIBCMT:_stricmp.obj
 0001:00048f9e       ___getlocaleinfo           10049f9e f   LIBCMT:inithelp.obj
 0001:000490c5       __stricmp                  1004a0c5 f   LIBCMT:stricmp.obj
 0001:0004912e       __strnicmp                 1004a12e f   LIBCMT:strnicmp.obj
 0001:000491eb       __itoa                     1004a1eb f   LIBCMT:xtoa.obj
 0001:00049215       __flswbuf                  1004a215 f   LIBCMT:_flswbuf.obj
 0001:0004933d       ___wctomb_mt               1004a33d f   LIBCMT:wctomb.obj
 0001:0004939d       _wctomb                    1004a39d f   LIBCMT:wctomb.obj
 0001:000493c4       ___ld12mul                 1004a3c4 f   LIBCMT:tenpow.obj
 0001:000495f6       ___multtenpow12            1004a5f6 f   LIBCMT:tenpow.obj
 0001:00049680       __allmul                   1004a680 f   LIBCMT:llmul.obj
 0001:000496b4       ___crtGetLocaleInfoW       1004a6b4 f   LIBCMT:w_loc.obj
 0001:000497e4       ___crtGetLocaleInfoA       1004a7e4 f   LIBCMT:a_loc.obj
 0001:00049930       ___ascii_strnicmp          1004a930 f   LIBCMT:_strnicm.obj
 0001:000499b0       _strchr                    1004a9b0 f   LIBCMT:strchr.obj
 0001:000499b6       ___from_strstr_to_strchr   1004a9b6     LIBCMT:strchr.obj
 0001:00049a70       __intel_fast_memset.A      1004aa70 f   libirc:fastmemset.obj
 0001:00049a88       __intel_fast_memset        1004aa88 f   libirc:fastmemset.obj
 0001:00049ac0       __intel_fast_memset.J      1004aac0 f   libirc:fastmemset.obj
 0001:00049ac0       __intel_fast_memset.H      1004aac0 f   libirc:fastmemset.obj
 0001:00049ac8       __intel_fast_memcpy.A      1004aac8 f   libirc:fastmemcpy.obj
 0001:00049ae0       __intel_fast_memcpy.H      1004aae0 f   libirc:fastmemcpy.obj
 0001:00049ae0       __intel_fast_memcpy.J      1004aae0 f   libirc:fastmemcpy.obj
 0001:00049ae8       __intel_fast_memcpy        1004aae8 f   libirc:fastmemcpy.obj
 0001:00049b20       ___intel_cpu_indicator_init 1004ab20 f   libirc:cpu_disp.obj
 0001:00049c90       ___intel_new_memset        1004ac90 f   libirc:fast_memset.obj
 0001:0004a710       ___intel_new_memcpy        1004b710 f   libirc:fast_memcpy.obj
 0001:0004b990       _init_mem_ops_method       1004c990 f   libirc:fast_mem_ops.obj
 0001:0004bb88       _RtlUnwind@16              1004cb88 f   kernel32:KERNEL32.dll
 0001:0004bb90       @IFXOSCheckCPUFeature@4    1004cb90 f   Platform:IFXOSUtilities.obj
 0001:0004bbd4       @IFXOSGetTime@0            1004cbd4 f   Platform:IFXOSUtilities.obj
 0001:0004bc20       @IFXOSSleep@4              1004cc20 f   Platform:IFXOSUtilities.obj
 0001:0004bc28       @IFXOSControlFP@8          1004cc28 f   Platform:IFXOSUtilities.obj
 0001:0004bc34       @IFXOSGetUtf8StrSize@8     1004cc34 f   Platform:IFXOSUtilities.obj
 0001:0004bc76       @IFXOSGetWideCharStrSize@8 1004cc76 f   Platform:IFXOSUtilities.obj
 0001:0004bcb6       @IFXOSConvertWideCharStrToUtf8@12 1004ccb6 f   Platform:IFXOSUtilities.obj
 0001:0004bd06       @IFXOSConvertUtf8StrToWideChar@12 1004cd06 f   Platform:IFXOSUtilities.obj
 0001:0004bd52       @IFXOSDebugOutput@16       1004cd52 f   Platform:IFXOSUtilities.obj
 0001:0004bdb6       @IFXSetDefaultLocale@0     1004cdb6 f   Platform:IFXOSUtilities.obj
 0001:0004bdd2       @IFXOSUninitialize@0       1004cdd2 f   Platform:IFXOSUtilities.obj
 0001:0004bde4       @IFXOSInitialize@0         1004cde4 f   Platform:IFXOSUtilities.obj
 0001:0004be84       @IFXGetSystemDefaultLangID@0 1004ce84 f   Platform:IFXOSUtilities.obj
 0001:0004be8c       @IFXLoadCoreLibrary@0      1004ce8c f   Platform:IFXOSLoader.obj
 0001:0004be98       @IFXLoadLibrary@4          1004ce98 f   Platform:IFXOSLoader.obj
 0001:0004bea0       @IFXLoadOpenGLLibrary@0    1004cea0 f   Platform:IFXOSLoader.obj
 0001:0004beac       @IFXOSGetCoreLibraryPath@4 1004ceac f   Platform:IFXOSLoader.obj
 0001:0004bfbe       @IFXGetAddress@8           1004cfbe f   Platform:IFXOSLoader.obj
 0001:0004bfc8       @IFXReleaseLibrary@4       1004cfc8 f   Platform:IFXOSLoader.obj
 0001:0004bfdc       @IFXOSFileOpen@8           1004cfdc f   Platform:IFXOSLoader.obj
 0001:0004bff0       __alldiv                   1004cff0 f   LIBCMT:lldiv.obj
 0001:0004c09a       _swprintf                  1004d09a f   LIBCMT:swprintf.obj
 0001:0004c109       __wfsopen                  1004d109 f   LIBCMT:wfopen.obj
 0001:0004c165       __wfopen                   1004d165 f   LIBCMT:wfopen.obj
 0001:0004c178       __wopenfile                1004d178 f   LIBCMT:_wopen.obj
 0001:0004c2e7       __getstream                1004d2e7 f   LIBCMT:stream.obj
 0001:0004c6f1       __wsopen                   1004d6f1 f   LIBCMT:wopen.obj
 0001:0004c746       __chsize_lk                1004d746 f   LIBCMT:chsize.obj
 0001:0004c887       __read_lk                  1004d887 f   LIBCMT:read.obj
 0001:0004ca62       __setmode_lk               1004da62 f   LIBCMT:setmode.obj
 0002:00000000       __VInfreq_??1CIFXAuthorCLODEncoderX@@EAE@XZ 1004e000     Exporting:CIFXAuthorCLODEncoderX.obj
 0002:00000052       __VInfreq_?CIFXAuthorCLODEncoderX_Factory@@YIHABUIFXGUID@@PAPAX@Z 1004e052     Exporting:CIFXAuthorCLODEncoderX.obj
 0002:00000074       __VInfreq_?EncodeX@CIFXAuthorCLODEncoderX@@UAIXAAVIFXString@@AAVIFXDataBlockQueueX@@N@Z 1004e074     Exporting:CIFXAuthorCLODEncoderX.obj
 0002:000000fc       __VInfreq_?PrepareForMakingBlocksX@CIFXAuthorCLODEncoderX@@AAEXXZ 1004e0fc     Exporting:CIFXAuthorCLODEncoderX.obj
 0002:00000116       __VInfreq_?MakeAuthorCLODDeclarationBlockX@CIFXAuthorCLODEncoderX@@AAEXAAVIFXString@@AAVIFXDataBlockQueueX@@@Z 1004e116     Exporting:CIFXAuthorCLODEncoderX.obj
 0002:000002a8       __VInfreq_?CIFXAnimationModifierEncoder_Factory@@YIHABUIFXGUID@@PAPAX@Z 1004e2a8     Exporting:CIFXAnimationModifierEncoder.obj
 0002:000002ca       __VInfreq_?EncodeX@CIFXAnimationModifierEncoder@@UAIXAAVIFXString@@AAVIFXDataBlockQueueX@@N@Z 1004e2ca     Exporting:CIFXAnimationModifierEncoder.obj
 0002:00000304       __VInfreq_?CIFXMaterialResourceEncoder_Factory@@YIHABUIFXGUID@@PAPAX@Z 1004e304     Exporting:CIFXMaterialResourceEncoder.obj
 0002:00000326       __VInfreq_?EncodeX@CIFXMaterialResourceEncoder@@UAIXAAVIFXString@@AAVIFXDataBlockQueueX@@N@Z 1004e326     Exporting:CIFXMaterialResourceEncoder.obj
 0002:00000360       __VInfreq_?CIFXMotionResourceEncoder_Factory@@YIHABUIFXGUID@@PAPAX@Z 1004e360     Exporting:CIFXMotionResourceEncoder.obj
 0002:00000382       __VInfreq_?EncodeX@CIFXMotionResourceEncoder@@UAIXAAVIFXString@@AAVIFXDataBlockQueueX@@N@Z 1004e382     Exporting:CIFXMotionResourceEncoder.obj
 0002:000003ec       __VInfreq_??1CIFXGlyphGeneratorEncoder@@EAE@XZ 1004e3ec     Exporting:CIFXGlyphModifierEncoder.obj
 0002:00000408       __VInfreq_?CIFXGlyphGeneratorEncoder_Factory@@YIHABUIFXGUID@@PAPAX@Z 1004e408     Exporting:CIFXGlyphModifierEncoder.obj
 0002:0000042a       __VInfreq_?EncodeX@CIFXGlyphGeneratorEncoder@@UAIXAAVIFXString@@AAVIFXDataBlockQueueX@@N@Z 1004e42a     Exporting:CIFXGlyphModifierEncoder.obj
 0002:00000474       __VInfreq_?CIFXShaderLitTextureEncoder_Factory@@YIHABUIFXGUID@@PAPAX@Z 1004e474     Exporting:CIFXShaderLitTextureEncoder.obj
 0002:00000496       __VInfreq_?EncodeX@CIFXShaderLitTextureEncoder@@UAIXAAVIFXString@@AAVIFXDataBlockQueueX@@N@Z 1004e496     Exporting:CIFXShaderLitTextureEncoder.obj
 0002:000004d0       __VInfreq_??1CIFXSubdivisionModifierEncoder@@EAE@XZ 1004e4d0     Exporting:CIFXSubdivisionModifierEncoder.obj
 0002:000004ec       __VInfreq_?CIFXSubdivisionModifierEncoder_Factory@@YIHABUIFXGUID@@PAPAX@Z 1004e4ec     Exporting:CIFXSubdivisionModifierEncoder.obj
 0002:0000050e       __VInfreq_?EncodeX@CIFXSubdivisionModifierEncoder@@UAIXAAVIFXString@@AAVIFXDataBlockQueueX@@N@Z 1004e50e     Exporting:CIFXSubdivisionModifierEncoder.obj
 0002:00000548       __VInfreq_??1CIFXShadingModifierEncoder@@EAE@XZ 1004e548     Exporting:CIFXShadingModifierEncoder.obj
 0002:00000564       __VInfreq_?CIFXShadingModifierEncoder_Factory@@YIHABUIFXGUID@@PAPAX@Z 1004e564     Exporting:CIFXShadingModifierEncoder.obj
 0002:00000586       __VInfreq_?EncodeX@CIFXShadingModifierEncoder@@UAIXAAVIFXString@@AAVIFXDataBlockQueueX@@N@Z 1004e586     Exporting:CIFXShadingModifierEncoder.obj
 0002:000005fc       __VInfreq_??1CIFXGroupNodeEncoder@@EAE@XZ 1004e5fc     Exporting:CIFXGroupNodeEncoder.obj
 0002:00000616       __VInfreq_?CIFXGroupNodeEncoder_Factory@@YIHABUIFXGUID@@PAPAX@Z 1004e616     Exporting:CIFXGroupNodeEncoder.obj
 0002:00000638       __VInfreq_?EncodeX@CIFXGroupNodeEncoder@@UAIXAAVIFXString@@AAVIFXDataBlockQueueX@@N@Z 1004e638     Exporting:CIFXGroupNodeEncoder.obj
 0002:00000660       __VInfreq_??1CIFXLightNodeEncoder@@EAE@XZ 1004e660     Exporting:CIFXLightNodeEncoder.obj
 0002:0000067a       __VInfreq_?CIFXLightNodeEncoder_Factory@@YIHABUIFXGUID@@PAPAX@Z 1004e67a     Exporting:CIFXLightNodeEncoder.obj
 0002:0000069c       __VInfreq_?EncodeX@CIFXLightNodeEncoder@@UAIXAAVIFXString@@AAVIFXDataBlockQueueX@@N@Z 1004e69c     Exporting:CIFXLightNodeEncoder.obj
 0002:00000704       __VInfreq_??1CIFXLightResourceEncoder@@EAE@XZ 1004e704     Exporting:CIFXLightResourceEncoder.obj
 0002:0000071e       __VInfreq_?CIFXLightResourceEncoder_Factory@@YIHABUIFXGUID@@PAPAX@Z 1004e71e     Exporting:CIFXLightResourceEncoder.obj
 0002:00000740       __VInfreq_?EncodeX@CIFXLightResourceEncoder@@UAIXAAVIFXString@@AAVIFXDataBlockQueueX@@N@Z 1004e740     Exporting:CIFXLightResourceEncoder.obj
 0002:00000768       __VInfreq_??1CIFXViewResourceEncoder@@EAE@XZ 1004e768     Exporting:CIFXViewResourceEncoder.obj
 0002:00000782       __VInfreq_?CIFXViewResourceEncoder_Factory@@YIHABUIFXGUID@@PAPAX@Z 1004e782     Exporting:CIFXViewResourceEncoder.obj
 0002:000007a4       __VInfreq_?EncodeX@CIFXViewResourceEncoder@@UAIXAAVIFXString@@AAVIFXDataBlockQueueX@@N@Z 1004e7a4     Exporting:CIFXViewResourceEncoder.obj
 0002:000007dc       __VInfreq_??1CIFXModelNodeEncoder@@EAE@XZ 1004e7dc     Exporting:CIFXModelNodeEncoder.obj
 0002:000007f6       __VInfreq_?CIFXModelNodeEncoder_Factory@@YIHABUIFXGUID@@PAPAX@Z 1004e7f6     Exporting:CIFXModelNodeEncoder.obj
 0002:00000818       __VInfreq_?EncodeX@CIFXModelNodeEncoder@@UAIXAAVIFXString@@AAVIFXDataBlockQueueX@@N@Z 1004e818     Exporting:CIFXModelNodeEncoder.obj
 0002:00000850       __VInfreq_??1CIFXViewNodeEncoder@@EAE@XZ 1004e850     Exporting:CIFXViewNodeEncoder.obj
 0002:0000086a       __VInfreq_?CIFXViewNodeEncoder_Factory@@YIHABUIFXGUID@@PAPAX@Z 1004e86a     Exporting:CIFXViewNodeEncoder.obj
 0002:0000088c       __VInfreq_?EncodeX@CIFXViewNodeEncoder@@UAIXAAVIFXString@@AAVIFXDataBlockQueueX@@N@Z 1004e88c     Exporting:CIFXViewNodeEncoder.obj
 0002:00000918       __VInfreq_??1CIFXFileReferenceEncoder@@EAE@XZ 1004e918     Exporting:CIFXFileReferenceEncoder.obj
 0002:00000946       __VInfreq_?CIFXFileReferenceEncoder_Factory@@YIHABUIFXGUID@@PAPAX@Z 1004e946     Exporting:CIFXFileReferenceEncoder.obj
 0002:00000968       __VInfreq_?EncodeX@CIFXFileReferenceEncoder@@UAIXAAVIFXString@@AAVIFXDataBlockQueueX@@N@Z 1004e968     Exporting:CIFXFileReferenceEncoder.obj
 0002:00000c1c       __VInfreq_?CIFXBlockPriorityQueueX_Factory@@YIHABUIFXGUID@@PAPAX@Z 1004ec1c     Exporting:CIFXBlockPriorityQueueX.obj
 0002:00000c3e       __VInfreq_?GetNextBlockX@CIFXBlockPriorityQueueX@@UAIXAAPAVIFXDataBlockX@@AAH@Z 1004ec3e     Exporting:CIFXBlockPriorityQueueX.obj
 0002:00000c58       __VInfreq_?AppendBlockX@CIFXBlockPriorityQueueX@@UAIXAAVIFXDataBlockX@@@Z 1004ec58     Exporting:CIFXBlockPriorityQueueX.obj
 0002:00000cc4       __VInfreq_??1CIFXBlockWriterX@@EAE@XZ 1004ecc4     Exporting:CIFXBlockWriterX.obj
 0002:00000ce0       __VInfreq_?CIFXBlockWriterX_Factory@@YIHABUIFXGUID@@PAPAX@Z 1004ece0     Exporting:CIFXBlockWriterX.obj
 0002:00000d02       __VInfreq_?WriteBlockX@CIFXBlockWriterX@@UAIXAAVIFXDataBlockX@@@Z 1004ed02     Exporting:CIFXBlockWriterX.obj
 0002:00000d7c       __VInfreq_?InitializeX@CIFXBlockWriterX@@UAIXAAVIFXCoreServices@@AAVIFXWriteBufferX@@I@Z 1004ed7c     Exporting:CIFXBlockWriterX.obj
 0002:00000dc4       __VInfreq_??1CIFXWriteManager@@EAE@XZ 1004edc4     Exporting:CIFXWriteManager.obj
 0002:00000e38       __VInfreq_?CIFXWriteManager_Factory@@YIHABUIFXGUID@@PAPAX@Z 1004ee38     Exporting:CIFXWriteManager.obj
 0002:00000e5a       __VInfreq_??0CIFXWriteManager@@AAE@XZ 1004ee5a     Exporting:CIFXWriteManager.obj
 0002:00000ee6       __VInfreq_?Write@CIFXWriteManager@@UAIHPAVIFXWriteBuffer@@I@Z 1004eee6     Exporting:CIFXWriteManager.obj
 0002:00000f20       __VInfreq_?PutPalette@CIFXWriteManager@@AAEXW4EIFXPalette@IFXSceneGraph@@@Z 1004ef20     Exporting:CIFXWriteManager.obj
 0002:00001092       __VInfreq_?HandleExtensionsX@CIFXWriteManager@@AAEXPAVIFXEncoderX@@PAVIFXDataBlockQueueX@@@Z 1004f092     Exporting:CIFXWriteManager.obj
 0002:00001118       __VInfreq_?CreateNewObjectDeclarationBlockX@CIFXWriteManager@@AAEXPAIPAUIFXExtensionData@@AAVIFXDataBlockQueueX@@@Z 1004f118     Exporting:CIFXWriteManager.obj
 0002:00001140       __VInfreq_?WriteQueueX@CIFXWriteManager@@AAEXXZ 1004f140     Exporting:CIFXWriteManager.obj
 0002:0000115a       __VInfreq_?SetQualityFactor@CIFXWriteManager@@UAIHII@Z 1004f15a     Exporting:CIFXWriteManager.obj
 0002:00001186       __VInfreq_?Initialize@CIFXWriteManager@@UAIHPAVIFXCoreServices@@@Z 1004f186     Exporting:CIFXWriteManager.obj
 0002:00001274       __VInfreq_?CIFXAuthorGeomCompiler_Factory@@YIHABUIFXGUID@@PAPAX@Z 1004f274     Exporting:CIFXAuthorGeomCompiler.obj
 0002:00001296       __VInfreq_?Compile@CIFXAuthorGeomCompiler@@UAIHAAVIFXString@@PAVIFXAuthorMesh@@PAPAVIFXAuthorCLODResource@@HPAUIFXAuthorGeomCompilerParams@@@Z 1004f296     Exporting:CIFXAuthorGeomCompiler.obj
 0002:00001348       __VInfreq_?CIFXStdioWriteBufferX_Factory@@YIHABUIFXGUID@@PAPAX@Z 1004f348     Exporting:CIFXStdioWriteBufferX.obj
 0002:0000136a       __VInfreq_?Write@CIFXStdioWriteBufferX@@UAIHPAE_KI@Z 1004f36a     Exporting:CIFXStdioWriteBufferX.obj
 0002:00001398       __VInfreq_??1CIFXPointSetEncoder@@EAE@XZ 1004f398     Exporting:CIFXPointSetEncoder.obj
 0002:000013d8       __VInfreq_?CIFXPointSetEncoder_Factory@@YIHABUIFXGUID@@PAPAX@Z 1004f3d8     Exporting:CIFXPointSetEncoder.obj
 0002:000013fa       __VInfreq_?EncodeX@CIFXPointSetEncoder@@UAIXAAVIFXString@@AAVIFXDataBlockQueueX@@N@Z 1004f3fa     Exporting:CIFXPointSetEncoder.obj
 0002:00001448       __VInfreq_?MakeDeclarationBlockX@CIFXPointSetEncoder@@AAEXAAVIFXString@@AAVIFXDataBlockQueueX@@@Z 1004f448     Exporting:CIFXPointSetEncoder.obj
 0002:000014e2       __VInfreq_?MakeContinuationBlockX@CIFXPointSetEncoder@@AAEXAAVIFXString@@AAVIFXDataBlockQueueX@@@Z 1004f4e2     Exporting:CIFXPointSetEncoder.obj
 0002:00001528       __VInfreq_?WritePointUpdateX@CIFXPointSetEncoder@@AAEIIPAVIFXBitStreamCompressedX@@@Z 1004f528     Exporting:CIFXPointSetEncoder.obj
 0002:00001586       __VInfreq_?CalculatePredictedColorAtSplitPosX@CIFXPointSetEncoder@@AAEXHIIAAVIFXVector4@@@Z 1004f586     Exporting:CIFXPointSetEncoder.obj
 0002:000015d8       __VInfreq_?CalculatePredictedTexCoordAtSplitPosX@CIFXPointSetEncoder@@AAEXIIIAAVIFXVector4@@@Z 1004f5d8     Exporting:CIFXPointSetEncoder.obj
 0002:0000162a       __VInfreq_?CalculatePredictedNormalAtSplitPosX@CIFXPointSetEncoder@@AAEXIIAAVIFXVector3@@@Z 1004f62a     Exporting:CIFXPointSetEncoder.obj
 0002:000016b4       __VInfreq_??1CIFXLineSetEncoder@@EAE@XZ 1004f6b4     Exporting:CIFXLineSetEncoder.obj
 0002:000016f4       __VInfreq_?CIFXLineSetEncoder_Factory@@YIHABUIFXGUID@@PAPAX@Z 1004f6f4     Exporting:CIFXLineSetEncoder.obj
 0002:00001716       __VInfreq_?EncodeX@CIFXLineSetEncoder@@UAIXAAVIFXString@@AAVIFXDataBlockQueueX@@N@Z 1004f716     Exporting:CIFXLineSetEncoder.obj
 0002:00001764       __VInfreq_?MakeDeclarationBlockX@CIFXLineSetEncoder@@AAEXAAVIFXString@@AAVIFXDataBlockQueueX@@@Z 1004f764     Exporting:CIFXLineSetEncoder.obj
 0002:000017fe       __VInfreq_?MakeContinuationBlocksX@CIFXLineSetEncoder@@AAEXAAVIFXString@@AAVIFXDataBlockQueueX@@@Z 1004f7fe     Exporting:CIFXLineSetEncoder.obj
 0002:00001844       __VInfreq_?WriteLineUpdateX@CIFXLineSetEncoder@@AAEIIPAVIFXBitStreamCompressedX@@@Z 1004f844     Exporting:CIFXLineSetEncoder.obj
 0002:00001926       __VInfreq_?CalculatePredictedTexCoordAtSplitPosX@CIFXLineSetEncoder@@AAEXIIIAAVIFXVector4@@@Z 1004f926     Exporting:CIFXLineSetEncoder.obj
 0002:00001aac       __VInfreq_?CalculatePredictedColorAtSplitPosX@CIFXLineSetEncoder@@AAEXHIIAAVIFXVector4@@@Z 1004faac     Exporting:CIFXLineSetEncoder.obj
 0002:00001c32       __VInfreq_?CalculatePredictedNormalAtSplitPosX@CIFXLineSetEncoder@@AAEXIIAAVIFXVector3@@@Z 1004fc32     Exporting:CIFXLineSetEncoder.obj
 0002:00001db8       __VInfreq_??1CIFXBoneWeightsModifierEncoder@@EAE@XZ 1004fdb8     Exporting:CIFXBoneWeightsModifierEncoder.obj
 0002:00001dd4       __VInfreq_?CIFXBoneWeightsModifierEncoder_Factory@@YIHABUIFXGUID@@PAPAX@Z 1004fdd4     Exporting:CIFXBoneWeightsModifierEncoder.obj
 0002:00001df6       __VInfreq_?EncodeX@CIFXBoneWeightsModifierEncoder@@UAIXAAVIFXString@@AAVIFXDataBlockQueueX@@N@Z 1004fdf6     Exporting:CIFXBoneWeightsModifierEncoder.obj
 0002:00001f08       __VInfreq_??1CIFXCLODModifierEncoder@@EAE@XZ 1004ff08     Exporting:CIFXCLODModifierEncoder.obj
 0002:00001f24       __VInfreq_?CIFXCLODModifierEncoder_Factory@@YIHABUIFXGUID@@PAPAX@Z 1004ff24     Exporting:CIFXCLODModifierEncoder.obj
 0002:00001f46       __VInfreq_?EncodeX@CIFXCLODModifierEncoder@@UAIXAAVIFXString@@AAVIFXDataBlockQueueX@@N@Z 1004ff46     Exporting:CIFXCLODModifierEncoder.obj
 0002:00001f80       __VInfreq_??1CIFXDummyModifierEncoder@@EAE@XZ 1004ff80     Exporting:CIFXDummyModifierEncoder.obj
 0002:00001f9c       __VInfreq_?CIFXDummyModifierEncoder_Factory@@YIHABUIFXGUID@@PAPAX@Z 1004ff9c     Exporting:CIFXDummyModifierEncoder.obj
 0002:00001fc0       __VInfreq_?MakeAuthorCLODStaticGeometryBlockX@CIFXAuthorCLODEncoderX@@AAEXAAVIFXString@@AAVIFXDataBlockQueueX@@AAVIFXMeshMap@@@Z 1004ffc0     Exporting:CIFXAuthorCLODEncoderX_S.obj
 0002:00001fec       __VInfreq_?MakeAuthorCLODProgressiveGeometryBlocksX@CIFXAuthorCLODEncoderX@@AAEXAAVIFXString@@AAVIFXDataBlockQueueX@@AAPAVIFXMeshMap@@@Z 1004ffec     Exporting:CIFXAuthorCLODEncoderX_P.obj
 0002:00002498       __VInfreq_?CommonNodeEncodeU3D@CIFXNodeBaseEncoder@@IAEXAAVIFXString@@N@Z 10050498     Exporting:CIFXNodeBaseEncoder.obj
 0002:000024b4       __VInfreq_@IFXOSGetCoreLibraryPath@4 100504b4     Platform:IFXOSLoader.obj
 0003:00000000       __imp_@IFXCreateComponent@12 10051000     IFXCore:IFXCore.dll
 0003:00000004       __imp_@IFXReallocate@8     10051004     IFXCore:IFXCore.dll
 0003:00000008       __imp_@IFXDeallocate@4     10051008     IFXCore:IFXCore.dll
 0003:0000000c       __imp_@IFXAllocate@4       1005100c     IFXCore:IFXCore.dll
 0003:00000010       __imp_@IFXGetMemoryFunctions@12 10051010     IFXCore:IFXCore.dll
 0003:00000014       __imp_@IFXSetMemoryFunctions@12 10051014     IFXCore:IFXCore.dll
 0003:00000018       \177IFXCore_NULL_THUNK_DATA 10051018     IFXCore:IFXCore.dll
 0003:0000001c       __imp__DisableThreadLibraryCalls@4 1005101c     kernel32:KERNEL32.dll
 0003:00000020       __imp__GetCurrentThreadId@0 10051020     kernel32:KERNEL32.dll
 0003:00000024       __imp__GetCommandLineA@0   10051024     kernel32:KERNEL32.dll
 0003:00000028       __imp__GetVersionExA@4     10051028     kernel32:KERNEL32.dll
 0003:0000002c       __imp__RtlUnwind@16        1005102c     kernel32:KERNEL32.dll
 0003:00000030       __imp__RaiseException@16   10051030     kernel32:KERNEL32.dll
 0003:00000034       __imp__EnterCriticalSection@4 10051034     kernel32:KERNEL32.dll
 0003:00000038       __imp__LeaveCriticalSection@4 10051038     kernel32:KERNEL32.dll
 0003:0000003c       __imp__ExitProcess@4       1005103c     kernel32:KERNEL32.dll
 0003:00000040       __imp__GetProcAddress@8    10051040     kernel32:KERNEL32.dll
 0003:00000044       __imp__GetModuleHandleA@4  10051044     kernel32:KERNEL32.dll
 0003:00000048       __imp__TerminateProcess@8  10051048     kernel32:KERNEL32.dll
 0003:0000004c       __imp__GetCurrentProcess@0 1005104c     kernel32:KERNEL32.dll
 0003:00000050       __imp__TlsAlloc@0          10051050     kernel32:KERNEL32.dll
 0003:00000054       __imp__SetLastError@4      10051054     kernel32:KERNEL32.dll
 0003:00000058       __imp__GetLastError@0      10051058     kernel32:KERNEL32.dll
 0003:0000005c       __imp__TlsFree@4           1005105c     kernel32:KERNEL32.dll
 0003:00000060       __imp__TlsSetValue@8       10051060     kernel32:KERNEL32.dll
 0003:00000064       __imp__TlsGetValue@4       10051064     kernel32:KERNEL32.dll
 0003:00000068       __imp__HeapFree@12         10051068     kernel32:KERNEL32.dll
 0003:0000006c       __imp__HeapAlloc@12        1005106c     kernel32:KERNEL32.dll
 0003:00000070       __imp__SetHandleCount@4    10051070     kernel32:KERNEL32.dll
 0003:00000074       __imp__GetStdHandle@4      10051074     kernel32:KERNEL32.dll
 0003:00000078       __imp__GetFileType@4       10051078     kernel32:KERNEL32.dll
 0003:0000007c       __imp__GetStartupInfoA@4   1005107c     kernel32:KERNEL32.dll
 0003:00000080       __imp__DeleteCriticalSection@4 10051080     kernel32:KERNEL32.dll
 0003:00000084       __imp__GetModuleFileNameA@12 10051084     kernel32:KERNEL32.dll
 0003:00000088       __imp__FreeEnvironmentStringsA@4 10051088     kernel32:KERNEL32.dll
 0003:0000008c       __imp__GetEnvironmentStrings@0 1005108c     kernel32:KERNEL32.dll
 0003:00000090       __imp__FreeEnvironmentStringsW@4 10051090     kernel32:KERNEL32.dll
 0003:00000094       __imp__WideCharToMultiByte@32 10051094     kernel32:KERNEL32.dll
 0003:00000098       __imp__GetEnvironmentStringsW@0 10051098     kernel32:KERNEL32.dll
 0003:0000009c       __imp__HeapDestroy@4       1005109c     kernel32:KERNEL32.dll
 0003:000000a0       __imp__HeapCreate@12       100510a0     kernel32:KERNEL32.dll
 0003:000000a4       __imp__VirtualFree@12      100510a4     kernel32:KERNEL32.dll
 0003:000000a8       __imp__UnhandledExceptionFilter@4 100510a8     kernel32:KERNEL32.dll
 0003:000000ac       __imp__WriteFile@20        100510ac     kernel32:KERNEL32.dll
 0003:000000b0       __imp__SetUnhandledExceptionFilter@4 100510b0     kernel32:KERNEL32.dll
 0003:000000b4       __imp__CloseHandle@4       100510b4     kernel32:KERNEL32.dll
 0003:000000b8       __imp__SetFilePointer@16   100510b8     kernel32:KERNEL32.dll
 0003:000000bc       __imp__MultiByteToWideChar@24 100510bc     kernel32:KERNEL32.dll
 0003:000000c0       __imp__LCMapStringA@24     100510c0     kernel32:KERNEL32.dll
 0003:000000c4       __imp__LCMapStringW@24     100510c4     kernel32:KERNEL32.dll
 0003:000000c8       __imp__GetACP@0            100510c8     kernel32:KERNEL32.dll
 0003:000000cc       __imp__GetOEMCP@0          100510cc     kernel32:KERNEL32.dll
 0003:000000d0       __imp__GetCPInfo@8         100510d0     kernel32:KERNEL32.dll
 0003:000000d4       __imp__VirtualAlloc@16     100510d4     kernel32:KERNEL32.dll
 0003:000000d8       __imp__HeapReAlloc@16      100510d8     kernel32:KERNEL32.dll
 0003:000000dc       __imp__IsBadWritePtr@8     100510dc     kernel32:KERNEL32.dll
 0003:000000e0       __imp__InitializeCriticalSection@4 100510e0     kernel32:KERNEL32.dll
 0003:000000e4       __imp__InterlockedExchange@8 100510e4     kernel32:KERNEL32.dll
 0003:000000e8       __imp__VirtualQuery@12     100510e8     kernel32:KERNEL32.dll
 0003:000000ec       __imp__LoadLibraryA@4      100510ec     kernel32:KERNEL32.dll
 0003:000000f0       __imp__IsBadReadPtr@8      100510f0     kernel32:KERNEL32.dll
 0003:000000f4       __imp__IsBadCodePtr@4      100510f4     kernel32:KERNEL32.dll
 0003:000000f8       __imp__SetStdHandle@8      100510f8     kernel32:KERNEL32.dll
 0003:000000fc       __imp__FlushFileBuffers@4  100510fc     kernel32:KERNEL32.dll
 0003:00000100       __imp__VirtualProtect@16   10051100     kernel32:KERNEL32.dll
 0003:00000104       __imp__GetSystemInfo@4     10051104     kernel32:KERNEL32.dll
 0003:00000108       __imp__GetLocaleInfoA@16   10051108     kernel32:KERNEL32.dll
 0003:0000010c       __imp__GetStringTypeA@20   1005110c     kernel32:KERNEL32.dll
 0003:00000110       __imp__GetStringTypeW@16   10051110     kernel32:KERNEL32.dll
 0003:00000114       __imp__GetUserDefaultLCID@0 10051114     kernel32:KERNEL32.dll
 0003:00000118       __imp__EnumSystemLocalesA@8 10051118     kernel32:KERNEL32.dll
 0003:0000011c       __imp__IsValidLocale@8     1005111c     kernel32:KERNEL32.dll
 0003:00000120       __imp__IsValidCodePage@4   10051120     kernel32:KERNEL32.dll
 0003:00000124       __imp__HeapSize@12         10051124     kernel32:KERNEL32.dll
 0003:00000128       __imp__QueryPerformanceCounter@4 10051128     kernel32:KERNEL32.dll
 0003:0000012c       __imp__GetTickCount@0      1005112c     kernel32:KERNEL32.dll
 0003:00000130       __imp__GetCurrentProcessId@0 10051130     kernel32:KERNEL32.dll
 0003:00000134       __imp__GetSystemTimeAsFileTime@4 10051134     kernel32:KERNEL32.dll
 0003:00000138       __imp__GetLocaleInfoW@16   10051138     kernel32:KERNEL32.dll
 0003:0000013c       __imp__Sleep@4             1005113c     kernel32:KERNEL32.dll
 0003:00000140       __imp__QueryPerformanceFrequency@4 10051140     kernel32:KERNEL32.dll
 0003:00000144       __imp__GetSystemDefaultLangID@0 10051144     kernel32:KERNEL32.dll
 0003:00000148       __imp__LoadLibraryW@4      10051148     kernel32:KERNEL32.dll
 0003:0000014c       __imp__GetModuleHandleW@4  1005114c     kernel32:KERNEL32.dll
 0003:00000150       __imp__GetModuleFileNameW@12 10051150     kernel32:KERNEL32.dll
 0003:00000154       __imp__FreeLibrary@4       10051154     kernel32:KERNEL32.dll
 0003:00000158       __imp__CreateFileW@28      10051158     kernel32:KERNEL32.dll
 0003:0000015c       __imp__SetEndOfFile@4      1005115c     kernel32:KERNEL32.dll
 0003:00000160       __imp__ReadFile@20         10051160     kernel32:KERNEL32.dll
 0003:00000164       \177KERNEL32_NULL_THUNK_DATA 10051164     kernel32:KERNEL32.dll
 0003:00000168       __imp__MessageBoxW@16      10051168     user32:USER32.dll
 0003:0000016c       \177USER32_NULL_THUNK_DATA 1005116c     user32:USER32.dll
 0003:00000170       __imp__timeEndPeriod@4     10051170     winmm:WINMM.dll
 0003:00000174       __imp__timeBeginPeriod@4   10051174     winmm:WINMM.dll
 0003:00000178       __imp__timeGetTime@0       10051178     winmm:WINMM.dll
 0003:0000017c       \177WINMM_NULL_THUNK_DATA  1005117c     winmm:WINMM.dll
 0003:00000180       _IID_IFXUnknown            10051180     Exporting:IFXExportingGuids.obj
 0003:00000190       _IID_IFXMetaDataX          10051190     Exporting:IFXExportingGuids.obj
 0003:000001a0       _IID_IFXDataBlockX         100511a0     Exporting:IFXExportingGuids.obj
 0003:000001b0       _IID_IFXDataBlockQueueX    100511b0     Exporting:IFXExportingGuids.obj
 0003:000001c0       _IID_IFXPalette            100511c0     Exporting:IFXExportingGuids.obj
 0003:000001d0       _IID_IFXCoreServices       100511d0     Exporting:IFXExportingGuids.obj
 0003:000001e0       _IID_IFXEncoderX           100511e0     Exporting:IFXExportingGuids.obj
 0003:000001f0       _IID_IFXExtensionEncoderX  100511f0     Exporting:IFXExportingGuids.obj
 0003:00000200       _IID_IFXMarker             10051200     Exporting:IFXExportingGuids.obj
 0003:00000210       _IID_IFXMarkerX            10051210     Exporting:IFXExportingGuids.obj
 0003:00000220       _IID_IFXSubject            10051220     Exporting:IFXExportingGuids.obj
 0003:00000230       _IID_IFXSceneGraph         10051230     Exporting:IFXExportingGuids.obj
 0003:00000240       _IID_IFXSpatial            10051240     Exporting:IFXExportingGuids.obj
 0003:00000250       _IID_IFXCollection         10051250     Exporting:IFXExportingGuids.obj
 0003:00000260       _IID_IFXModifier           10051260     Exporting:IFXExportingGuids.obj
 0003:00000270       _IID_IFXSimpleList         10051270     Exporting:IFXExportingGuids.obj
 0003:00000280       _IID_IFXNode               10051280     Exporting:IFXExportingGuids.obj
 0003:00000290       _IID_IFXResourceClient     10051290     Exporting:IFXExportingGuids.obj
 0003:000002a0       _IID_IFXSpatialAssociation 100512a0     Exporting:IFXExportingGuids.obj
 0003:000002b0       _IID_IFXShaderList         100512b0     Exporting:IFXExportingGuids.obj
 0003:000002c0       _IID_IFXModel              100512c0     Exporting:IFXExportingGuids.obj
 0003:000002d0       _IID_IFXSpatialSetQuery    100512d0     Exporting:IFXExportingGuids.obj
 0003:000002e0       _IID_IFXRenderClear        100512e0     Exporting:IFXExportingGuids.obj
 0003:000002f0       _CID_IFXNameMap            100512f0     Exporting:IFXExportingGuids.obj
 0003:00000300       _CID_IFXDevice             10051300     Exporting:IFXExportingGuids.obj
 0003:00000310       _CID_IFXCLODManager        10051310     Exporting:IFXExportingGuids.obj
 0003:00000320       _CID_IFXSetAdjacencyX      10051320     Exporting:IFXExportingGuids.obj
 0003:00000330       _CID_IFXSetX               10051330     Exporting:IFXExportingGuids.obj
 0003:00000340       _CID_IFXAuthorCLODGen      10051340     Exporting:IFXExportingGuids.obj
 0003:00000350       _CID_IFXAuthorLineSetAnalyzer 10051350     Exporting:IFXExportingGuids.obj
 0003:00000360       _CID_IFXMetaDataX          10051360     Exporting:IFXExportingGuids.obj
 0003:00000370       _CID_IFXFileReference      10051370     Exporting:IFXExportingGuids.obj
 0003:00000380       _CID_IFXMeshCompiler       10051380     Exporting:IFXExportingGuids.obj
 0003:00000390       _CID_IFXMeshMap            10051390     Exporting:IFXExportingGuids.obj
 0003:000003a0       _CID_IFXAuthorMeshMap      100513a0     Exporting:IFXExportingGuids.obj
 0003:000003b0       _CID_IFXGlyph2DCommands    100513b0     Exporting:IFXExportingGuids.obj
 0003:000003c0       _CID_IFXGlyphCommandList   100513c0     Exporting:IFXExportingGuids.obj
 0003:000003d0       _CID_IFXGlyph3DGenerator   100513d0     Exporting:IFXExportingGuids.obj
 0003:000003e0       _CID_IFXAuthorMeshScrub    100513e0     Exporting:IFXExportingGuids.obj
 0003:000003f0       _CID_IFXAuthorMesh         100513f0     Exporting:IFXExportingGuids.obj
 0003:00000400       _CID_IFXAuthorCLODResource 10051400     Exporting:IFXExportingGuids.obj
 0003:00000410       _CID_IFXBitStreamX         10051410     Exporting:IFXExportingGuids.obj
 0003:00000420       _CID_IFXSkeleton           10051420     Exporting:IFXExportingGuids.obj
 0003:00000430       _CID_IFXBoneWeightsModifier 10051430     Exporting:IFXExportingGuids.obj
 0003:00000440       _CID_IFXBoundHierarchy     10051440     Exporting:IFXExportingGuids.obj
 0003:00000450       _CID_IFXBoundSphereDataElement 10051450     Exporting:IFXExportingGuids.obj
 0003:00000460       _CID_IFXConnector          10051460     Exporting:IFXExportingGuids.obj
 0003:00000470       _CID_IFXContour            10051470     Exporting:IFXExportingGuids.obj
 0003:00000480       _CID_IFXContourExtruder    10051480     Exporting:IFXExportingGuids.obj
 0003:00000490       _CID_IFXContourGenerator   10051490     Exporting:IFXExportingGuids.obj
 0003:000004a0       _CID_IFXContourTessellator 100514a0     Exporting:IFXExportingGuids.obj
 0003:000004b0       _CID_IFXCoreServices       100514b0     Exporting:IFXExportingGuids.obj
 0003:000004c0       _CID_IFXCoreServicesRef    100514c0     Exporting:IFXExportingGuids.obj
 0003:000004d0       _CID_IFXDataBlock          100514d0     Exporting:IFXExportingGuids.obj
 0003:000004e0       _CID_IFXDataBlockX         100514e0     Exporting:IFXExportingGuids.obj
 0003:000004f0       _CID_IFXDataBlockQueueX    100514f0     Exporting:IFXExportingGuids.obj
 0003:00000500       _CID_IFXModifierDataPacket 10051500     Exporting:IFXExportingGuids.obj
 0003:00000510       _CID_IFXGlyphCurveToBlock  10051510     Exporting:IFXExportingGuids.obj
 0003:00000520       _CID_IFXGlyphLineToBlock   10051520     Exporting:IFXExportingGuids.obj
 0003:00000530       _CID_IFXGlyphMoveToBlock   10051530     Exporting:IFXExportingGuids.obj
 0003:00000540       _CID_IFXGlyphTagBlock      10051540     Exporting:IFXExportingGuids.obj
 0003:00000550       _CID_IFXGroup              10051550     Exporting:IFXExportingGuids.obj
 0003:00000560       _CID_IFXHashMap            10051560     Exporting:IFXExportingGuids.obj
 0003:00000570       _CID_IFXIDManager          10051570     Exporting:IFXExportingGuids.obj
 0003:00000580       _CID_IFXLight              10051580     Exporting:IFXExportingGuids.obj
 0003:00000590       _CID_IFXLightResource      10051590     Exporting:IFXExportingGuids.obj
 0003:000005a0       _CID_IFXViewResource       100515a0     Exporting:IFXExportingGuids.obj
 0003:000005b0       _CID_IFXLightSet           100515b0     Exporting:IFXExportingGuids.obj
 0003:000005c0       _CID_IFXImageCodec         100515c0     Exporting:IFXExportingGuids.obj
 0003:000005d0       _CID_IFXCLODModifier       100515d0     Exporting:IFXExportingGuids.obj
 0003:000005e0       _CID_IFXMaterialResource   100515e0     Exporting:IFXExportingGuids.obj
 0003:000005f0       _CID_IFXMesh               100515f0     Exporting:IFXExportingGuids.obj
 0003:00000600       _CID_IFXInterleavedData    10051600     Exporting:IFXExportingGuids.obj
 0003:00000610       _CID_IFXMeshGroup          10051610     Exporting:IFXExportingGuids.obj
 0003:00000620       _CID_IFXNeighborMesh       10051620     Exporting:IFXExportingGuids.obj
 0003:00000630       _CID_IFXMixerConstruct     10051630     Exporting:IFXExportingGuids.obj
 0003:00000640       _CID_IFXModel              10051640     Exporting:IFXExportingGuids.obj
 0003:00000650       _CID_IFXModifierChain      10051650     Exporting:IFXExportingGuids.obj
 0003:00000660       _CID_IFXDidRegistry        10051660     Exporting:IFXExportingGuids.obj
 0003:00000670       _CID_IFXMotionResource     10051670     Exporting:IFXExportingGuids.obj
 0003:00000680       _CID_IFXShaderList         10051680     Exporting:IFXExportingGuids.obj
 0003:00000690       _CID_IFXGlyph2DModifier    10051690     Exporting:IFXExportingGuids.obj
 0003:000006a0       _CID_IFXPalette            100516a0     Exporting:IFXExportingGuids.obj
 0003:000006b0       _CID_IFXPerformanceTimer   100516b0     Exporting:IFXExportingGuids.obj
 0003:000006c0       _CID_IFXPickObject         100516c0     Exporting:IFXExportingGuids.obj
 0003:000006d0       _CID_IFXRenderPass         100516d0     Exporting:IFXExportingGuids.obj
 0003:000006e0       _CID_IFXSceneGraph         100516e0     Exporting:IFXExportingGuids.obj
 0003:000006f0       _CID_IFXSimpleCollection   100516f0     Exporting:IFXExportingGuids.obj
 0003:00000700       _CID_IFXAnimationModifier  10051700     Exporting:IFXExportingGuids.obj
 0003:00000710       _CID_IFXAuthorPointSet     10051710     Exporting:IFXExportingGuids.obj
 0003:00000720       _CID_IFXAuthorPointSetResource 10051720     Exporting:IFXExportingGuids.obj
 0003:00000730       _CID_IFXAuthorLineSet      10051730     Exporting:IFXExportingGuids.obj
 0003:00000740       _CID_IFXAuthorLineSetResource 10051740     Exporting:IFXExportingGuids.obj
 0003:00000750       _CID_IFXSimpleHash         10051750     Exporting:IFXExportingGuids.obj
 0003:00000760       _CID_IFXSimpleList         10051760     Exporting:IFXExportingGuids.obj
 0003:00000770       _CID_IFXSimpleObject       10051770     Exporting:IFXExportingGuids.obj
 0003:00000780       _CID_IFXSpatialSubdiv      10051780     Exporting:IFXExportingGuids.obj
 0003:00000790       _CID_IFXSubdivModifier     10051790     Exporting:IFXExportingGuids.obj
 0003:000007a0       _CID_IFXTextureImageTools  100517a0     Exporting:IFXExportingGuids.obj
 0003:000007b0       _CID_IFXTextureObject      100517b0     Exporting:IFXExportingGuids.obj
 0003:000007c0       _CID_IFXUVGenerator        100517c0     Exporting:IFXExportingGuids.obj
 0003:000007d0       _CID_IFXUVMapperCylindrical 100517d0     Exporting:IFXExportingGuids.obj
 0003:000007e0       _CID_IFXUVMapperNone       100517e0     Exporting:IFXExportingGuids.obj
 0003:000007f0       _CID_IFXUVMapperPlanar     100517f0     Exporting:IFXExportingGuids.obj
 0003:00000800       _CID_IFXUVMapperSpherical  10051800     Exporting:IFXExportingGuids.obj
 0003:00000810       _CID_IFXUVMapperReflection 10051810     Exporting:IFXExportingGuids.obj
 0003:00000820       _CID_IFXView               10051820     Exporting:IFXExportingGuids.obj
 0003:00000830       _CID_IFXVoidWrapper        10051830     Exporting:IFXExportingGuids.obj
 0003:00000840       _CID_IFXShadingModifier    10051840     Exporting:IFXExportingGuids.obj
 0003:00000850       _CID_IFXDummyModifier      10051850     Exporting:IFXExportingGuids.obj
 0003:00000860       _CID_IFXShaderLitTexture   10051860     Exporting:IFXExportingGuids.obj
 0003:00000870       _IID_IFXRenderable         10051870     Exporting:IFXExportingGuids.obj
 0003:00000880       _IID_IFXMeshGroup          10051880     Exporting:IFXExportingGuids.obj
 0003:00000890       _IID_IFXInterleavedData    10051890     Exporting:IFXExportingGuids.obj
 0003:000008a0       _IID_IFXMesh               100518a0     Exporting:IFXExportingGuids.obj
 0003:000008b0       _IID_IFXTextureObject      100518b0     Exporting:IFXExportingGuids.obj
 0003:000008c0       _IID_IFXTextureImageTools  100518c0     Exporting:IFXExportingGuids.obj
 0003:000008d0       _IID_IFXRenderServices     100518d0     Exporting:IFXExportingGuids.obj
 0003:000008e0       _IID_IFXRenderContext      100518e0     Exporting:IFXExportingGuids.obj
 0003:000008f0       _IID_IFXViewResource       100518f0     Exporting:IFXExportingGuids.obj
 0003:00000900       _IID_IFXView               10051900     Exporting:IFXExportingGuids.obj
 0003:00000910       _IID_IFXBitStreamX         10051910     Exporting:IFXExportingGuids.obj
 0003:00000920       _IID_IFXSetX               10051920     Exporting:IFXExportingGuids.obj
 0003:00000930       _IID_IFXAuthorMesh         10051930     Exporting:IFXExportingGuids.obj
 0003:00000940       _IID_IFXAuthorCLODMesh     10051940     Exporting:IFXExportingGuids.obj
 0003:00000950       _IID_IFXSetAdjacencyX      10051950     Exporting:IFXExportingGuids.obj
 0003:00000960       _IID_IFXWriteBuffer        10051960     Exporting:IFXExportingGuids.obj
 0003:00000970       _IID_IFXWriteManager       10051970     Exporting:IFXExportingGuids.obj
 0003:00000980       _IID_IFXWriteBufferX       10051980     Exporting:IFXExportingGuids.obj
 0003:00000990       _IID_IFXAnimationModifier  10051990     Exporting:IFXExportingGuids.obj
 0003:000009a0       _IID_IFXDataPacket         100519a0     Exporting:IFXExportingGuids.obj
 0003:000009b0       _IID_IFXModifierDataPacket 100519b0     Exporting:IFXExportingGuids.obj
 0003:000009c0       _IID_IFXShader             100519c0     Exporting:IFXExportingGuids.obj
 0003:000009d0       _IID_IFXShaderLitTexture   100519d0     Exporting:IFXExportingGuids.obj
 0003:000009e0       _IID_IFXSubdivModifier     100519e0     Exporting:IFXExportingGuids.obj
 0003:000009f0       _IID_IFXSkeleton           100519f0     Exporting:IFXExportingGuids.obj
 0003:00000a00       _IID_IFXBlockWriterX       10051a00     Exporting:IFXExportingGuids.obj
 0003:00000a10       _IID_IFXCLODModifier       10051a10     Exporting:IFXExportingGuids.obj
 0003:00000a20       _IID_IFXFileReference      10051a20     Exporting:IFXExportingGuids.obj
 0003:00000a30       _IID_IFXGlyph2DCommands    10051a30     Exporting:IFXExportingGuids.obj
 0003:00000a40       _IID_IFXGlyphTagBlock      10051a40     Exporting:IFXExportingGuids.obj
 0003:00000a50       _IID_IFXGlyphMoveToBlock   10051a50     Exporting:IFXExportingGuids.obj
 0003:00000a60       _IID_IFXGlyphLineToBlock   10051a60     Exporting:IFXExportingGuids.obj
 0003:00000a70       _IID_IFXGlyphCurveToBlock  10051a70     Exporting:IFXExportingGuids.obj
 0003:00000a80       _IID_IFXMotionResource     10051a80     Exporting:IFXExportingGuids.obj
 0003:00000a90       _IID_IFXLightResource      10051a90     Exporting:IFXExportingGuids.obj
 0003:00000aa0       _IID_IFXLight              10051aa0     Exporting:IFXExportingGuids.obj
 0003:00000ab0       _IID_IFXGlyph2DModifier    10051ab0     Exporting:IFXExportingGuids.obj
 0003:00000ac0       _IID_IFXAuthorCLODAccess   10051ac0     Exporting:IFXExportingGuids.obj
 0003:00000ad0       _IID_IFXAuthorLineSet      10051ad0     Exporting:IFXExportingGuids.obj
 0003:00000ae0       _IID_IFXAuthorPointSet     10051ae0     Exporting:IFXExportingGuids.obj
 0003:00000af0       _IID_IFXMeshMap            10051af0     Exporting:IFXExportingGuids.obj
 0003:00000b00       _IID_IFXAuthorMeshMap      10051b00     Exporting:IFXExportingGuids.obj
 0003:00000b10       _IID_IFXBitStreamCompressedX 10051b10     Exporting:IFXExportingGuids.obj
 0003:00000b20       _IID_IFXMaterialResource   10051b20     Exporting:IFXExportingGuids.obj
 0003:00000b30       _IID_IFXGenerator          10051b30     Exporting:IFXExportingGuids.obj
 0003:00000b40       _IID_IFXAuthorCLODResource 10051b40     Exporting:IFXExportingGuids.obj
 0003:00000b50       _IID_IFXBoneWeightsModifier 10051b50     Exporting:IFXExportingGuids.obj
 0003:00000b60       _IID_IFXAuthorCLODGen      10051b60     Exporting:IFXExportingGuids.obj
 0003:00000b70       _IID_IFXAuthorMeshScrub    10051b70     Exporting:IFXExportingGuids.obj
 0003:00000b80       _IID_IFXAuthorGeomCompiler 10051b80     Exporting:IFXExportingGuids.obj
 0003:00000b90       _IID_IFXMeshCompiler       10051b90     Exporting:IFXExportingGuids.obj
 0003:00000ba0       _IID_IFXStdio              10051ba0     Exporting:IFXExportingGuids.obj
 0003:00000bb0       _IID_IFXShadingModifier    10051bb0     Exporting:IFXExportingGuids.obj
 0003:00000bc0       _IID_IFXAuthorLineSetResource 10051bc0     Exporting:IFXExportingGuids.obj
 0003:00000bd0       _IID_IFXAuthorPointSetResource 10051bd0     Exporting:IFXExportingGuids.obj
 0003:00000be0       _IID_IFXAuthorLineSetAnalyzer 10051be0     Exporting:IFXExportingGuids.obj
 0003:00000bf0       _IID_IFXDummyModifier      10051bf0     Exporting:IFXExportingGuids.obj
 0003:00000c00       _CID_IFXAuthorCLODEncoderX 10051c00     Exporting:IFXExportingGuids.obj
 0003:00000c10       _CID_IFXMaterialResourceEncoder 10051c10     Exporting:IFXExportingGuids.obj
 0003:00000c20       _CID_IFXMotionResourceEncoder 10051c20     Exporting:IFXExportingGuids.obj
 0003:00000c30       _CID_IFXCLODGeneratorEncoder 10051c30     Exporting:IFXExportingGuids.obj
 0003:00000c40       _CID_IFXGlyphGeneratorEncoder 10051c40     Exporting:IFXExportingGuids.obj
 0003:00000c50       _CID_IFXBoxGeneratorEncoder 10051c50     Exporting:IFXExportingGuids.obj
 0003:00000c60       _CID_IFXCylinderGeneratorEncoder 10051c60     Exporting:IFXExportingGuids.obj
 0003:00000c70       _CID_IFXPlaneGeneratorEncoder 10051c70     Exporting:IFXExportingGuids.obj
 0003:00000c80       _CID_IFXSphereGeneratorEncoder 10051c80     Exporting:IFXExportingGuids.obj
 0003:00000c90       _CID_IFXShaderLitTextureEncoder 10051c90     Exporting:IFXExportingGuids.obj
 0003:00000ca0       _CID_IFXSkeletonModifierEncoder 10051ca0     Exporting:IFXExportingGuids.obj
 0003:00000cb0       _CID_IFXSubdivisionModifierEncoder 10051cb0     Exporting:IFXExportingGuids.obj
 0003:00000cc0       _CID_IFXShadingModifierEncoder 10051cc0     Exporting:IFXExportingGuids.obj
 0003:00000cd0       _CID_IFXInkerModifierEncoder 10051cd0     Exporting:IFXExportingGuids.obj
 0003:00000ce0       _CID_IFXCLODGeneratorParamEncoder 10051ce0     Exporting:IFXExportingGuids.obj
 0003:00000cf0       _CID_IFXAnimationModifierEncoder 10051cf0     Exporting:IFXExportingGuids.obj
 0003:00000d00       _CID_IFXGroupNodeEncoder   10051d00     Exporting:IFXExportingGuids.obj
 0003:00000d10       _CID_IFXLightNodeEncoder   10051d10     Exporting:IFXExportingGuids.obj
 0003:00000d20       _CID_IFXLightResourceEncoder 10051d20     Exporting:IFXExportingGuids.obj
 0003:00000d30       _CID_IFXModelNodeEncoder   10051d30     Exporting:IFXExportingGuids.obj
 0003:00000d40       _CID_IFXViewNodeEncoder    10051d40     Exporting:IFXExportingGuids.obj
 0003:00000d50       _CID_IFXViewResourceEncoder 10051d50     Exporting:IFXExportingGuids.obj
 0003:00000d60       _CID_IFXFileReferenceEncoder 10051d60     Exporting:IFXExportingGuids.obj
 0003:00000d70       _CID_IFXBlockPriorityQueueX 10051d70     Exporting:IFXExportingGuids.obj
 0003:00000d80       _CID_IFXBlockWriterX       10051d80     Exporting:IFXExportingGuids.obj
 0003:00000d90       _CID_IFXWriteManager       10051d90     Exporting:IFXExportingGuids.obj
 0003:00000da0       _CID_IFXAuthorGeomCompiler 10051da0     Exporting:IFXExportingGuids.obj
 0003:00000db0       _CID_IFXStdioWriteBuffer   10051db0     Exporting:IFXExportingGuids.obj
 0003:00000dc0       _CID_IFXStdioWriteBufferX  10051dc0     Exporting:IFXExportingGuids.obj
 0003:00000dd0       _CID_IFXPointSetEncoder    10051dd0     Exporting:IFXExportingGuids.obj
 0003:00000de0       _CID_IFXLineSetEncoderX    10051de0     Exporting:IFXExportingGuids.obj
 0003:00000df0       _CID_IFXBoneWeightsModifierEncoder 10051df0     Exporting:IFXExportingGuids.obj
 0003:00000e00       _CID_IFXCLODModifierEncoder 10051e00     Exporting:IFXExportingGuids.obj
 0003:00000e10       _CID_IFXDummyModifierEncoder 10051e10     Exporting:IFXExportingGuids.obj
 0003:00001050       ?m_puNumResChangesPerGeomBlock@CIFXAuthorCLODEncoderX@@0QBIB 10052050     Exporting:CIFXAuthorCLODEncoderX.obj
 0003:00001064       ?m_uNumGeomBlockResChanges@CIFXAuthorCLODEncoderX@@0IB 10052064     Exporting:CIFXAuthorCLODEncoderX.obj
 0003:0000b984       ___libm_float_zero         1005c984     libmmt:libm_error.omu
 0003:0000b98c       ___libm_float_one          1005c98c     libmmt:libm_error.omu
 0003:0000b994       ___libm_float_inf          1005c994     libmmt:libm_error.omu
 0003:0000b99c       ___libm_float_huge         1005c99c     libmmt:libm_error.omu
 0003:0000b9a4       ___libm_double_zero        1005c9a4     libmmt:libm_error.omu
 0003:0000b9b4       ___libm_double_one         1005c9b4     libmmt:libm_error.omu
 0003:0000b9c4       ___libm_double_inf         1005c9c4     libmmt:libm_error.omu
 0003:0000b9d4       ___libm_double_huge        1005c9d4     libmmt:libm_error.omu
 0003:0000b9e4       ___libm_ldouble_zero       1005c9e4     libmmt:libm_error.omu
 0003:0000b9f4       ___libm_ldouble_neg_zero   1005c9f4     libmmt:libm_error.omu
 0003:0000ba04       ___libm_ldouble_one        1005ca04     libmmt:libm_error.omu
 0003:0000ba14       ___libm_ldouble_neg_one    1005ca14     libmmt:libm_error.omu
 0003:0000ba24       ___libm_ldouble_inf        1005ca24     libmmt:libm_error.omu
 0003:0000ba34       ___libm_ldouble_neg_inf    1005ca34     libmmt:libm_error.omu
 0003:0000ba44       ___libm_ldouble_huge       1005ca44     libmmt:libm_error.omu
 0003:0000ba54       ___libm_ldouble_neg_huge   1005ca54     libmmt:libm_error.omu
 0003:0000ba80       ___libm_exp_hi_table_64    1005ca80     libmmt:exp_table.omu
 0003:0000bca0       ___libm_exp_mi_table_64    1005cca0     libmmt:exp_table.omu
 0003:0000bec0       ___libm_exp_lo_table_64    1005cec0     libmmt:exp_table.omu
 0003:0000c0e0       ___libm_exp_table_128      1005d0e0     libmmt:exp_table.omu
 0003:0000c900       ___libm_log_table_256      1005d900     libmmt:log_table.omu
 0003:0000d900       ___libm_rcp_table_256      1005e900     libmmt:rcp_table.omu
 0003:0000dd00       ___libm_double_rcp_table_256 1005ed00     libmmt:rcp_table.omu
 0003:000108b0       ??_7type_info@@6B@         100618b0     LIBCMT:typinfo.obj
 0003:00010934       ??_C@_0P@MIGLKIOC@CorExitProcess?$AA@ 10061934     LIBCMT:crt0dat.obj
 0003:00010944       ??_C@_0M@MBOPBNBK@mscoree?4dll?$AA@ 10061944     LIBCMT:crt0dat.obj
 0003:00010978       ??_C@_07PEJMOBNF@FlsFree?$AA@ 10061978     LIBCMT:tidtable.obj
 0003:00010980       ??_C@_0M@JCPCPOEF@FlsSetValue?$AA@ 10061980     LIBCMT:tidtable.obj
 0003:0001098c       ??_C@_0M@GDNOONDI@FlsGetValue?$AA@ 1006198c     LIBCMT:tidtable.obj
 0003:00010998       ??_C@_08KNHFBNJ@FlsAlloc?$AA@ 10061998     LIBCMT:tidtable.obj
 0003:000109a4       ??_C@_0N@MDJJJHMB@kernel32?4dll?$AA@ 100619a4     LIBCMT:tidtable.obj
 0003:000109f4       ??_C@_0P@GGKDKEEG@runtime?5error?5?$AA@ 100619f4     LIBCMT:crt0msg.obj
 0003:00010a04       ??_C@_02PCIJFNDE@?$AN?6?$AA@ 10061a04     LIBCMT:crt0msg.obj
 0003:00010a08       ??_C@_0O@MJNIPGOH@TLOSS?5error?$AN?6?$AA@ 10061a08     LIBCMT:crt0msg.obj
 0003:00010a18       ??_C@_0N@BONNPDHF@SING?5error?$AN?6?$AA@ 10061a18     LIBCMT:crt0msg.obj
 0003:00010a28       ??_C@_0P@MBDAJNE@DOMAIN?5error?$AN?6?$AA@ 10061a28     LIBCMT:crt0msg.obj
 0003:00010a38       ??_C@_0KC@BDDGGBEJ@R6029?$AN?6?9?5This?5application?5cannot@ 10061a38     LIBCMT:crt0msg.obj
 0003:00010adc       ??_C@_0CF@KJDAIALP@R6028?$AN?6?9?5unable?5to?5initialize?5he@ 10061adc     LIBCMT:crt0msg.obj
 0003:00010b04       ??_C@_0DF@GAKBPDFP@R6027?$AN?6?9?5not?5enough?5space?5for?5lo@ 10061b04     LIBCMT:crt0msg.obj
 0003:00010b3c       ??_C@_0DF@IBLNNAIG@R6026?$AN?6?9?5not?5enough?5space?5for?5st@ 10061b3c     LIBCMT:crt0msg.obj
 0003:00010b74       ??_C@_0CG@IOHKGFNJ@R6025?$AN?6?9?5pure?5virtual?5function?5c@ 10061b74     LIBCMT:crt0msg.obj
 0003:00010b9c       ??_C@_0DF@JIJJFJDC@R6024?$AN?6?9?5not?5enough?5space?5for?5_o@ 10061b9c     LIBCMT:crt0msg.obj
 0003:00010bd4       ??_C@_0CJ@EGEJHFME@R6019?$AN?6?9?5unable?5to?5open?5console?5@ 10061bd4     LIBCMT:crt0msg.obj
 0003:00010c00       ??_C@_0CB@GNHNIELH@R6018?$AN?6?9?5unexpected?5heap?5error?$AN?6@ 10061c00     LIBCMT:crt0msg.obj
 0003:00010c24       ??_C@_0CN@FOLDKNG@R6017?$AN?6?9?5unexpected?5multithread?5@ 10061c24     LIBCMT:crt0msg.obj
 0003:00010c54       ??_C@_0CM@FAHFJNHO@R6016?$AN?6?9?5not?5enough?5space?5for?5th@ 10061c54     LIBCMT:crt0msg.obj
 0003:00010c80       ??_C@_0JG@LBKMGKLD@?$AN?6This?5application?5has?5requested@ 10061c80     LIBCMT:crt0msg.obj
 0003:00010d18       ??_C@_0CM@FLCNIPKK@R6009?$AN?6?9?5not?5enough?5space?5for?5en@ 10061d18     LIBCMT:crt0msg.obj
 0003:00010d44       ??_C@_0CK@KMMJOAPP@R6008?$AN?6?9?5not?5enough?5space?5for?5ar@ 10061d44     LIBCMT:crt0msg.obj
 0003:00010d70       ??_C@_0CF@HOHMHDEK@R6002?$AN?6?9?5floating?5point?5not?5load@ 10061d70     LIBCMT:crt0msg.obj
 0003:00010d98       ??_C@_0CF@GOGNBNAK@Microsoft?5Visual?5C?$CL?$CL?5Runtime?5Lib@ 10061d98     LIBCMT:crt0msg.obj
 0003:00010dc0       ??_C@_02PHMGELLB@?6?6?$AA@ 10061dc0     LIBCMT:crt0msg.obj
 0003:00010dc4       ??_C@_0BK@OFGJDLJJ@Runtime?5Error?$CB?6?6Program?3?5?$AA@ 10061dc4     LIBCMT:crt0msg.obj
 0003:00010de0       ??_C@_03KHICJKCI@?4?4?4?$AA@ 10061de0     LIBCMT:crt0msg.obj
 0003:00010de4       ??_C@_0BH@DNAGHKFM@?$DMprogram?5name?5unknown?$DO?$AA@ 10061de4     LIBCMT:crt0msg.obj
 0003:00010e00       __real@0000000000000000    10061e00     LIBCMT:cvt.obj
 0003:00010e08       ??_C@_05KLBDPFGC@e?$CL000?$AA@ 10061e08     LIBCMT:cvt.obj
 0003:00010e10       __real@3ff0000000000000    10061e10     LIBCMT:testfdiv.obj
 0003:00010e18       __real@4150017ec0000000    10061e18     LIBCMT:testfdiv.obj
 0003:00010e20       __real@4147ffff80000000    10061e20     LIBCMT:testfdiv.obj
 0003:00010e28       ??_C@_0BK@NHEOCAHP@IsProcessorFeaturePresent?$AA@ 10061e28     LIBCMT:testfdiv.obj
 0003:00010e44       ??_C@_08CPNIBGIE@KERNEL32?$AA@ 10061e44     LIBCMT:testfdiv.obj
 0003:00010f14       ??_C@_13NOLLCAOD@?$AA?$AA?$AA?$AA@ 10061f14     LIBCMT:w_map.obj
 0003:000110b0       ??_C@_07LCBHPJJN@LC_TIME?$AA@ 100620b0     LIBCMT:setlocal.obj
 0003:000110b8       ??_C@_0L@DLHIECNL@LC_NUMERIC?$AA@ 100620b8     LIBCMT:setlocal.obj
 0003:000110c4       ??_C@_0M@MIENIKLA@LC_MONETARY?$AA@ 100620c4     LIBCMT:setlocal.obj
 0003:000110d0       ??_C@_08EADHIDAD@LC_CTYPE?$AA@ 100620d0     LIBCMT:setlocal.obj
 0003:000110dc       ??_C@_0L@KFJHEKIK@LC_COLLATE?$AA@ 100620dc     LIBCMT:setlocal.obj
 0003:000110e8       ??_C@_06NEFDFEKB@LC_ALL?$AA@ 100620e8     LIBCMT:setlocal.obj
 0003:000110f0       ??_C@_03EGDHDPFD@_?4?0?$AA@ 100620f0     LIBCMT:setlocal.obj
 0003:000110f4       ??_C@_01LFCBOECM@?4?$AA@   100620f4     LIBCMT:setlocal.obj
 0003:000110f8       ??_C@_01IDAFKMJL@_?$AA@    100620f8     LIBCMT:setlocal.obj
 0003:0001110c       ??_C@_01ICJEACDI@?$DL?$AA@ 1006210c     LIBCMT:setlocal.obj
 0003:00011110       ??_C@_01NEMOKFLO@?$DN?$AA@ 10062110     LIBCMT:setlocal.obj
 0003:00011112       ??_C@_00CNPNBAHC@?$AA@     10062112     LIBCMT:setlocal.obj
 0003:00011114       ??_C@_02BALPLPBG@?$DN?$DL?$AA@ 10062114     LIBCMT:setlocal.obj
 0003:00011128       ___newctype                10062128     LIBCMT:ctype.obj
 0003:00011428       __wctype                   10062428     LIBCMT:ctype.obj
 0003:00011684       ??_C@_0CG@PKBDLMEO@InitializeCriticalSectionAndSpin@ 10062684     LIBCMT:initcrit.obj
 0003:000116cc       ??_C@_0BI@DFKBFLJE@GetProcessWindowStation?$AA@ 100626cc     LIBCMT:crtmbox.obj
 0003:000116e4       ??_C@_0BK@CIDNPOGP@GetUserObjectInformationA?$AA@ 100626e4     LIBCMT:crtmbox.obj
 0003:00011700       ??_C@_0BD@HHGDFDBJ@GetLastActivePopup?$AA@ 10062700     LIBCMT:crtmbox.obj
 0003:00011714       ??_C@_0BA@HNOPNCHB@GetActiveWindow?$AA@ 10062714     LIBCMT:crtmbox.obj
 0003:00011724       ??_C@_0M@CHKKJDAI@MessageBoxA?$AA@ 10062724     LIBCMT:crtmbox.obj
 0003:00011730       ??_C@_0L@GMPLCCII@user32?4dll?$AA@ 10062730     LIBCMT:crtmbox.obj
 0003:000117b0       ??_C@_08JCCMCCIL@HH?3mm?3ss?$AA@ 100627b0     LIBCMT:strftime.obj
 0003:000117bc       ??_C@_0BE@CKGJFCPC@dddd?0?5MMMM?5dd?0?5yyyy?$AA@ 100627bc     LIBCMT:strftime.obj
 0003:000117d0       ??_C@_08BPBNCDIB@MM?1dd?1yy?$AA@ 100627d0     LIBCMT:strftime.obj
 0003:000117dc       ??_C@_02CJNFDJBF@PM?$AA@   100627dc     LIBCMT:strftime.obj
 0003:000117e0       ??_C@_02DEDBPAFC@AM?$AA@   100627e0     LIBCMT:strftime.obj
 0003:000117e4       ??_C@_08EDHMEBNP@December?$AA@ 100627e4     LIBCMT:strftime.obj
 0003:000117f0       ??_C@_08HCHEGEOA@November?$AA@ 100627f0     LIBCMT:strftime.obj
 0003:000117fc       ??_C@_07JJNFCEND@October?$AA@ 100627fc     LIBCMT:strftime.obj
 0003:00011804       ??_C@_09BHHEALKD@September?$AA@ 10062804     LIBCMT:strftime.obj
 0003:00011810       ??_C@_06LBBHFDDG@August?$AA@ 10062810     LIBCMT:strftime.obj
 0003:00011818       ??_C@_04MIEPOIFP@July?$AA@ 10062818     LIBCMT:strftime.obj
 0003:00011820       ??_C@_04CNLMGBGM@June?$AA@ 10062820     LIBCMT:strftime.obj
 0003:00011828       ??_C@_05DMJDNLEJ@April?$AA@ 10062828     LIBCMT:strftime.obj
 0003:00011830       ??_C@_05HPCKOFNC@March?$AA@ 10062830     LIBCMT:strftime.obj
 0003:00011838       ??_C@_08GNJGEPFN@February?$AA@ 10062838     LIBCMT:strftime.obj
 0003:00011844       ??_C@_07CGJPFGJA@January?$AA@ 10062844     LIBCMT:strftime.obj
 0003:0001184c       ??_C@_03MKABNOCG@Dec?$AA@  1006284c     LIBCMT:strftime.obj
 0003:00011850       ??_C@_03JPJOFNIA@Nov?$AA@  10062850     LIBCMT:strftime.obj
 0003:00011854       ??_C@_03BMAOKBAD@Oct?$AA@  10062854     LIBCMT:strftime.obj
 0003:00011858       ??_C@_03GGCAPAJC@Sep?$AA@  10062858     LIBCMT:strftime.obj
 0003:0001185c       ??_C@_03IFJFEIGA@Aug?$AA@  1006285c     LIBCMT:strftime.obj
 0003:00011860       ??_C@_03LBGABGKK@Jul?$AA@  10062860     LIBCMT:strftime.obj
 0003:00011864       ??_C@_03IDFGHECI@Jun?$AA@  10062864     LIBCMT:strftime.obj
 0003:00011868       ??_C@_03CNMDKL@May?$AA@    10062868     LIBCMT:strftime.obj
 0003:0001186c       ??_C@_03LEOLGMJP@Apr?$AA@  1006286c     LIBCMT:strftime.obj
 0003:00011870       ??_C@_03ODNJBKGA@Mar?$AA@  10062870     LIBCMT:strftime.obj
 0003:00011874       ??_C@_03HJBDCHOM@Feb?$AA@  10062874     LIBCMT:strftime.obj
 0003:00011878       ??_C@_03JIHJHPIE@Jan?$AA@  10062878     LIBCMT:strftime.obj
 0003:0001187c       ??_C@_08INBOOONO@Saturday?$AA@ 1006287c     LIBCMT:strftime.obj
 0003:00011888       ??_C@_06JECMNKMI@Friday?$AA@ 10062888     LIBCMT:strftime.obj
 0003:00011890       ??_C@_08HACCIKIA@Thursday?$AA@ 10062890     LIBCMT:strftime.obj
 0003:0001189c       ??_C@_09DLIGFAKA@Wednesday?$AA@ 1006289c     LIBCMT:strftime.obj
 0003:000118a8       ??_C@_07BAAGCFCM@Tuesday?$AA@ 100628a8     LIBCMT:strftime.obj
 0003:000118b0       ??_C@_06JLEDEDGH@Monday?$AA@ 100628b0     LIBCMT:strftime.obj
 0003:000118b8       ??_C@_06OOPIFAJ@Sunday?$AA@ 100628b8     LIBCMT:strftime.obj
 0003:000118c0       ??_C@_03FEFJNEK@Sat?$AA@   100628c0     LIBCMT:strftime.obj
 0003:000118c4       ??_C@_03IDIOELNC@Fri?$AA@  100628c4     LIBCMT:strftime.obj
 0003:000118c8       ??_C@_03IOFIKPDN@Thu?$AA@  100628c8     LIBCMT:strftime.obj
 0003:000118cc       ??_C@_03MHOMLAJA@Wed?$AA@  100628cc     LIBCMT:strftime.obj
 0003:000118d0       ??_C@_03NAGEINEP@Tue?$AA@  100628d0     LIBCMT:strftime.obj
 0003:000118d4       ??_C@_03PDAGKDH@Mon?$AA@   100628d4     LIBCMT:strftime.obj
 0003:000118d8       ??_C@_03KOEHGMDN@Sun?$AA@  100628d8     LIBCMT:strftime.obj
 0003:000118e0       ___rgLocInfo               100628e0     LIBCMT:getqloc.obj
 0003:00011d84       ??_C@_08PKBIPKE@Paraguay?$AA@ 10062d84     LIBCMT:getqloc.obj
 0003:00011d90       ??_C@_07GHBIBIBP@Uruguay?$AA@ 10062d90     LIBCMT:getqloc.obj
 0003:00011d98       ??_C@_05HBNKAPDN@Chile?$AA@ 10062d98     LIBCMT:getqloc.obj
 0003:00011da0       ??_C@_07FEIFIPNF@Ecuador?$AA@ 10062da0     LIBCMT:getqloc.obj
 0003:00011da8       ??_C@_09PGNFPGME@Argentina?$AA@ 10062da8     LIBCMT:getqloc.obj
 0003:00011db4       ??_C@_04IALPBJF@Peru?$AA@  10062db4     LIBCMT:getqloc.obj
 0003:00011dbc       ??_C@_08IJPLNLKH@Colombia?$AA@ 10062dbc     LIBCMT:getqloc.obj
 0003:00011dc8       ??_C@_09IDMFKCN@Venezuela?$AA@ 10062dc8     LIBCMT:getqloc.obj
 0003:00011dd4       ??_C@_0BD@DNEJOGOK@Dominican?5Republic?$AA@ 10062dd4     LIBCMT:getqloc.obj
 0003:00011de8       ??_C@_0N@LPINDNDB@South?5Africa?$AA@ 10062de8     LIBCMT:getqloc.obj
 0003:00011df8       ??_C@_06BLJPEOBG@Panama?$AA@ 10062df8     LIBCMT:getqloc.obj
 0003:00011e00       ??_C@_0L@BOCNDGON@Luxembourg?$AA@ 10062e00     LIBCMT:getqloc.obj
 0003:00011e0c       ??_C@_0L@CONEHKA@Costa?5Rica?$AA@ 10062e0c     LIBCMT:getqloc.obj
 0003:00011e18       ??_C@_0M@KGBPELAM@Switzerland?$AA@ 10062e18     LIBCMT:getqloc.obj
 0003:00011e24       ??_C@_09FJGLIMAG@Guatemala?$AA@ 10062e24     LIBCMT:getqloc.obj
 0003:00011e30       ??_C@_06ECHIPDMK@Canada?$AA@ 10062e30     LIBCMT:getqloc.obj
 0003:00011e38       ??_C@_0BG@CCEBNPGH@Spanish?5?9?5Modern?5Sort?$AA@ 10062e38     LIBCMT:getqloc.obj
 0003:00011e50       ??_C@_09EFGJAPAD@Australia?$AA@ 10062e50     LIBCMT:getqloc.obj
 0003:00011e5c       ??_C@_07NEKHPBCG@English?$AA@ 10062e5c     LIBCMT:getqloc.obj
 0003:00011e64       ??_C@_07LKIIOGFH@Austria?$AA@ 10062e64     LIBCMT:getqloc.obj
 0003:00011e6c       ??_C@_06EDDDIONA@German?$AA@ 10062e6c     LIBCMT:getqloc.obj
 0003:00011e74       ??_C@_07LIIIOFOA@Belgium?$AA@ 10062e74     LIBCMT:getqloc.obj
 0003:00011e7c       ??_C@_06DIAOLLEH@Mexico?$AA@ 10062e7c     LIBCMT:getqloc.obj
 0003:00011e84       ??_C@_07PFALJOGE@Spanish?$AA@ 10062e84     LIBCMT:getqloc.obj
 0003:00011e8c       ??_C@_06FFOOPAJB@Basque?$AA@ 10062e8c     LIBCMT:getqloc.obj
 0003:00011e94       ??_C@_06DGHNDJFJ@Sweden?$AA@ 10062e94     LIBCMT:getqloc.obj
 0003:00011e9c       ??_C@_07OBINPKFN@Swedish?$AA@ 10062e9c     LIBCMT:getqloc.obj
 0003:00011ea4       ??_C@_07NCOIHDGC@Iceland?$AA@ 10062ea4     LIBCMT:getqloc.obj
 0003:00011eac       ??_C@_09JHBBDDIA@Icelandic?$AA@ 10062eac     LIBCMT:getqloc.obj
 0003:00011eb8       ??_C@_06COBCPIFO@France?$AA@ 10062eb8     LIBCMT:getqloc.obj
 0003:00011ec0       ??_C@_06GODMCAND@French?$AA@ 10062ec0     LIBCMT:getqloc.obj
 0003:00011ec8       ??_C@_07MFHPMOED@Finland?$AA@ 10062ec8     LIBCMT:getqloc.obj
 0003:00011ed0       ??_C@_07MCEAMKOD@Finnish?$AA@ 10062ed0     LIBCMT:getqloc.obj
 0003:00011ed8       ??_C@_05CBHOCCK@Spain?$AA@ 10062ed8     LIBCMT:getqloc.obj
 0003:00011ee0       ??_C@_0BL@GIOEGDHB@Spanish?5?9?5Traditional?5Sort?$AA@ 10062ee0     LIBCMT:getqloc.obj
 0003:00011efc       ___rglangidNotDefault      10062efc     LIBCMT:getqloc.obj
 0003:00011f10       ___rg_country              10062f10     LIBCMT:getqloc.obj
 0003:00011fc8       ??_C@_0O@FMJNFNKE@united?9states?$AA@ 10062fc8     LIBCMT:getqloc.obj
 0003:00011fd8       ??_C@_0P@NDHFFKCA@united?9kingdom?$AA@ 10062fd8     LIBCMT:getqloc.obj
 0003:00011fe8       ??_C@_0BC@HHDADLGF@trinidad?5?$CG?5tobago?$AA@ 10062fe8     LIBCMT:getqloc.obj
 0003:00011ffc       ??_C@_0M@IOAEBDAC@south?9korea?$AA@ 10062ffc     LIBCMT:getqloc.obj
 0003:00012008       ??_C@_0N@FIELFKIJ@south?9africa?$AA@ 10063008     LIBCMT:getqloc.obj
 0003:00012018       ??_C@_0M@OPNDHCMC@south?5korea?$AA@ 10063018     LIBCMT:getqloc.obj
 0003:00012024       ??_C@_0N@MDEOEPFI@south?5africa?$AA@ 10063024     LIBCMT:getqloc.obj
 0003:00012034       ??_C@_06FKAPCJLB@slovak?$AA@ 10063034     LIBCMT:getqloc.obj
 0003:0001203c       ??_C@_0M@EFJANOAL@puerto?9rico?$AA@ 1006303c     LIBCMT:getqloc.obj
 0003:00012048       ??_C@_08PGOJKDAI@pr?9china?$AA@ 10063048     LIBCMT:getqloc.obj
 0003:00012054       ??_C@_08JHDOMCMI@pr?5china?$AA@ 10063054     LIBCMT:getqloc.obj
 0003:00012060       ??_C@_02JHCHFBLL@nz?$AA@   10063060     LIBCMT:getqloc.obj
 0003:00012064       ??_C@_0M@LINHDHKP@new?9zealand?$AA@ 10063064     LIBCMT:getqloc.obj
 0003:00012070       ??_C@_09IIIPPBDB@hong?9kong?$AA@ 10063070     LIBCMT:getqloc.obj
 0003:0001207c       ??_C@_07HJLCKBG@holland?$AA@ 1006307c     LIBCMT:getqloc.obj
 0003:00012084       ??_C@_0O@LEHGMHAG@great?5britain?$AA@ 10063084     LIBCMT:getqloc.obj
 0003:00012094       ??_C@_07FACOMELA@england?$AA@ 10063094     LIBCMT:getqloc.obj
 0003:0001209c       ??_C@_05JIHCEICB@czech?$AA@ 1006309c     LIBCMT:getqloc.obj
 0003:000120a4       ??_C@_05BBJOBLGB@china?$AA@ 100630a4     LIBCMT:getqloc.obj
 0003:000120ac       ??_C@_07GPKPHICP@britain?$AA@ 100630ac     LIBCMT:getqloc.obj
 0003:000120b4       ??_C@_07MHIPBHMG@america?$AA@ 100630b4     LIBCMT:getqloc.obj
 0003:000120c0       ___rg_language             100630c0     LIBCMT:getqloc.obj
 0003:000122c8       ??_C@_03KIALPMKC@usa?$AA@  100632c8     LIBCMT:getqloc.obj
 0003:000122cc       ??_C@_02FGJGKGGD@us?$AA@   100632cc     LIBCMT:getqloc.obj
 0003:000122d0       ??_C@_02NEINDODK@uk?$AA@   100632d0     LIBCMT:getqloc.obj
 0003:000122d4       ??_C@_05JMPCFJFJ@swiss?$AA@ 100632d4     LIBCMT:getqloc.obj
 0003:000122dc       ??_C@_0BA@HLOCPIOD@swedish?9finland?$AA@ 100632dc     LIBCMT:getqloc.obj
 0003:000122ec       ??_C@_0BC@PKCNIABK@spanish?9venezuela?$AA@ 100632ec     LIBCMT:getqloc.obj
 0003:00012300       ??_C@_0BA@GBHHMIJI@spanish?9uruguay?$AA@ 10063300     LIBCMT:getqloc.obj
 0003:00012310       ??_C@_0BE@BHDOHPMC@spanish?9puerto?5rico?$AA@ 10063310     LIBCMT:getqloc.obj
 0003:00012324       ??_C@_0N@KMOIDGGN@spanish?9peru?$AA@ 10063324     LIBCMT:getqloc.obj
 0003:00012334       ??_C@_0BB@HMHLPGPH@spanish?9paraguay?$AA@ 10063334     LIBCMT:getqloc.obj
 0003:00012348       ??_C@_0P@MCPKNGFD@spanish?9panama?$AA@ 10063348     LIBCMT:getqloc.obj
 0003:00012358       ??_C@_0BC@IHOHGAIL@spanish?9nicaragua?$AA@ 10063358     LIBCMT:getqloc.obj
 0003:0001236c       ??_C@_0P@KLMJDNFJ@spanish?9modern?$AA@ 1006336c     LIBCMT:getqloc.obj
 0003:0001237c       ??_C@_0BA@BPAPGBCM@spanish?9mexican?$AA@ 1006337c     LIBCMT:getqloc.obj
 0003:0001238c       ??_C@_0BB@PDECHHHE@spanish?9honduras?$AA@ 1006338c     LIBCMT:getqloc.obj
 0003:000123a0       ??_C@_0BC@KLHKFGDB@spanish?9guatemala?$AA@ 100633a0     LIBCMT:getqloc.obj
 0003:000123b4       ??_C@_0BE@MFOOKJAI@spanish?9el?5salvador?$AA@ 100633b4     LIBCMT:getqloc.obj
 0003:000123c8       ??_C@_0BA@FCOKFPFC@spanish?9ecuador?$AA@ 100633c8     LIBCMT:getqloc.obj
 0003:000123d8       ??_C@_0BL@PLMGIMOO@spanish?9dominican?5republic?$AA@ 100633d8     LIBCMT:getqloc.obj
 0003:000123f4       ??_C@_0BD@HLGDNMHB@spanish?9costa?5rica?$AA@ 100633f4     LIBCMT:getqloc.obj
 0003:00012408       ??_C@_0BB@PKCBKCPE@spanish?9colombia?$AA@ 10063408     LIBCMT:getqloc.obj
 0003:0001241c       ??_C@_0O@MCBIJGNE@spanish?9chile?$AA@ 1006341c     LIBCMT:getqloc.obj
 0003:0001242c       ??_C@_0BA@BEFEIGJJ@spanish?9bolivia?$AA@ 1006342c     LIBCMT:getqloc.obj
 0003:0001243c       ??_C@_0BC@EMECMPD@spanish?9argentina?$AA@ 1006343c     LIBCMT:getqloc.obj
 0003:00012450       ??_C@_0BF@EALFLENP@portuguese?9brazilian?$AA@ 10063450     LIBCMT:getqloc.obj
 0003:00012468       ??_C@_0BC@HBLEBLNN@norwegian?9nynorsk?$AA@ 10063468     LIBCMT:getqloc.obj
 0003:0001247c       ??_C@_0BB@HMACDDCK@norwegian?9bokmal?$AA@ 1006347c     LIBCMT:getqloc.obj
 0003:00012490       ??_C@_09BAFFPPHE@norwegian?$AA@ 10063490     LIBCMT:getqloc.obj
 0003:0001249c       ??_C@_0O@EAJFJDFG@italian?9swiss?$AA@ 1006349c     LIBCMT:getqloc.obj
 0003:000124ac       ??_C@_0O@CNOMPGD@irish?9english?$AA@ 100634ac     LIBCMT:getqloc.obj
 0003:000124bc       ??_C@_0N@EDHBGCKG@german?9swiss?$AA@ 100634bc     LIBCMT:getqloc.obj
 0003:000124cc       ??_C@_0BC@JACMHNBP@german?9luxembourg?$AA@ 100634cc     LIBCMT:getqloc.obj
 0003:000124e0       ??_C@_0BE@HBGMGFEG@german?9lichtenstein?$AA@ 100634e0     LIBCMT:getqloc.obj
 0003:000124f4       ??_C@_0BA@HKKBIBKL@german?9austrian?$AA@ 100634f4     LIBCMT:getqloc.obj
 0003:00012504       ??_C@_0N@GCAEPEBK@french?9swiss?$AA@ 10063504     LIBCMT:getqloc.obj
 0003:00012514       ??_C@_0BC@DJFJJCK@french?9luxembourg?$AA@ 10063514     LIBCMT:getqloc.obj
 0003:00012528       ??_C@_0BA@NNCEDFIC@french?9canadian?$AA@ 10063528     LIBCMT:getqloc.obj
 0003:00012538       ??_C@_0P@CMPOCLM@french?9belgian?$AA@ 10063538     LIBCMT:getqloc.obj
 0003:00012548       ??_C@_0M@GHHDJOK@english?9usa?$AA@ 10063548     LIBCMT:getqloc.obj
 0003:00012554       ??_C@_0L@PLDJKEIL@english?9us?$AA@ 10063554     LIBCMT:getqloc.obj
 0003:00012560       ??_C@_0L@HJCCDMNC@english?9uk?$AA@ 10063560     LIBCMT:getqloc.obj
 0003:0001256c       ??_C@_0BK@CKLIAGJB@english?9trinidad?5y?5tobago?$AA@ 1006356c     LIBCMT:getqloc.obj
 0003:00012588       ??_C@_0BF@JMJMGNNF@english?9south?5africa?$AA@ 10063588     LIBCMT:getqloc.obj
 0003:000125a0       ??_C@_0L@DKIIFDFD@english?9nz?$AA@ 100635a0     LIBCMT:getqloc.obj
 0003:000125ac       ??_C@_0BA@ONHGJCLH@english?9jamaica?$AA@ 100635ac     LIBCMT:getqloc.obj
 0003:000125bc       ??_C@_0M@HJBGHOPO@english?9ire?$AA@ 100635bc     LIBCMT:getqloc.obj
 0003:000125c8       ??_C@_0BC@LFEKMIFB@english?9caribbean?$AA@ 100635c8     LIBCMT:getqloc.obj
 0003:000125dc       ??_C@_0M@OLDPFKHI@english?9can?$AA@ 100635dc     LIBCMT:getqloc.obj
 0003:000125e8       ??_C@_0P@OMDEHBMP@english?9belize?$AA@ 100635e8     LIBCMT:getqloc.obj
 0003:000125f8       ??_C@_0M@KFHFPFED@english?9aus?$AA@ 100635f8     LIBCMT:getqloc.obj
 0003:00012604       ??_C@_0BB@MNMBKDFE@english?9american?$AA@ 10063604     LIBCMT:getqloc.obj
 0003:00012618       ??_C@_0O@KIDLNNBA@dutch?9belgian?$AA@ 10063618     LIBCMT:getqloc.obj
 0003:00012628       ??_C@_0BE@JBKABBMH@chinese?9traditional?$AA@ 10063628     LIBCMT:getqloc.obj
 0003:0001263c       ??_C@_0BC@MJJMPKCG@chinese?9singapore?$AA@ 1006363c     LIBCMT:getqloc.obj
 0003:00012650       ??_C@_0BD@FDKADDCP@chinese?9simplified?$AA@ 10063650     LIBCMT:getqloc.obj
 0003:00012664       ??_C@_0BB@DBEFDDME@chinese?9hongkong?$AA@ 10063664     LIBCMT:getqloc.obj
 0003:00012678       ??_C@_07DHNMFMCI@chinese?$AA@ 10063678     LIBCMT:getqloc.obj
 0003:00012680       ??_C@_03FNDDCHI@chi?$AA@   10063680     LIBCMT:getqloc.obj
 0003:00012684       ??_C@_03BMMIADDJ@chh?$AA@  10063684     LIBCMT:getqloc.obj
 0003:00012688       ??_C@_08OAIPJDGI@canadian?$AA@ 10063688     LIBCMT:getqloc.obj
 0003:00012694       ??_C@_07HBPMNPNJ@belgian?$AA@ 10063694     LIBCMT:getqloc.obj
 0003:0001269c       ??_C@_0L@OEKOPBEL@australian?$AA@ 1006369c     LIBCMT:getqloc.obj
 0003:000126a8       ??_C@_0BB@MEIMBEDG@american?9english?$AA@ 100636a8     LIBCMT:getqloc.obj
 0003:000126bc       ??_C@_0BB@DFMDPDGB@american?5english?$AA@ 100636bc     LIBCMT:getqloc.obj
 0003:000126d0       ??_C@_08IJLOKOLL@american?$AA@ 100636d0     LIBCMT:getqloc.obj
 0003:000126dc       ??_C@_03NFKLAGEF@OCP?$AA@  100636dc     LIBCMT:getqloc.obj
 0003:000126e0       ??_C@_03DFHEHBHG@ACP?$AA@  100636e0     LIBCMT:getqloc.obj
 0003:000126e4       ??_C@_0BC@NFIEMBLL@Norwegian?9Nynorsk?$AA@ 100636e4     LIBCMT:getqloc.obj
 0003:00012708       ___lookuptable             10063708     LIBCMT:output.obj
 0003:00012764       ??_C@_1O@CEDCILHN@?$AA?$CI?$AAn?$AAu?$AAl?$AAl?$AA?$CJ?$AA?$AA@ 10063764     LIBCMT:output.obj
 0003:00012774       ??_C@_06OJHGLDPL@?$CInull?$CJ?$AA@ 10063774     LIBCMT:output.obj
 0003:0001279c       ??_C@_09KLGCKDOD@Program?3?5?$AA@ 1006379c     LIBCMT:secfail.obj
 0003:000127a8       ??_C@_0KA@JEHFIFGP@A?5buffer?5overrun?5has?5been?5detect@ 100637a8     LIBCMT:secfail.obj
 0003:00012848       ??_C@_0BJ@MDEKIEOJ@Buffer?5overrun?5detected?$CB?$AA@ 10063848     LIBCMT:secfail.obj
 0003:00012868       ??_C@_0LB@BPLHHLFD@A?5security?5error?5of?5unknown?5caus@ 10063868     LIBCMT:secfail.obj
 0003:0001291c       ??_C@_0CD@GMKACBEK@Unknown?5security?5failure?5detecte@ 1006391c     LIBCMT:secfail.obj
 0003:0001294c       ??_C@_06IMKFLFPG@1?$CDQNAN?$AA@ 1006394c     LIBCMT:x10fout.obj
 0003:00012954       ??_C@_05DNEBIAHO@1?$CDINF?$AA@ 10063954     LIBCMT:x10fout.obj
 0003:0001295c       ??_C@_05PHHOCPM@1?$CDIND?$AA@ 1006395c     LIBCMT:x10fout.obj
 0003:00012964       ??_C@_06PGGFOGJG@1?$CDSNAN?$AA@ 10063964     LIBCMT:x10fout.obj
 0003:0001297c       ___dnames                  1006397c     LIBCMT:timeset.obj
 0003:00012994       ___mnames                  10063994     LIBCMT:timeset.obj
 0003:00012a4c       ??_R1A@?0A@A@type_info@@8  10063a4c     LIBCMT:typinfo.obj
 0003:00012a64       ??_R2type_info@@8          10063a64     LIBCMT:typinfo.obj
 0003:00012a6c       ??_R3type_info@@8          10063a6c     LIBCMT:typinfo.obj
 0003:00012a7c       ??_R4type_info@@6B@        10063a7c     LIBCMT:typinfo.obj
 0003:00012a90       ___rtc_iaa                 10063a90     LIBCMT:initsect.obj
 0003:00012a94       ___rtc_izz                 10063a94     LIBCMT:initsect.obj
 0003:00012a98       ___rtc_taa                 10063a98     LIBCMT:initsect.obj
 0003:00012a9c       ___rtc_tzz                 10063a9c     LIBCMT:initsect.obj
 0003:00012aa0       __IMPORT_DESCRIPTOR_KERNEL32 10063aa0     kernel32:KERNEL32.dll
 0003:00012ab4       __IMPORT_DESCRIPTOR_IFXCore 10063ab4     IFXCore:IFXCore.dll
 0003:00012ac8       __IMPORT_DESCRIPTOR_USER32 10063ac8     user32:USER32.dll
 0003:00012adc       __IMPORT_DESCRIPTOR_WINMM  10063adc     winmm:WINMM.dll
 0003:00012af0       __NULL_IMPORT_DESCRIPTOR   10063af0     kernel32:KERNEL32.dll
 0004:00000000       ___xc_a                    10065000     LIBCMT:crt0init.obj
 0004:0000000c       ___xc_z                    1006500c     LIBCMT:crt0init.obj
 0004:00000010       ___xi_a                    10065010     LIBCMT:crt0init.obj
 0004:00000024       ___xi_z                    10065024     LIBCMT:crt0init.obj
 0004:00000028       ___xp_a                    10065028     LIBCMT:crt0init.obj
 0004:00000030       ___xp_z                    10065030     LIBCMT:crt0init.obj
 0004:00000034       ___xt_a                    10065034     LIBCMT:crt0init.obj
 0004:0000003c       ___xt_z                    1006503c     LIBCMT:crt0init.obj
 0004:00000180       ??_R4CIFXAuthorMeshLocker@@6B@ 10065180     Exporting:CIFXAuthorCLODEncoderX.obj
 0004:00000198       ??_R0?AVCIFXAuthorMeshLocker@@@8 10065198     Exporting:CIFXAuthorCLODEncoderX.obj
 0004:000001c0       ??_R3CIFXAuthorMeshLocker@@8 100651c0     Exporting:CIFXAuthorCLODEncoderX.obj
 0004:000001d0       ??_R2CIFXAuthorMeshLocker@@8 100651d0     Exporting:CIFXAuthorCLODEncoderX.obj
 0004:000001d8       ??_R1A@?0A@A@CIFXAuthorMeshLocker@@8 100651d8     Exporting:CIFXAuthorCLODEncoderX.obj
 0004:000001f0       ??_R4IFXUnknown@@6B@       100651f0     Exporting:CIFXAuthorCLODEncoderX.obj
 0004:00000208       ??_R0?AVIFXUnknown@@@8     10065208     Exporting:CIFXAuthorCLODEncoderX.obj
 0004:00000228       ??_R3IFXUnknown@@8         10065228     Exporting:CIFXAuthorCLODEncoderX.obj
 0004:00000238       ??_R2IFXUnknown@@8         10065238     Exporting:CIFXAuthorCLODEncoderX.obj
 0004:00000240       ??_R1A@?0A@A@IFXUnknown@@8 10065240     Exporting:CIFXAuthorCLODEncoderX.obj
 0004:00000258       ??_R4IFXException@@6B@     10065258     Exporting:CIFXAuthorCLODEncoderX.obj
 0004:00000270       ??_R0?AVIFXException@@@8   10065270     Exporting:CIFXAuthorCLODEncoderX.obj
 0004:00000290       ??_R3IFXException@@8       10065290     Exporting:CIFXAuthorCLODEncoderX.obj
 0004:000002a0       ??_R2IFXException@@8       100652a0     Exporting:CIFXAuthorCLODEncoderX.obj
 0004:000002a8       ??_R1A@?0A@A@IFXException@@8 100652a8     Exporting:CIFXAuthorCLODEncoderX.obj
 0004:000002c0       ??_R4IFXEncoderX@@6B0@@    100652c0     Exporting:CIFXAuthorCLODEncoderX.obj
 0004:000002d8       ??_R0?AVIFXEncoderX@@@8    100652d8     Exporting:CIFXAuthorCLODEncoderX.obj
 0004:000002f8       ??_R3IFXEncoderX@@8        100652f8     Exporting:CIFXAuthorCLODEncoderX.obj
 0004:00000308       ??_R2IFXEncoderX@@8        10065308     Exporting:CIFXAuthorCLODEncoderX.obj
 0004:00000310       ??_R1A@?0A@A@IFXEncoderX@@8 10065310     Exporting:CIFXAuthorCLODEncoderX.obj
 0004:00000328       ??_R1A@33BA@IFXUnknown@@8  10065328     Exporting:CIFXAuthorCLODEncoderX.obj
 0004:00000340       ??_R4IFXEncoderX@@6BIFXUnknown@@@ 10065340     Exporting:CIFXAuthorCLODEncoderX.obj
 0004:00000358       ??_R4CIFXAuthorCLODEncoderX@@6B0@@ 10065358     Exporting:CIFXAuthorCLODEncoderX.obj
 0004:00000370       ??_R0?AVCIFXAuthorCLODEncoderX@@@8 10065370     Exporting:CIFXAuthorCLODEncoderX.obj
 0004:00000398       ??_R3CIFXAuthorCLODEncoderX@@8 10065398     Exporting:CIFXAuthorCLODEncoderX.obj
 0004:000003a8       ??_R2CIFXAuthorCLODEncoderX@@8 100653a8     Exporting:CIFXAuthorCLODEncoderX.obj
 0004:000003b8       ??_R1A@?0A@A@CIFXAuthorCLODEncoderX@@8 100653b8     Exporting:CIFXAuthorCLODEncoderX.obj
 0004:000003d0       ??_R1A@77BA@IFXEncoderX@@8 100653d0     Exporting:CIFXAuthorCLODEncoderX.obj
 0004:000003e8       ??_R1A@73BA@IFXUnknown@@8  100653e8     Exporting:CIFXAuthorCLODEncoderX.obj
 0004:00000400       ??_R4CIFXAuthorCLODEncoderX@@6BIFXUnknown@@@ 10065400     Exporting:CIFXAuthorCLODEncoderX.obj
 0004:00000418       ??_R4CIFXAuthorCLODEncoderX@@6BIFXEncoderX@@@ 10065418     Exporting:CIFXAuthorCLODEncoderX.obj
 0004:00000430       ??_8CIFXAuthorCLODEncoderX@@7B0@@ 10065430     Exporting:CIFXAuthorCLODEncoderX.obj
 0004:0000043c       ??_8CIFXAuthorCLODEncoderX@@7BIFXEncoderX@@@ 1006543c     Exporting:CIFXAuthorCLODEncoderX.obj
 0004:00000448       __CTA1?AVIFXException@@    10065448     Exporting:CIFXAuthorCLODEncoderX.obj
 0004:00000450       __CT??_R0?AVIFXException@@@8IFXException@20 10065450     Exporting:CIFXAuthorCLODEncoderX.obj
 0004:00000470       __TI1?AVIFXException@@     10065470     Exporting:CIFXAuthorCLODEncoderX.obj
 0004:00000480       ??_R4CIFXAnimationModifierEncoder@@6B0@@ 10065480     Exporting:CIFXAnimationModifierEncoder.obj
 0004:00000498       ??_R0?AVCIFXAnimationModifierEncoder@@@8 10065498     Exporting:CIFXAnimationModifierEncoder.obj
 0004:000004c8       ??_R3CIFXAnimationModifierEncoder@@8 100654c8     Exporting:CIFXAnimationModifierEncoder.obj
 0004:000004d8       ??_R2CIFXAnimationModifierEncoder@@8 100654d8     Exporting:CIFXAnimationModifierEncoder.obj
 0004:000004e8       ??_R1A@?0A@A@CIFXAnimationModifierEncoder@@8 100654e8     Exporting:CIFXAnimationModifierEncoder.obj
 0004:00000500       ??_R1A@37BA@IFXEncoderX@@8 10065500     Exporting:CIFXAnimationModifierEncoder.obj
 0004:00000518       ??_R4CIFXAnimationModifierEncoder@@6BIFXUnknown@@@ 10065518     Exporting:CIFXAnimationModifierEncoder.obj
 0004:00000530       ??_R4CIFXAnimationModifierEncoder@@6BIFXEncoderX@@@ 10065530     Exporting:CIFXAnimationModifierEncoder.obj
 0004:00000548       ??_8CIFXAnimationModifierEncoder@@7B0@@ 10065548     Exporting:CIFXAnimationModifierEncoder.obj
 0004:00000554       ??_8CIFXAnimationModifierEncoder@@7BIFXEncoderX@@@ 10065554     Exporting:CIFXAnimationModifierEncoder.obj
 0004:00000560       ??_R4CIFXMaterialResourceEncoder@@6B0@@ 10065560     Exporting:CIFXMaterialResourceEncoder.obj
 0004:00000578       ??_R0?AVCIFXMaterialResourceEncoder@@@8 10065578     Exporting:CIFXMaterialResourceEncoder.obj
 0004:000005a8       ??_R3CIFXMaterialResourceEncoder@@8 100655a8     Exporting:CIFXMaterialResourceEncoder.obj
 0004:000005b8       ??_R2CIFXMaterialResourceEncoder@@8 100655b8     Exporting:CIFXMaterialResourceEncoder.obj
 0004:000005c8       ??_R1A@?0A@A@CIFXMaterialResourceEncoder@@8 100655c8     Exporting:CIFXMaterialResourceEncoder.obj
 0004:000005e0       ??_R4CIFXMaterialResourceEncoder@@6BIFXUnknown@@@ 100655e0     Exporting:CIFXMaterialResourceEncoder.obj
 0004:000005f8       ??_R4CIFXMaterialResourceEncoder@@6BIFXEncoderX@@@ 100655f8     Exporting:CIFXMaterialResourceEncoder.obj
 0004:00000610       ??_8CIFXMaterialResourceEncoder@@7B0@@ 10065610     Exporting:CIFXMaterialResourceEncoder.obj
 0004:0000061c       ??_8CIFXMaterialResourceEncoder@@7BIFXEncoderX@@@ 1006561c     Exporting:CIFXMaterialResourceEncoder.obj
 0004:00000628       ??_R4CIFXMotionResourceEncoder@@6B0@@ 10065628     Exporting:CIFXMotionResourceEncoder.obj
 0004:00000640       ??_R0?AVCIFXMotionResourceEncoder@@@8 10065640     Exporting:CIFXMotionResourceEncoder.obj
 0004:00000668       ??_R3CIFXMotionResourceEncoder@@8 10065668     Exporting:CIFXMotionResourceEncoder.obj
 0004:00000678       ??_R2CIFXMotionResourceEncoder@@8 10065678     Exporting:CIFXMotionResourceEncoder.obj
 0004:00000688       ??_R1A@?0A@A@CIFXMotionResourceEncoder@@8 10065688     Exporting:CIFXMotionResourceEncoder.obj
 0004:000006a0       ??_R4CIFXMotionResourceEncoder@@6BIFXUnknown@@@ 100656a0     Exporting:CIFXMotionResourceEncoder.obj
 0004:000006b8       ??_R4CIFXMotionResourceEncoder@@6BIFXEncoderX@@@ 100656b8     Exporting:CIFXMotionResourceEncoder.obj
 0004:000006d0       ??_8CIFXMotionResourceEncoder@@7B0@@ 100656d0     Exporting:CIFXMotionResourceEncoder.obj
 0004:000006dc       ??_8CIFXMotionResourceEncoder@@7BIFXEncoderX@@@ 100656dc     Exporting:CIFXMotionResourceEncoder.obj
 0004:000006e8       ??_R4CIFXGlyphGeneratorEncoder@@6B0@@ 100656e8     Exporting:CIFXGlyphModifierEncoder.obj
 0004:00000700       ??_R0?AVCIFXGlyphGeneratorEncoder@@@8 10065700     Exporting:CIFXGlyphModifierEncoder.obj
 0004:00000728       ??_R3CIFXGlyphGeneratorEncoder@@8 10065728     Exporting:CIFXGlyphModifierEncoder.obj
 0004:00000738       ??_R2CIFXGlyphGeneratorEncoder@@8 10065738     Exporting:CIFXGlyphModifierEncoder.obj
 0004:00000748       ??_R1A@?0A@A@CIFXGlyphGeneratorEncoder@@8 10065748     Exporting:CIFXGlyphModifierEncoder.obj
 0004:00000760       ??_R4CIFXGlyphGeneratorEncoder@@6BIFXUnknown@@@ 10065760     Exporting:CIFXGlyphModifierEncoder.obj
 0004:00000778       ??_R4CIFXGlyphGeneratorEncoder@@6BIFXEncoderX@@@ 10065778     Exporting:CIFXGlyphModifierEncoder.obj
 0004:00000790       ??_8CIFXGlyphGeneratorEncoder@@7B0@@ 10065790     Exporting:CIFXGlyphModifierEncoder.obj
 0004:0000079c       ??_8CIFXGlyphGeneratorEncoder@@7BIFXEncoderX@@@ 1006579c     Exporting:CIFXGlyphModifierEncoder.obj
 0004:000007a8       ??_R4CIFXShaderLitTextureEncoder@@6B0@@ 100657a8     Exporting:CIFXShaderLitTextureEncoder.obj
 0004:000007c0       ??_R0?AVCIFXShaderLitTextureEncoder@@@8 100657c0     Exporting:CIFXShaderLitTextureEncoder.obj
 0004:000007f0       ??_R3CIFXShaderLitTextureEncoder@@8 100657f0     Exporting:CIFXShaderLitTextureEncoder.obj
 0004:00000800       ??_R2CIFXShaderLitTextureEncoder@@8 10065800     Exporting:CIFXShaderLitTextureEncoder.obj
 0004:00000810       ??_R1A@?0A@A@CIFXShaderLitTextureEncoder@@8 10065810     Exporting:CIFXShaderLitTextureEncoder.obj
 0004:00000828       ??_R4CIFXShaderLitTextureEncoder@@6BIFXUnknown@@@ 10065828     Exporting:CIFXShaderLitTextureEncoder.obj
 0004:00000840       ??_R4CIFXShaderLitTextureEncoder@@6BIFXEncoderX@@@ 10065840     Exporting:CIFXShaderLitTextureEncoder.obj
 0004:00000858       ??_8CIFXShaderLitTextureEncoder@@7B0@@ 10065858     Exporting:CIFXShaderLitTextureEncoder.obj
 0004:00000864       ??_8CIFXShaderLitTextureEncoder@@7BIFXEncoderX@@@ 10065864     Exporting:CIFXShaderLitTextureEncoder.obj
 0004:00000870       ??_R4CIFXSubdivisionModifierEncoder@@6B0@@ 10065870     Exporting:CIFXSubdivisionModifierEncoder.obj
 0004:00000888       ??_R0?AVCIFXSubdivisionModifierEncoder@@@8 10065888     Exporting:CIFXSubdivisionModifierEncoder.obj
 0004:000008b8       ??_R3CIFXSubdivisionModifierEncoder@@8 100658b8     Exporting:CIFXSubdivisionModifierEncoder.obj
 0004:000008c8       ??_R2CIFXSubdivisionModifierEncoder@@8 100658c8     Exporting:CIFXSubdivisionModifierEncoder.obj
 0004:000008d8       ??_R1A@?0A@A@CIFXSubdivisionModifierEncoder@@8 100658d8     Exporting:CIFXSubdivisionModifierEncoder.obj
 0004:000008f0       ??_R4CIFXSubdivisionModifierEncoder@@6BIFXUnknown@@@ 100658f0     Exporting:CIFXSubdivisionModifierEncoder.obj
 0004:00000908       ??_R4CIFXSubdivisionModifierEncoder@@6BIFXEncoderX@@@ 10065908     Exporting:CIFXSubdivisionModifierEncoder.obj
 0004:00000920       ??_8CIFXSubdivisionModifierEncoder@@7B0@@ 10065920     Exporting:CIFXSubdivisionModifierEncoder.obj
 0004:0000092c       ??_8CIFXSubdivisionModifierEncoder@@7BIFXEncoderX@@@ 1006592c     Exporting:CIFXSubdivisionModifierEncoder.obj
 0004:00000938       ??_R4CIFXShadingModifierEncoder@@6B0@@ 10065938     Exporting:CIFXShadingModifierEncoder.obj
 0004:00000950       ??_R0?AVCIFXShadingModifierEncoder@@@8 10065950     Exporting:CIFXShadingModifierEncoder.obj
 0004:00000980       ??_R3CIFXShadingModifierEncoder@@8 10065980     Exporting:CIFXShadingModifierEncoder.obj
 0004:00000990       ??_R2CIFXShadingModifierEncoder@@8 10065990     Exporting:CIFXShadingModifierEncoder.obj
 0004:000009a0       ??_R1A@?0A@A@CIFXShadingModifierEncoder@@8 100659a0     Exporting:CIFXShadingModifierEncoder.obj
 0004:000009b8       ??_R4CIFXShadingModifierEncoder@@6BIFXUnknown@@@ 100659b8     Exporting:CIFXShadingModifierEncoder.obj
 0004:000009d0       ??_R4CIFXShadingModifierEncoder@@6BIFXEncoderX@@@ 100659d0     Exporting:CIFXShadingModifierEncoder.obj
 0004:000009e8       ??_8CIFXShadingModifierEncoder@@7B0@@ 100659e8     Exporting:CIFXShadingModifierEncoder.obj
 0004:000009f4       ??_8CIFXShadingModifierEncoder@@7BIFXEncoderX@@@ 100659f4     Exporting:CIFXShadingModifierEncoder.obj
 0004:00000a00       ??_R4CIFXGroupNodeEncoder@@6BIFXUnknown@@@ 10065a00     Exporting:CIFXGroupNodeEncoder.obj
 0004:00000a18       ??_R0?AVCIFXGroupNodeEncoder@@@8 10065a18     Exporting:CIFXGroupNodeEncoder.obj
 0004:00000a40       ??_R3CIFXGroupNodeEncoder@@8 10065a40     Exporting:CIFXGroupNodeEncoder.obj
 0004:00000a50       ??_R2CIFXGroupNodeEncoder@@8 10065a50     Exporting:CIFXGroupNodeEncoder.obj
 0004:00000a60       ??_R1A@?0A@A@CIFXGroupNodeEncoder@@8 10065a60     Exporting:CIFXGroupNodeEncoder.obj
 0004:00000a78       ??_R1A@BI@7BA@IFXEncoderX@@8 10065a78     Exporting:CIFXGroupNodeEncoder.obj
 0004:00000a90       ??_R1A@BI@3BA@IFXUnknown@@8 10065a90     Exporting:CIFXGroupNodeEncoder.obj
 0004:00000aa8       ??_R1A@?0A@A@CIFXNodeBaseEncoder@@8 10065aa8     Exporting:CIFXGroupNodeEncoder.obj
 0004:00000ac0       ??_R0?AVCIFXNodeBaseEncoder@@@8 10065ac0     Exporting:CIFXGroupNodeEncoder.obj
 0004:00000ae8       ??_R4CIFXGroupNodeEncoder@@6BIFXEncoderX@@@ 10065ae8     Exporting:CIFXGroupNodeEncoder.obj
 0004:00000b00       ??_R4CIFXGroupNodeEncoder@@6BCIFXNodeBaseEncoder@@@ 10065b00     Exporting:CIFXGroupNodeEncoder.obj
 0004:00000b18       ??_8CIFXGroupNodeEncoder@@7B0@@ 10065b18     Exporting:CIFXGroupNodeEncoder.obj
 0004:00000b24       ??_8CIFXGroupNodeEncoder@@7BIFXEncoderX@@@ 10065b24     Exporting:CIFXGroupNodeEncoder.obj
 0004:00000b30       ??_R4CIFXLightNodeEncoder@@6BIFXUnknown@@@ 10065b30     Exporting:CIFXLightNodeEncoder.obj
 0004:00000b48       ??_R0?AVCIFXLightNodeEncoder@@@8 10065b48     Exporting:CIFXLightNodeEncoder.obj
 0004:00000b70       ??_R3CIFXLightNodeEncoder@@8 10065b70     Exporting:CIFXLightNodeEncoder.obj
 0004:00000b80       ??_R2CIFXLightNodeEncoder@@8 10065b80     Exporting:CIFXLightNodeEncoder.obj
 0004:00000b90       ??_R1A@?0A@A@CIFXLightNodeEncoder@@8 10065b90     Exporting:CIFXLightNodeEncoder.obj
 0004:00000ba8       ??_R4CIFXLightNodeEncoder@@6BIFXEncoderX@@@ 10065ba8     Exporting:CIFXLightNodeEncoder.obj
 0004:00000bc0       ??_R4CIFXLightNodeEncoder@@6BCIFXNodeBaseEncoder@@@ 10065bc0     Exporting:CIFXLightNodeEncoder.obj
 0004:00000bd8       ??_8CIFXLightNodeEncoder@@7B0@@ 10065bd8     Exporting:CIFXLightNodeEncoder.obj
 0004:00000be4       ??_8CIFXLightNodeEncoder@@7BIFXEncoderX@@@ 10065be4     Exporting:CIFXLightNodeEncoder.obj
 0004:00000bf0       ??_R4CIFXLightResourceEncoder@@6BIFXUnknown@@@ 10065bf0     Exporting:CIFXLightResourceEncoder.obj
 0004:00000c08       ??_R0?AVCIFXLightResourceEncoder@@@8 10065c08     Exporting:CIFXLightResourceEncoder.obj
 0004:00000c30       ??_R3CIFXLightResourceEncoder@@8 10065c30     Exporting:CIFXLightResourceEncoder.obj
 0004:00000c40       ??_R2CIFXLightResourceEncoder@@8 10065c40     Exporting:CIFXLightResourceEncoder.obj
 0004:00000c50       ??_R1A@?0A@A@CIFXLightResourceEncoder@@8 10065c50     Exporting:CIFXLightResourceEncoder.obj
 0004:00000c68       ??_R4CIFXLightResourceEncoder@@6BIFXEncoderX@@@ 10065c68     Exporting:CIFXLightResourceEncoder.obj
 0004:00000c80       ??_R4CIFXLightResourceEncoder@@6BCIFXNodeBaseEncoder@@@ 10065c80     Exporting:CIFXLightResourceEncoder.obj
 0004:00000c98       ??_8CIFXLightResourceEncoder@@7B0@@ 10065c98     Exporting:CIFXLightResourceEncoder.obj
 0004:00000ca4       ??_8CIFXLightResourceEncoder@@7BIFXEncoderX@@@ 10065ca4     Exporting:CIFXLightResourceEncoder.obj
 0004:00000cb0       ??_R4CIFXViewResourceEncoder@@6BIFXUnknown@@@ 10065cb0     Exporting:CIFXViewResourceEncoder.obj
 0004:00000cc8       ??_R0?AVCIFXViewResourceEncoder@@@8 10065cc8     Exporting:CIFXViewResourceEncoder.obj
 0004:00000cf0       ??_R3CIFXViewResourceEncoder@@8 10065cf0     Exporting:CIFXViewResourceEncoder.obj
 0004:00000d00       ??_R2CIFXViewResourceEncoder@@8 10065d00     Exporting:CIFXViewResourceEncoder.obj
 0004:00000d10       ??_R1A@?0A@A@CIFXViewResourceEncoder@@8 10065d10     Exporting:CIFXViewResourceEncoder.obj
 0004:00000d28       ??_R4CIFXViewResourceEncoder@@6BIFXEncoderX@@@ 10065d28     Exporting:CIFXViewResourceEncoder.obj
 0004:00000d40       ??_R4CIFXViewResourceEncoder@@6BCIFXNodeBaseEncoder@@@ 10065d40     Exporting:CIFXViewResourceEncoder.obj
 0004:00000d58       ??_8CIFXViewResourceEncoder@@7B0@@ 10065d58     Exporting:CIFXViewResourceEncoder.obj
 0004:00000d64       ??_8CIFXViewResourceEncoder@@7BIFXEncoderX@@@ 10065d64     Exporting:CIFXViewResourceEncoder.obj
 0004:00000d70       ??_R4CIFXModelNodeEncoder@@6BIFXUnknown@@@ 10065d70     Exporting:CIFXModelNodeEncoder.obj
 0004:00000d88       ??_R0?AVCIFXModelNodeEncoder@@@8 10065d88     Exporting:CIFXModelNodeEncoder.obj
 0004:00000db0       ??_R3CIFXModelNodeEncoder@@8 10065db0     Exporting:CIFXModelNodeEncoder.obj
 0004:00000dc0       ??_R2CIFXModelNodeEncoder@@8 10065dc0     Exporting:CIFXModelNodeEncoder.obj
 0004:00000dd0       ??_R1A@?0A@A@CIFXModelNodeEncoder@@8 10065dd0     Exporting:CIFXModelNodeEncoder.obj
 0004:00000de8       ??_R4CIFXModelNodeEncoder@@6BIFXEncoderX@@@ 10065de8     Exporting:CIFXModelNodeEncoder.obj
 0004:00000e00       ??_R4CIFXModelNodeEncoder@@6BCIFXNodeBaseEncoder@@@ 10065e00     Exporting:CIFXModelNodeEncoder.obj
 0004:00000e18       ??_8CIFXModelNodeEncoder@@7B0@@ 10065e18     Exporting:CIFXModelNodeEncoder.obj
 0004:00000e24       ??_8CIFXModelNodeEncoder@@7BIFXEncoderX@@@ 10065e24     Exporting:CIFXModelNodeEncoder.obj
 0004:00000e30       ??_R4IFXViewLayer@@6B@     10065e30     Exporting:CIFXViewNodeEncoder.obj
 0004:00000e48       ??_R0?AVIFXViewLayer@@@8   10065e48     Exporting:CIFXViewNodeEncoder.obj
 0004:00000e68       ??_R3IFXViewLayer@@8       10065e68     Exporting:CIFXViewNodeEncoder.obj
 0004:00000e78       ??_R2IFXViewLayer@@8       10065e78     Exporting:CIFXViewNodeEncoder.obj
 0004:00000e80       ??_R1A@?0A@A@IFXViewLayer@@8 10065e80     Exporting:CIFXViewNodeEncoder.obj
 0004:00000e98       ??_R4CIFXViewNodeEncoder@@6BIFXUnknown@@@ 10065e98     Exporting:CIFXViewNodeEncoder.obj
 0004:00000eb0       ??_R0?AVCIFXViewNodeEncoder@@@8 10065eb0     Exporting:CIFXViewNodeEncoder.obj
 0004:00000ed8       ??_R3CIFXViewNodeEncoder@@8 10065ed8     Exporting:CIFXViewNodeEncoder.obj
 0004:00000ee8       ??_R2CIFXViewNodeEncoder@@8 10065ee8     Exporting:CIFXViewNodeEncoder.obj
 0004:00000ef8       ??_R1A@?0A@A@CIFXViewNodeEncoder@@8 10065ef8     Exporting:CIFXViewNodeEncoder.obj
 0004:00000f10       ??_R4CIFXViewNodeEncoder@@6BIFXEncoderX@@@ 10065f10     Exporting:CIFXViewNodeEncoder.obj
 0004:00000f28       ??_R4CIFXViewNodeEncoder@@6BCIFXNodeBaseEncoder@@@ 10065f28     Exporting:CIFXViewNodeEncoder.obj
 0004:00000f40       ??_8CIFXViewNodeEncoder@@7B0@@ 10065f40     Exporting:CIFXViewNodeEncoder.obj
 0004:00000f4c       ??_8CIFXViewNodeEncoder@@7BIFXEncoderX@@@ 10065f4c     Exporting:CIFXViewNodeEncoder.obj
 0004:00000f58       ??_R4IFXCoreArray@@6B@     10065f58     Exporting:CIFXFileReferenceEncoder.obj
 0004:00000f70       ??_R0?AVIFXCoreArray@@@8   10065f70     Exporting:CIFXFileReferenceEncoder.obj
 0004:00000f90       ??_R3IFXCoreArray@@8       10065f90     Exporting:CIFXFileReferenceEncoder.obj
 0004:00000fa0       ??_R2IFXCoreArray@@8       10065fa0     Exporting:CIFXFileReferenceEncoder.obj
 0004:00000fa8       ??_R1A@?0A@A@IFXCoreArray@@8 10065fa8     Exporting:CIFXFileReferenceEncoder.obj
 0004:00000fc0       ??_R4CIFXFileReferenceEncoder@@6B0@@ 10065fc0     Exporting:CIFXFileReferenceEncoder.obj
 0004:00000fd8       ??_R0?AVCIFXFileReferenceEncoder@@@8 10065fd8     Exporting:CIFXFileReferenceEncoder.obj
 0004:00001000       ??_R3CIFXFileReferenceEncoder@@8 10066000     Exporting:CIFXFileReferenceEncoder.obj
 0004:00001010       ??_R2CIFXFileReferenceEncoder@@8 10066010     Exporting:CIFXFileReferenceEncoder.obj
 0004:00001020       ??_R1A@?0A@A@CIFXFileReferenceEncoder@@8 10066020     Exporting:CIFXFileReferenceEncoder.obj
 0004:00001038       ??_R4CIFXFileReferenceEncoder@@6BIFXUnknown@@@ 10066038     Exporting:CIFXFileReferenceEncoder.obj
 0004:00001050       ??_R4CIFXFileReferenceEncoder@@6BIFXEncoderX@@@ 10066050     Exporting:CIFXFileReferenceEncoder.obj
 0004:00001068       ??_8CIFXFileReferenceEncoder@@7B0@@ 10066068     Exporting:CIFXFileReferenceEncoder.obj
 0004:00001074       ??_8CIFXFileReferenceEncoder@@7BIFXEncoderX@@@ 10066074     Exporting:CIFXFileReferenceEncoder.obj
 0004:00001080       ??_R4?$IFXArray@VIFXString@@@@6B@ 10066080     Exporting:CIFXFileReferenceEncoder.obj
 0004:00001098       ??_R0?AV?$IFXArray@VIFXString@@@@@8 10066098     Exporting:CIFXFileReferenceEncoder.obj
 0004:000010c0       ??_R3?$IFXArray@VIFXString@@@@8 100660c0     Exporting:CIFXFileReferenceEncoder.obj
 0004:000010d0       ??_R2?$IFXArray@VIFXString@@@@8 100660d0     Exporting:CIFXFileReferenceEncoder.obj
 0004:000010d8       ??_R1A@?0A@A@?$IFXArray@VIFXString@@@@8 100660d8     Exporting:CIFXFileReferenceEncoder.obj
 0004:000010f0       ??_R4?$IFXArray@UIFXObjectFilter@@@@6B@ 100660f0     Exporting:CIFXFileReferenceEncoder.obj
 0004:00001108       ??_R0?AV?$IFXArray@UIFXObjectFilter@@@@@8 10066108     Exporting:CIFXFileReferenceEncoder.obj
 0004:00001138       ??_R3?$IFXArray@UIFXObjectFilter@@@@8 10066138     Exporting:CIFXFileReferenceEncoder.obj
 0004:00001148       ??_R2?$IFXArray@UIFXObjectFilter@@@@8 10066148     Exporting:CIFXFileReferenceEncoder.obj
 0004:00001150       ??_R1A@?0A@A@?$IFXArray@UIFXObjectFilter@@@@8 10066150     Exporting:CIFXFileReferenceEncoder.obj
 0004:00001168       ??_R0?AVIFXDataBlockQueueX@@@8 10066168     Exporting:CIFXBlockPriorityQueueX.obj
 0004:00001190       ??_R1A@?0A@A@IFXDataBlockQueueX@@8 10066190     Exporting:CIFXBlockPriorityQueueX.obj
 0004:000011a8       ??_R4CIFXBlockPriorityQueueX@@6B@ 100661a8     Exporting:CIFXBlockPriorityQueueX.obj
 0004:000011c0       ??_R0?AVCIFXBlockPriorityQueueX@@@8 100661c0     Exporting:CIFXBlockPriorityQueueX.obj
 0004:000011e8       ??_R3CIFXBlockPriorityQueueX@@8 100661e8     Exporting:CIFXBlockPriorityQueueX.obj
 0004:000011f8       ??_R2CIFXBlockPriorityQueueX@@8 100661f8     Exporting:CIFXBlockPriorityQueueX.obj
 0004:00001208       ??_R1A@?0A@A@CIFXBlockPriorityQueueX@@8 10066208     Exporting:CIFXBlockPriorityQueueX.obj
 0004:00001220       ??_R0?AVIFXBlockWriterX@@@8 10066220     Exporting:CIFXBlockWriterX.obj
 0004:00001240       ??_R1A@?0A@A@IFXBlockWriterX@@8 10066240     Exporting:CIFXBlockWriterX.obj
 0004:00001258       ??_R4CIFXBlockWriterX@@6B@ 10066258     Exporting:CIFXBlockWriterX.obj
 0004:00001270       ??_R0?AVCIFXBlockWriterX@@@8 10066270     Exporting:CIFXBlockWriterX.obj
 0004:00001290       ??_R3CIFXBlockWriterX@@8   10066290     Exporting:CIFXBlockWriterX.obj
 0004:000012a0       ??_R2CIFXBlockWriterX@@8   100662a0     Exporting:CIFXBlockWriterX.obj
 0004:000012b0       ??_R1A@?0A@A@CIFXBlockWriterX@@8 100662b0     Exporting:CIFXBlockWriterX.obj
 0004:000012c8       ??_R0?AVIFXWriteManager@@@8 100662c8     Exporting:CIFXWriteManager.obj
 0004:000012e8       ??_R1A@?0A@A@IFXWriteManager@@8 100662e8     Exporting:CIFXWriteManager.obj
 0004:00001300       ??_R4CIFXWriteManager@@6B@ 10066300     Exporting:CIFXWriteManager.obj
 0004:00001318       ??_R0?AVCIFXWriteManager@@@8 10066318     Exporting:CIFXWriteManager.obj
 0004:00001338       ??_R3CIFXWriteManager@@8   10066338     Exporting:CIFXWriteManager.obj
 0004:00001348       ??_R2CIFXWriteManager@@8   10066348     Exporting:CIFXWriteManager.obj
 0004:00001358       ??_R1A@?0A@A@CIFXWriteManager@@8 10066358     Exporting:CIFXWriteManager.obj
 0004:00001370       ??_R4?$IFXArray@UIFXExtBlocktype@CIFXWriteManager@@@@6B@ 10066370     Exporting:CIFXWriteManager.obj
 0004:00001388       ??_R0?AV?$IFXArray@UIFXExtBlocktype@CIFXWriteManager@@@@@8 10066388     Exporting:CIFXWriteManager.obj
 0004:000013c8       ??_R3?$IFXArray@UIFXExtBlocktype@CIFXWriteManager@@@@8 100663c8     Exporting:CIFXWriteManager.obj
 0004:000013d8       ??_R2?$IFXArray@UIFXExtBlocktype@CIFXWriteManager@@@@8 100663d8     Exporting:CIFXWriteManager.obj
 0004:000013e0       ??_R1A@?0A@A@?$IFXArray@UIFXExtBlocktype@CIFXWriteManager@@@@8 100663e0     Exporting:CIFXWriteManager.obj
 0004:000013f8       ??_R0?AVIFXProgressCallback@@@8 100663f8     Exporting:CIFXAuthorGeomCompiler.obj
 0004:00001420       ??_R1A@?0A@A@IFXProgressCallback@@8 10066420     Exporting:CIFXAuthorGeomCompiler.obj
 0004:00001438       ??_R4CIFXAuthorGeomCompilerProgress@@6B@ 10066438     Exporting:CIFXAuthorGeomCompiler.obj
 0004:00001450       ??_R0?AVCIFXAuthorGeomCompilerProgress@@@8 10066450     Exporting:CIFXAuthorGeomCompiler.obj
 0004:00001480       ??_R3CIFXAuthorGeomCompilerProgress@@8 10066480     Exporting:CIFXAuthorGeomCompiler.obj
 0004:00001490       ??_R2CIFXAuthorGeomCompilerProgress@@8 10066490     Exporting:CIFXAuthorGeomCompiler.obj
 0004:00001498       ??_R1A@?0A@A@CIFXAuthorGeomCompilerProgress@@8 10066498     Exporting:CIFXAuthorGeomCompiler.obj
 0004:000014b0       ??_R0?AVIFXAuthorGeomCompiler@@@8 100664b0     Exporting:CIFXAuthorGeomCompiler.obj
 0004:000014d8       ??_R1A@?0A@A@IFXAuthorGeomCompiler@@8 100664d8     Exporting:CIFXAuthorGeomCompiler.obj
 0004:000014f0       ??_R4CIFXAuthorGeomCompiler@@6B@ 100664f0     Exporting:CIFXAuthorGeomCompiler.obj
 0004:00001508       ??_R0?AVCIFXAuthorGeomCompiler@@@8 10066508     Exporting:CIFXAuthorGeomCompiler.obj
 0004:00001530       ??_R3CIFXAuthorGeomCompiler@@8 10066530     Exporting:CIFXAuthorGeomCompiler.obj
 0004:00001540       ??_R2CIFXAuthorGeomCompiler@@8 10066540     Exporting:CIFXAuthorGeomCompiler.obj
 0004:00001550       ??_R1A@?0A@A@CIFXAuthorGeomCompiler@@8 10066550     Exporting:CIFXAuthorGeomCompiler.obj
 0004:00001568       ??_R4IFXWriteBuffer@@6B0@@ 10066568     Exporting:CIFXStdioWriteBufferX.obj
 0004:00001580       ??_R0?AVIFXWriteBuffer@@@8 10066580     Exporting:CIFXStdioWriteBufferX.obj
 0004:000015a0       ??_R3IFXWriteBuffer@@8     100665a0     Exporting:CIFXStdioWriteBufferX.obj
 0004:000015b0       ??_R2IFXWriteBuffer@@8     100665b0     Exporting:CIFXStdioWriteBufferX.obj
 0004:000015b8       ??_R1A@?0A@A@IFXWriteBuffer@@8 100665b8     Exporting:CIFXStdioWriteBufferX.obj
 0004:000015d0       ??_R4IFXWriteBuffer@@6BIFXUnknown@@@ 100665d0     Exporting:CIFXStdioWriteBufferX.obj
 0004:000015e8       ??_R4IFXWriteBufferX@@6B0@@ 100665e8     Exporting:CIFXStdioWriteBufferX.obj
 0004:00001600       ??_R0?AVIFXWriteBufferX@@@8 10066600     Exporting:CIFXStdioWriteBufferX.obj
 0004:00001620       ??_R3IFXWriteBufferX@@8    10066620     Exporting:CIFXStdioWriteBufferX.obj
 0004:00001630       ??_R2IFXWriteBufferX@@8    10066630     Exporting:CIFXStdioWriteBufferX.obj
 0004:00001638       ??_R1A@?0A@A@IFXWriteBufferX@@8 10066638     Exporting:CIFXStdioWriteBufferX.obj
 0004:00001650       ??_R4IFXWriteBufferX@@6BIFXUnknown@@@ 10066650     Exporting:CIFXStdioWriteBufferX.obj
 0004:00001668       ??_R4IFXStdio@@6B0@@       10066668     Exporting:CIFXStdioWriteBufferX.obj
 0004:00001680       ??_R0?AVIFXStdio@@@8       10066680     Exporting:CIFXStdioWriteBufferX.obj
 0004:00001698       ??_R3IFXStdio@@8           10066698     Exporting:CIFXStdioWriteBufferX.obj
 0004:000016a8       ??_R2IFXStdio@@8           100666a8     Exporting:CIFXStdioWriteBufferX.obj
 0004:000016b0       ??_R1A@?0A@A@IFXStdio@@8   100666b0     Exporting:CIFXStdioWriteBufferX.obj
 0004:000016c8       ??_R4IFXStdio@@6BIFXUnknown@@@ 100666c8     Exporting:CIFXStdioWriteBufferX.obj
 0004:000016e0       ??_R4CIFXStdioWriteBufferX@@6BIFXUnknown@@@ 100666e0     Exporting:CIFXStdioWriteBufferX.obj
 0004:000016f8       ??_R0?AVCIFXStdioWriteBufferX@@@8 100666f8     Exporting:CIFXStdioWriteBufferX.obj
 0004:00001720       ??_R3CIFXStdioWriteBufferX@@8 10066720     Exporting:CIFXStdioWriteBufferX.obj
 0004:00001730       ??_R2CIFXStdioWriteBufferX@@8 10066730     Exporting:CIFXStdioWriteBufferX.obj
 0004:00001750       ??_R1A@?0A@A@CIFXStdioWriteBufferX@@8 10066750     Exporting:CIFXStdioWriteBufferX.obj
 0004:00001768       ??_R17?0A@A@IFXWriteBufferX@@8 10066768     Exporting:CIFXStdioWriteBufferX.obj
 0004:00001780       ??_R1BA@?0A@A@IFXStdio@@8  10066780     Exporting:CIFXStdioWriteBufferX.obj
 0004:00001798       ??_R4CIFXStdioWriteBufferX@@6BIFXWriteBuffer@@@ 10066798     Exporting:CIFXStdioWriteBufferX.obj
 0004:000017b0       ??_R4CIFXStdioWriteBufferX@@6BIFXWriteBufferX@@@ 100667b0     Exporting:CIFXStdioWriteBufferX.obj
 0004:000017c8       ??_R4CIFXStdioWriteBufferX@@6BIFXStdio@@@ 100667c8     Exporting:CIFXStdioWriteBufferX.obj
 0004:000017e0       ??_8CIFXStdioWriteBufferX@@7BIFXWriteBuffer@@@ 100667e0     Exporting:CIFXStdioWriteBufferX.obj
 0004:000017e8       ??_8CIFXStdioWriteBufferX@@7BIFXWriteBufferX@@@ 100667e8     Exporting:CIFXStdioWriteBufferX.obj
 0004:000017f0       ??_8CIFXStdioWriteBufferX@@7BIFXStdio@@@ 100667f0     Exporting:CIFXStdioWriteBufferX.obj
 0004:000017f8       ??_R4CIFXPointSetEncoder@@6B0@@ 100667f8     Exporting:CIFXPointSetEncoder.obj
 0004:00001810       ??_R0?AVCIFXPointSetEncoder@@@8 10066810     Exporting:CIFXPointSetEncoder.obj
 0004:00001838       ??_R3CIFXPointSetEncoder@@8 10066838     Exporting:CIFXPointSetEncoder.obj
 0004:00001848       ??_R2CIFXPointSetEncoder@@8 10066848     Exporting:CIFXPointSetEncoder.obj
 0004:00001858       ??_R1A@?0A@A@CIFXPointSetEncoder@@8 10066858     Exporting:CIFXPointSetEncoder.obj
 0004:00001870       ??_R4CIFXPointSetEncoder@@6BIFXUnknown@@@ 10066870     Exporting:CIFXPointSetEncoder.obj
 0004:00001888       ??_R4CIFXPointSetEncoder@@6BIFXEncoderX@@@ 10066888     Exporting:CIFXPointSetEncoder.obj
 0004:000018a0       ??_8CIFXPointSetEncoder@@7B0@@ 100668a0     Exporting:CIFXPointSetEncoder.obj
 0004:000018ac       ??_8CIFXPointSetEncoder@@7BIFXEncoderX@@@ 100668ac     Exporting:CIFXPointSetEncoder.obj
 0004:000018b8       ??_R4?$IFXArray@I@@6B@     100668b8     Exporting:CIFXPointSetEncoder.obj
 0004:000018d0       ??_R0?AV?$IFXArray@I@@@8   100668d0     Exporting:CIFXPointSetEncoder.obj
 0004:000018f0       ??_R3?$IFXArray@I@@8       100668f0     Exporting:CIFXPointSetEncoder.obj
 0004:00001900       ??_R2?$IFXArray@I@@8       10066900     Exporting:CIFXPointSetEncoder.obj
 0004:00001908       ??_R1A@?0A@A@?$IFXArray@I@@8 10066908     Exporting:CIFXPointSetEncoder.obj
 0004:00001920       ??_R4CIFXLineSetEncoder@@6B0@@ 10066920     Exporting:CIFXLineSetEncoder.obj
 0004:00001938       ??_R0?AVCIFXLineSetEncoder@@@8 10066938     Exporting:CIFXLineSetEncoder.obj
 0004:00001960       ??_R3CIFXLineSetEncoder@@8 10066960     Exporting:CIFXLineSetEncoder.obj
 0004:00001970       ??_R2CIFXLineSetEncoder@@8 10066970     Exporting:CIFXLineSetEncoder.obj
 0004:00001980       ??_R1A@?0A@A@CIFXLineSetEncoder@@8 10066980     Exporting:CIFXLineSetEncoder.obj
 0004:00001998       ??_R4CIFXLineSetEncoder@@6BIFXUnknown@@@ 10066998     Exporting:CIFXLineSetEncoder.obj
 0004:000019b0       ??_R4CIFXLineSetEncoder@@6BIFXEncoderX@@@ 100669b0     Exporting:CIFXLineSetEncoder.obj
 0004:000019c8       ??_8CIFXLineSetEncoder@@7B0@@ 100669c8     Exporting:CIFXLineSetEncoder.obj
 0004:000019d4       ??_8CIFXLineSetEncoder@@7BIFXEncoderX@@@ 100669d4     Exporting:CIFXLineSetEncoder.obj
 0004:000019e0       ??_R4CIFXBoneWeightsModifierEncoder@@6B0@@ 100669e0     Exporting:CIFXBoneWeightsModifierEncoder.obj
 0004:000019f8       ??_R0?AVCIFXBoneWeightsModifierEncoder@@@8 100669f8     Exporting:CIFXBoneWeightsModifierEncoder.obj
 0004:00001a28       ??_R3CIFXBoneWeightsModifierEncoder@@8 10066a28     Exporting:CIFXBoneWeightsModifierEncoder.obj
 0004:00001a38       ??_R2CIFXBoneWeightsModifierEncoder@@8 10066a38     Exporting:CIFXBoneWeightsModifierEncoder.obj
 0004:00001a48       ??_R1A@?0A@A@CIFXBoneWeightsModifierEncoder@@8 10066a48     Exporting:CIFXBoneWeightsModifierEncoder.obj
 0004:00001a60       ??_R4CIFXBoneWeightsModifierEncoder@@6BIFXUnknown@@@ 10066a60     Exporting:CIFXBoneWeightsModifierEncoder.obj
 0004:00001a78       ??_R4CIFXBoneWeightsModifierEncoder@@6BIFXEncoderX@@@ 10066a78     Exporting:CIFXBoneWeightsModifierEncoder.obj
 0004:00001a90       ??_8CIFXBoneWeightsModifierEncoder@@7B0@@ 10066a90     Exporting:CIFXBoneWeightsModifierEncoder.obj
 0004:00001a9c       ??_8CIFXBoneWeightsModifierEncoder@@7BIFXEncoderX@@@ 10066a9c     Exporting:CIFXBoneWeightsModifierEncoder.obj
 0004:00001aa8       ??_R4CIFXCLODModifierEncoder@@6B0@@ 10066aa8     Exporting:CIFXCLODModifierEncoder.obj
 0004:00001ac0       ??_R0?AVCIFXCLODModifierEncoder@@@8 10066ac0     Exporting:CIFXCLODModifierEncoder.obj
 0004:00001ae8       ??_R3CIFXCLODModifierEncoder@@8 10066ae8     Exporting:CIFXCLODModifierEncoder.obj
 0004:00001af8       ??_R2CIFXCLODModifierEncoder@@8 10066af8     Exporting:CIFXCLODModifierEncoder.obj
 0004:00001b08       ??_R1A@?0A@A@CIFXCLODModifierEncoder@@8 10066b08     Exporting:CIFXCLODModifierEncoder.obj
 0004:00001b20       ??_R4CIFXCLODModifierEncoder@@6BIFXUnknown@@@ 10066b20     Exporting:CIFXCLODModifierEncoder.obj
 0004:00001b38       ??_R4CIFXCLODModifierEncoder@@6BIFXEncoderX@@@ 10066b38     Exporting:CIFXCLODModifierEncoder.obj
 0004:00001b50       ??_8CIFXCLODModifierEncoder@@7B0@@ 10066b50     Exporting:CIFXCLODModifierEncoder.obj
 0004:00001b5c       ??_8CIFXCLODModifierEncoder@@7BIFXEncoderX@@@ 10066b5c     Exporting:CIFXCLODModifierEncoder.obj
 0004:00001b68       ??_R4CIFXDummyModifierEncoder@@6B0@@ 10066b68     Exporting:CIFXDummyModifierEncoder.obj
 0004:00001b80       ??_R0?AVCIFXDummyModifierEncoder@@@8 10066b80     Exporting:CIFXDummyModifierEncoder.obj
 0004:00001ba8       ??_R3CIFXDummyModifierEncoder@@8 10066ba8     Exporting:CIFXDummyModifierEncoder.obj
 0004:00001bb8       ??_R2CIFXDummyModifierEncoder@@8 10066bb8     Exporting:CIFXDummyModifierEncoder.obj
 0004:00001bc8       ??_R1A@?0A@A@CIFXDummyModifierEncoder@@8 10066bc8     Exporting:CIFXDummyModifierEncoder.obj
 0004:00001be0       ??_R4CIFXDummyModifierEncoder@@6BIFXUnknown@@@ 10066be0     Exporting:CIFXDummyModifierEncoder.obj
 0004:00001bf8       ??_R4CIFXDummyModifierEncoder@@6BIFXEncoderX@@@ 10066bf8     Exporting:CIFXDummyModifierEncoder.obj
 0004:00001c10       ??_8CIFXDummyModifierEncoder@@7B0@@ 10066c10     Exporting:CIFXDummyModifierEncoder.obj
 0004:00001c1c       ??_8CIFXDummyModifierEncoder@@7BIFXEncoderX@@@ 10066c1c     Exporting:CIFXDummyModifierEncoder.obj
 0004:00001c28       ??_R4IFXString@@6B@        10066c28     Exporting:IFXString.obj
 0004:00001c40       ??_R0?AVIFXString@@@8      10066c40     Exporting:IFXString.obj
 0004:00001c58       ??_R3IFXString@@8          10066c58     Exporting:IFXString.obj
 0004:00001c68       ??_R2IFXString@@8          10066c68     Exporting:IFXString.obj
 0004:00001c70       ??_R1A@?0A@A@IFXString@@8  10066c70     Exporting:IFXString.obj
 0004:00001c88       ?_IFXMatrix4x4_Multiply@@3P6AXPAMPBM1@ZA 10066c88     Exporting:IFXMatrix4x4.obj
 0004:00001c8c       ?_IFXMatrix4x4_MakeIdentity@@3P6AXPAM@ZA 10066c8c     Exporting:IFXMatrix4x4.obj
 0004:00001c90       ?_IFXMatrix4x4_Scale@@3P6AXPAMPBM@ZA 10066c90     Exporting:IFXMatrix4x4.obj
 0004:00001c94       ?_IFXMatrix4x4_Transpose@@3P6AXPAM@ZA 10066c94     Exporting:IFXMatrix4x4.obj
 0004:00001c98       ?_IFXMatrix4x4_CalcDeterminant3x3@@3P6AMPBM@ZA 10066c98     Exporting:IFXMatrix4x4.obj
 0004:00001c9c       ?_IFXMatrix4x4_CalcDeterminant@@3P6AMPBM@ZA 10066c9c     Exporting:IFXMatrix4x4.obj
 0004:00001ca0       ?_IFXMatrix4x4_Invert3x4@@3P6AHPAMPBM@ZA 10066ca0     Exporting:IFXMatrix4x4.obj
 0004:00001ca4       ?_IFXMatrix4x4_Invert@@3P6AHPAMPBM@ZA 10066ca4     Exporting:IFXMatrix4x4.obj
 0004:00001ca8       ?_IFXMatrix4x4_Multiply3x4@@3P6AXPAMPBM1@ZA 10066ca8     Exporting:IFXMatrix4x4.obj
 0004:00001cb0       ??_R4CIFXNodeBaseEncoder@@6B@ 10066cb0     Exporting:CIFXNodeBaseEncoder.obj
 0004:00001cc8       ??_R3CIFXNodeBaseEncoder@@8 10066cc8     Exporting:CIFXNodeBaseEncoder.obj
 0004:00001cd8       ??_R2CIFXNodeBaseEncoder@@8 10066cd8     Exporting:CIFXNodeBaseEncoder.obj
 0004:00001ce0       __LIB_VERSIONIMF           10066ce0     libmmt:libm_error.omu
 0004:00001ce4       _pmatherrf                 10066ce4     libmmt:libm_error.omu
 0004:00001ce8       _pmatherr                  10066ce8     libmmt:libm_error.omu
 0004:00001cec       _pmatherrl                 10066cec     libmmt:libm_error.omu
 0004:00001cf0       __aexit_rtn                10066cf0     LIBCMT:dllcrt0.obj
 0004:00001cf4       __fltused                  10066cf4     LIBCMT:fpinit.obj
 0004:00001cf8       __ldused                   10066cf8     LIBCMT:fpinit.obj
 0004:00001cfc       __FPinit                   10066cfc     LIBCMT:fpinit.obj
 0004:00001d00       __FPmtinit                 10066d00     LIBCMT:fpinit.obj
 0004:00001d04       __FPmtterm                 10066d04     LIBCMT:fpinit.obj
 0004:00001d08       __NLG_Destination          10066d08     LIBCMT:exsup.obj
 0004:00001d18       ?__pMyUnhandledExceptionFilter@@3PAXA 10066d18     LIBCMT:throw.obj
 0004:00001d1c       ??_R0?AVtype_info@@@8      10066d1c     LIBCMT:typinfo.obj
 0004:00001d38       __iob                      10066d38     LIBCMT:_file.obj
 0004:00002120       ___tlsindex                10067120     LIBCMT:tidtable.obj
 0004:00002124       ___badioinfo               10067124     LIBCMT:ioinit.obj
 0004:00002148       __amblksiz                 10067148     LIBCMT:heapinit.obj
 0004:00002150       __XcptActTab               10067150     LIBCMT:winxfltr.obj
 0004:000021c8       __First_FPE_Indx           100671c8     LIBCMT:winxfltr.obj
 0004:000021cc       __Num_FPE                  100671cc     LIBCMT:winxfltr.obj
 0004:000021d0       __XcptActTabSize           100671d0     LIBCMT:winxfltr.obj
 0004:000021d4       __XcptActTabCount          100671d4     LIBCMT:winxfltr.obj
 0004:00002270       __cfltcvt_tab              10067270     LIBCMT:cmiscdat.obj
 0004:0000228c       ___security_cookie         1006728c     LIBCMT:seccook.obj
 0004:00002290       ?__pInconsistency@@3P6AXXZA 10067290     LIBCMT:hooks.obj
 0004:000023c8       ___initiallocinfo          100673c8     LIBCMT:setlocal.obj
 0004:0000241c       ___ptlocinfo               1006741c     LIBCMT:setlocal.obj
 0004:00002558       ___lc_category             10067558     LIBCMT:setlocal.obj
 0004:000025a0       __pctype                   100675a0     LIBCMT:ctype.obj
 0004:000025a4       __pwctype                  100675a4     LIBCMT:ctype.obj
 0004:000026b0       ___mb_cur_max              100676b0     LIBCMT:nlsdata1.obj
 0004:000026b4       ___decimal_point           100676b4     LIBCMT:nlsdata1.obj
 0004:000026b8       ___decimal_point_length    100676b8     LIBCMT:nlsdata1.obj
 0004:000026f0       ___lc_clike                100676f0     LIBCMT:nlsdata2.obj
 0004:000026f4       ___lc_time_curr            100676f4     LIBCMT:strftime.obj
 0004:000026f8       ___lc_time_c               100676f8     LIBCMT:strftime.obj
 0004:000027b0       ___lconv_static_decimal    100677b0     LIBCMT:lconv.obj
 0004:000027b4       ___lconv_c                 100677b4     LIBCMT:lconv.obj
 0004:000027e4       ___lconv                   100677e4     LIBCMT:lconv.obj
 0004:000027f0       ___nullstring              100677f0     LIBCMT:output.obj
 0004:000027f4       ___wnullstring             100677f4     LIBCMT:output.obj
 0004:00002800       __timezone                 10067800     LIBCMT:timeset.obj
 0004:00002804       __daylight                 10067804     LIBCMT:timeset.obj
 0004:00002808       __dstbias                  10067808     LIBCMT:timeset.obj
 0004:00002890       __tzname                   10067890     LIBCMT:timeset.obj
 0004:000028b0       __lpdays                   100678b0     LIBCMT:days.obj
 0004:000028e4       __days                     100678e4     LIBCMT:days.obj
 0004:00002920       __pow10pos                 10067920     LIBCMT:constpow.obj
 0004:00002a80       __pow10neg                 10067a80     LIBCMT:constpow.obj
 0004:00002be0       _cache_values              10067be0     libirc:fast_mem_ops.obj
 0004:00003234       __memcpy_mem_ops_method    10068234     libirc:fast_mem_ops.obj
 0004:00003260       ?g_countActiveObjects@@3IA 10068260     Exporting:IFXCorePluginStatic.obj
 0004:00003344       __aenvptr                  10068344     LIBCMT:dllcrt0.obj
 0004:00003348       __wenvptr                  10068348     LIBCMT:dllcrt0.obj
 0004:0000334c       ___error_mode              1006834c     LIBCMT:dllcrt0.obj
 0004:00003350       ___app_type                10068350     LIBCMT:dllcrt0.obj
 0004:00003354       ___fastflag                10068354     LIBCMT:fpinit.obj
 0004:00003358       __adjust_fdiv              10068358     LIBCMT:fpinit.obj
 0004:0000335c       ___pPurecall               1006835c     LIBCMT:purevirt.obj
 0004:00003360       __cflush                   10068360     LIBCMT:_file.obj
 0004:00003364       __umaskval                 10068364     LIBCMT:crt0dat.obj
 0004:00003368       __osplatform               10068368     LIBCMT:crt0dat.obj
 0004:0000336c       __osver                    1006836c     LIBCMT:crt0dat.obj
 0004:00003370       __winver                   10068370     LIBCMT:crt0dat.obj
 0004:00003374       __winmajor                 10068374     LIBCMT:crt0dat.obj
 0004:00003378       __winminor                 10068378     LIBCMT:crt0dat.obj
 0004:0000337c       ___argc                    1006837c     LIBCMT:crt0dat.obj
 0004:00003380       ___argv                    10068380     LIBCMT:crt0dat.obj
 0004:00003384       ___wargv                   10068384     LIBCMT:crt0dat.obj
 0004:00003388       __environ                  10068388     LIBCMT:crt0dat.obj
 0004:0000338c       ___initenv                 1006838c     LIBCMT:crt0dat.obj
 0004:00003390       __wenviron                 10068390     LIBCMT:crt0dat.obj
 0004:00003394       ___winitenv                10068394     LIBCMT:crt0dat.obj
 0004:00003398       __pgmptr                   10068398     LIBCMT:crt0dat.obj
 0004:0000339c       __wpgmptr                  1006839c     LIBCMT:crt0dat.obj
 0004:000033a0       __exitflag                 100683a0     LIBCMT:crt0dat.obj
 0004:000033a4       __C_Termination_Done       100683a4     LIBCMT:crt0dat.obj
 0004:000033a8       __C_Exit_Done              100683a8     LIBCMT:crt0dat.obj
 0004:000033ac       _gpFlsAlloc                100683ac     LIBCMT:tidtable.obj
 0004:000033b0       _gpFlsGetValue             100683b0     LIBCMT:tidtable.obj
 0004:000033b4       _gpFlsSetValue             100683b4     LIBCMT:tidtable.obj
 0004:000033b8       _gpFlsFree                 100683b8     LIBCMT:tidtable.obj
 0004:000034cc       __adbgmsg                  100684cc     LIBCMT:crt0msg.obj
 0004:0000363c       __stdbuf                   1006863c     LIBCMT:_sftbuf.obj
 0004:00003648       ?_pnhHeap@@3P6AHI@ZA       10068648     LIBCMT:handler.obj
 0004:0000364c       __newmode                  1006864c     LIBCMT:_newmode.obj
 0004:000036b8       ___lc_handle               100686b8     LIBCMT:nlsdata2.obj
 0004:000036d0       ___lc_codepage             100686d0     LIBCMT:nlsdata2.obj
 0004:000036d4       ___lc_collate_cp           100686d4     LIBCMT:nlsdata2.obj
 0004:000036dc       ___lconv_static_null       100686dc     LIBCMT:lconv.obj
 0004:000036e0       ___lc_time_intl            100686e0     LIBCMT:inittime.obj
 0004:000036e4       ___lconv_intl              100686e4     LIBCMT:initmon.obj
 0004:00003710       ___lc_id                   10068710     LIBCMT:nlsdata3.obj
 0004:0000381c       ___intel_cpu_indicator     1006881c     libirc:cpu_disp.obj
 0004:00003820       __memcpy_largest_cache_size 10068820     libirc:fast_mem_ops.obj
 0004:00003824       __memcpy_largest_cachelinesize 10068824     libirc:fast_mem_ops.obj
 0004:00004040       ?g_QPCFrequency@@3T_LARGE_INTEGER@@A 10069040     Platform:IFXOSUtilities.obj
 0004:00004048       ?g_bUseQPC@@3HA            10069048     Platform:IFXOSUtilities.obj
 0004:0000404c       ?g_eax@@3IA                1006904c     Platform:IFXOSUtilities.obj
 0004:00004050       ?g_ebx@@3IA                10069050     Platform:IFXOSUtilities.obj
 0004:00004054       ?g_ecx@@3IA                10069054     Platform:IFXOSUtilities.obj
 0004:00004058       ?g_edx@@3IA                10069058     Platform:IFXOSUtilities.obj
 0004:00004060       __commode                  10069060     LIBCMT:ncommode.obj
 0004:00004064       __fmode                    10069064     LIBCMT:txtmode.obj
 0004:00004068       ___ctype1                  10069068     <common>
 0004:0000406c       ___ctype1_refcount         1006906c     <common>
 0004:00004070       ___lconv_mon_refcount      10069070     <common>
 0004:00004074       ___lconv_intl_refcount     10069074     <common>
 0004:00004078       ___lconv_num_refcount      10069078     <common>
 0004:0000407c       ___sbh_pHeaderDefer        1006907c     <common>
 0004:00004080       ___sbh_cntHeaderList       10069080     <common>
 0004:00004084       ___sbh_pHeaderList         10069084     <common>
 0004:00004088       ___sbh_threshold           10069088     <common>
 0004:0000408c       ___sbh_pHeaderScan         1006908c     <common>
 0004:00004090       ___sbh_sizeHeaderList      10069090     <common>
 0004:00004094       ___sbh_indGroupDefer       10069094     <common>
 0004:00004098       ___mblcid                  10069098     <common>
 0004:0000409c       ___ptmbcinfo               1006909c     <common>
 0004:000040a0       ___ismbcodepage            100690a0     <common>
 0004:000040c0       __mbctype                  100690c0     <common>
 0004:000041c4       ___mbcodepage              100691c4     <common>
 0004:000041d0       ___mbulinfo                100691d0     <common>
 0004:000041e0       __mbcasemap                100691e0     <common>
 0004:000042e0       __crtheap                  100692e0     <common>
 0004:000042e4       ___active_heap             100692e4     <common>
 0004:000042e8       __nhandle                  100692e8     <common>
 0004:00004300       ___pioinfo                 10069300     <common>
 0004:00004400       ___env_initialized         10069400     <common>
 0004:00004404       ___onexitend               10069404     <common>
 0004:00004408       ___onexitbegin             10069408     <common>
 0004:0000440c       ___mbctype_initialized     1006940c     <common>
 0004:00004410       ___piob                    10069410     <common>
 0004:00004420       __bufin                    10069420     <common>
 0004:00005420       __nstream                  1006a420     <common>
 0004:00005424       __acmdln                   1006a424     <common>
 0004:00005428       __pRawDllMain              1006a428     <common>
 0005:00000000       ??_C@_1BE@A@?$DM?$AAu?$AAn?$AAn?$AAa?$AAm?$AAe?$AAd?$AA?$DO?$AA?$AA?$AA@ 1006b000     Exporting:CIFXAuthorCLODEncoderX.obj
 0005:00000014       ??_C@_11A@?$AA?$AA@        1006b014     Exporting:CIFXAuthorCLODEncoderX.obj
 0005:00000018       ??_C@_15A@w?$AAb?$AA?$AA?$AA@ 1006b018     Exporting:CIFXStdioWriteBufferX.obj
 0005:00000020       ??_C@_05A@sqrtl?$AA@       1006b020     libmmt:libm_error.omu
 0005:00000028       ??_C@_0BG@A@?$ANsqrtl?3?5DOMAIN?5error?6?$AA@ 1006b028     libmmt:libm_error.omu
 0005:00000040       ??_C@_04A@sqrt?$AA@        1006b040     libmmt:libm_error.omu
 0005:00000048       ??_C@_0BF@A@?$ANsqrt?3?5DOMAIN?5error?6?$AA@ 1006b048     libmmt:libm_error.omu
 0005:00000060       ??_C@_05A@sqrtf?$AA@       1006b060     libmmt:libm_error.omu
 0005:00000068       ??_C@_0BG@A@?$ANsqrtf?3?5DOMAIN?5error?6?$AA@ 1006b068     libmmt:libm_error.omu
 0005:00000080       ??_C@_04A@logl?$AA@        1006b080     libmmt:libm_error.omu
 0005:00000088       ??_C@_0BD@A@?$ANlogl?3?5SING?5error?6?$AA@ 1006b088     libmmt:libm_error.omu
 0005:0000009c       ??_C@_03A@log?$AA@         1006b09c     libmmt:libm_error.omu
 0005:000000a0       ??_C@_0BC@A@?$ANlog?3?5SING?5error?6?$AA@ 1006b0a0     libmmt:libm_error.omu
 0005:000000b4       ??_C@_04A@logf?$AA@        1006b0b4     libmmt:libm_error.omu
 0005:000000bc       ??_C@_0BD@A@?$ANlogf?3?5SING?5error?6?$AA@ 1006b0bc     libmmt:libm_error.omu
 0005:000000d0       ??_C@_0BF@A@?$ANlogl?3?5DOMAIN?5error?6?$AA@ 1006b0d0     libmmt:libm_error.omu
 0005:000000e8       ??_C@_0BE@A@?$ANlog?3?5DOMAIN?5error?6?$AA@ 1006b0e8     libmmt:libm_error.omu
 0005:000000fc       ??_C@_0BF@A@?$ANlogf?3?5DOMAIN?5error?6?$AA@ 1006b0fc     libmmt:libm_error.omu
 0005:00000114       ??_C@_06A@log1pl?$AA@      1006b114     libmmt:libm_error.omu
 0005:0000011c       ??_C@_0BF@A@?$ANlog1pl?3?5SING?5error?6?$AA@ 1006b11c     libmmt:libm_error.omu
 0005:00000134       ??_C@_05A@log1p?$AA@       1006b134     libmmt:libm_error.omu
 0005:0000013c       ??_C@_0BE@A@?$ANlog1p?3?5SING?5error?6?$AA@ 1006b13c     libmmt:libm_error.omu
 0005:00000150       ??_C@_06A@log1pf?$AA@      1006b150     libmmt:libm_error.omu
 0005:00000158       ??_C@_0BF@A@?$ANlog1pf?3?5SING?5error?6?$AA@ 1006b158     libmmt:libm_error.omu
 0005:00000170       ??_C@_0BH@A@?$ANlog1pl?3?5DOMAIN?5error?6?$AA@ 1006b170     libmmt:libm_error.omu
 0005:00000188       ??_C@_0BG@A@?$ANlog1p?3?5DOMAIN?5error?6?$AA@ 1006b188     libmmt:libm_error.omu
 0005:000001a0       ??_C@_0BH@A@?$ANlog1pf?3?5DOMAIN?5error?6?$AA@ 1006b1a0     libmmt:libm_error.omu
 0005:000001b8       ??_C@_06A@log10l?$AA@      1006b1b8     libmmt:libm_error.omu
 0005:000001c0       ??_C@_0BF@A@?$ANlog10l?3?5SING?5error?6?$AA@ 1006b1c0     libmmt:libm_error.omu
 0005:000001d8       ??_C@_05A@log10?$AA@       1006b1d8     libmmt:libm_error.omu
 0005:000001e0       ??_C@_0BE@A@?$ANlog10?3?5SING?5error?6?$AA@ 1006b1e0     libmmt:libm_error.omu
 0005:000001f4       ??_C@_06A@log10f?$AA@      1006b1f4     libmmt:libm_error.omu
 0005:000001fc       ??_C@_0BF@A@?$ANlog10f?3?5SING?5error?6?$AA@ 1006b1fc     libmmt:libm_error.omu
 0005:00000214       ??_C@_0BH@A@?$ANlog10l?3?5DOMAIN?5error?6?$AA@ 1006b214     libmmt:libm_error.omu
 0005:0000022c       ??_C@_0BG@A@?$ANlog10?3?5DOMAIN?5error?6?$AA@ 1006b22c     libmmt:libm_error.omu
 0005:00000244       ??_C@_0BH@A@?$ANlog10f?3?5DOMAIN?5error?6?$AA@ 1006b244     libmmt:libm_error.omu
 0005:0000025c       ??_C@_05A@log2l?$AA@       1006b25c     libmmt:libm_error.omu
 0005:00000264       ??_C@_0BE@A@?$ANlog2l?3?5SING?5error?6?$AA@ 1006b264     libmmt:libm_error.omu
 0005:00000278       ??_C@_04A@log2?$AA@        1006b278     libmmt:libm_error.omu
 0005:00000280       ??_C@_0BD@A@?$ANlog2?3?5SING?5error?6?$AA@ 1006b280     libmmt:libm_error.omu
 0005:00000294       ??_C@_05A@log2f?$AA@       1006b294     libmmt:libm_error.omu
 0005:0000029c       ??_C@_0BE@A@?$ANlog2f?3?5SING?5error?6?$AA@ 1006b29c     libmmt:libm_error.omu
 0005:000002b0       ??_C@_0BG@A@?$ANlog2l?3?5DOMAIN?5error?6?$AA@ 1006b2b0     libmmt:libm_error.omu
 0005:000002c8       ??_C@_0BF@A@?$ANlog2?3?5DOMAIN?5error?6?$AA@ 1006b2c8     libmmt:libm_error.omu
 0005:000002e0       ??_C@_0BG@A@?$ANlog2f?3?5DOMAIN?5error?6?$AA@ 1006b2e0     libmmt:libm_error.omu
 0005:000002f8       ??_C@_04A@expl?$AA@        1006b2f8     libmmt:libm_error.omu
 0005:00000300       ??_C@_03A@exp?$AA@         1006b300     libmmt:libm_error.omu
 0005:00000304       ??_C@_04A@expf?$AA@        1006b304     libmmt:libm_error.omu
 0005:0000030c       ??_C@_04A@powl?$AA@        1006b30c     libmmt:libm_error.omu
 0005:00000314       ??_C@_0BK@A@?$ANpowl?$CI0?00?$CJ?3?5DOMAIN?5error?6?$AA@ 1006b314     libmmt:libm_error.omu
 0005:00000330       ??_C@_03A@pow?$AA@         1006b330     libmmt:libm_error.omu
 0005:00000334       ??_C@_0BJ@A@?$ANpow?$CI0?00?$CJ?3?5DOMAIN?5error?6?$AA@ 1006b334     libmmt:libm_error.omu
 0005:00000350       ??_C@_04A@powf?$AA@        1006b350     libmmt:libm_error.omu
 0005:00000358       ??_C@_0BK@A@?$ANpowf?$CI0?00?$CJ?3?5DOMAIN?5error?6?$AA@ 1006b358     libmmt:libm_error.omu
 0005:00000374       ??_C@_0CB@A@?$ANpowl?$CI0?0negative?$CJ?3?5DOMAIN?5error?6?$AA@ 1006b374     libmmt:libm_error.omu
 0005:00000398       ??_C@_0CA@A@?$ANpow?$CI0?0negative?$CJ?3?5DOMAIN?5error?6?$AA@ 1006b398     libmmt:libm_error.omu
 0005:000003b8       ??_C@_0CB@A@?$ANpowf?$CI0?0negative?$CJ?3?5DOMAIN?5error?6?$AA@ 1006b3b8     libmmt:libm_error.omu
 0005:000003dc       ??_C@_0CL@A@?$ANpowl?$CInegative?0non?9integer?$CJ?3?5DOMAIN?5error?6?$AA@ 1006b3dc     libmmt:libm_error.omu
 0005:00000408       ??_C@_0CK@A@?$ANpow?$CInegative?0non?9integer?$CJ?3?5DOMAIN?5error?6?$AA@ 1006b408     libmmt:libm_error.omu
 0005:00000434       ??_C@_0CL@A@?$ANpowf?$CInegative?0non?9integer?$CJ?3?5DOMAIN?5error?6?$AA@ 1006b434     libmmt:libm_error.omu
 0005:00000460       ??_C@_06A@atan2l?$AA@      1006b460     libmmt:libm_error.omu
 0005:00000468       ??_C@_0BH@A@?$ANatan2l?3?5DOMAIN?5error?6?$AA@ 1006b468     libmmt:libm_error.omu
 0005:00000480       ??_C@_05A@atan2?$AA@       1006b480     libmmt:libm_error.omu
 0005:00000488       ??_C@_0BG@A@?$ANatan2?3?5DOMAIN?5error?6?$AA@ 1006b488     libmmt:libm_error.omu
 0005:000004a0       ??_C@_06A@atan2f?$AA@      1006b4a0     libmmt:libm_error.omu
 0005:000004a8       ??_C@_0BH@A@?$ANatan2f?3?5DOMAIN?5error?6?$AA@ 1006b4a8     libmmt:libm_error.omu
 0005:000004c0       ??_C@_07A@atan2dl?$AA@     1006b4c0     libmmt:libm_error.omu
 0005:000004c8       ??_C@_0BI@A@?$ANatan2dl?3?5DOMAIN?5error?6?$AA@ 1006b4c8     libmmt:libm_error.omu
 0005:000004e0       ??_C@_06A@atan2d?$AA@      1006b4e0     libmmt:libm_error.omu
 0005:000004e8       ??_C@_0BH@A@?$ANatan2d?3?5DOMAIN?5error?6?$AA@ 1006b4e8     libmmt:libm_error.omu
 0005:00000500       ??_C@_07A@atan2df?$AA@     1006b500     libmmt:libm_error.omu
 0005:00000508       ??_C@_0BI@A@?$ANatan2df?3?5DOMAIN?5error?6?$AA@ 1006b508     libmmt:libm_error.omu
 0005:00000520       ??_C@_06A@scalbl?$AA@      1006b520     libmmt:libm_error.omu
 0005:00000528       ??_C@_05A@scalb?$AA@       1006b528     libmmt:libm_error.omu
 0005:00000530       ??_C@_06A@scalbf?$AA@      1006b530     libmmt:libm_error.omu
 0005:00000538       ??_C@_06A@hypotl?$AA@      1006b538     libmmt:libm_error.omu
 0005:00000540       ??_C@_05A@hypot?$AA@       1006b540     libmmt:libm_error.omu
 0005:00000548       ??_C@_06A@hypotf?$AA@      1006b548     libmmt:libm_error.omu
 0005:00000550       ??_C@_05A@acosl?$AA@       1006b550     libmmt:libm_error.omu
 0005:00000558       ??_C@_0BG@A@?$ANacosl?3?5DOMAIN?5error?6?$AA@ 1006b558     libmmt:libm_error.omu
 0005:00000570       ??_C@_04A@acos?$AA@        1006b570     libmmt:libm_error.omu
 0005:00000578       ??_C@_0BF@A@?$ANacos?3?5DOMAIN?5error?6?$AA@ 1006b578     libmmt:libm_error.omu
 0005:00000590       ??_C@_05A@acosf?$AA@       1006b590     libmmt:libm_error.omu
 0005:00000598       ??_C@_0BG@A@?$ANacosf?3?5DOMAIN?5error?6?$AA@ 1006b598     libmmt:libm_error.omu
 0005:000005b0       ??_C@_05A@asinl?$AA@       1006b5b0     libmmt:libm_error.omu
 0005:000005b8       ??_C@_0BG@A@?$ANasinl?3?5DOMAIN?5error?6?$AA@ 1006b5b8     libmmt:libm_error.omu
 0005:000005d0       ??_C@_04A@asin?$AA@        1006b5d0     libmmt:libm_error.omu
 0005:000005d8       ??_C@_0BF@A@?$ANasin?3?5DOMAIN?5error?6?$AA@ 1006b5d8     libmmt:libm_error.omu
 0005:000005f0       ??_C@_05A@asinf?$AA@       1006b5f0     libmmt:libm_error.omu
 0005:000005f8       ??_C@_0BG@A@?$ANasinf?3?5DOMAIN?5error?6?$AA@ 1006b5f8     libmmt:libm_error.omu
 0005:00000610       ??_C@_06A@acosdl?$AA@      1006b610     libmmt:libm_error.omu
 0005:00000618       ??_C@_0BH@A@?$ANacosdl?3?5DOMAIN?5error?6?$AA@ 1006b618     libmmt:libm_error.omu
 0005:00000630       ??_C@_05A@acosd?$AA@       1006b630     libmmt:libm_error.omu
 0005:00000638       ??_C@_0BG@A@?$ANacosd?3?5DOMAIN?5error?6?$AA@ 1006b638     libmmt:libm_error.omu
 0005:00000650       ??_C@_06A@acosdf?$AA@      1006b650     libmmt:libm_error.omu
 0005:00000658       ??_C@_0BH@A@?$ANacosdf?3?5DOMAIN?5error?6?$AA@ 1006b658     libmmt:libm_error.omu
 0005:00000670       ??_C@_06A@asindl?$AA@      1006b670     libmmt:libm_error.omu
 0005:00000678       ??_C@_0BH@A@?$ANasindl?3?5DOMAIN?5error?6?$AA@ 1006b678     libmmt:libm_error.omu
 0005:00000690       ??_C@_05A@asind?$AA@       1006b690     libmmt:libm_error.omu
 0005:00000698       ??_C@_0BG@A@?$ANasind?3?5DOMAIN?5error?6?$AA@ 1006b698     libmmt:libm_error.omu
 0005:000006b0       ??_C@_06A@asindf?$AA@      1006b6b0     libmmt:libm_error.omu
 0005:000006b8       ??_C@_0BH@A@?$ANasindf?3?5DOMAIN?5error?6?$AA@ 1006b6b8     libmmt:libm_error.omu
 0005:000006d0       ??_C@_05A@coshl?$AA@       1006b6d0     libmmt:libm_error.omu
 0005:000006d8       ??_C@_04A@cosh?$AA@        1006b6d8     libmmt:libm_error.omu
 0005:000006e0       ??_C@_05A@coshf?$AA@       1006b6e0     libmmt:libm_error.omu
 0005:000006e8       ??_C@_05A@sinhl?$AA@       1006b6e8     libmmt:libm_error.omu
 0005:000006f0       ??_C@_04A@sinh?$AA@        1006b6f0     libmmt:libm_error.omu
 0005:000006f8       ??_C@_05A@sinhf?$AA@       1006b6f8     libmmt:libm_error.omu
 0005:00000700       ??_C@_06A@acoshl?$AA@      1006b700     libmmt:libm_error.omu
 0005:00000708       ??_C@_0BH@A@?$ANacoshl?3?5DOMAIN?5error?6?$AA@ 1006b708     libmmt:libm_error.omu
 0005:00000720       ??_C@_05A@acosh?$AA@       1006b720     libmmt:libm_error.omu
 0005:00000728       ??_C@_0BG@A@?$ANacosh?3?5DOMAIN?5error?6?$AA@ 1006b728     libmmt:libm_error.omu
 0005:00000740       ??_C@_06A@acoshf?$AA@      1006b740     libmmt:libm_error.omu
 0005:00000748       ??_C@_0BH@A@?$ANacoshf?3?5DOMAIN?5error?6?$AA@ 1006b748     libmmt:libm_error.omu
 0005:00000760       ??_C@_06A@atanhl?$AA@      1006b760     libmmt:libm_error.omu
 0005:00000768       ??_C@_0BH@A@?$ANatanhl?3?5DOMAIN?5error?6?$AA@ 1006b768     libmmt:libm_error.omu
 0005:00000780       ??_C@_05A@atanh?$AA@       1006b780     libmmt:libm_error.omu
 0005:00000788       ??_C@_0BG@A@?$ANatanh?3?5DOMAIN?5error?6?$AA@ 1006b788     libmmt:libm_error.omu
 0005:000007a0       ??_C@_06A@atanhf?$AA@      1006b7a0     libmmt:libm_error.omu
 0005:000007a8       ??_C@_0BH@A@?$ANatanhf?3?5DOMAIN?5error?6?$AA@ 1006b7a8     libmmt:libm_error.omu
 0005:000007c0       ??_C@_0BF@A@?$ANatanhl?3?5SING?5error?6?$AA@ 1006b7c0     libmmt:libm_error.omu
 0005:000007d8       ??_C@_0BE@A@?$ANatanh?3?5SING?5error?6?$AA@ 1006b7d8     libmmt:libm_error.omu
 0005:000007ec       ??_C@_0BF@A@?$ANatanhf?3?5SING?5error?6?$AA@ 1006b7ec     libmmt:libm_error.omu
 0005:00000804       ??_C@_06A@gammal?$AA@      1006b804     libmmt:libm_error.omu
 0005:0000080c       ??_C@_05A@gamma?$AA@       1006b80c     libmmt:libm_error.omu
 0005:00000814       ??_C@_06A@gammaf?$AA@      1006b814     libmmt:libm_error.omu
 0005:0000081c       ??_C@_0BF@A@?$ANgammal?3?5SING?5error?6?$AA@ 1006b81c     libmmt:libm_error.omu
 0005:00000834       ??_C@_0BE@A@?$ANgamma?3?5SING?5error?6?$AA@ 1006b834     libmmt:libm_error.omu
 0005:00000848       ??_C@_0BF@A@?$ANgammaf?3?5SING?5error?6?$AA@ 1006b848     libmmt:libm_error.omu
 0005:00000860       ??_C@_07A@lgammal?$AA@     1006b860     libmmt:libm_error.omu
 0005:00000868       ??_C@_06A@lgamma?$AA@      1006b868     libmmt:libm_error.omu
 0005:00000870       ??_C@_07A@lgammaf?$AA@     1006b870     libmmt:libm_error.omu
 0005:00000878       ??_C@_0BG@A@?$ANlgammal?3?5SING?5error?6?$AA@ 1006b878     libmmt:libm_error.omu
 0005:00000890       ??_C@_0BF@A@?$ANlgamma?3?5SING?5error?6?$AA@ 1006b890     libmmt:libm_error.omu
 0005:000008a8       ??_C@_0BG@A@?$ANlgammaf?3?5SING?5error?6?$AA@ 1006b8a8     libmmt:libm_error.omu
 0005:000008c0       ??_C@_07A@tgammal?$AA@     1006b8c0     libmmt:libm_error.omu
 0005:000008c8       ??_C@_06A@tgamma?$AA@      1006b8c8     libmmt:libm_error.omu
 0005:000008d0       ??_C@_07A@tgammaf?$AA@     1006b8d0     libmmt:libm_error.omu
 0005:000008d8       ??_C@_0BI@A@?$ANtgammal?3?5DOMAIN?5error?6?$AA@ 1006b8d8     libmmt:libm_error.omu
 0005:000008f0       ??_C@_0BH@A@?$ANtgamma?3?5DOMAIN?5error?6?$AA@ 1006b8f0     libmmt:libm_error.omu
 0005:00000908       ??_C@_0BI@A@?$ANtgammaf?3?5DOMAIN?5error?6?$AA@ 1006b908     libmmt:libm_error.omu
 0005:00000920       ??_C@_03A@j0l?$AA@         1006b920     libmmt:libm_error.omu
 0005:00000924       ??_C@_0BD@A@?$ANj0l?3?5TLOSS?5error?6?$AA@ 1006b924     libmmt:libm_error.omu
 0005:00000938       ??_C@_02A@j0?$AA@          1006b938     libmmt:libm_error.omu
 0005:0000093c       ??_C@_0BC@A@?$ANj0?3?5TLOSS?5error?6?$AA@ 1006b93c     libmmt:libm_error.omu
 0005:00000950       ??_C@_03A@j0f?$AA@         1006b950     libmmt:libm_error.omu
 0005:00000954       ??_C@_0BD@A@?$ANj0f?3?5TLOSS?5error?6?$AA@ 1006b954     libmmt:libm_error.omu
 0005:00000968       ??_C@_03A@j1l?$AA@         1006b968     libmmt:libm_error.omu
 0005:0000096c       ??_C@_0BD@A@?$ANj1l?3?5TLOSS?5error?6?$AA@ 1006b96c     libmmt:libm_error.omu
 0005:00000980       ??_C@_02A@j1?$AA@          1006b980     libmmt:libm_error.omu
 0005:00000984       ??_C@_0BC@A@?$ANj1?3?5TLOSS?5error?6?$AA@ 1006b984     libmmt:libm_error.omu
 0005:00000998       ??_C@_03A@j1f?$AA@         1006b998     libmmt:libm_error.omu
 0005:0000099c       ??_C@_0BD@A@?$ANj1f?3?5TLOSS?5error?6?$AA@ 1006b99c     libmmt:libm_error.omu
 0005:000009b0       ??_C@_03A@jnl?$AA@         1006b9b0     libmmt:libm_error.omu
 0005:000009b4       ??_C@_0BD@A@?$ANjnl?3?5TLOSS?5error?6?$AA@ 1006b9b4     libmmt:libm_error.omu
 0005:000009c8       ??_C@_02A@jn?$AA@          1006b9c8     libmmt:libm_error.omu
 0005:000009cc       ??_C@_0BC@A@?$ANjn?3?5TLOSS?5error?6?$AA@ 1006b9cc     libmmt:libm_error.omu
 0005:000009e0       ??_C@_03A@jnf?$AA@         1006b9e0     libmmt:libm_error.omu
 0005:000009e4       ??_C@_0BD@A@?$ANjnf?3?5TLOSS?5error?6?$AA@ 1006b9e4     libmmt:libm_error.omu
 0005:000009f8       ??_C@_03A@y0l?$AA@         1006b9f8     libmmt:libm_error.omu
 0005:000009fc       ??_C@_0BD@A@?$ANy0l?3?5TLOSS?5error?6?$AA@ 1006b9fc     libmmt:libm_error.omu
 0005:00000a10       ??_C@_02A@y0?$AA@          1006ba10     libmmt:libm_error.omu
 0005:00000a14       ??_C@_0BC@A@?$ANy0?3?5TLOSS?5error?6?$AA@ 1006ba14     libmmt:libm_error.omu
 0005:00000a28       ??_C@_03A@y0f?$AA@         1006ba28     libmmt:libm_error.omu
 0005:00000a2c       ??_C@_0BD@A@?$ANy0f?3?5TLOSS?5error?6?$AA@ 1006ba2c     libmmt:libm_error.omu
 0005:00000a40       ??_C@_0BE@A@?$ANy0l?3?5DOMAIN?5error?6?$AA@ 1006ba40     libmmt:libm_error.omu
 0005:00000a54       ??_C@_0BD@A@?$ANy0?3?5DOMAIN?5error?6?$AA@ 1006ba54     libmmt:libm_error.omu
 0005:00000a68       ??_C@_0BE@A@?$ANy0f?3?5DOMAIN?5error?6?$AA@ 1006ba68     libmmt:libm_error.omu
 0005:00000a7c       ??_C@_03A@y1l?$AA@         1006ba7c     libmmt:libm_error.omu
 0005:00000a80       ??_C@_0BD@A@?$ANy1l?3?5TLOSS?5error?6?$AA@ 1006ba80     libmmt:libm_error.omu
 0005:00000a94       ??_C@_02A@y1?$AA@          1006ba94     libmmt:libm_error.omu
 0005:00000a98       ??_C@_0BC@A@?$ANy1?3?5TLOSS?5error?6?$AA@ 1006ba98     libmmt:libm_error.omu
 0005:00000aac       ??_C@_03A@y1f?$AA@         1006baac     libmmt:libm_error.omu
 0005:00000ab0       ??_C@_0BD@A@?$ANy1f?3?5TLOSS?5error?6?$AA@ 1006bab0     libmmt:libm_error.omu
 0005:00000ac4       ??_C@_0BE@A@?$ANy1l?3?5DOMAIN?5error?6?$AA@ 1006bac4     libmmt:libm_error.omu
 0005:00000ad8       ??_C@_0BD@A@?$ANy1?3?5DOMAIN?5error?6?$AA@ 1006bad8     libmmt:libm_error.omu
 0005:00000aec       ??_C@_0BE@A@?$ANy1f?3?5DOMAIN?5error?6?$AA@ 1006baec     libmmt:libm_error.omu
 0005:00000b00       ??_C@_03A@ynl?$AA@         1006bb00     libmmt:libm_error.omu
 0005:00000b04       ??_C@_0BD@A@?$ANynl?3?5TLOSS?5error?6?$AA@ 1006bb04     libmmt:libm_error.omu
 0005:00000b18       ??_C@_02A@yn?$AA@          1006bb18     libmmt:libm_error.omu
 0005:00000b1c       ??_C@_0BC@A@?$ANyn?3?5TLOSS?5error?6?$AA@ 1006bb1c     libmmt:libm_error.omu
 0005:00000b30       ??_C@_03A@ynf?$AA@         1006bb30     libmmt:libm_error.omu
 0005:00000b34       ??_C@_0BD@A@?$ANynf?3?5TLOSS?5error?6?$AA@ 1006bb34     libmmt:libm_error.omu
 0005:00000b48       ??_C@_0BE@A@?$ANynl?3?5DOMAIN?5error?6?$AA@ 1006bb48     libmmt:libm_error.omu
 0005:00000b5c       ??_C@_0BD@A@?$ANyn?3?5DOMAIN?5error?6?$AA@ 1006bb5c     libmmt:libm_error.omu
 0005:00000b70       ??_C@_0BE@A@?$ANynf?3?5DOMAIN?5error?6?$AA@ 1006bb70     libmmt:libm_error.omu
 0005:00000b84       ??_C@_05A@fmodl?$AA@       1006bb84     libmmt:libm_error.omu
 0005:00000b8c       ??_C@_0BG@A@?$ANfmodl?3?5DOMAIN?5error?6?$AA@ 1006bb8c     libmmt:libm_error.omu
 0005:00000ba4       ??_C@_04A@fmod?$AA@        1006bba4     libmmt:libm_error.omu
 0005:00000bac       ??_C@_0BF@A@?$ANfmod?3?5DOMAIN?5error?6?$AA@ 1006bbac     libmmt:libm_error.omu
 0005:00000bc4       ??_C@_05A@fmodf?$AA@       1006bbc4     libmmt:libm_error.omu
 0005:00000bcc       ??_C@_0BG@A@?$ANfmodf?3?5DOMAIN?5error?6?$AA@ 1006bbcc     libmmt:libm_error.omu
 0005:00000be4       ??_C@_0L@A@remainderl?$AA@ 1006bbe4     libmmt:libm_error.omu
 0005:00000bf0       ??_C@_0BL@A@?$ANremainderl?3?5DOMAIN?5error?6?$AA@ 1006bbf0     libmmt:libm_error.omu
 0005:00000c0c       ??_C@_09A@remainder?$AA@   1006bc0c     libmmt:libm_error.omu
 0005:00000c18       ??_C@_0BK@A@?$ANremainder?3?5DOMAIN?5error?6?$AA@ 1006bc18     libmmt:libm_error.omu
 0005:00000c34       ??_C@_0L@A@remainderf?$AA@ 1006bc34     libmmt:libm_error.omu
 0005:00000c40       ??_C@_0BL@A@?$ANremainderf?3?5DOMAIN?5error?6?$AA@ 1006bc40     libmmt:libm_error.omu
 0005:00000c60       ??_C@_1NG@A@?$CF?$AAl?$AAs?$AA?6?$AA?6?$AAF?$AAi?$AAl?$AAe?$AA?3?$AA?7?$AA?7?$AA?$CF?$AAl?$AAs?$AA?6?$AAL?$AAi?$AAn?$AAe?$AA?3?$AA?7?$AA?7?$AA?$CF?$AAd?$AA?6?$AAE?$AAx?$AAp?$AAr?$AAe?$AAs?$AAs?$AAi?$AAo?$AAn?$AA?3?$AA?7?$AA?$CF?$AAl?$AAs?$AA?6?$AA?6?$AAA?$AAb?$AAo?$AAr?$AAt?$AA?5?$AA?$DN?$AA?5?$AAS?$AAt?$AAo?$AAp?$AA?5?$AAD?$AAe?$AAb?$AAu?$AAg?$AAg?$AAi?$AAn?$AAg?$AA?6?$AAR?$AAe?$AAt?$AAr?$AAy?$AA?5?$AA?$DN?$AA?5?$AAD?$AAe?$AAb?$AAu?$AAg?$AA?6?$AAI?$AAg?$AAn?$AAo?$AAr?$AAe?$AA?5?$AA?$DN?$AA?5?$AAC?$AAo?$AAn?$AAt?$AAi?$AAn?$AAu?$AAe?$AA?5?$AAR?$AAu?$AAn?$AAn?$AAi?$AAn?$AAg?$AA?6?$AA?$AA?$AA@ 1006bc60     Platform:IFXOSUtilities.obj
 0005:00000d40       ??_C@_1CE@A@A?$AAs?$AAs?$AAe?$AAr?$AAt?$AAi?$AAo?$AAn?$AA?5?$AAF?$AAa?$AAi?$AAl?$AAe?$AAd?$AA?$CB?$AA?$AA?$AA@ 1006bd40     Platform:IFXOSUtilities.obj
 0005:00000d80       ??_C@_1FO@A@I?$AAg?$AAn?$AAo?$AAr?$AAe?$AA?5?$AAa?$AAl?$AAl?$AA?5?$AAf?$AAu?$AAt?$AAu?$AAr?$AAe?$AA?5?$AAi?$AAn?$AAs?$AAt?$AAa?$AAn?$AAc?$AAe?$AAs?$AA?5?$AAo?$AAf?$AA?5?$AAt?$AAh?$AAi?$AAs?$AA?5?$AAa?$AAs?$AAs?$AAe?$AAr?$AAt?$AAi?$AAo?$AAn?$AA?$DP?$AA?$AA?$AA@ 1006bd80     Platform:IFXOSUtilities.obj
 0005:00000de0       ??_C@_1BE@A@I?$AAF?$AAX?$AAA?$AAS?$AAS?$AAE?$AAR?$AAT?$AA?$AA?$AA@ 1006bde0     Platform:IFXOSUtilities.obj
 0005:00000df4       ??_C@_07A@English?$AA@     1006bdf4     Platform:IFXOSUtilities.obj
 0005:00000dfc       ??_C@_1BI@A@I?$AAF?$AAX?$AAC?$AAo?$AAr?$AAe?$AA?4?$AAd?$AAl?$AAl?$AA?$AA?$AA@ 1006bdfc     Platform:IFXOSLoader.obj
 0005:00000e14       ??_C@_1BC@A@O?$AAP?$AAE?$AAN?$AAG?$AAL?$AA3?$AA2?$AA?$AA?$AA@ 1006be14     Platform:IFXOSLoader.obj
 0006:0000010c       ??_7CIFXAuthorMeshLocker@@6B@ 1006c10c     Exporting:CIFXAuthorCLODEncoderX.obj
 0006:00000114       ??_7IFXUnknown@@6B@        1006c114     Exporting:CIFXAuthorCLODEncoderX.obj
 0006:00000124       ??_7IFXException@@6B@      1006c124     Exporting:CIFXAuthorCLODEncoderX.obj
 0006:0000012c       ??_7IFXEncoderX@@6B0@@     1006c12c     Exporting:CIFXAuthorCLODEncoderX.obj
 0006:0000013c       ??_7IFXEncoderX@@6BIFXUnknown@@@ 1006c13c     Exporting:CIFXAuthorCLODEncoderX.obj
 0006:0000014c       ??_7CIFXAuthorCLODEncoderX@@6B0@@ 1006c14c     Exporting:CIFXAuthorCLODEncoderX.obj
 0006:00000154       ??_7CIFXAuthorCLODEncoderX@@6BIFXUnknown@@@ 1006c154     Exporting:CIFXAuthorCLODEncoderX.obj
 0006:00000164       ??_7CIFXAuthorCLODEncoderX@@6BIFXEncoderX@@@ 1006c164     Exporting:CIFXAuthorCLODEncoderX.obj
 0006:00000174       ??_7CIFXAnimationModifierEncoder@@6B0@@ 1006c174     Exporting:CIFXAnimationModifierEncoder.obj
 0006:0000017c       ??_7CIFXAnimationModifierEncoder@@6BIFXUnknown@@@ 1006c17c     Exporting:CIFXAnimationModifierEncoder.obj
 0006:0000018c       ??_7CIFXAnimationModifierEncoder@@6BIFXEncoderX@@@ 1006c18c     Exporting:CIFXAnimationModifierEncoder.obj
 0006:0000019c       ??_7CIFXMaterialResourceEncoder@@6B0@@ 1006c19c     Exporting:CIFXMaterialResourceEncoder.obj
 0006:000001a4       ??_7CIFXMaterialResourceEncoder@@6BIFXUnknown@@@ 1006c1a4     Exporting:CIFXMaterialResourceEncoder.obj
 0006:000001b4       ??_7CIFXMaterialResourceEncoder@@6BIFXEncoderX@@@ 1006c1b4     Exporting:CIFXMaterialResourceEncoder.obj
 0006:000001c4       ??_7CIFXMotionResourceEncoder@@6B0@@ 1006c1c4     Exporting:CIFXMotionResourceEncoder.obj
 0006:000001cc       ??_7CIFXMotionResourceEncoder@@6BIFXUnknown@@@ 1006c1cc     Exporting:CIFXMotionResourceEncoder.obj
 0006:000001dc       ??_7CIFXMotionResourceEncoder@@6BIFXEncoderX@@@ 1006c1dc     Exporting:CIFXMotionResourceEncoder.obj
 0006:000001ec       ??_7CIFXGlyphGeneratorEncoder@@6B0@@ 1006c1ec     Exporting:CIFXGlyphModifierEncoder.obj
 0006:000001f4       ??_7CIFXGlyphGeneratorEncoder@@6BIFXUnknown@@@ 1006c1f4     Exporting:CIFXGlyphModifierEncoder.obj
 0006:00000204       ??_7CIFXGlyphGeneratorEncoder@@6BIFXEncoderX@@@ 1006c204     Exporting:CIFXGlyphModifierEncoder.obj
 0006:00000214       ??_7CIFXShaderLitTextureEncoder@@6B0@@ 1006c214     Exporting:CIFXShaderLitTextureEncoder.obj
 0006:0000021c       ??_7CIFXShaderLitTextureEncoder@@6BIFXUnknown@@@ 1006c21c     Exporting:CIFXShaderLitTextureEncoder.obj
 0006:0000022c       ??_7CIFXShaderLitTextureEncoder@@6BIFXEncoderX@@@ 1006c22c     Exporting:CIFXShaderLitTextureEncoder.obj
 0006:0000023c       ??_7CIFXSubdivisionModifierEncoder@@6B0@@ 1006c23c     Exporting:CIFXSubdivisionModifierEncoder.obj
 0006:00000244       ??_7CIFXSubdivisionModifierEncoder@@6BIFXUnknown@@@ 1006c244     Exporting:CIFXSubdivisionModifierEncoder.obj
 0006:00000254       ??_7CIFXSubdivisionModifierEncoder@@6BIFXEncoderX@@@ 1006c254     Exporting:CIFXSubdivisionModifierEncoder.obj
 0006:00000264       ??_7CIFXShadingModifierEncoder@@6B0@@ 1006c264     Exporting:CIFXShadingModifierEncoder.obj
 0006:0000026c       ??_7CIFXShadingModifierEncoder@@6BIFXUnknown@@@ 1006c26c     Exporting:CIFXShadingModifierEncoder.obj
 0006:0000027c       ??_7CIFXShadingModifierEncoder@@6BIFXEncoderX@@@ 1006c27c     Exporting:CIFXShadingModifierEncoder.obj
 0006:0000028c       ??_7CIFXGroupNodeEncoder@@6BIFXUnknown@@@ 1006c28c     Exporting:CIFXGroupNodeEncoder.obj
 0006:0000029c       ??_7CIFXGroupNodeEncoder@@6BIFXEncoderX@@@ 1006c29c     Exporting:CIFXGroupNodeEncoder.obj
 0006:000002ac       ??_7CIFXGroupNodeEncoder@@6BCIFXNodeBaseEncoder@@@ 1006c2ac     Exporting:CIFXGroupNodeEncoder.obj
 0006:000002b4       ??_7CIFXLightNodeEncoder@@6BIFXUnknown@@@ 1006c2b4     Exporting:CIFXLightNodeEncoder.obj
 0006:000002c4       ??_7CIFXLightNodeEncoder@@6BIFXEncoderX@@@ 1006c2c4     Exporting:CIFXLightNodeEncoder.obj
 0006:000002d4       ??_7CIFXLightNodeEncoder@@6BCIFXNodeBaseEncoder@@@ 1006c2d4     Exporting:CIFXLightNodeEncoder.obj
 0006:000002dc       ??_7CIFXLightResourceEncoder@@6BIFXUnknown@@@ 1006c2dc     Exporting:CIFXLightResourceEncoder.obj
 0006:000002ec       ??_7CIFXLightResourceEncoder@@6BIFXEncoderX@@@ 1006c2ec     Exporting:CIFXLightResourceEncoder.obj
 0006:000002fc       ??_7CIFXLightResourceEncoder@@6BCIFXNodeBaseEncoder@@@ 1006c2fc     Exporting:CIFXLightResourceEncoder.obj
 0006:00000304       ??_7CIFXViewResourceEncoder@@6BIFXUnknown@@@ 1006c304     Exporting:CIFXViewResourceEncoder.obj
 0006:00000314       ??_7CIFXViewResourceEncoder@@6BIFXEncoderX@@@ 1006c314     Exporting:CIFXViewResourceEncoder.obj
 0006:00000324       ??_7CIFXViewResourceEncoder@@6BCIFXNodeBaseEncoder@@@ 1006c324     Exporting:CIFXViewResourceEncoder.obj
 0006:0000032c       ??_7CIFXModelNodeEncoder@@6BIFXUnknown@@@ 1006c32c     Exporting:CIFXModelNodeEncoder.obj
 0006:0000033c       ??_7CIFXModelNodeEncoder@@6BIFXEncoderX@@@ 1006c33c     Exporting:CIFXModelNodeEncoder.obj
 0006:0000034c       ??_7CIFXModelNodeEncoder@@6BCIFXNodeBaseEncoder@@@ 1006c34c     Exporting:CIFXModelNodeEncoder.obj
 0006:00000354       ??_7IFXViewLayer@@6B@      1006c354     Exporting:CIFXViewNodeEncoder.obj
 0006:0000035c       ??_7CIFXViewNodeEncoder@@6BIFXUnknown@@@ 1006c35c     Exporting:CIFXViewNodeEncoder.obj
 0006:0000036c       ??_7CIFXViewNodeEncoder@@6BIFXEncoderX@@@ 1006c36c     Exporting:CIFXViewNodeEncoder.obj
 0006:0000037c       ??_7CIFXViewNodeEncoder@@6BCIFXNodeBaseEncoder@@@ 1006c37c     Exporting:CIFXViewNodeEncoder.obj
 0006:000006cc       ??_7IFXCoreArray@@6B@      1006c6cc     Exporting:CIFXFileReferenceEncoder.obj
 0006:000006f4       ??_7CIFXFileReferenceEncoder@@6B0@@ 1006c6f4     Exporting:CIFXFileReferenceEncoder.obj
 0006:000006fc       ??_7CIFXFileReferenceEncoder@@6BIFXUnknown@@@ 1006c6fc     Exporting:CIFXFileReferenceEncoder.obj
 0006:0000070c       ??_7CIFXFileReferenceEncoder@@6BIFXEncoderX@@@ 1006c70c     Exporting:CIFXFileReferenceEncoder.obj
 0006:0000071c       ??_7?$IFXArray@VIFXString@@@@6B@ 1006c71c     Exporting:CIFXFileReferenceEncoder.obj
 0006:00000748       ??_7?$IFXArray@UIFXObjectFilter@@@@6B@ 1006c748     Exporting:CIFXFileReferenceEncoder.obj
 0006:00000774       ??_7CIFXBlockPriorityQueueX@@6B@ 1006c774     Exporting:CIFXBlockPriorityQueueX.obj
 0006:0000079c       ??_7CIFXBlockWriterX@@6B@  1006c79c     Exporting:CIFXBlockWriterX.obj
 0006:0000090c       ??_7CIFXWriteManager@@6B@  1006c90c     Exporting:CIFXWriteManager.obj
 0006:0000092c       ??_7?$IFXArray@UIFXExtBlocktype@CIFXWriteManager@@@@6B@ 1006c92c     Exporting:CIFXWriteManager.obj
 0006:00000958       ??_7CIFXAuthorGeomCompilerProgress@@6B@ 1006c958     Exporting:CIFXAuthorGeomCompiler.obj
 0006:00000964       ??_7CIFXAuthorGeomCompiler@@6B@ 1006c964     Exporting:CIFXAuthorGeomCompiler.obj
 0006:00000984       ??_7IFXWriteBuffer@@6B0@@  1006c984     Exporting:CIFXStdioWriteBufferX.obj
 0006:0000098c       ??_7IFXWriteBuffer@@6BIFXUnknown@@@ 1006c98c     Exporting:CIFXStdioWriteBufferX.obj
 0006:0000099c       ??_7IFXWriteBufferX@@6B0@@ 1006c99c     Exporting:CIFXStdioWriteBufferX.obj
 0006:000009a4       ??_7IFXWriteBufferX@@6BIFXUnknown@@@ 1006c9a4     Exporting:CIFXStdioWriteBufferX.obj
 0006:000009b4       ??_7IFXStdio@@6B0@@        1006c9b4     Exporting:CIFXStdioWriteBufferX.obj
 0006:000009c0       ??_7IFXStdio@@6BIFXUnknown@@@ 1006c9c0     Exporting:CIFXStdioWriteBufferX.obj
 0006:000009d0       ??_7CIFXStdioWriteBufferX@@6BIFXUnknown@@@ 1006c9d0     Exporting:CIFXStdioWriteBufferX.obj
 0006:000009e0       ??_7CIFXStdioWriteBufferX@@6BIFXWriteBuffer@@@ 1006c9e0     Exporting:CIFXStdioWriteBufferX.obj
 0006:000009ec       ??_7CIFXStdioWriteBufferX@@6BIFXWriteBufferX@@@ 1006c9ec     Exporting:CIFXStdioWriteBufferX.obj
 0006:000009f8       ??_7CIFXStdioWriteBufferX@@6BIFXStdio@@@ 1006c9f8     Exporting:CIFXStdioWriteBufferX.obj
 0006:00000a84       ??_7CIFXPointSetEncoder@@6B0@@ 1006ca84     Exporting:CIFXPointSetEncoder.obj
 0006:00000a8c       ??_7CIFXPointSetEncoder@@6BIFXUnknown@@@ 1006ca8c     Exporting:CIFXPointSetEncoder.obj
 0006:00000a9c       ??_7CIFXPointSetEncoder@@6BIFXEncoderX@@@ 1006ca9c     Exporting:CIFXPointSetEncoder.obj
 0006:00000aac       ??_7?$IFXArray@I@@6B@      1006caac     Exporting:CIFXPointSetEncoder.obj
 0006:00000ad8       ??_7CIFXLineSetEncoder@@6B0@@ 1006cad8     Exporting:CIFXLineSetEncoder.obj
 0006:00000ae0       ??_7CIFXLineSetEncoder@@6BIFXUnknown@@@ 1006cae0     Exporting:CIFXLineSetEncoder.obj
 0006:00000af0       ??_7CIFXLineSetEncoder@@6BIFXEncoderX@@@ 1006caf0     Exporting:CIFXLineSetEncoder.obj
 0006:00000b00       ??_7CIFXBoneWeightsModifierEncoder@@6B0@@ 1006cb00     Exporting:CIFXBoneWeightsModifierEncoder.obj
 0006:00000b08       ??_7CIFXBoneWeightsModifierEncoder@@6BIFXUnknown@@@ 1006cb08     Exporting:CIFXBoneWeightsModifierEncoder.obj
 0006:00000b18       ??_7CIFXBoneWeightsModifierEncoder@@6BIFXEncoderX@@@ 1006cb18     Exporting:CIFXBoneWeightsModifierEncoder.obj
 0006:00000b28       ??_7CIFXCLODModifierEncoder@@6B0@@ 1006cb28     Exporting:CIFXCLODModifierEncoder.obj
 0006:00000b30       ??_7CIFXCLODModifierEncoder@@6BIFXUnknown@@@ 1006cb30     Exporting:CIFXCLODModifierEncoder.obj
 0006:00000b40       ??_7CIFXCLODModifierEncoder@@6BIFXEncoderX@@@ 1006cb40     Exporting:CIFXCLODModifierEncoder.obj
 0006:00000b50       ??_7CIFXDummyModifierEncoder@@6B0@@ 1006cb50     Exporting:CIFXDummyModifierEncoder.obj
 0006:00000b58       ??_7CIFXDummyModifierEncoder@@6BIFXUnknown@@@ 1006cb58     Exporting:CIFXDummyModifierEncoder.obj
 0006:00000b68       ??_7CIFXDummyModifierEncoder@@6BIFXEncoderX@@@ 1006cb68     Exporting:CIFXDummyModifierEncoder.obj
 0006:00000b78       ??_7IFXString@@6B@         1006cb78     Exporting:IFXString.obj
 0006:00000bc4       ??_7CIFXNodeBaseEncoder@@6B@ 1006cbc4     Exporting:CIFXNodeBaseEncoder.obj

 entry point at        0001:0003d785

 Static symbols

 0001:0000324e       B14.EH                     1000424e f   Exporting:CIFXAnimationModifierEncoder.obj
 0001:0000394a       B19.EH                     1000494a f   Exporting:CIFXAnimationModifierEncoder.obj
 0001:00003dde       B14.EH                     10004dde f   Exporting:CIFXMaterialResourceEncoder.obj
 0001:000044b4       B19.EH                     100054b4 f   Exporting:CIFXMaterialResourceEncoder.obj
 0001:0000493a       B14.EH                     1000593a f   Exporting:CIFXMotionResourceEncoder.obj
 0001:00006826       B19.EH                     10007826 f   Exporting:CIFXMotionResourceEncoder.obj
 0001:00006df6       B15.EH                     10007df6 f   Exporting:CIFXGlyphModifierEncoder.obj
 0001:00007b7a       B21.EH                     10008b7a f   Exporting:CIFXGlyphModifierEncoder.obj
 0001:00008024       B14.EH                     10009024 f   Exporting:CIFXShaderLitTextureEncoder.obj
 0001:00008af6       B19.EH                     10009af6 f   Exporting:CIFXShaderLitTextureEncoder.obj
 0001:000090c6       B15.EH                     1000a0c6 f   Exporting:CIFXSubdivisionModifierEncoder.obj
 0001:00009716       B21.EH                     1000a716 f   Exporting:CIFXSubdivisionModifierEncoder.obj
 0001:00009ce6       B15.EH                     1000ace6 f   Exporting:CIFXShadingModifierEncoder.obj
 0001:0000a346       B24.EH                     1000b346 f   Exporting:CIFXShadingModifierEncoder.obj
 0001:0000a886       B14.EH                     1000b886 f   Exporting:CIFXGroupNodeEncoder.obj
 0001:0000ab6c       B19.EH                     1000bb6c f   Exporting:CIFXGroupNodeEncoder.obj
 0001:0000b0c6       B14.EH                     1000c0c6 f   Exporting:CIFXLightNodeEncoder.obj
 0001:0000b5f8       B20.EH                     1000c5f8 f   Exporting:CIFXLightNodeEncoder.obj
 0001:0000bb10       B14.EH                     1000cb10 f   Exporting:CIFXLightResourceEncoder.obj
 0001:0000bf68       B19.EH                     1000cf68 f   Exporting:CIFXLightResourceEncoder.obj
 0001:0000c4b4       B14.EH                     1000d4b4 f   Exporting:CIFXViewResourceEncoder.obj
 0001:0000cae2       B19.EH                     1000dae2 f   Exporting:CIFXViewResourceEncoder.obj
 0001:0000d022       B14.EH                     1000e022 f   Exporting:CIFXModelNodeEncoder.obj
 0001:0000d62a       B19.EH                     1000e62a f   Exporting:CIFXModelNodeEncoder.obj
 0001:0000db6a       B15.EH                     1000eb6a f   Exporting:CIFXViewNodeEncoder.obj
 0001:0000e8e6       B22.EH                     1000f8e6 f   Exporting:CIFXViewNodeEncoder.obj
 0001:0000fbfc       B22.EH                     10010bfc f i Exporting:CIFXFileReferenceEncoder.obj
 0001:0001321a       B31.EH                     1001421a f   Exporting:CIFXWriteManager.obj
 0001:00013cb4       B47.EH                     10014cb4 f   Exporting:CIFXWriteManager.obj
 0001:0001513c       ___sti__$E                 1001613c f   Exporting:CIFXAuthorGeomCompiler.obj
 0001:000159c8       B14.EH                     100169c8 f   Exporting:CIFXStdioWriteBufferX.obj
 0001:00021e9a       B15.EH                     10022e9a f   Exporting:CIFXBoneWeightsModifierEncoder.obj
 0001:0002315c       B34.EH                     1002415c f   Exporting:CIFXBoneWeightsModifierEncoder.obj
 0001:00023752       B15.EH                     10024752 f   Exporting:CIFXCLODModifierEncoder.obj
 0001:00023ce8       B21.EH                     10024ce8 f   Exporting:CIFXCLODModifierEncoder.obj
 0001:000242ba       B15.EH                     100252ba f   Exporting:CIFXDummyModifierEncoder.obj
 0001:0002450e       B17.EH                     1002550e f   Exporting:CIFXDummyModifierEncoder.obj
 0001:000246c2       B19.EH                     100256c2 f   Exporting:CIFXDummyModifierEncoder.obj
 0001:000303c2       B8.EH                      100313c2 f   Exporting:CIFXNodeBaseEncoder.obj
 0001:0003057e       B9.EH                      1003157e f   Exporting:CIFXNodeBaseEncoder.obj
 0001:0003d8f4       $$$00001                   1003e8f4 f   LIBCMT:exsup.obj
 0001:0003d914       $$$00003                   1003e914 f   LIBCMT:exsup.obj
 0001:0003d914       __unwind_handler           1003e914 f   LIBCMT:exsup.obj
 0001:0003d936       $$$00005                   1003e936 f   LIBCMT:exsup.obj
 0001:0003d99e       $$$00007                   1003e99e f   LIBCMT:exsup.obj
 0001:0003d9e2       $$$00011                   1003e9e2 f   LIBCMT:exsup.obj
 0001:0003daa1       ?CatchGuardHandler@@YA?AW4_EXCEPTION_DISPOSITION@@PAUEHExceptionRecord@@PAUCatchGuardRN@@PAX2@Z 1003eaa1 f   LIBCMT:trnsctrl.obj
 0001:0003dba3       ?TranslatorGuardHandler@@YA?AW4_EXCEPTION_DISPOSITION@@PAUEHExceptionRecord@@PAUTranslatorGuardRN@@PAX2@Z 1003eba3 f   LIBCMT:trnsctrl.obj
 0001:0003e4b3       _wcstoxl                   1003f4b3 f   LIBCMT:wcstol.obj
 0001:0003eac3       __initterm                 1003fac3 f   LIBCMT:crt0dat.obj
 0001:0003eb45       _doexit                    1003fb45 f   LIBCMT:crt0dat.obj
 0001:0003f385       _parse_cmdline             10040385 f   LIBCMT:stdargv.obj
 0001:0003fb41       $$$00003                   10040b41 f   LIBCMT:exsup3.obj
 0001:0003fdd0       __shift                    10040dd0 f   LIBCMT:cvt.obj
 0001:0003fded       __cftoe2                   10040ded f   LIBCMT:cvt.obj
 0001:0003ff07       __cftof2                   10040f07 f   LIBCMT:cvt.obj
 0001:0004016b       ?TypeMatch@@YAHPBU_s_HandlerType@@PBU_s_CatchableType@@PBU_s_ThrowInfo@@@Z 1004116b f   LIBCMT:frame.obj
 0001:000401ba       ?FrameUnwindFilter@@YAHPAU_EXCEPTION_POINTERS@@@Z 100411ba f   LIBCMT:frame.obj
 0001:000402eb       ?AdjustPointer@@YAPAXPAXABUPMD@@@Z 100412eb f   LIBCMT:frame.obj
 0001:0004030a       ?CallCatchBlock@@YAPAXPAUEHExceptionRecord@@PAUEHRegistrationNode@@PAU_CONTEXT@@PBU_s_FuncInfo@@PAXHK@Z 1004130a f   LIBCMT:frame.obj
 0001:000404ce       ?BuildCatchObject@@YAXPAUEHExceptionRecord@@PAXPBU_s_HandlerType@@PBU_s_CatchableType@@@Z 100414ce f   LIBCMT:frame.obj
 0001:0004064a       ?CatchIt@@YAXPAUEHExceptionRecord@@PAUEHRegistrationNode@@PAU_CONTEXT@@PAXPBU_s_FuncInfo@@PBU_s_HandlerType@@PBU_s_CatchableType@@PBU_s_TryBlockMapEntry@@H1E@Z 1004164a f   LIBCMT:frame.obj
 0001:000406b1       ?FindHandlerForForeignException@@YAXPAUEHExceptionRecord@@PAUEHRegistrationNode@@PAU_CONTEXT@@PAXPBU_s_FuncInfo@@HH1@Z 100416b1 f   LIBCMT:frame.obj
 0001:0004076f       ?FindHandler@@YAXPAUEHExceptionRecord@@PAUEHRegistrationNode@@PAU_CONTEXT@@PAXPBU_s_FuncInfo@@EH1@Z 1004176f f   LIBCMT:frame.obj
 0001:00040f1c       _flsall                    10041f1c f   LIBCMT:fflush.obj
 0001:00041d1f       ___updatetlocinfo_lk       10042d1f f   LIBCMT:setlocal.obj
 0001:00041f69       __setlocale_get_all        10042f69 f   LIBCMT:setlocal.obj
 0001:00042184       __setlocale_set_cat        10043184 f   LIBCMT:setlocal.obj
 0001:00042413       __setlocale_lk             10043413 f   LIBCMT:setlocal.obj
 0001:000428bc       _write_char                100438bc f   LIBCMT:woutput.obj
 0001:000428e1       _write_multi_char          100438e1 f   LIBCMT:woutput.obj
 0001:00042906       _write_string              10043906 f   LIBCMT:woutput.obj
 0001:0004378b       __onexit_lk                1004478b f   LIBCMT:onexit.obj
 0001:0004387d       _CPtoLCID                  1004487d f   LIBCMT:mbctype.obj
 0001:000438ac       _setSBCS                   100448ac f   LIBCMT:mbctype.obj
 0001:000438d5       _setSBUpLow                100448d5 f   LIBCMT:mbctype.obj
 0001:00043a61       __setmbcp_lk               10044a61 f   LIBCMT:mbctype.obj
 0001:00044900       ___crtInitCritSecNoSpinCount@8 10045900 f   LIBCMT:initcrit.obj
 0001:00044fa4       _report_failure            10045fa4 f   LIBCMT:secchk.obj
 0001:00045993       __abstract_cw              10046993 f   LIBCMT:ieee87.obj
 0001:00045a25       __hw_cw                    10046a25 f   LIBCMT:ieee87.obj
 0001:0004659e       __get_lc_time              1004759e f   LIBCMT:inittime.obj
 0001:00047276       _TranslateName             10048276 f   LIBCMT:getqloc.obj
 0001:000472d6       _GetLcidFromDefault        100482d6 f   LIBCMT:getqloc.obj
 0001:000472f0       _ProcessCodePage           100482f0 f   LIBCMT:getqloc.obj
 0001:00047366       _TestDefaultCountry        10048366 f   LIBCMT:getqloc.obj
 0001:00047384       _crtGetLocaleInfoA@16      10048384 f   LIBCMT:getqloc.obj
 0001:00047467       _LcidFromHexString         10048467 f   LIBCMT:getqloc.obj
 0001:0004749c       _GetPrimaryLen             1004849c f   LIBCMT:getqloc.obj
 0001:000474b9       _CountryEnumProc@4         100484b9 f   LIBCMT:getqloc.obj
 0001:0004754d       _TestDefaultLanguage       1004854d f   LIBCMT:getqloc.obj
 0001:000475be       _LangCountryEnumProc@4     100485be f   LIBCMT:getqloc.obj
 0001:000477d8       _LanguageEnumProc@4        100487d8 f   LIBCMT:getqloc.obj
 0001:000478a3       _GetLcidFromCountry        100488a3 f   LIBCMT:getqloc.obj
 0001:000478da       _GetLcidFromLangCountry    100488da f   LIBCMT:getqloc.obj
 0001:00047960       _GetLcidFromLanguage       10048960 f   LIBCMT:getqloc.obj
 0001:00048d20       _siglookup                 10049d20 f   LIBCMT:winsig.obj
 0001:000491ad       _xtoa                      1004a1ad f   LIBCMT:xtoa.obj
 0001:000499a0       _$$$00001                  1004a9a0 f   LIBCMT:strchr.obj
 0001:0004c409       __tsopen_lk                1004d409 f   LIBCMT:wopen.obj
 0002:00000048       B2.EH                      1004e048 f   Exporting:CIFXAuthorCLODEncoderX.obj
 0002:0000006a       B10.EH                     1004e06a f   Exporting:CIFXAuthorCLODEncoderX.obj
 0002:000000f2       B20.EH                     1004e0f2 f   Exporting:CIFXAuthorCLODEncoderX.obj
 0002:0000010c       B26.EH                     1004e10c f   Exporting:CIFXAuthorCLODEncoderX.obj
 0002:0000021c       B28.EH                     1004e21c f   Exporting:CIFXAuthorCLODEncoderX.obj
 0002:0000023a       B7.EH                      1004e23a f   Exporting:CIFXAuthorCLODEncoderX.obj
 0002:00000256       B8.EH                      1004e256 f   Exporting:CIFXAuthorCLODEncoderX.obj
 0002:00000272       B9.EH                      1004e272 f   Exporting:CIFXAuthorCLODEncoderX.obj
 0002:0000029e       B30.EH                     1004e29e f   Exporting:CIFXAuthorCLODEncoderX.obj
 0002:000002c0       B6.EH                      1004e2c0 f   Exporting:CIFXAnimationModifierEncoder.obj
 0002:000002f8       B16.EH                     1004e2f8 f   Exporting:CIFXAnimationModifierEncoder.obj
 0002:0000031c       B6.EH                      1004e31c f   Exporting:CIFXMaterialResourceEncoder.obj
 0002:00000354       B16.EH                     1004e354 f   Exporting:CIFXMaterialResourceEncoder.obj
 0002:00000378       B6.EH                      1004e378 f   Exporting:CIFXMotionResourceEncoder.obj
 0002:000003e2       B16.EH                     1004e3e2 f   Exporting:CIFXMotionResourceEncoder.obj
 0002:000003fe       B2.EH                      1004e3fe f   Exporting:CIFXGlyphModifierEncoder.obj
 0002:00000420       B7.EH                      1004e420 f   Exporting:CIFXGlyphModifierEncoder.obj
 0002:0000046a       B17.EH                     1004e46a f   Exporting:CIFXGlyphModifierEncoder.obj
 0002:0000048c       B6.EH                      1004e48c f   Exporting:CIFXShaderLitTextureEncoder.obj
 0002:000004c4       B16.EH                     1004e4c4 f   Exporting:CIFXShaderLitTextureEncoder.obj
 0002:000004e2       B2.EH                      1004e4e2 f   Exporting:CIFXSubdivisionModifierEncoder.obj
 0002:00000504       B7.EH                      1004e504 f   Exporting:CIFXSubdivisionModifierEncoder.obj
 0002:0000053c       B17.EH                     1004e53c f   Exporting:CIFXSubdivisionModifierEncoder.obj
 0002:0000055a       B2.EH                      1004e55a f   Exporting:CIFXShadingModifierEncoder.obj
 0002:0000057c       B7.EH                      1004e57c f   Exporting:CIFXShadingModifierEncoder.obj
 0002:000005f0       B17.EH                     1004e5f0 f   Exporting:CIFXShadingModifierEncoder.obj
 0002:0000060c       B2.EH                      1004e60c f   Exporting:CIFXGroupNodeEncoder.obj
 0002:0000062e       B6.EH                      1004e62e f   Exporting:CIFXGroupNodeEncoder.obj
 0002:00000656       B16.EH                     1004e656 f   Exporting:CIFXGroupNodeEncoder.obj
 0002:00000670       B2.EH                      1004e670 f   Exporting:CIFXLightNodeEncoder.obj
 0002:00000692       B6.EH                      1004e692 f   Exporting:CIFXLightNodeEncoder.obj
 0002:000006f8       B16.EH                     1004e6f8 f   Exporting:CIFXLightNodeEncoder.obj
 0002:00000714       B2.EH                      1004e714 f   Exporting:CIFXLightResourceEncoder.obj
 0002:00000736       B6.EH                      1004e736 f   Exporting:CIFXLightResourceEncoder.obj
 0002:0000075e       B16.EH                     1004e75e f   Exporting:CIFXLightResourceEncoder.obj
 0002:00000778       B2.EH                      1004e778 f   Exporting:CIFXViewResourceEncoder.obj
 0002:0000079a       B6.EH                      1004e79a f   Exporting:CIFXViewResourceEncoder.obj
 0002:000007d2       B16.EH                     1004e7d2 f   Exporting:CIFXViewResourceEncoder.obj
 0002:000007ec       B2.EH                      1004e7ec f   Exporting:CIFXModelNodeEncoder.obj
 0002:0000080e       B6.EH                      1004e80e f   Exporting:CIFXModelNodeEncoder.obj
 0002:00000846       B16.EH                     1004e846 f   Exporting:CIFXModelNodeEncoder.obj
 0002:00000860       B2.EH                      1004e860 f   Exporting:CIFXViewNodeEncoder.obj
 0002:00000882       B7.EH                      1004e882 f   Exporting:CIFXViewNodeEncoder.obj
 0002:0000090e       B17.EH                     1004e90e f   Exporting:CIFXViewNodeEncoder.obj
 0002:0000093c       B2.EH                      1004e93c f   Exporting:CIFXFileReferenceEncoder.obj
 0002:0000095e       B27.EH                     1004e95e f   Exporting:CIFXFileReferenceEncoder.obj
 0002:00000a6a       B39.EH                     1004ea6a f   Exporting:CIFXFileReferenceEncoder.obj
 0002:00000a84       B7.EH                      1004ea84 f   Exporting:CIFXFileReferenceEncoder.obj
 0002:00000aa0       B8.EH                      1004eaa0 f   Exporting:CIFXFileReferenceEncoder.obj
 0002:00000abe       B12.EH                     1004eabe f   Exporting:CIFXFileReferenceEncoder.obj
 0002:00000ae0       B14.EH                     1004eae0 f   Exporting:CIFXFileReferenceEncoder.obj
 0002:00000b04       B17.EH                     1004eb04 f   Exporting:CIFXFileReferenceEncoder.obj
 0002:00000b28       B20.EH                     1004eb28 f   Exporting:CIFXFileReferenceEncoder.obj
 0002:00000b46       B21.EH                     1004eb46 f   Exporting:CIFXFileReferenceEncoder.obj
 0002:00000b68       B23.EH                     1004eb68 f   Exporting:CIFXFileReferenceEncoder.obj
 0002:00000b84       B41.EH                     1004eb84 f   Exporting:CIFXFileReferenceEncoder.obj
 0002:00000ba0       B42.EH                     1004eba0 f   Exporting:CIFXFileReferenceEncoder.obj
 0002:00000c10       B44.EH                     1004ec10 f   Exporting:CIFXFileReferenceEncoder.obj
 0002:00000c34       B8.EH                      1004ec34 f   Exporting:CIFXBlockPriorityQueueX.obj
 0002:00000c4e       B11.EH                     1004ec4e f   Exporting:CIFXBlockPriorityQueueX.obj
 0002:00000cb8       B14.EH                     1004ecb8 f   Exporting:CIFXBlockPriorityQueueX.obj
 0002:00000cd6       B2.EH                      1004ecd6 f   Exporting:CIFXBlockWriterX.obj
 0002:00000cf8       B7.EH                      1004ecf8 f   Exporting:CIFXBlockWriterX.obj
 0002:00000d72       B12.EH                     1004ed72 f   Exporting:CIFXBlockWriterX.obj
 0002:00000db8       B16.EH                     1004edb8 f   Exporting:CIFXBlockWriterX.obj
 0002:00000e2e       B2.EH                      1004ee2e f   Exporting:CIFXWriteManager.obj
 0002:00000e50       B23.EH                     1004ee50 f   Exporting:CIFXWriteManager.obj
 0002:00000edc       B24.EH                     1004eedc f   Exporting:CIFXWriteManager.obj
 0002:00000f16       B29.EH                     1004ef16 f   Exporting:CIFXWriteManager.obj
 0002:00001088       B30.EH                     1004f088 f   Exporting:CIFXWriteManager.obj
 0002:0000110e       B32.EH                     1004f10e f   Exporting:CIFXWriteManager.obj
 0002:00001136       B35.EH                     1004f136 f   Exporting:CIFXWriteManager.obj
 0002:00001150       B44.EH                     1004f150 f   Exporting:CIFXWriteManager.obj
 0002:0000117c       B46.EH                     1004f17c f   Exporting:CIFXWriteManager.obj
 0002:000011a8       B48.EH                     1004f1a8 f   Exporting:CIFXWriteManager.obj
 0002:000011c4       B8.EH                      1004f1c4 f   Exporting:CIFXWriteManager.obj
 0002:000011e0       B11.EH                     1004f1e0 f   Exporting:CIFXWriteManager.obj
 0002:00001204       B17.EH                     1004f204 f   Exporting:CIFXWriteManager.obj
 0002:00001228       B20.EH                     1004f228 f   Exporting:CIFXWriteManager.obj
 0002:0000126a       B34.EH                     1004f26a f   Exporting:CIFXWriteManager.obj
 0002:0000128c       B6.EH                      1004f28c f   Exporting:CIFXAuthorGeomCompiler.obj
 0002:0000133e       B12.EH                     1004f33e f   Exporting:CIFXAuthorGeomCompiler.obj
 0002:00001360       B5.EH                      1004f360 f   Exporting:CIFXStdioWriteBufferX.obj
 0002:0000138c       B12.EH                     1004f38c f   Exporting:CIFXStdioWriteBufferX.obj
 0002:000013ce       B2.EH                      1004f3ce f   Exporting:CIFXPointSetEncoder.obj
 0002:000013f0       B19.EH                     1004f3f0 f   Exporting:CIFXPointSetEncoder.obj
 0002:0000143e       B29.EH                     1004f43e f   Exporting:CIFXPointSetEncoder.obj
 0002:000014d8       B31.EH                     1004f4d8 f   Exporting:CIFXPointSetEncoder.obj
 0002:0000151e       B37.EH                     1004f51e f   Exporting:CIFXPointSetEncoder.obj
 0002:0000157c       B38.EH                     1004f57c f   Exporting:CIFXPointSetEncoder.obj
 0002:000015ce       B39.EH                     1004f5ce f   Exporting:CIFXPointSetEncoder.obj
 0002:00001620       B43.EH                     1004f620 f   Exporting:CIFXPointSetEncoder.obj
 0002:00001672       B44.EH                     1004f672 f   Exporting:CIFXPointSetEncoder.obj
 0002:0000168c       B8.EH                      1004f68c f   Exporting:CIFXPointSetEncoder.obj
 0002:000016a8       B41.EH                     1004f6a8 f   Exporting:CIFXPointSetEncoder.obj
 0002:000016ea       B2.EH                      1004f6ea f   Exporting:CIFXLineSetEncoder.obj
 0002:0000170c       B19.EH                     1004f70c f   Exporting:CIFXLineSetEncoder.obj
 0002:0000175a       B29.EH                     1004f75a f   Exporting:CIFXLineSetEncoder.obj
 0002:000017f4       B31.EH                     1004f7f4 f   Exporting:CIFXLineSetEncoder.obj
 0002:0000183a       B37.EH                     1004f83a f   Exporting:CIFXLineSetEncoder.obj
 0002:0000191c       B38.EH                     1004f91c f   Exporting:CIFXLineSetEncoder.obj
 0002:00001aa2       B39.EH                     1004faa2 f   Exporting:CIFXLineSetEncoder.obj
 0002:00001c28       B42.EH                     1004fc28 f   Exporting:CIFXLineSetEncoder.obj
 0002:00001dae       B44.EH                     1004fdae f   Exporting:CIFXLineSetEncoder.obj
 0002:00001dca       B2.EH                      1004fdca f   Exporting:CIFXBoneWeightsModifierEncoder.obj
 0002:00001dec       B7.EH                      1004fdec f   Exporting:CIFXBoneWeightsModifierEncoder.obj
 0002:00001efc       B17.EH                     1004fefc f   Exporting:CIFXBoneWeightsModifierEncoder.obj
 0002:00001f1a       B2.EH                      1004ff1a f   Exporting:CIFXCLODModifierEncoder.obj
 0002:00001f3c       B7.EH                      1004ff3c f   Exporting:CIFXCLODModifierEncoder.obj
 0002:00001f74       B17.EH                     1004ff74 f   Exporting:CIFXCLODModifierEncoder.obj
 0002:00001f92       B2.EH                      1004ff92 f   Exporting:CIFXDummyModifierEncoder.obj
 0002:00001fb4       B7.EH                      1004ffb4 f   Exporting:CIFXDummyModifierEncoder.obj
 0002:00001fe2       B4.EH                      1004ffe2 f   Exporting:CIFXAuthorCLODEncoderX_S.obj
 0002:0000246a       B2.EH                      1005046a f   Exporting:CIFXAuthorCLODEncoderX_P.obj
 0002:0000248c       B6.EH                      1005048c f   Exporting:CIFXAuthorCLODEncoderX_P.obj
 0002:000024a8       B7.EH                      100504a8 f   Exporting:CIFXNodeBaseEncoder.obj
 0002:000024d2       B4.EH                      100504d2 f   Platform:IFXOSLoader.obj
