 IFXImporting

 Timestamp is 458c06a7 (Fri Dec 22 19:24:07 2006)

 Preferred load address is 10000000

 Start         Length     Name                   Class
 0001:00000000 0004e8a3H .text                   CODE
 0002:00000000 00003058H .text1                  CODE
 0003:00000000 000001b0H .idata$5                DATA
 0003:000001c0 0000cfacH .rdata                  DATA
 0003:0000d16c 00000044H .rdata$r                DATA
 0003:0000d1b0 00000004H .rtc$IAA                DATA
 0003:0000d1b4 00000004H .rtc$IZZ                DATA
 0003:0000d1b8 00000004H .rtc$TAA                DATA
 0003:0000d1bc 00000004H .rtc$TZZ                DATA
 0003:0000d1c0 00000064H .idata$2                DATA
 0003:0000d224 00000014H .idata$3                DATA
 0003:0000d238 000001b0H .idata$4                DATA
 0003:0000d3e8 000006bcH .idata$6                DATA
 0003:0000dab0 00000075H .edata                  DATA
 0004:00000000 00000004H .CRT$XCA                DATA
 0004:00000004 00000004H .CRT$XCAA               DATA
 0004:00000008 00000008H .CRT$XCU                DATA
 0004:00000010 00000004H .CRT$XCZ                DATA
 0004:00000014 00000004H .CRT$XIA                DATA
 0004:00000018 0000000cH .CRT$XIC                DATA
 0004:00000024 00000004H .CRT$XIY                DATA
 0004:00000028 00000004H .CRT$XIZ                DATA
 0004:0000002c 00000004H .CRT$XPA                DATA
 0004:00000030 00000004H .CRT$XPX                DATA
 0004:00000034 00000004H .CRT$XPZ                DATA
 0004:00000038 00000004H .CRT$XTA                DATA
 0004:0000003c 00000004H .CRT$XTB                DATA
 0004:00000040 00000004H .CRT$XTZ                DATA
 0004:00000060 000036b0H .data                   DATA
 0004:00003720 000023acH .bss                    DATA
 0005:00000000 00000ec8H _RDATA                  DATA
 0006:00000000 00000ff8H .data1                  DATA
 0007:00000000 00000118H .rsrc$01                DATA
 0007:00000120 00000d40H .rsrc$02                DATA

  Address         Publics by Value              Rva+Base     Lib:Object

 0000:00000000       ___safe_se_handler_count   00000000     <absolute>
 0000:00000000       __except_list              00000000     <absolute>
 0000:00000000       ___safe_se_handler_table   00000000     <absolute>
 0001:00000000       _DllMain@12                10001000 f   IFXImportingDllMain.obj
 0001:00000044       ?IFXImportingStartup@@YIHXZ 10001044 f   Importing:IFXImporting.obj
 0001:0000004c       ?IFXImportingShutdown@@YIHXZ 1000104c f   Importing:IFXImporting.obj
 0001:00000054       @IFXPluginRegister@8       10001054 f   Importing:IFXImporting.obj
 0001:00000072       @IFXPluginCanUnloadNow@0   10001072 f   Importing:IFXImporting.obj
 0001:00000084       ??_V@YAXPAX@Z              10001084 f   Importing:IFXCorePluginStatic.obj
 0001:00000090       ??3@YAXPAX@Z               10001090 f   Importing:IFXCorePluginStatic.obj
 0001:00000094       ??3.@YAXPAX@Z              10001094 f   Importing:IFXCorePluginStatic.obj
 0001:000000a8       ??_U@YAPAXI@Z              100010a8 f   Importing:IFXCorePluginStatic.obj
 0001:000000b4       ??2@YAPAXI@Z               100010b4 f   Importing:IFXCorePluginStatic.obj
 0001:000000b8       ??2.@YAPAXI@Z              100010b8 f   Importing:IFXCorePluginStatic.obj
 0001:000000cc       ??_GCIFXAuthorCLODDecoder@@EAEPAXI@Z 100010cc f i Importing:CIFXAuthorCLODDecoder.obj
 0001:000000cc       ??_ECIFXAuthorCLODDecoder@@EAEPAXI@Z 100010cc f i Importing:CIFXAuthorCLODDecoder.obj
 0001:000000f0       ??1CIFXAuthorCLODDecoder@@EAE@XZ 100010f0 f   Importing:CIFXAuthorCLODDecoder.obj
 0001:00000240       ?CIFXAuthorCLODDecoder_Factory@@YIHABUIFXGUID@@PAPAX@Z 10001240 f   Importing:CIFXAuthorCLODDecoder.obj
 0001:0000031a       ??0CIFXAuthorCLODDecoder@@AAE@XZ 1000131a f   Importing:CIFXAuthorCLODDecoder.obj
 0001:00000478       ?AddRef@CIFXAuthorCLODDecoder@@UAIIXZ 10001478 f   Importing:CIFXAuthorCLODDecoder.obj
 0001:00000488       ?Release@CIFXAuthorCLODDecoder@@UAIIXZ 10001488 f   Importing:CIFXAuthorCLODDecoder.obj
 0001:000004a6       ?QueryInterface@CIFXAuthorCLODDecoder@@UAIHABUIFXGUID@@PAPAX@Z 100014a6 f   Importing:CIFXAuthorCLODDecoder.obj
 0001:00000696       ?PutNextBlockX@CIFXAuthorCLODDecoder@@UAIXAAVIFXDataBlockX@@@Z 10001696 f   Importing:CIFXAuthorCLODDecoder.obj
 0001:00000776       ?TransferX@CIFXAuthorCLODDecoder@@UAIXAAH@Z 10001776 f   Importing:CIFXAuthorCLODDecoder.obj
 0001:00000cfc       ?ProcessAuthorCLODDeclarationBlockX@CIFXAuthorCLODDecoder@@AAEXI@Z 10001cfc f   Importing:CIFXAuthorCLODDecoder.obj
 0001:000019e4       ?InitializeX@CIFXAuthorCLODDecoder@@UAIXABUIFXLoadConfig@@@Z 100029e4 f   Importing:CIFXAuthorCLODDecoder.obj
 0001:00001a0c       ??_GIFXException@@UAEPAXI@Z 10002a0c f i Importing:CIFXAuthorCLODDecoder.obj
 0001:00001a0c       ??_EIFXException@@UAEPAXI@Z 10002a0c f i Importing:CIFXAuthorCLODDecoder.obj
 0001:00001a7c       ??0IFXBoneInfo@@QAE@XZ     10002a7c f i Importing:CIFXAuthorCLODDecoder.obj
 0001:00001b88       ??1IFXBoneInfo@@QAE@XZ     10002b88 f i Importing:CIFXAuthorCLODDecoder.obj
 0001:00001bec       ??0IFXException@@QAE@ABV0@@Z 10002bec f i Importing:CIFXAuthorCLODDecoder.obj
 0001:00001c64       ??1IFXException@@UAE@XZ    10002c64 f i Importing:CIFXAuthorCLODDecoder.obj
 0001:00001cb8       ?AddRef@CIFXAuthorCLODDecoder@@$4PPPPPPPM@A@AIIXZ 10002cb8 f i Importing:CIFXAuthorCLODDecoder.obj
 0001:00001cc4       ?Release@CIFXAuthorCLODDecoder@@$4PPPPPPPM@A@AIIXZ 10002cc4 f i Importing:CIFXAuthorCLODDecoder.obj
 0001:00001cd0       ?QueryInterface@CIFXAuthorCLODDecoder@@$4PPPPPPPM@A@AIHABUIFXGUID@@PAPAX@Z 10002cd0 f i Importing:CIFXAuthorCLODDecoder.obj
 0001:00001cdc       ?PutNextBlockX@CIFXAuthorCLODDecoder@@$4PPPPPPPM@A@AIXAAVIFXDataBlockX@@@Z 10002cdc f i Importing:CIFXAuthorCLODDecoder.obj
 0001:00001ce8       ?TransferX@CIFXAuthorCLODDecoder@@$4PPPPPPPM@A@AIXAAH@Z 10002ce8 f i Importing:CIFXAuthorCLODDecoder.obj
 0001:00001cf4       ?InitializeX@CIFXAuthorCLODDecoder@@$4PPPPPPPM@A@AIXABUIFXLoadConfig@@@Z 10002cf4 f i Importing:CIFXAuthorCLODDecoder.obj
 0001:00001d00       ??_GCIFXGroupDecoder@@EAEPAXI@Z 10002d00 f i Importing:CIFXGroupDecoder.obj
 0001:00001d00       ??_ECIFXGroupDecoder@@EAEPAXI@Z 10002d00 f i Importing:CIFXGroupDecoder.obj
 0001:00001d24       ??1CIFXGroupDecoder@@EAE@XZ 10002d24 f   Importing:CIFXGroupDecoder.obj
 0001:00001d92       ?CIFXGroupDecoder_Factory@@YIHABUIFXGUID@@PAPAX@Z 10002d92 f   Importing:CIFXGroupDecoder.obj
 0001:00001eca       ?AddRef@CIFXGroupDecoder@@UAIIXZ 10002eca f   Importing:CIFXGroupDecoder.obj
 0001:00001ed4       ?Release@CIFXGroupDecoder@@UAIIXZ 10002ed4 f   Importing:CIFXGroupDecoder.obj
 0001:00001ef0       ?QueryInterface@CIFXGroupDecoder@@UAIHABUIFXGUID@@PAPAX@Z 10002ef0 f   Importing:CIFXGroupDecoder.obj
 0001:000020c8       ?PutNextBlockX@CIFXGroupDecoder@@UAIXAAVIFXDataBlockX@@@Z 100030c8 f   Importing:CIFXGroupDecoder.obj
 0001:00002120       ?TransferX@CIFXGroupDecoder@@UAIXAAH@Z 10003120 f   Importing:CIFXGroupDecoder.obj
 0001:000021e2       ??0CIFXGroupDecoder@@AAE@XZ 100031e2 f   Importing:CIFXGroupDecoder.obj
 0001:0000225e       ?InitializeX@CIFXGroupDecoder@@UAIXABUIFXLoadConfig@@@Z 1000325e f   Importing:CIFXGroupDecoder.obj
 0001:00002268       ?AddRef@CIFXGroupDecoder@@$4PPPPPPPM@A@AIIXZ 10003268 f i Importing:CIFXGroupDecoder.obj
 0001:00002274       ?Release@CIFXGroupDecoder@@$4PPPPPPPM@A@AIIXZ 10003274 f i Importing:CIFXGroupDecoder.obj
 0001:00002280       ?QueryInterface@CIFXGroupDecoder@@$4PPPPPPPM@A@AIHABUIFXGUID@@PAPAX@Z 10003280 f i Importing:CIFXGroupDecoder.obj
 0001:0000228c       ?PutNextBlockX@CIFXGroupDecoder@@$4PPPPPPPM@A@AIXAAVIFXDataBlockX@@@Z 1000328c f i Importing:CIFXGroupDecoder.obj
 0001:00002298       ?TransferX@CIFXGroupDecoder@@$4PPPPPPPM@A@AIXAAH@Z 10003298 f i Importing:CIFXGroupDecoder.obj
 0001:000022a4       ?InitializeX@CIFXGroupDecoder@@$4PPPPPPPM@A@AIXABUIFXLoadConfig@@@Z 100032a4 f i Importing:CIFXGroupDecoder.obj
 0001:000022b0       ??_GCIFXLightDecoder@@EAEPAXI@Z 100032b0 f i Importing:CIFXLightDecoder.obj
 0001:000022b0       ??_ECIFXLightDecoder@@EAEPAXI@Z 100032b0 f i Importing:CIFXLightDecoder.obj
 0001:000022d4       ??1CIFXLightDecoder@@EAE@XZ 100032d4 f   Importing:CIFXLightDecoder.obj
 0001:00002342       ?CIFXLightDecoder_Factory@@YIHABUIFXGUID@@PAPAX@Z 10003342 f   Importing:CIFXLightDecoder.obj
 0001:0000247a       ?AddRef@CIFXLightDecoder@@UAIIXZ 1000347a f   Importing:CIFXLightDecoder.obj
 0001:00002484       ?Release@CIFXLightDecoder@@UAIIXZ 10003484 f   Importing:CIFXLightDecoder.obj
 0001:000024a0       ?QueryInterface@CIFXLightDecoder@@UAIHABUIFXGUID@@PAPAX@Z 100034a0 f   Importing:CIFXLightDecoder.obj
 0001:00002678       ?PutNextBlockX@CIFXLightDecoder@@UAIXAAVIFXDataBlockX@@@Z 10003678 f   Importing:CIFXLightDecoder.obj
 0001:000026d0       ?TransferX@CIFXLightDecoder@@UAIXAAH@Z 100036d0 f   Importing:CIFXLightDecoder.obj
 0001:00003068       ??0CIFXLightDecoder@@AAE@XZ 10004068 f   Importing:CIFXLightDecoder.obj
 0001:000030e4       ?InitializeX@CIFXLightDecoder@@UAIXABUIFXLoadConfig@@@Z 100040e4 f   Importing:CIFXLightDecoder.obj
 0001:000030f0       ?AddRef@CIFXLightDecoder@@$4PPPPPPPM@A@AIIXZ 100040f0 f i Importing:CIFXLightDecoder.obj
 0001:000030fc       ?Release@CIFXLightDecoder@@$4PPPPPPPM@A@AIIXZ 100040fc f i Importing:CIFXLightDecoder.obj
 0001:00003108       ?QueryInterface@CIFXLightDecoder@@$4PPPPPPPM@A@AIHABUIFXGUID@@PAPAX@Z 10004108 f i Importing:CIFXLightDecoder.obj
 0001:00003114       ?PutNextBlockX@CIFXLightDecoder@@$4PPPPPPPM@A@AIXAAVIFXDataBlockX@@@Z 10004114 f i Importing:CIFXLightDecoder.obj
 0001:00003120       ?TransferX@CIFXLightDecoder@@$4PPPPPPPM@A@AIXAAH@Z 10004120 f i Importing:CIFXLightDecoder.obj
 0001:0000312c       ?InitializeX@CIFXLightDecoder@@$4PPPPPPPM@A@AIXABUIFXLoadConfig@@@Z 1000412c f i Importing:CIFXLightDecoder.obj
 0001:00003138       ??_ECIFXLightResourceDecoder@@EAEPAXI@Z 10004138 f i Importing:CIFXLightResourceDecoder.obj
 0001:00003138       ??_GCIFXLightResourceDecoder@@EAEPAXI@Z 10004138 f i Importing:CIFXLightResourceDecoder.obj
 0001:0000315c       ??1CIFXLightResourceDecoder@@EAE@XZ 1000415c f   Importing:CIFXLightResourceDecoder.obj
 0001:000031f6       ?CIFXLightResourceDecoder_Factory@@YIHABUIFXGUID@@PAPAX@Z 100041f6 f   Importing:CIFXLightResourceDecoder.obj
 0001:00003330       ?AddRef@CIFXLightResourceDecoder@@UAIIXZ 10004330 f   Importing:CIFXLightResourceDecoder.obj
 0001:0000333a       ?Release@CIFXLightResourceDecoder@@UAIIXZ 1000433a f   Importing:CIFXLightResourceDecoder.obj
 0001:00003356       ?QueryInterface@CIFXLightResourceDecoder@@UAIHABUIFXGUID@@PAPAX@Z 10004356 f   Importing:CIFXLightResourceDecoder.obj
 0001:0000352e       ?PutNextBlockX@CIFXLightResourceDecoder@@UAIXAAVIFXDataBlockX@@@Z 1000452e f   Importing:CIFXLightResourceDecoder.obj
 0001:00003b4e       ?TransferX@CIFXLightResourceDecoder@@UAIXAAH@Z 10004b4e f   Importing:CIFXLightResourceDecoder.obj
 0001:00003e9a       ??0CIFXLightResourceDecoder@@AAE@XZ 10004e9a f   Importing:CIFXLightResourceDecoder.obj
 0001:00003f1e       ?InitializeX@CIFXLightResourceDecoder@@UAIXABUIFXLoadConfig@@@Z 10004f1e f   Importing:CIFXLightResourceDecoder.obj
 0001:00003f28       ?AddRef@CIFXLightResourceDecoder@@$4PPPPPPPM@A@AIIXZ 10004f28 f i Importing:CIFXLightResourceDecoder.obj
 0001:00003f34       ?Release@CIFXLightResourceDecoder@@$4PPPPPPPM@A@AIIXZ 10004f34 f i Importing:CIFXLightResourceDecoder.obj
 0001:00003f40       ?QueryInterface@CIFXLightResourceDecoder@@$4PPPPPPPM@A@AIHABUIFXGUID@@PAPAX@Z 10004f40 f i Importing:CIFXLightResourceDecoder.obj
 0001:00003f4c       ?PutNextBlockX@CIFXLightResourceDecoder@@$4PPPPPPPM@A@AIXAAVIFXDataBlockX@@@Z 10004f4c f i Importing:CIFXLightResourceDecoder.obj
 0001:00003f58       ?TransferX@CIFXLightResourceDecoder@@$4PPPPPPPM@A@AIXAAH@Z 10004f58 f i Importing:CIFXLightResourceDecoder.obj
 0001:00003f64       ?InitializeX@CIFXLightResourceDecoder@@$4PPPPPPPM@A@AIXABUIFXLoadConfig@@@Z 10004f64 f i Importing:CIFXLightResourceDecoder.obj
 0001:00003f70       ??_GCIFXViewResourceDecoder@@EAEPAXI@Z 10004f70 f i Importing:CIFXViewResourceDecoder.obj
 0001:00003f70       ??_ECIFXViewResourceDecoder@@EAEPAXI@Z 10004f70 f i Importing:CIFXViewResourceDecoder.obj
 0001:00003f94       ??1CIFXViewResourceDecoder@@EAE@XZ 10004f94 f   Importing:CIFXViewResourceDecoder.obj
 0001:00004042       ?CIFXViewResourceDecoder_Factory@@YIHABUIFXGUID@@PAPAX@Z 10005042 f   Importing:CIFXViewResourceDecoder.obj
 0001:0000418a       ?AddRef@CIFXViewResourceDecoder@@UAIIXZ 1000518a f   Importing:CIFXViewResourceDecoder.obj
 0001:00004194       ?Release@CIFXViewResourceDecoder@@UAIIXZ 10005194 f   Importing:CIFXViewResourceDecoder.obj
 0001:000041b0       ?QueryInterface@CIFXViewResourceDecoder@@UAIHABUIFXGUID@@PAPAX@Z 100051b0 f   Importing:CIFXViewResourceDecoder.obj
 0001:00004388       ?PutNextBlockX@CIFXViewResourceDecoder@@UAIXAAVIFXDataBlockX@@@Z 10005388 f   Importing:CIFXViewResourceDecoder.obj
 0001:000049a8       ?TransferX@CIFXViewResourceDecoder@@UAIXAAH@Z 100059a8 f   Importing:CIFXViewResourceDecoder.obj
 0001:00004aa6       ?LoadViewResourceBlockX@CIFXViewResourceDecoder@@AAEXAAVIFXDataBlockX@@@Z 10005aa6 f   Importing:CIFXViewResourceDecoder.obj
 0001:00005316       ??0CIFXViewResourceDecoder@@AAE@XZ 10006316 f   Importing:CIFXViewResourceDecoder.obj
 0001:000053a4       ?InitializeX@CIFXViewResourceDecoder@@UAIXABUIFXLoadConfig@@@Z 100063a4 f   Importing:CIFXViewResourceDecoder.obj
 0001:000053c4       ?AddRef@CIFXViewResourceDecoder@@$4PPPPPPPM@A@AIIXZ 100063c4 f i Importing:CIFXViewResourceDecoder.obj
 0001:000053d0       ?Release@CIFXViewResourceDecoder@@$4PPPPPPPM@A@AIIXZ 100063d0 f i Importing:CIFXViewResourceDecoder.obj
 0001:000053dc       ?QueryInterface@CIFXViewResourceDecoder@@$4PPPPPPPM@A@AIHABUIFXGUID@@PAPAX@Z 100063dc f i Importing:CIFXViewResourceDecoder.obj
 0001:000053e8       ?PutNextBlockX@CIFXViewResourceDecoder@@$4PPPPPPPM@A@AIXAAVIFXDataBlockX@@@Z 100063e8 f i Importing:CIFXViewResourceDecoder.obj
 0001:000053f4       ?TransferX@CIFXViewResourceDecoder@@$4PPPPPPPM@A@AIXAAH@Z 100063f4 f i Importing:CIFXViewResourceDecoder.obj
 0001:00005400       ?InitializeX@CIFXViewResourceDecoder@@$4PPPPPPPM@A@AIXABUIFXLoadConfig@@@Z 10006400 f i Importing:CIFXViewResourceDecoder.obj
 0001:0000540c       ??_ECIFXMaterialDecoder@@EAEPAXI@Z 1000640c f i Importing:CIFXMaterialDecoder.obj
 0001:0000540c       ??_GCIFXMaterialDecoder@@EAEPAXI@Z 1000640c f i Importing:CIFXMaterialDecoder.obj
 0001:00005430       ??1CIFXMaterialDecoder@@EAE@XZ 10006430 f   Importing:CIFXMaterialDecoder.obj
 0001:00005518       ?CIFXMaterialDecoder_Factory@@YIHABUIFXGUID@@PAPAX@Z 10006518 f   Importing:CIFXMaterialDecoder.obj
 0001:00005660       ?AddRef@CIFXMaterialDecoder@@UAIIXZ 10006660 f   Importing:CIFXMaterialDecoder.obj
 0001:0000566a       ?Release@CIFXMaterialDecoder@@UAIIXZ 1000666a f   Importing:CIFXMaterialDecoder.obj
 0001:00005686       ?QueryInterface@CIFXMaterialDecoder@@UAIHABUIFXGUID@@PAPAX@Z 10006686 f   Importing:CIFXMaterialDecoder.obj
 0001:0000585e       ?PutNextBlockX@CIFXMaterialDecoder@@UAIXAAVIFXDataBlockX@@@Z 1000685e f   Importing:CIFXMaterialDecoder.obj
 0001:00005ddc       ?TransferX@CIFXMaterialDecoder@@UAIXAAH@Z 10006ddc f   Importing:CIFXMaterialDecoder.obj
 0001:00005efa       ?ProcessMaterialBlockX@CIFXMaterialDecoder@@AAEXAAVIFXDataBlockX@@@Z 10006efa f   Importing:CIFXMaterialDecoder.obj
 0001:000063fe       ??0CIFXMaterialDecoder@@AAE@XZ 100073fe f   Importing:CIFXMaterialDecoder.obj
 0001:0000648e       ?InitializeX@CIFXMaterialDecoder@@UAIXABUIFXLoadConfig@@@Z 1000748e f   Importing:CIFXMaterialDecoder.obj
 0001:0000651c       ?AddRef@CIFXMaterialDecoder@@$4PPPPPPPM@A@AIIXZ 1000751c f i Importing:CIFXMaterialDecoder.obj
 0001:00006528       ?Release@CIFXMaterialDecoder@@$4PPPPPPPM@A@AIIXZ 10007528 f i Importing:CIFXMaterialDecoder.obj
 0001:00006534       ?QueryInterface@CIFXMaterialDecoder@@$4PPPPPPPM@A@AIHABUIFXGUID@@PAPAX@Z 10007534 f i Importing:CIFXMaterialDecoder.obj
 0001:00006540       ?PutNextBlockX@CIFXMaterialDecoder@@$4PPPPPPPM@A@AIXAAVIFXDataBlockX@@@Z 10007540 f i Importing:CIFXMaterialDecoder.obj
 0001:0000654c       ?TransferX@CIFXMaterialDecoder@@$4PPPPPPPM@A@AIXAAH@Z 1000754c f i Importing:CIFXMaterialDecoder.obj
 0001:00006558       ?InitializeX@CIFXMaterialDecoder@@$4PPPPPPPM@A@AIXABUIFXLoadConfig@@@Z 10007558 f i Importing:CIFXMaterialDecoder.obj
 0001:00006564       ??_ECIFXModelDecoder@@EAEPAXI@Z 10007564 f i Importing:CIFXModelDecoder.obj
 0001:00006564       ??_GCIFXModelDecoder@@EAEPAXI@Z 10007564 f i Importing:CIFXModelDecoder.obj
 0001:00006588       ??1CIFXModelDecoder@@EAE@XZ 10007588 f   Importing:CIFXModelDecoder.obj
 0001:000065f6       ?CIFXModelDecoder_Factory@@YIHABUIFXGUID@@PAPAX@Z 100075f6 f   Importing:CIFXModelDecoder.obj
 0001:0000672e       ?AddRef@CIFXModelDecoder@@UAIIXZ 1000772e f   Importing:CIFXModelDecoder.obj
 0001:00006738       ?Release@CIFXModelDecoder@@UAIIXZ 10007738 f   Importing:CIFXModelDecoder.obj
 0001:00006754       ?QueryInterface@CIFXModelDecoder@@UAIHABUIFXGUID@@PAPAX@Z 10007754 f   Importing:CIFXModelDecoder.obj
 0001:0000692c       ?PutNextBlockX@CIFXModelDecoder@@UAIXAAVIFXDataBlockX@@@Z 1000792c f   Importing:CIFXModelDecoder.obj
 0001:00006984       ?TransferX@CIFXModelDecoder@@UAIXAAH@Z 10007984 f   Importing:CIFXModelDecoder.obj
 0001:00006dcc       ??0CIFXModelDecoder@@AAE@XZ 10007dcc f   Importing:CIFXModelDecoder.obj
 0001:00006e48       ?InitializeX@CIFXModelDecoder@@UAIXABUIFXLoadConfig@@@Z 10007e48 f   Importing:CIFXModelDecoder.obj
 0001:00006e54       ?AddRef@CIFXModelDecoder@@$4PPPPPPPM@A@AIIXZ 10007e54 f i Importing:CIFXModelDecoder.obj
 0001:00006e60       ?Release@CIFXModelDecoder@@$4PPPPPPPM@A@AIIXZ 10007e60 f i Importing:CIFXModelDecoder.obj
 0001:00006e6c       ?QueryInterface@CIFXModelDecoder@@$4PPPPPPPM@A@AIHABUIFXGUID@@PAPAX@Z 10007e6c f i Importing:CIFXModelDecoder.obj
 0001:00006e78       ?PutNextBlockX@CIFXModelDecoder@@$4PPPPPPPM@A@AIXAAVIFXDataBlockX@@@Z 10007e78 f i Importing:CIFXModelDecoder.obj
 0001:00006e84       ?TransferX@CIFXModelDecoder@@$4PPPPPPPM@A@AIXAAH@Z 10007e84 f i Importing:CIFXModelDecoder.obj
 0001:00006e90       ?InitializeX@CIFXModelDecoder@@$4PPPPPPPM@A@AIXABUIFXLoadConfig@@@Z 10007e90 f i Importing:CIFXModelDecoder.obj
 0001:00006e9c       ??_ECIFXAnimationModifierDecoder@@EAEPAXI@Z 10007e9c f i Importing:CIFXAnimationModifierDecoder.obj
 0001:00006e9c       ??_GCIFXAnimationModifierDecoder@@EAEPAXI@Z 10007e9c f i Importing:CIFXAnimationModifierDecoder.obj
 0001:00006ec0       ??1CIFXAnimationModifierDecoder@@EAE@XZ 10007ec0 f   Importing:CIFXAnimationModifierDecoder.obj
 0001:00006f6e       ?CIFXAnimationModifierDecoder_Factory@@YIHABUIFXGUID@@PAPAX@Z 10007f6e f   Importing:CIFXAnimationModifierDecoder.obj
 0001:000070b6       ?AddRef@CIFXAnimationModifierDecoder@@UAIIXZ 100080b6 f   Importing:CIFXAnimationModifierDecoder.obj
 0001:000070c0       ?Release@CIFXAnimationModifierDecoder@@UAIIXZ 100080c0 f   Importing:CIFXAnimationModifierDecoder.obj
 0001:000070dc       ?QueryInterface@CIFXAnimationModifierDecoder@@UAIHABUIFXGUID@@PAPAX@Z 100080dc f   Importing:CIFXAnimationModifierDecoder.obj
 0001:000072b4       ?PutNextBlockX@CIFXAnimationModifierDecoder@@UAIXAAVIFXDataBlockX@@@Z 100082b4 f   Importing:CIFXAnimationModifierDecoder.obj
 0001:0000773a       ?TransferX@CIFXAnimationModifierDecoder@@UAIXAAH@Z 1000873a f   Importing:CIFXAnimationModifierDecoder.obj
 0001:00007ec8       ??0CIFXAnimationModifierDecoder@@AAE@XZ 10008ec8 f   Importing:CIFXAnimationModifierDecoder.obj
 0001:00007f56       ?InitializeX@CIFXAnimationModifierDecoder@@UAIXABUIFXLoadConfig@@@Z 10008f56 f   Importing:CIFXAnimationModifierDecoder.obj
 0001:00007f78       ?AddRef@CIFXAnimationModifierDecoder@@$4PPPPPPPM@A@AIIXZ 10008f78 f i Importing:CIFXAnimationModifierDecoder.obj
 0001:00007f84       ?Release@CIFXAnimationModifierDecoder@@$4PPPPPPPM@A@AIIXZ 10008f84 f i Importing:CIFXAnimationModifierDecoder.obj
 0001:00007f90       ?QueryInterface@CIFXAnimationModifierDecoder@@$4PPPPPPPM@A@AIHABUIFXGUID@@PAPAX@Z 10008f90 f i Importing:CIFXAnimationModifierDecoder.obj
 0001:00007f9c       ?PutNextBlockX@CIFXAnimationModifierDecoder@@$4PPPPPPPM@A@AIXAAVIFXDataBlockX@@@Z 10008f9c f i Importing:CIFXAnimationModifierDecoder.obj
 0001:00007fa8       ?TransferX@CIFXAnimationModifierDecoder@@$4PPPPPPPM@A@AIXAAH@Z 10008fa8 f i Importing:CIFXAnimationModifierDecoder.obj
 0001:00007fb4       ?InitializeX@CIFXAnimationModifierDecoder@@$4PPPPPPPM@A@AIXABUIFXLoadConfig@@@Z 10008fb4 f i Importing:CIFXAnimationModifierDecoder.obj
 0001:00007fc0       ??_ECIFXMotionDecoder@@EAEPAXI@Z 10008fc0 f i Importing:CIFXMotionDecoder.obj
 0001:00007fc0       ??_GCIFXMotionDecoder@@EAEPAXI@Z 10008fc0 f i Importing:CIFXMotionDecoder.obj
 0001:00007fe4       ??1CIFXMotionDecoder@@EAE@XZ 10008fe4 f   Importing:CIFXMotionDecoder.obj
 0001:000080be       ?CIFXMotionDecoder_Factory@@YIHABUIFXGUID@@PAPAX@Z 100090be f   Importing:CIFXMotionDecoder.obj
 0001:00008206       ?AddRef@CIFXMotionDecoder@@UAIIXZ 10009206 f   Importing:CIFXMotionDecoder.obj
 0001:00008210       ?Release@CIFXMotionDecoder@@UAIIXZ 10009210 f   Importing:CIFXMotionDecoder.obj
 0001:0000822c       ?QueryInterface@CIFXMotionDecoder@@UAIHABUIFXGUID@@PAPAX@Z 1000922c f   Importing:CIFXMotionDecoder.obj
 0001:00008404       ?PutNextBlockX@CIFXMotionDecoder@@UAIXAAVIFXDataBlockX@@@Z 10009404 f   Importing:CIFXMotionDecoder.obj
 0001:00008940       ?TransferX@CIFXMotionDecoder@@UAIXAAH@Z 10009940 f   Importing:CIFXMotionDecoder.obj
 0001:00008a78       ?ProcessMotionCompressedX@CIFXMotionDecoder@@AAEXAAVIFXDataBlockX@@@Z 10009a78 f   Importing:CIFXMotionDecoder.obj
 0001:0000a026       ??0CIFXMotionDecoder@@AAE@XZ 1000b026 f   Importing:CIFXMotionDecoder.obj
 0001:0000a0b6       ?InitializeX@CIFXMotionDecoder@@UAIXABUIFXLoadConfig@@@Z 1000b0b6 f   Importing:CIFXMotionDecoder.obj
 0001:0000a144       ?AddRef@CIFXMotionDecoder@@$4PPPPPPPM@A@AIIXZ 1000b144 f i Importing:CIFXMotionDecoder.obj
 0001:0000a150       ?Release@CIFXMotionDecoder@@$4PPPPPPPM@A@AIIXZ 1000b150 f i Importing:CIFXMotionDecoder.obj
 0001:0000a15c       ?QueryInterface@CIFXMotionDecoder@@$4PPPPPPPM@A@AIHABUIFXGUID@@PAPAX@Z 1000b15c f i Importing:CIFXMotionDecoder.obj
 0001:0000a168       ?PutNextBlockX@CIFXMotionDecoder@@$4PPPPPPPM@A@AIXAAVIFXDataBlockX@@@Z 1000b168 f i Importing:CIFXMotionDecoder.obj
 0001:0000a174       ?TransferX@CIFXMotionDecoder@@$4PPPPPPPM@A@AIXAAH@Z 1000b174 f i Importing:CIFXMotionDecoder.obj
 0001:0000a180       ?InitializeX@CIFXMotionDecoder@@$4PPPPPPPM@A@AIXABUIFXLoadConfig@@@Z 1000b180 f i Importing:CIFXMotionDecoder.obj
 0001:0000a18c       ??_ECIFXGlyphGeneratorDecoder@@EAEPAXI@Z 1000b18c f i Importing:CIFXGlyphModifierDecoder.obj
 0001:0000a18c       ??_GCIFXGlyphGeneratorDecoder@@EAEPAXI@Z 1000b18c f i Importing:CIFXGlyphModifierDecoder.obj
 0001:0000a1b0       ??1CIFXGlyphGeneratorDecoder@@EAE@XZ 1000b1b0 f   Importing:CIFXGlyphModifierDecoder.obj
 0001:0000a21e       ?CIFXGlyphGeneratorDecoder_Factory@@YIHABUIFXGUID@@PAPAX@Z 1000b21e f   Importing:CIFXGlyphModifierDecoder.obj
 0001:0000a360       ?AddRef@CIFXGlyphGeneratorDecoder@@UAIIXZ 1000b360 f   Importing:CIFXGlyphModifierDecoder.obj
 0001:0000a36a       ?Release@CIFXGlyphGeneratorDecoder@@UAIIXZ 1000b36a f   Importing:CIFXGlyphModifierDecoder.obj
 0001:0000a386       ?QueryInterface@CIFXGlyphGeneratorDecoder@@UAIHABUIFXGUID@@PAPAX@Z 1000b386 f   Importing:CIFXGlyphModifierDecoder.obj
 0001:0000a55e       ?PutNextBlockX@CIFXGlyphGeneratorDecoder@@UAIXAAVIFXDataBlockX@@@Z 1000b55e f   Importing:CIFXGlyphModifierDecoder.obj
 0001:0000a5b6       ?TransferX@CIFXGlyphGeneratorDecoder@@UAIXAAH@Z 1000b5b6 f   Importing:CIFXGlyphModifierDecoder.obj
 0001:0000a6d4       ?ProcessGlyph2DBlockX@CIFXGlyphGeneratorDecoder@@AAEXAAVIFXDataBlockX@@@Z 1000b6d4 f   Importing:CIFXGlyphModifierDecoder.obj
 0001:0000aea4       ??0CIFXGlyphGeneratorDecoder@@AAE@XZ 1000bea4 f   Importing:CIFXGlyphModifierDecoder.obj
 0001:0000af26       ?InitializeX@CIFXGlyphGeneratorDecoder@@UAIXABUIFXLoadConfig@@@Z 1000bf26 f   Importing:CIFXGlyphModifierDecoder.obj
 0001:0000af48       ?AddRef@CIFXGlyphGeneratorDecoder@@$4PPPPPPPM@A@AIIXZ 1000bf48 f i Importing:CIFXGlyphModifierDecoder.obj
 0001:0000af54       ?Release@CIFXGlyphGeneratorDecoder@@$4PPPPPPPM@A@AIIXZ 1000bf54 f i Importing:CIFXGlyphModifierDecoder.obj
 0001:0000af60       ?QueryInterface@CIFXGlyphGeneratorDecoder@@$4PPPPPPPM@A@AIHABUIFXGUID@@PAPAX@Z 1000bf60 f i Importing:CIFXGlyphModifierDecoder.obj
 0001:0000af6c       ?PutNextBlockX@CIFXGlyphGeneratorDecoder@@$4PPPPPPPM@A@AIXAAVIFXDataBlockX@@@Z 1000bf6c f i Importing:CIFXGlyphModifierDecoder.obj
 0001:0000af78       ?TransferX@CIFXGlyphGeneratorDecoder@@$4PPPPPPPM@A@AIXAAH@Z 1000bf78 f i Importing:CIFXGlyphModifierDecoder.obj
 0001:0000af84       ?InitializeX@CIFXGlyphGeneratorDecoder@@$4PPPPPPPM@A@AIXABUIFXLoadConfig@@@Z 1000bf84 f i Importing:CIFXGlyphModifierDecoder.obj
 0001:0000af90       ??_GCIFXShaderLitTextureDecoder@@EAEPAXI@Z 1000bf90 f i Importing:CIFXShaderLitTextureDecoder.obj
 0001:0000af90       ??_ECIFXShaderLitTextureDecoder@@EAEPAXI@Z 1000bf90 f i Importing:CIFXShaderLitTextureDecoder.obj
 0001:0000afb4       ??1CIFXShaderLitTextureDecoder@@EAE@XZ 1000bfb4 f   Importing:CIFXShaderLitTextureDecoder.obj
 0001:0000b0c4       ?CIFXShaderLitTextureDecoder_Factory@@YIHABUIFXGUID@@PAPAX@Z 1000c0c4 f   Importing:CIFXShaderLitTextureDecoder.obj
 0001:0000b218       ?AddRef@CIFXShaderLitTextureDecoder@@UAIIXZ 1000c218 f   Importing:CIFXShaderLitTextureDecoder.obj
 0001:0000b222       ?Release@CIFXShaderLitTextureDecoder@@UAIIXZ 1000c222 f   Importing:CIFXShaderLitTextureDecoder.obj
 0001:0000b23e       ?QueryInterface@CIFXShaderLitTextureDecoder@@UAIHABUIFXGUID@@PAPAX@Z 1000c23e f   Importing:CIFXShaderLitTextureDecoder.obj
 0001:0000b416       ?PutNextBlockX@CIFXShaderLitTextureDecoder@@UAIXAAVIFXDataBlockX@@@Z 1000c416 f   Importing:CIFXShaderLitTextureDecoder.obj
 0001:0000b9a2       ?TransferX@CIFXShaderLitTextureDecoder@@UAIXAAH@Z 1000c9a2 f   Importing:CIFXShaderLitTextureDecoder.obj
 0001:0000bae6       ?DecodeShaderLitTextureU3DX@CIFXShaderLitTextureDecoder@@AAEXAAVIFXDataBlockX@@@Z 1000cae6 f   Importing:CIFXShaderLitTextureDecoder.obj
 0001:0000c648       ??0CIFXShaderLitTextureDecoder@@AAE@XZ 1000d648 f   Importing:CIFXShaderLitTextureDecoder.obj
 0001:0000c6e2       ?InitializeX@CIFXShaderLitTextureDecoder@@UAIXABUIFXLoadConfig@@@Z 1000d6e2 f   Importing:CIFXShaderLitTextureDecoder.obj
 0001:0000c770       ?AddRef@CIFXShaderLitTextureDecoder@@$4PPPPPPPM@A@AIIXZ 1000d770 f i Importing:CIFXShaderLitTextureDecoder.obj
 0001:0000c77c       ?Release@CIFXShaderLitTextureDecoder@@$4PPPPPPPM@A@AIIXZ 1000d77c f i Importing:CIFXShaderLitTextureDecoder.obj
 0001:0000c788       ?QueryInterface@CIFXShaderLitTextureDecoder@@$4PPPPPPPM@A@AIHABUIFXGUID@@PAPAX@Z 1000d788 f i Importing:CIFXShaderLitTextureDecoder.obj
 0001:0000c794       ?PutNextBlockX@CIFXShaderLitTextureDecoder@@$4PPPPPPPM@A@AIXAAVIFXDataBlockX@@@Z 1000d794 f i Importing:CIFXShaderLitTextureDecoder.obj
 0001:0000c7a0       ?TransferX@CIFXShaderLitTextureDecoder@@$4PPPPPPPM@A@AIXAAH@Z 1000d7a0 f i Importing:CIFXShaderLitTextureDecoder.obj
 0001:0000c7ac       ?InitializeX@CIFXShaderLitTextureDecoder@@$4PPPPPPPM@A@AIXABUIFXLoadConfig@@@Z 1000d7ac f i Importing:CIFXShaderLitTextureDecoder.obj
 0001:0000c7b8       ??_ECIFXTextureDecoder@@EAEPAXI@Z 1000d7b8 f i Importing:CIFXTextureDecoder.obj
 0001:0000c7b8       ??_GCIFXTextureDecoder@@EAEPAXI@Z 1000d7b8 f i Importing:CIFXTextureDecoder.obj
 0001:0000c7dc       ??1CIFXTextureDecoder@@EAE@XZ 1000d7dc f   Importing:CIFXTextureDecoder.obj
 0001:0000c89c       ?CIFXTextureDecoder_Factory@@YIHABUIFXGUID@@PAPAX@Z 1000d89c f   Importing:CIFXTextureDecoder.obj
 0001:0000c9dc       ?AddRef@CIFXTextureDecoder@@UAIIXZ 1000d9dc f   Importing:CIFXTextureDecoder.obj
 0001:0000c9e6       ?Release@CIFXTextureDecoder@@UAIIXZ 1000d9e6 f   Importing:CIFXTextureDecoder.obj
 0001:0000ca02       ?QueryInterface@CIFXTextureDecoder@@UAIHABUIFXGUID@@PAPAX@Z 1000da02 f   Importing:CIFXTextureDecoder.obj
 0001:0000cbda       ?PutNextBlockX@CIFXTextureDecoder@@UAIXAAVIFXDataBlockX@@@Z 1000dbda f   Importing:CIFXTextureDecoder.obj
 0001:0000d128       ?TransferX@CIFXTextureDecoder@@UAIXAAH@Z 1000e128 f   Importing:CIFXTextureDecoder.obj
 0001:0000d170       ??0CIFXTextureDecoder@@AAE@XZ 1000e170 f   Importing:CIFXTextureDecoder.obj
 0001:0000d1f8       ?InitializeX@CIFXTextureDecoder@@UAIXABUIFXLoadConfig@@@Z 1000e1f8 f   Importing:CIFXTextureDecoder.obj
 0001:0000d22c       ?AddRef@CIFXTextureDecoder@@$4PPPPPPPM@A@AIIXZ 1000e22c f i Importing:CIFXTextureDecoder.obj
 0001:0000d238       ?Release@CIFXTextureDecoder@@$4PPPPPPPM@A@AIIXZ 1000e238 f i Importing:CIFXTextureDecoder.obj
 0001:0000d244       ?QueryInterface@CIFXTextureDecoder@@$4PPPPPPPM@A@AIHABUIFXGUID@@PAPAX@Z 1000e244 f i Importing:CIFXTextureDecoder.obj
 0001:0000d250       ?PutNextBlockX@CIFXTextureDecoder@@$4PPPPPPPM@A@AIXAAVIFXDataBlockX@@@Z 1000e250 f i Importing:CIFXTextureDecoder.obj
 0001:0000d25c       ?TransferX@CIFXTextureDecoder@@$4PPPPPPPM@A@AIXAAH@Z 1000e25c f i Importing:CIFXTextureDecoder.obj
 0001:0000d268       ?InitializeX@CIFXTextureDecoder@@$4PPPPPPPM@A@AIXABUIFXLoadConfig@@@Z 1000e268 f i Importing:CIFXTextureDecoder.obj
 0001:0000d274       ??_ECIFXSubdivisionModifierDecoder@@EAEPAXI@Z 1000e274 f i Importing:CIFXSubdivisionModifierDecoder.obj
 0001:0000d274       ??_GCIFXSubdivisionModifierDecoder@@EAEPAXI@Z 1000e274 f i Importing:CIFXSubdivisionModifierDecoder.obj
 0001:0000d298       ??1CIFXSubdivisionModifierDecoder@@EAE@XZ 1000e298 f   Importing:CIFXSubdivisionModifierDecoder.obj
 0001:0000d306       ?CIFXSubdivisionModifierDecoder_Factory@@YIHABUIFXGUID@@PAPAX@Z 1000e306 f   Importing:CIFXSubdivisionModifierDecoder.obj
 0001:0000d43e       ?AddRef@CIFXSubdivisionModifierDecoder@@UAIIXZ 1000e43e f   Importing:CIFXSubdivisionModifierDecoder.obj
 0001:0000d448       ?Release@CIFXSubdivisionModifierDecoder@@UAIIXZ 1000e448 f   Importing:CIFXSubdivisionModifierDecoder.obj
 0001:0000d464       ?QueryInterface@CIFXSubdivisionModifierDecoder@@UAIHABUIFXGUID@@PAPAX@Z 1000e464 f   Importing:CIFXSubdivisionModifierDecoder.obj
 0001:0000d63c       ?PutNextBlockX@CIFXSubdivisionModifierDecoder@@UAIXAAVIFXDataBlockX@@@Z 1000e63c f   Importing:CIFXSubdivisionModifierDecoder.obj
 0001:0000d694       ?TransferX@CIFXSubdivisionModifierDecoder@@UAIXAAH@Z 1000e694 f   Importing:CIFXSubdivisionModifierDecoder.obj
 0001:0000d792       ?ProcessSubdivisionModifierBlockX@CIFXSubdivisionModifierDecoder@@AAEXAAVIFXDataBlockX@@@Z 1000e792 f   Importing:CIFXSubdivisionModifierDecoder.obj
 0001:0000dbf2       ??0CIFXSubdivisionModifierDecoder@@AAE@XZ 1000ebf2 f   Importing:CIFXSubdivisionModifierDecoder.obj
 0001:0000dc6e       ?InitializeX@CIFXSubdivisionModifierDecoder@@UAIXABUIFXLoadConfig@@@Z 1000ec6e f   Importing:CIFXSubdivisionModifierDecoder.obj
 0001:0000dc78       ?AddRef@CIFXSubdivisionModifierDecoder@@$4PPPPPPPM@A@AIIXZ 1000ec78 f i Importing:CIFXSubdivisionModifierDecoder.obj
 0001:0000dc84       ?Release@CIFXSubdivisionModifierDecoder@@$4PPPPPPPM@A@AIIXZ 1000ec84 f i Importing:CIFXSubdivisionModifierDecoder.obj
 0001:0000dc90       ?QueryInterface@CIFXSubdivisionModifierDecoder@@$4PPPPPPPM@A@AIHABUIFXGUID@@PAPAX@Z 1000ec90 f i Importing:CIFXSubdivisionModifierDecoder.obj
 0001:0000dc9c       ?PutNextBlockX@CIFXSubdivisionModifierDecoder@@$4PPPPPPPM@A@AIXAAVIFXDataBlockX@@@Z 1000ec9c f i Importing:CIFXSubdivisionModifierDecoder.obj
 0001:0000dca8       ?TransferX@CIFXSubdivisionModifierDecoder@@$4PPPPPPPM@A@AIXAAH@Z 1000eca8 f i Importing:CIFXSubdivisionModifierDecoder.obj
 0001:0000dcb4       ?InitializeX@CIFXSubdivisionModifierDecoder@@$4PPPPPPPM@A@AIXABUIFXLoadConfig@@@Z 1000ecb4 f i Importing:CIFXSubdivisionModifierDecoder.obj
 0001:0000dcc0       ??_GCIFXShadingModifierDecoder@@EAEPAXI@Z 1000ecc0 f i Importing:CIFXShadingModifierDecoder.obj
 0001:0000dcc0       ??_ECIFXShadingModifierDecoder@@EAEPAXI@Z 1000ecc0 f i Importing:CIFXShadingModifierDecoder.obj
 0001:0000dce4       ??1CIFXShadingModifierDecoder@@EAE@XZ 1000ece4 f   Importing:CIFXShadingModifierDecoder.obj
 0001:0000dd52       ?CIFXShadingModifierDecoder_Factory@@YIHABUIFXGUID@@PAPAX@Z 1000ed52 f   Importing:CIFXShadingModifierDecoder.obj
 0001:0000de8a       ?AddRef@CIFXShadingModifierDecoder@@UAIIXZ 1000ee8a f   Importing:CIFXShadingModifierDecoder.obj
 0001:0000de94       ?Release@CIFXShadingModifierDecoder@@UAIIXZ 1000ee94 f   Importing:CIFXShadingModifierDecoder.obj
 0001:0000deb0       ?QueryInterface@CIFXShadingModifierDecoder@@UAIHABUIFXGUID@@PAPAX@Z 1000eeb0 f   Importing:CIFXShadingModifierDecoder.obj
 0001:0000e088       ?PutNextBlockX@CIFXShadingModifierDecoder@@UAIXAAVIFXDataBlockX@@@Z 1000f088 f   Importing:CIFXShadingModifierDecoder.obj
 0001:0000e0e0       ?TransferX@CIFXShadingModifierDecoder@@UAIXAAH@Z 1000f0e0 f   Importing:CIFXShadingModifierDecoder.obj
 0001:0000e1de       ?ProcessShadingModifierBlockX@CIFXShadingModifierDecoder@@AAEXAAVIFXDataBlockX@@@Z 1000f1de f   Importing:CIFXShadingModifierDecoder.obj
 0001:0000eaca       ??0CIFXShadingModifierDecoder@@AAE@XZ 1000faca f   Importing:CIFXShadingModifierDecoder.obj
 0001:0000eb46       ?InitializeX@CIFXShadingModifierDecoder@@UAIXABUIFXLoadConfig@@@Z 1000fb46 f   Importing:CIFXShadingModifierDecoder.obj
 0001:0000eb50       ?AddRef@CIFXShadingModifierDecoder@@$4PPPPPPPM@A@AIIXZ 1000fb50 f i Importing:CIFXShadingModifierDecoder.obj
 0001:0000eb5c       ?Release@CIFXShadingModifierDecoder@@$4PPPPPPPM@A@AIIXZ 1000fb5c f i Importing:CIFXShadingModifierDecoder.obj
 0001:0000eb68       ?QueryInterface@CIFXShadingModifierDecoder@@$4PPPPPPPM@A@AIHABUIFXGUID@@PAPAX@Z 1000fb68 f i Importing:CIFXShadingModifierDecoder.obj
 0001:0000eb74       ?PutNextBlockX@CIFXShadingModifierDecoder@@$4PPPPPPPM@A@AIXAAVIFXDataBlockX@@@Z 1000fb74 f i Importing:CIFXShadingModifierDecoder.obj
 0001:0000eb80       ?TransferX@CIFXShadingModifierDecoder@@$4PPPPPPPM@A@AIXAAH@Z 1000fb80 f i Importing:CIFXShadingModifierDecoder.obj
 0001:0000eb8c       ?InitializeX@CIFXShadingModifierDecoder@@$4PPPPPPPM@A@AIXABUIFXLoadConfig@@@Z 1000fb8c f i Importing:CIFXShadingModifierDecoder.obj
 0001:0000eb98       ??_ECIFXDecoderChainX@@EAEPAXI@Z 1000fb98 f i Importing:CIFXDecoderChainX.obj
 0001:0000eb98       ??_GCIFXDecoderChainX@@EAEPAXI@Z 1000fb98 f i Importing:CIFXDecoderChainX.obj
 0001:0000ebbc       ??1CIFXDecoderChainX@@EAE@XZ 1000fbbc f   Importing:CIFXDecoderChainX.obj
 0001:0000ebe4       ?ReleaseArrayDecoders@CIFXDecoderChainX@@AAIXXZ 1000fbe4 f   Importing:CIFXDecoderChainX.obj
 0001:0000ec34       ?CIFXDecoderChainX_Factory@@YIHABUIFXGUID@@PAPAX@Z 1000fc34 f   Importing:CIFXDecoderChainX.obj
 0001:0000ecee       ??0CIFXDecoderChainX@@AAE@XZ 1000fcee f   Importing:CIFXDecoderChainX.obj
 0001:0000ed06       ?AddRef@CIFXDecoderChainX@@UAIIXZ 1000fd06 f   Importing:CIFXDecoderChainX.obj
 0001:0000ed10       ?Release@CIFXDecoderChainX@@UAIIXZ 1000fd10 f   Importing:CIFXDecoderChainX.obj
 0001:0000ed2a       ?QueryInterface@CIFXDecoderChainX@@UAIHABUIFXGUID@@PAPAX@Z 1000fd2a f   Importing:CIFXDecoderChainX.obj
 0001:0000eeca       ?AddDecoderX@CIFXDecoderChainX@@UAIXAAVIFXDecoderX@@I@Z 1000feca f   Importing:CIFXDecoderChainX.obj
 0001:0000efbe       ?GetDecoderCountX@CIFXDecoderChainX@@UAIXAAI@Z 1000ffbe f   Importing:CIFXDecoderChainX.obj
 0001:0000efc4       ?GetDecoderX@CIFXDecoderChainX@@UAIXIAAPAVIFXDecoderX@@@Z 1000ffc4 f   Importing:CIFXDecoderChainX.obj
 0001:0000f01c       ?RemoveDecoderX@CIFXDecoderChainX@@UAIXI@Z 1001001c f   Importing:CIFXDecoderChainX.obj
 0001:0000f08a       ?InitializeX@CIFXDecoderChainX@@UAIXXZ 1001008a f   Importing:CIFXDecoderChainX.obj
 0001:0000f10c       ??_GCIFXViewDecoder@@EAEPAXI@Z 1001010c f i Importing:CIFXViewDecoder.obj
 0001:0000f10c       ??_ECIFXViewDecoder@@EAEPAXI@Z 1001010c f i Importing:CIFXViewDecoder.obj
 0001:0000f130       ??1CIFXViewDecoder@@EAE@XZ 10010130 f   Importing:CIFXViewDecoder.obj
 0001:0000f19e       ?CIFXViewDecoder_Factory@@YIHABUIFXGUID@@PAPAX@Z 1001019e f   Importing:CIFXViewDecoder.obj
 0001:0000f2e0       ?AddRef@CIFXViewDecoder@@UAIIXZ 100102e0 f   Importing:CIFXViewDecoder.obj
 0001:0000f2ea       ?Release@CIFXViewDecoder@@UAIIXZ 100102ea f   Importing:CIFXViewDecoder.obj
 0001:0000f306       ?QueryInterface@CIFXViewDecoder@@UAIHABUIFXGUID@@PAPAX@Z 10010306 f   Importing:CIFXViewDecoder.obj
 0001:0000f4de       ?PutNextBlockX@CIFXViewDecoder@@UAIXAAVIFXDataBlockX@@@Z 100104de f   Importing:CIFXViewDecoder.obj
 0001:0000f536       ?TransferX@CIFXViewDecoder@@UAIXAAH@Z 10010536 f   Importing:CIFXViewDecoder.obj
 0001:0000f5f8       ?LoadViewNodeBlockU3DX@CIFXViewDecoder@@AAEXAAVIFXDataBlockX@@@Z 100105f8 f   Importing:CIFXViewDecoder.obj
 0001:0001075c       ??0CIFXViewDecoder@@AAE@XZ 1001175c f   Importing:CIFXViewDecoder.obj
 0001:000107de       ?InitializeX@CIFXViewDecoder@@UAIXABUIFXLoadConfig@@@Z 100117de f   Importing:CIFXViewDecoder.obj
 0001:00010800       ??_EIFXViewLayer@@UAEPAXI@Z 10011800 f i Importing:CIFXViewDecoder.obj
 0001:00010800       ??_GIFXViewLayer@@UAEPAXI@Z 10011800 f i Importing:CIFXViewDecoder.obj
 0001:0001081c       ?AddRef@CIFXViewDecoder@@$4PPPPPPPM@A@AIIXZ 1001181c f i Importing:CIFXViewDecoder.obj
 0001:00010828       ?Release@CIFXViewDecoder@@$4PPPPPPPM@A@AIIXZ 10011828 f i Importing:CIFXViewDecoder.obj
 0001:00010834       ?QueryInterface@CIFXViewDecoder@@$4PPPPPPPM@A@AIHABUIFXGUID@@PAPAX@Z 10011834 f i Importing:CIFXViewDecoder.obj
 0001:00010840       ?PutNextBlockX@CIFXViewDecoder@@$4PPPPPPPM@A@AIXAAVIFXDataBlockX@@@Z 10011840 f i Importing:CIFXViewDecoder.obj
 0001:0001084c       ?TransferX@CIFXViewDecoder@@$4PPPPPPPM@A@AIXAAH@Z 1001184c f i Importing:CIFXViewDecoder.obj
 0001:00010858       ??1IFXViewLayer@@UAE@XZ    10011858 f i Importing:CIFXViewDecoder.obj
 0001:00010860       ?InitializeX@CIFXViewDecoder@@$4PPPPPPPM@A@AIXABUIFXLoadConfig@@@Z 10011860 f i Importing:CIFXViewDecoder.obj
 0001:0001086c       ??_ECIFXBlockReaderX@@EAEPAXI@Z 1001186c f i Importing:CIFXBlockReaderX.obj
 0001:0001086c       ??_GCIFXBlockReaderX@@EAEPAXI@Z 1001186c f i Importing:CIFXBlockReaderX.obj
 0001:00010890       ??1CIFXBlockReaderX@@EAE@XZ 10011890 f   Importing:CIFXBlockReaderX.obj
 0001:00010948       ?CIFXBlockReaderX_Factory@@YIHABUIFXGUID@@PAPAX@Z 10011948 f   Importing:CIFXBlockReaderX.obj
 0001:00010a02       ??0CIFXBlockReaderX@@AAE@XZ 10011a02 f   Importing:CIFXBlockReaderX.obj
 0001:00010a2c       ?AddRef@CIFXBlockReaderX@@UAIIXZ 10011a2c f   Importing:CIFXBlockReaderX.obj
 0001:00010a36       ?Release@CIFXBlockReaderX@@UAIIXZ 10011a36 f   Importing:CIFXBlockReaderX.obj
 0001:00010a50       ?QueryInterface@CIFXBlockReaderX@@UAIHABUIFXGUID@@PAPAX@Z 10011a50 f   Importing:CIFXBlockReaderX.obj
 0001:00010bf0       ?ReadBlockX@CIFXBlockReaderX@@UAIXAAPAVIFXDataBlockX@@AAH@Z 10011bf0 f   Importing:CIFXBlockReaderX.obj
 0001:00011596       ?GetFileSizeX@CIFXBlockReaderX@@UAIXAA_K@Z 10012596 f   Importing:CIFXBlockReaderX.obj
 0001:000115e0       ?GetFileSizeLoadedX@CIFXBlockReaderX@@UAIXAA_K@Z 100125e0 f   Importing:CIFXBlockReaderX.obj
 0001:0001162a       ?GetFileVersionX@CIFXBlockReaderX@@UAIXAAI0@Z 1001262a f   Importing:CIFXBlockReaderX.obj
 0001:00011678       ?InitializeX@CIFXBlockReaderX@@UAIXAAVIFXCoreServices@@AAVIFXReadBufferX@@I@Z 10012678 f   Importing:CIFXBlockReaderX.obj
 0001:00011930       ??_ECIFXBTTHash@@EAEPAXI@Z 10012930 f i Importing:CIFXBTTHash.obj
 0001:00011930       ??_GCIFXBTTHash@@EAEPAXI@Z 10012930 f i Importing:CIFXBTTHash.obj
 0001:000119dc       ?CIFXBTTHash_Factory@@YIHABUIFXGUID@@PAPAX@Z 100129dc f   Importing:CIFXBTTHash.obj
 0001:00011ad6       ?AddRef@CIFXBTTHash@@UAIIXZ 10012ad6 f   Importing:CIFXBTTHash.obj
 0001:00011ae0       ?Release@CIFXBTTHash@@UAIIXZ 10012ae0 f   Importing:CIFXBTTHash.obj
 0001:00011afc       ?QueryInterface@CIFXBTTHash@@UAIHABUIFXGUID@@PAPAX@Z 10012afc f   Importing:CIFXBTTHash.obj
 0001:000124cc       ?AddRef@CIFXBTTHash@@$4PPPPPPPM@A@AIIXZ 100134cc f i Importing:CIFXBTTHash.obj
 0001:000124d8       ?Release@CIFXBTTHash@@$4PPPPPPPM@A@AIIXZ 100134d8 f i Importing:CIFXBTTHash.obj
 0001:000124e4       ?QueryInterface@CIFXBTTHash@@$4PPPPPPPM@A@AIHABUIFXGUID@@PAPAX@Z 100134e4 f i Importing:CIFXBTTHash.obj
 0001:000124f0       ?Add@CIFXBTTHash@@$4PPPPPPPM@A@AIHPBVIFXBTTHashEntry@IFXBTTHash@@@Z 100134f0 f i Importing:CIFXBTTHash.obj
 0001:000124fc       ?Add@CIFXBTTHash@@UAIHPBVIFXBTTHashEntry@IFXBTTHash@@@Z 100134fc f i Importing:CIFXBTTHash.obj
 0001:0001266c       ?Delete@CIFXBTTHash@@$4PPPPPPPM@A@AIHI@Z 1001366c f i Importing:CIFXBTTHash.obj
 0001:00012678       ?Delete@CIFXBTTHash@@UAIHI@Z 10013678 f i Importing:CIFXBTTHash.obj
 0001:00012750       ?Find@CIFXBTTHash@@$4PPPPPPPM@A@AIHIPAVIFXBTTHashEntry@IFXBTTHash@@@Z 10013750 f i Importing:CIFXBTTHash.obj
 0001:0001275c       ?Find@CIFXBTTHash@@UAIHIPAVIFXBTTHashEntry@IFXBTTHash@@@Z 1001375c f i Importing:CIFXBTTHash.obj
 0001:00012808       ??1IFXBTTHashEntry@IFXBTTHash@@QAE@XZ 10013808 f i Importing:CIFXBTTHash.obj
 0001:0001280c       ?Initialize@CIFXBTTHash@@$4PPPPPPPM@A@AIHXZ 1001380c f i Importing:CIFXBTTHash.obj
 0001:00012818       ?Initialize@CIFXBTTHash@@$4PPPPPPPM@A@AIHIIPBVIFXBTTHashEntry@IFXBTTHash@@@Z 10013818 f i Importing:CIFXBTTHash.obj
 0001:00012824       ?Initialize@CIFXBTTHash@@UAIHIIPBVIFXBTTHashEntry@IFXBTTHash@@@Z 10013824 f i Importing:CIFXBTTHash.obj
 0001:0001294c       ?Initialize@CIFXBTTHash@@UAIHXZ 1001394c f i Importing:CIFXBTTHash.obj
 0001:000129f8       ??_ECIFXLoadManager@@EAEPAXI@Z 100139f8 f i Importing:CIFXLoadManager.obj
 0001:000129f8       ??_GCIFXLoadManager@@EAEPAXI@Z 100139f8 f i Importing:CIFXLoadManager.obj
 0001:00012a1c       ??1CIFXLoadManager@@EAE@XZ 10013a1c f   Importing:CIFXLoadManager.obj
 0001:00012f62       ?CIFXLoadManager_Factory@@YIHABUIFXGUID@@PAPAX@Z 10013f62 f   Importing:CIFXLoadManager.obj
 0001:0001303c       ??0CIFXLoadManager@@AAE@XZ 1001403c f   Importing:CIFXLoadManager.obj
 0001:000134b0       ?AddRef@CIFXLoadManager@@UAIIXZ 100144b0 f   Importing:CIFXLoadManager.obj
 0001:000134c0       ?Release@CIFXLoadManager@@UAIIXZ 100144c0 f   Importing:CIFXLoadManager.obj
 0001:000134e0       ?QueryInterface@CIFXLoadManager@@UAIHABUIFXGUID@@PAPAX@Z 100144e0 f   Importing:CIFXLoadManager.obj
 0001:00013794       ?Load@CIFXLoadManager@@UAIHPAVIFXReadBuffer@@HABVIFXString@@W4IFXCollisionPolicy@@I@Z 10014794 f   Importing:CIFXLoadManager.obj
 0001:00013930       ?Load@CIFXLoadManager@@UAIHPAVIFXReadBuffer@@HABVIFXString@@W4IFXCollisionPolicy@@IABV?$IFXArray@UIFXObjectFilter@@@@1H@Z 10014930 f   Importing:CIFXLoadManager.obj
 0001:00014260       ?ValidateInputX@CIFXLoadManager@@AAEXPAX@Z 10015260 f   Importing:CIFXLoadManager.obj
 0001:000142d2       ?ExecuteReadX@CIFXLoadManager@@AAEXXZ 100152d2 f   Importing:CIFXLoadManager.obj
 0001:00014554       ?ProcessGenericBlockX@CIFXLoadManager@@AAEXAAVIFXDataBlockX@@W4EIFXPalette@IFXSceneGraph@@@Z 10015554 f   Importing:CIFXLoadManager.obj
 0001:0001571c       ?ProcessModifierChainBlockX@CIFXLoadManager@@AAEXAAVIFXDataBlockX@@@Z 1001671c f   Importing:CIFXLoadManager.obj
 0001:00015b62       ?ProcessBlockX@CIFXLoadManager@@AAEXAAVIFXDataBlockX@@W4EIFXPalette@IFXSceneGraph@@@Z 10016b62 f   Importing:CIFXLoadManager.obj
 0001:00015c18       ?ProcessFileReferenceBlockX@CIFXLoadManager@@AAEXAAVIFXDataBlockX@@@Z 10016c18 f   Importing:CIFXLoadManager.obj
 0001:00016ce6       ?ProcessNewBlockTypeDeclarationBlockX@CIFXLoadManager@@AAEXAAVIFXDataBlockX@@@Z 10017ce6 f   Importing:CIFXLoadManager.obj
 0001:00017298       ?ProcessPriorityUpdateBlockX@CIFXLoadManager@@AAEXAAVIFXDataBlockX@@@Z 10018298 f   Importing:CIFXLoadManager.obj
 0001:000173a0       ?ProcessFileHeaderBlockX@CIFXLoadManager@@AAEXAAVIFXDataBlockX@@@Z 100183a0 f   Importing:CIFXLoadManager.obj
 0001:0001762c       ?UnRegisterTransferX@CIFXLoadManager@@AAEXXZ 1001862c f   Importing:CIFXLoadManager.obj
 0001:00017780       ?ExecuteTransferX@CIFXLoadManager@@AAEXXZ 10018780 f   Importing:CIFXLoadManager.obj
 0001:000177ca       ?ProcessTransferOrderX@CIFXLoadManager@@AAEXAAH@Z 100187ca f   Importing:CIFXLoadManager.obj
 0001:00017dba       ?ThumpX@CIFXLoadManager@@AAEXXZ 10018dba f   Importing:CIFXLoadManager.obj
 0001:00017f22       ?NotifyStreamStateX@CIFXLoadManager@@AAIXXZ 10018f22 f   Importing:CIFXLoadManager.obj
 0001:000182ac       ?Cancel@CIFXLoadManager@@UAIHXZ 100192ac f   Importing:CIFXLoadManager.obj
 0001:000183aa       ?Reset@CIFXLoadManager@@UAIHXZ 100193aa f   Importing:CIFXLoadManager.obj
 0001:000183da       ?GetAggregateLoadState@CIFXLoadManager@@UAIHAAW4EIFXLoadState@@@Z 100193da f   Importing:CIFXLoadManager.obj
 0001:0001848e       ?GetAggregateFileSize@CIFXLoadManager@@UAIHAA_K@Z 1001948e f   Importing:CIFXLoadManager.obj
 0001:000185fa       ?GetAggregateFileSizeLoaded@CIFXLoadManager@@UAIHAA_K@Z 100195fa f   Importing:CIFXLoadManager.obj
 0001:00018766       ?GetFileSize@CIFXLoadManager@@UAIHAA_K@Z 10019766 f   Importing:CIFXLoadManager.obj
 0001:000187e4       ?GetFileSizeLoaded@CIFXLoadManager@@UAIHAA_K@Z 100197e4 f   Importing:CIFXLoadManager.obj
 0001:00018862       ?GetSubLoadManagersCount@CIFXLoadManager@@UAIHAAI@Z 10019862 f   Importing:CIFXLoadManager.obj
 0001:00018876       ?GetSubLoadManager@CIFXLoadManager@@UAIHIAAPAVIFXLoadManager@@@Z 10019876 f   Importing:CIFXLoadManager.obj
 0001:00018916       ?GetReadTimeLimit@CIFXLoadManager@@UAIHAAI@Z 10019916 f   Importing:CIFXLoadManager.obj
 0001:00018922       ?SetReadTimeLimit@CIFXLoadManager@@UAIHI@Z 10019922 f   Importing:CIFXLoadManager.obj
 0001:0001892c       ?GetTransferTimeLimit@CIFXLoadManager@@UAIHAAI@Z 1001992c f   Importing:CIFXLoadManager.obj
 0001:00018938       ?SetTransferTimeLimit@CIFXLoadManager@@UAIHI@Z 10019938 f   Importing:CIFXLoadManager.obj
 0001:00018942       ?Execute@CIFXLoadManager@@UAIHPAVIFXTaskData@@@Z 10019942 f   Importing:CIFXLoadManager.obj
 0001:00018b40       ?UnRegisterReadX@CIFXLoadManager@@AAEXXZ 10019b40 f   Importing:CIFXLoadManager.obj
 0001:00018c94       ?Initialize@CIFXLoadManager@@UAIHPAVIFXCoreServices@@@Z 10019c94 f   Importing:CIFXLoadManager.obj
 0001:00019040       ??1IFXCoreArray@@UAE@XZ    1001a040 f i Importing:CIFXLoadManager.obj
 0001:00019048       ??1?$IFXArray@VIFXExternalDecoderCont@CIFXLoadManager@@@@UAE@XZ 1001a048 f i Importing:CIFXLoadManager.obj
 0001:00019150       ??1?$IFXAutoRelease@VIFXPalette@@@@QAE@XZ 1001a150 f i Importing:CIFXAuthorCLODDecoder.obj
 0001:00019150       ??1?$IFXAutoRelease@VIFXBTTHash@@@@QAE@XZ 1001a150 f i Importing:CIFXLoadManager.obj
 0001:00019150       ??1?$IFXAutoRelease@VIFXSetX@@@@QAE@XZ 1001a150 f i Importing:CIFXAuthorCLODDecoder_P.obj
 0001:00019150       ??1?$IFXAutoRelease@VIFXAuthorLineSetAnalyzer@@@@QAE@XZ 1001a150 f i Importing:CIFXLineSetDecoder.obj
 0001:00019150       ??1?$IFXAutoRelease@VIFXNotificationInfo@@@@QAE@XZ 1001a150 f i Importing:CIFXLoadManager.obj
 0001:00019150       ??1?$IFXAutoRelease@VIFXBitStreamX@@@@QAE@XZ 1001a150 f i Importing:CIFXLightResourceDecoder.obj
 0001:00019150       ??1?$IFXAutoRelease@VIFXDataBlockQueueX@@@@QAE@XZ 1001a150 f i Importing:CIFXMaterialDecoder.obj
 0001:00019150       ??1?$IFXAutoRelease@VIFXScheduler@@@@QAE@XZ 1001a150 f i Importing:CIFXLoadManager.obj
 0001:00019150       ??1?$IFXAutoRelease@VIFXUnknown@@@@QAE@XZ 1001a150 f i Importing:CIFXLightDecoder.obj
 0001:00019150       ??1?$IFXAutoRelease@VIFXBlockReaderX@@@@QAE@XZ 1001a150 f i Importing:CIFXLoadManager.obj
 0001:00019150       ??1?$IFXAutoRelease@VIFXAuthorCLODMesh@@@@QAE@XZ 1001a150 f i Importing:CIFXAuthorCLODDecoder.obj
 0001:00019150       ??1?$IFXAutoRelease@VIFXDecoderChainX@@@@QAE@XZ 1001a150 f i Importing:CIFXLoadManager.obj
 0001:00019150       ??1?$IFXAutoRelease@VIFXBitStreamCompressedX@@@@QAE@XZ 1001a150 f i Importing:CIFXAuthorCLODDecoder.obj
 0001:00019150       ??1?$IFXAutoRelease@VIFXSetAdjacencyX@@@@QAE@XZ 1001a150 f i Importing:CIFXAuthorCLODDecoder.obj
 0001:00019150       ??1?$IFXAutoRelease@VIFXCoreServices@@@@QAE@XZ 1001a150 f i Importing:CIFXMaterialDecoder.obj
 0001:0001916c       ??1?$IFXArray@PAVIFXLoadManager@@@@UAE@XZ 1001a16c f i Importing:CIFXLoadManager.obj
 0001:0001925c       ??_GIFXCoreArray@@UAEPAXI@Z 1001a25c f i Importing:CIFXLoadManager.obj
 0001:0001925c       ??_EIFXCoreArray@@UAEPAXI@Z 1001a25c f i Importing:CIFXLoadManager.obj
 0001:00019278       ??_G?$IFXArray@VIFXString@@@@UAEPAXI@Z 1001a278 f i Importing:CIFXLoadManager.obj
 0001:00019278       ??_E?$IFXArray@VIFXString@@@@UAEPAXI@Z 1001a278 f i Importing:CIFXLoadManager.obj
 0001:00019390       ??_E?$IFXArray@UIFXObjectFilter@@@@UAEPAXI@Z 1001a390 f i Importing:CIFXLoadManager.obj
 0001:00019390       ??_G?$IFXArray@UIFXObjectFilter@@@@UAEPAXI@Z 1001a390 f i Importing:CIFXLoadManager.obj
 0001:000194a8       ??_E?$IFXArray@VIFXExternalDecoderCont@CIFXLoadManager@@@@UAEPAXI@Z 1001a4a8 f i Importing:CIFXLoadManager.obj
 0001:000194a8       ??_G?$IFXArray@VIFXExternalDecoderCont@CIFXLoadManager@@@@UAEPAXI@Z 1001a4a8 f i Importing:CIFXLoadManager.obj
 0001:000195c0       ??_G?$IFXArray@PAVIFXLoadManager@@@@UAEPAXI@Z 1001a5c0 f i Importing:CIFXLoadManager.obj
 0001:000195c0       ??_E?$IFXArray@PAVIFXLoadManager@@@@UAEPAXI@Z 1001a5c0 f i Importing:CIFXLoadManager.obj
 0001:000196c4       ?GetElementName@IFXCoreArray@@UAE?AVIFXString@@I@Z 1001a6c4 f i Importing:CIFXLoadManager.obj
 0001:000196dc       ?GetElementSize@IFXCoreArray@@UAEII@Z 1001a6dc f i Importing:CIFXLoadManager.obj
 0001:000196e4       ??0IFXObjectFilter@@QAE@XZ 1001a6e4 f i Importing:CIFXLoadManager.obj
 0001:000196f4       ??1IFXObjectFilter@@QAE@XZ 1001a6f4 f i Importing:CIFXLoadManager.obj
 0001:00019744       ?Construct@?$IFXArray@VIFXString@@@@EAEXI@Z 1001a744 f i Importing:CIFXLoadManager.obj
 0001:000197fc       ?Destruct@?$IFXArray@VIFXString@@@@EAEXI@Z 1001a7fc f i Importing:CIFXLoadManager.obj
 0001:00019834       ?DestructAll@?$IFXArray@VIFXString@@@@EAEXXZ 1001a834 f i Importing:CIFXLoadManager.obj
 0001:000198a0       ?Preallocate@?$IFXArray@VIFXString@@@@EAEXI@Z 1001a8a0 f i Importing:CIFXLoadManager.obj
 0001:0001997c       ?Resize@?$IFXArray@VIFXString@@@@EAEXI@Z 1001a97c f i Importing:CIFXLoadManager.obj
 0001:0001997c       ?Resize@?$IFXArray@UIFXObjectFilter@@@@EAEXI@Z 1001a97c f i Importing:CIFXLoadManager.obj
 0001:0001997c       ?Resize@?$IFXArray@VIFXExternalDecoderCont@CIFXLoadManager@@@@EAEXI@Z 1001a97c f i Importing:CIFXLoadManager.obj
 0001:0001997c       ?Resize@?$IFXArray@PAVIFXLoadManager@@@@EAEXI@Z 1001a97c f i Importing:CIFXLoadManager.obj
 0001:0001997c       ?Resize@?$IFXArray@I@@EAEXI@Z 1001a97c f i Importing:CIFXLineSetDecoder.obj
 0001:000199e0       ?ResetElement@?$IFXArray@VIFXString@@@@UAEXAAVIFXString@@@Z 1001a9e0 f i Importing:CIFXLoadManager.obj
 0001:000199e0       ?ResetElement@?$IFXArray@VIFXExternalDecoderCont@CIFXLoadManager@@@@UAEXAAVIFXExternalDecoderCont@CIFXLoadManager@@@Z 1001a9e0 f i Importing:CIFXLoadManager.obj
 0001:000199e0       ?ResetElement@?$IFXArray@I@@UAEXAAI@Z 1001a9e0 f i Importing:CIFXLineSetDecoder.obj
 0001:000199e0       ?ResetElement@?$IFXArray@PAVIFXLoadManager@@@@UAEXAAPAVIFXLoadManager@@@Z 1001a9e0 f i Importing:CIFXLoadManager.obj
 0001:000199e0       ?ResetElement@?$IFXArray@UIFXObjectFilter@@@@UAEXAAUIFXObjectFilter@@@Z 1001a9e0 f i Importing:CIFXLoadManager.obj
 0001:000199e4       ?Construct@?$IFXArray@UIFXObjectFilter@@@@EAEXI@Z 1001a9e4 f i Importing:CIFXLoadManager.obj
 0001:00019a94       ?Destruct@?$IFXArray@UIFXObjectFilter@@@@EAEXI@Z 1001aa94 f i Importing:CIFXLoadManager.obj
 0001:00019b38       ?DestructAll@?$IFXArray@UIFXObjectFilter@@@@EAEXXZ 1001ab38 f i Importing:CIFXLoadManager.obj
 0001:00019be8       ?Preallocate@?$IFXArray@UIFXObjectFilter@@@@EAEXI@Z 1001abe8 f i Importing:CIFXLoadManager.obj
 0001:00019cc4       ??0IFXBTTHashEntry@IFXBTTHash@@QAE@XZ 1001acc4 f i Importing:CIFXLoadManager.obj
 0001:00019cd8       ??0IFXExternalDecoderCont@CIFXLoadManager@@QAE@XZ 1001acd8 f i Importing:CIFXLoadManager.obj
 0001:00019ce8       ??1IFXExternalDecoderCont@CIFXLoadManager@@QAE@XZ 1001ace8 f i Importing:CIFXLoadManager.obj
 0001:00019d20       ?Construct@?$IFXArray@VIFXExternalDecoderCont@CIFXLoadManager@@@@EAEXI@Z 1001ad20 f i Importing:CIFXLoadManager.obj
 0001:00019dcc       ?Destruct@?$IFXArray@VIFXExternalDecoderCont@CIFXLoadManager@@@@EAEXI@Z 1001adcc f i Importing:CIFXLoadManager.obj
 0001:00019e38       ?DestructAll@?$IFXArray@VIFXExternalDecoderCont@CIFXLoadManager@@@@EAEXXZ 1001ae38 f i Importing:CIFXLoadManager.obj
 0001:00019ea4       ?Preallocate@?$IFXArray@VIFXExternalDecoderCont@CIFXLoadManager@@@@EAEXI@Z 1001aea4 f i Importing:CIFXLoadManager.obj
 0001:00019f84       ?Construct@?$IFXArray@PAVIFXLoadManager@@@@EAEXI@Z 1001af84 f i Importing:CIFXLoadManager.obj
 0001:00019f84       ?Construct@?$IFXArray@I@@EAEXI@Z 1001af84 f i Importing:CIFXLineSetDecoder.obj
 0001:00019fc4       ??_EIFXBTTHashEntry@IFXBTTHash@@QAEPAXI@Z 1001afc4 f i Importing:CIFXLoadManager.obj
 0001:0001a004       ??_EIFXString@@UAEPAXI@Z   1001b004 f i Importing:CIFXLoadManager.obj
 0001:0001a058       ?AddRef@CIFXLoadManager@@$4PPPPPPPM@A@AIIXZ 1001b058 f i Importing:CIFXLoadManager.obj
 0001:0001a064       ?Release@CIFXLoadManager@@$4PPPPPPPM@A@AIIXZ 1001b064 f i Importing:CIFXLoadManager.obj
 0001:0001a070       ?QueryInterface@CIFXLoadManager@@$4PPPPPPPM@A@AIHABUIFXGUID@@PAPAX@Z 1001b070 f i Importing:CIFXLoadManager.obj
 0001:0001a07c       ??1IFXLoadConfig@@QAE@XZ   1001b07c f i Importing:CIFXLoadManager.obj
 0001:0001a094       ??1?$IFXArray@VIFXString@@@@UAE@XZ 1001b094 f i Importing:CIFXLoadManager.obj
 0001:0001a19c       ??1?$IFXArray@UIFXObjectFilter@@@@UAE@XZ 1001b19c f i Importing:CIFXLoadManager.obj
 0001:0001a2a4       ??1IFXFileReferenceParams@@QAE@XZ 1001b2a4 f i Importing:CIFXLoadManager.obj
 0001:0001a4d4       ??_GCIFXStdioReadBufferX@@EAEPAXI@Z 1001b4d4 f i Importing:CIFXStdioReadBufferX.obj
 0001:0001a4d4       ??_ECIFXStdioReadBufferX@@EAEPAXI@Z 1001b4d4 f i Importing:CIFXStdioReadBufferX.obj
 0001:0001a4f8       ??1CIFXStdioReadBufferX@@EAE@XZ 1001b4f8 f   Importing:CIFXStdioReadBufferX.obj
 0001:0001a534       ?CIFXStdioReadBufferX_Factory@@YIHABUIFXGUID@@PAPAX@Z 1001b534 f   Importing:CIFXStdioReadBufferX.obj
 0001:0001a692       ?AddRef@CIFXStdioReadBufferX@@UAIIXZ 1001b692 f   Importing:CIFXStdioReadBufferX.obj
 0001:0001a69c       ?Release@CIFXStdioReadBufferX@@UAIIXZ 1001b69c f   Importing:CIFXStdioReadBufferX.obj
 0001:0001a6b8       ?QueryInterface@CIFXStdioReadBufferX@@UAIHABUIFXGUID@@PAPAX@Z 1001b6b8 f   Importing:CIFXStdioReadBufferX.obj
 0001:0001aa20       ?Read@CIFXStdioReadBufferX@@UAIHPAE_KI@Z 1001ba20 f   Importing:CIFXStdioReadBufferX.obj
 0001:0001ab18       ?GetTotalSize@CIFXStdioReadBufferX@@UAIHPA_K@Z 1001bb18 f   Importing:CIFXStdioReadBufferX.obj
 0001:0001abf0       ?GetAvailableSize@CIFXStdioReadBufferX@@UAIHPA_K@Z 1001bbf0 f   Importing:CIFXStdioReadBufferX.obj
 0001:0001acc8       ?ReadX@CIFXStdioReadBufferX@@UAIXPAE_KIAAH@Z 1001bcc8 f   Importing:CIFXStdioReadBufferX.obj
 0001:0001ade2       ?GetTotalSizeX@CIFXStdioReadBufferX@@UAIXAA_K@Z 1001bde2 f   Importing:CIFXStdioReadBufferX.obj
 0001:0001ae7c       ?GetAvailableSizeX@CIFXStdioReadBufferX@@UAIXAA_K@Z 1001be7c f   Importing:CIFXStdioReadBufferX.obj
 0001:0001ae82       ?Open@CIFXStdioReadBufferX@@UAIHPAG@Z 1001be82 f   Importing:CIFXStdioReadBufferX.obj
 0001:0001aecc       ?Close@CIFXStdioReadBufferX@@UAIHXZ 1001becc f   Importing:CIFXStdioReadBufferX.obj
 0001:0001aef4       ??0CIFXStdioReadBufferX@@AAE@XZ 1001bef4 f   Importing:CIFXStdioReadBufferX.obj
 0001:0001afa8       ?AddRef@CIFXStdioReadBufferX@@$4PPPPPPPM@A@AIIXZ 1001bfa8 f i Importing:CIFXStdioReadBufferX.obj
 0001:0001afb4       ?Release@CIFXStdioReadBufferX@@$4PPPPPPPM@A@AIIXZ 1001bfb4 f i Importing:CIFXStdioReadBufferX.obj
 0001:0001afc0       ?QueryInterface@CIFXStdioReadBufferX@@$4PPPPPPPM@A@AIHABUIFXGUID@@PAPAX@Z 1001bfc0 f i Importing:CIFXStdioReadBufferX.obj
 0001:0001afcc       ??_GCIFXInternetReadBufferX@@EAEPAXI@Z 1001bfcc f i Importing:CIFXInternetReadBufferX.obj
 0001:0001afcc       ??_ECIFXInternetReadBufferX@@EAEPAXI@Z 1001bfcc f i Importing:CIFXInternetReadBufferX.obj
 0001:0001aff0       ??1CIFXInternetReadBufferX@@EAE@XZ 1001bff0 f   Importing:CIFXInternetReadBufferX.obj
 0001:0001b0e4       ?Close@CIFXInternetReadBufferX@@UAIHXZ 1001c0e4 f   Importing:CIFXInternetReadBufferX.obj
 0001:0001b0ee       ?CIFXInternetReadBufferX_Factory@@YIHABUIFXGUID@@PAPAX@Z 1001c0ee f   Importing:CIFXInternetReadBufferX.obj
 0001:0001b1c6       ??0CIFXInternetReadBufferX@@AAE@XZ 1001c1c6 f   Importing:CIFXInternetReadBufferX.obj
 0001:0001b34c       ?AddRef@CIFXInternetReadBufferX@@UAIIXZ 1001c34c f   Importing:CIFXInternetReadBufferX.obj
 0001:0001b356       ?Release@CIFXInternetReadBufferX@@UAIIXZ 1001c356 f   Importing:CIFXInternetReadBufferX.obj
 0001:0001b372       ?QueryInterface@CIFXInternetReadBufferX@@UAIHABUIFXGUID@@PAPAX@Z 1001c372 f   Importing:CIFXInternetReadBufferX.obj
 0001:0001b80e       ?Read@CIFXInternetReadBufferX@@UAIHPAE_KI@Z 1001c80e f   Importing:CIFXInternetReadBufferX.obj
 0001:0001b8e6       ?GetTotalSize@CIFXInternetReadBufferX@@UAIHPA_K@Z 1001c8e6 f   Importing:CIFXInternetReadBufferX.obj
 0001:0001b99c       ?GetAvailableSize@CIFXInternetReadBufferX@@UAIHPA_K@Z 1001c99c f   Importing:CIFXInternetReadBufferX.obj
 0001:0001ba52       ?ReadX@CIFXInternetReadBufferX@@UAIXPAE_KIAAH@Z 1001ca52 f   Importing:CIFXInternetReadBufferX.obj
 0001:0001bb5c       ?GetTotalSizeX@CIFXInternetReadBufferX@@UAIXAA_K@Z 1001cb5c f   Importing:CIFXInternetReadBufferX.obj
 0001:0001bb62       ?GetAvailableSizeX@CIFXInternetReadBufferX@@UAIXAA_K@Z 1001cb62 f   Importing:CIFXInternetReadBufferX.obj
 0001:0001bb64       ?Open@CIFXInternetReadBufferX@@UAIHPAG@Z 1001cb64 f   Importing:CIFXInternetReadBufferX.obj
 0001:0001bbe6       ?Execute@CIFXInternetReadBufferX@@UAIHPAVIFXTaskData@@@Z 1001cbe6 f   Importing:CIFXInternetReadBufferX.obj
 0001:0001c0d4       ?InitiateRead@CIFXInternetReadBufferX@@UAIHPAVIFXCoreServices@@PAVIFXReadingCallback@@@Z 1001d0d4 f   Importing:CIFXInternetReadBufferX.obj
 0001:0001c2a2       ?SetReceiveTimeout@CIFXInternetReadBufferX@@UAIHI@Z 1001d2a2 f   Importing:CIFXInternetReadBufferX.obj
 0001:0001c2b8       ?GetReceiveTimeout@CIFXInternetReadBufferX@@UAIHAAI@Z 1001d2b8 f   Importing:CIFXInternetReadBufferX.obj
 0001:0001c2e8       ?SetSendTimeout@CIFXInternetReadBufferX@@UAIHI@Z 1001d2e8 f   Importing:CIFXInternetReadBufferX.obj
 0001:0001c2fe       ?GetSendTimeout@CIFXInternetReadBufferX@@UAIHAAI@Z 1001d2fe f   Importing:CIFXInternetReadBufferX.obj
 0001:0001c32e       ?SetConnectTimeout@CIFXInternetReadBufferX@@UAIHI@Z 1001d32e f   Importing:CIFXInternetReadBufferX.obj
 0001:0001c334       ?GetConnectTimeout@CIFXInternetReadBufferX@@UAIHAAI@Z 1001d334 f   Importing:CIFXInternetReadBufferX.obj
 0001:0001c33c       ?AddRef@CIFXInternetReadBufferX@@$4PPPPPPPM@A@AIIXZ 1001d33c f i Importing:CIFXInternetReadBufferX.obj
 0001:0001c348       ?Release@CIFXInternetReadBufferX@@$4PPPPPPPM@A@AIIXZ 1001d348 f i Importing:CIFXInternetReadBufferX.obj
 0001:0001c354       ?QueryInterface@CIFXInternetReadBufferX@@$4PPPPPPPM@A@AIHABUIFXGUID@@PAPAX@Z 1001d354 f i Importing:CIFXInternetReadBufferX.obj
 0001:0001c360       ??_GCIFXPointSetDecoder@@EAEPAXI@Z 1001d360 f i Importing:CIFXPointSetDecoder.obj
 0001:0001c360       ??_ECIFXPointSetDecoder@@EAEPAXI@Z 1001d360 f i Importing:CIFXPointSetDecoder.obj
 0001:0001c384       ??1CIFXPointSetDecoder@@EAE@XZ 1001d384 f   Importing:CIFXPointSetDecoder.obj
 0001:0001c498       ?CIFXPointSetDecoder_Factory@@YIHABUIFXGUID@@PAPAX@Z 1001d498 f   Importing:CIFXPointSetDecoder.obj
 0001:0001c674       ?AddRef@CIFXPointSetDecoder@@UAIIXZ 1001d674 f   Importing:CIFXPointSetDecoder.obj
 0001:0001c684       ?Release@CIFXPointSetDecoder@@UAIIXZ 1001d684 f   Importing:CIFXPointSetDecoder.obj
 0001:0001c6a2       ?QueryInterface@CIFXPointSetDecoder@@UAIHABUIFXGUID@@PAPAX@Z 1001d6a2 f   Importing:CIFXPointSetDecoder.obj
 0001:0001c87a       ?PutNextBlockX@CIFXPointSetDecoder@@UAIXAAVIFXDataBlockX@@@Z 1001d87a f   Importing:CIFXPointSetDecoder.obj
 0001:0001c95a       ?TransferX@CIFXPointSetDecoder@@UAIXAAH@Z 1001d95a f   Importing:CIFXPointSetDecoder.obj
 0001:0001ceb8       ?ProcessAuthorPointSetContinuationBlockX@CIFXPointSetDecoder@@AAEXXZ 1001deb8 f   Importing:CIFXPointSetDecoder.obj
 0001:0001d018       ?ReadPointUpdateX@CIFXPointSetDecoder@@AAEXI@Z 1001e018 f   Importing:CIFXPointSetDecoder.obj
 0001:0001e1ec       ?ReconstructNormal@CIFXPointSetDecoder@@AAEXEIIIAAVIFXVector3@@@Z 1001f1ec f   Importing:CIFXPointSetDecoder.obj
 0001:0001e2f0       ?CalculatePredictedColorAtSplitPos@CIFXPointSetDecoder@@AAEXHIIAAVIFXVector4@@@Z 1001f2f0 f   Importing:CIFXPointSetDecoder.obj
 0001:0001e4b0       ?CalculatePredictedTexCoordAtSplitPos@CIFXPointSetDecoder@@AAEXIIIAAVIFXVector4@@@Z 1001f4b0 f   Importing:CIFXPointSetDecoder.obj
 0001:0001e550       ?ReconstructTexCoord@CIFXPointSetDecoder@@AAEXEIIIIAAVIFXVector4@@@Z 1001f550 f   Importing:CIFXPointSetDecoder.obj
 0001:0001e6a4       ?ReconstructPosition@CIFXPointSetDecoder@@AAEXEIIIAAVIFXVector3@@@Z 1001f6a4 f   Importing:CIFXPointSetDecoder.obj
 0001:0001e7a8       ?CalculatePredictedNormalAtSplitPos@CIFXPointSetDecoder@@AAEXIIAAVIFXVector3@@@Z 1001f7a8 f   Importing:CIFXPointSetDecoder.obj
 0001:0001e82c       ?ProcessAuthorPointSetDeclarationBlockX@CIFXPointSetDecoder@@AAEXXZ 1001f82c f   Importing:CIFXPointSetDecoder.obj
 0001:0001f208       ??0CIFXPointSetDecoder@@AAE@XZ 10020208 f   Importing:CIFXPointSetDecoder.obj
 0001:0001f324       ?GetPointsAtPosition@CIFXPointSetDecoder@@AAEXAAIAAV?$IFXArray@I@@@Z 10020324 f   Importing:CIFXPointSetDecoder.obj
 0001:0001f3ce       ?ReconstructColorDifference@CIFXPointSetDecoder@@AAEXHAAEAAI111AAVIFXVector4@@@Z 100203ce f   Importing:CIFXPointSetDecoder.obj
 0001:0001f52c       ?InitializeX@CIFXPointSetDecoder@@UAIXABUIFXLoadConfig@@@Z 1002052c f   Importing:CIFXPointSetDecoder.obj
 0001:0001f554       ?AddRef@CIFXPointSetDecoder@@$4PPPPPPPM@A@AIIXZ 10020554 f i Importing:CIFXPointSetDecoder.obj
 0001:0001f560       ?Release@CIFXPointSetDecoder@@$4PPPPPPPM@A@AIIXZ 10020560 f i Importing:CIFXPointSetDecoder.obj
 0001:0001f56c       ?QueryInterface@CIFXPointSetDecoder@@$4PPPPPPPM@A@AIHABUIFXGUID@@PAPAX@Z 1002056c f i Importing:CIFXPointSetDecoder.obj
 0001:0001f578       ?PutNextBlockX@CIFXPointSetDecoder@@$4PPPPPPPM@A@AIXAAVIFXDataBlockX@@@Z 10020578 f i Importing:CIFXPointSetDecoder.obj
 0001:0001f584       ?TransferX@CIFXPointSetDecoder@@$4PPPPPPPM@A@AIXAAH@Z 10020584 f i Importing:CIFXPointSetDecoder.obj
 0001:0001f590       ?InitializeX@CIFXPointSetDecoder@@$4PPPPPPPM@A@AIXABUIFXLoadConfig@@@Z 10020590 f i Importing:CIFXPointSetDecoder.obj
 0001:0001f59c       ??_GCIFXLineSetDecoder@@EAEPAXI@Z 1002059c f i Importing:CIFXLineSetDecoder.obj
 0001:0001f59c       ??_ECIFXLineSetDecoder@@EAEPAXI@Z 1002059c f i Importing:CIFXLineSetDecoder.obj
 0001:0001f5c0       ??1CIFXLineSetDecoder@@EAE@XZ 100205c0 f   Importing:CIFXLineSetDecoder.obj
 0001:0001f702       ?CIFXLineSetDecoder_Factory@@YIHABUIFXGUID@@PAPAX@Z 10020702 f   Importing:CIFXLineSetDecoder.obj
 0001:0001f7dc       ??0CIFXLineSetDecoder@@AAE@XZ 100207dc f   Importing:CIFXLineSetDecoder.obj
 0001:0001f90e       ?AddRef@CIFXLineSetDecoder@@UAIIXZ 1002090e f   Importing:CIFXLineSetDecoder.obj
 0001:0001f91e       ?Release@CIFXLineSetDecoder@@UAIIXZ 1002091e f   Importing:CIFXLineSetDecoder.obj
 0001:0001f93c       ?QueryInterface@CIFXLineSetDecoder@@UAIHABUIFXGUID@@PAPAX@Z 1002093c f   Importing:CIFXLineSetDecoder.obj
 0001:0001fb2c       ?PutNextBlockX@CIFXLineSetDecoder@@UAIXAAVIFXDataBlockX@@@Z 10020b2c f   Importing:CIFXLineSetDecoder.obj
 0001:0001fc0c       ?TransferX@CIFXLineSetDecoder@@UAIXAAH@Z 10020c0c f   Importing:CIFXLineSetDecoder.obj
 0001:00020180       ?ProcessAuthorLineSetContinuationBlockX@CIFXLineSetDecoder@@AAEXXZ 10021180 f   Importing:CIFXLineSetDecoder.obj
 0001:0002036e       ?ReadLineUpdateX@CIFXLineSetDecoder@@AAEXI@Z 1002136e f   Importing:CIFXLineSetDecoder.obj
 0001:00021478       ?ReconstructNormal@CIFXLineSetDecoder@@AAEXEIIIAAVIFXVector3@@@Z 10022478 f   Importing:CIFXLineSetDecoder.obj
 0001:0002157c       ?CalculatePredictedColorAtSplitPosX@CIFXLineSetDecoder@@AAEXHIIAAVIFXVector4@@@Z 1002257c f   Importing:CIFXLineSetDecoder.obj
 0001:00022596       ?CalculatePredictedTexCoordAtSplitPosX@CIFXLineSetDecoder@@AAEXIIIAAVIFXVector4@@@Z 10023596 f   Importing:CIFXLineSetDecoder.obj
 0001:0002357e       ?ReconstructTexCoord@CIFXLineSetDecoder@@AAEXEIIIIAAVIFXVector4@@@Z 1002457e f   Importing:CIFXLineSetDecoder.obj
 0001:000236d2       ?ReconstructPosition@CIFXLineSetDecoder@@AAEXEIIIAAVIFXVector3@@@Z 100246d2 f   Importing:CIFXLineSetDecoder.obj
 0001:000237d6       ?CalculatePredictedNormalAtSplitPosX@CIFXLineSetDecoder@@AAEXIIAAVIFXVector3@@@Z 100247d6 f   Importing:CIFXLineSetDecoder.obj
 0001:000247c4       ?NormalizeNormals@CIFXLineSetDecoder@@AAEXXZ 100257c4 f   Importing:CIFXLineSetDecoder.obj
 0001:000248a0       ?ProcessAuthorLineSetDeclarationBlockX@CIFXLineSetDecoder@@AAEXXZ 100258a0 f   Importing:CIFXLineSetDecoder.obj
 0001:0002527c       ?ReconstructColorDifference@CIFXLineSetDecoder@@AAEXHAAEAAI111AAVIFXVector4@@@Z 1002627c f   Importing:CIFXLineSetDecoder.obj
 0001:000253d6       ?InitializeX@CIFXLineSetDecoder@@UAIXABUIFXLoadConfig@@@Z 100263d6 f   Importing:CIFXLineSetDecoder.obj
 0001:000253fc       ??_G?$IFXArray@I@@UAEPAXI@Z 100263fc f i Importing:CIFXLineSetDecoder.obj
 0001:000253fc       ??_E?$IFXArray@I@@UAEPAXI@Z 100263fc f i Importing:CIFXLineSetDecoder.obj
 0001:00025500       ?Destruct@?$IFXArray@PAVIFXLoadManager@@@@EAEXI@Z 10026500 f i Importing:CIFXLoadManager.obj
 0001:00025500       ?Destruct@?$IFXArray@I@@EAEXI@Z 10026500 f i Importing:CIFXLineSetDecoder.obj
 0001:00025528       ?DestructAll@?$IFXArray@PAVIFXLoadManager@@@@EAEXXZ 10026528 f i Importing:CIFXLoadManager.obj
 0001:00025528       ?DestructAll@?$IFXArray@I@@EAEXXZ 10026528 f i Importing:CIFXLineSetDecoder.obj
 0001:00025588       ?Preallocate@?$IFXArray@I@@EAEXI@Z 10026588 f i Importing:CIFXLineSetDecoder.obj
 0001:00025588       ?Preallocate@?$IFXArray@PAVIFXLoadManager@@@@EAEXI@Z 10026588 f i Importing:CIFXLoadManager.obj
 0001:000255c0       ?AddRef@CIFXLineSetDecoder@@$4PPPPPPPM@A@AIIXZ 100265c0 f i Importing:CIFXLineSetDecoder.obj
 0001:000255cc       ?Release@CIFXLineSetDecoder@@$4PPPPPPPM@A@AIIXZ 100265cc f i Importing:CIFXLineSetDecoder.obj
 0001:000255d8       ?QueryInterface@CIFXLineSetDecoder@@$4PPPPPPPM@A@AIHABUIFXGUID@@PAPAX@Z 100265d8 f i Importing:CIFXLineSetDecoder.obj
 0001:000255e4       ?PutNextBlockX@CIFXLineSetDecoder@@$4PPPPPPPM@A@AIXAAVIFXDataBlockX@@@Z 100265e4 f i Importing:CIFXLineSetDecoder.obj
 0001:000255f0       ?TransferX@CIFXLineSetDecoder@@$4PPPPPPPM@A@AIXAAH@Z 100265f0 f i Importing:CIFXLineSetDecoder.obj
 0001:000255fc       ??1?$IFXArray@I@@UAE@XZ    100265fc f i Importing:CIFXLineSetDecoder.obj
 0001:000256ec       ?InitializeX@CIFXLineSetDecoder@@$4PPPPPPPM@A@AIXABUIFXLoadConfig@@@Z 100266ec f i Importing:CIFXLineSetDecoder.obj
 0001:000256f8       ??_ECIFXBoneWeightsModifierDecoder@@EAEPAXI@Z 100266f8 f i Importing:CIFXBoneWeightsModifierDecoder.obj
 0001:000256f8       ??_GCIFXBoneWeightsModifierDecoder@@EAEPAXI@Z 100266f8 f i Importing:CIFXBoneWeightsModifierDecoder.obj
 0001:0002571c       ??1CIFXBoneWeightsModifierDecoder@@EAE@XZ 1002671c f   Importing:CIFXBoneWeightsModifierDecoder.obj
 0001:0002578a       ?CIFXBoneWeightsModifierDecoder_Factory@@YIHABUIFXGUID@@PAPAX@Z 1002678a f   Importing:CIFXBoneWeightsModifierDecoder.obj
 0001:000258c2       ?AddRef@CIFXBoneWeightsModifierDecoder@@UAIIXZ 100268c2 f   Importing:CIFXBoneWeightsModifierDecoder.obj
 0001:000258cc       ?Release@CIFXBoneWeightsModifierDecoder@@UAIIXZ 100268cc f   Importing:CIFXBoneWeightsModifierDecoder.obj
 0001:000258e8       ?QueryInterface@CIFXBoneWeightsModifierDecoder@@UAIHABUIFXGUID@@PAPAX@Z 100268e8 f   Importing:CIFXBoneWeightsModifierDecoder.obj
 0001:00025ac0       ?PutNextBlockX@CIFXBoneWeightsModifierDecoder@@UAIXAAVIFXDataBlockX@@@Z 10026ac0 f   Importing:CIFXBoneWeightsModifierDecoder.obj
 0001:00025b18       ?TransferX@CIFXBoneWeightsModifierDecoder@@UAIXAAH@Z 10026b18 f   Importing:CIFXBoneWeightsModifierDecoder.obj
 0001:00025c16       ?ProcessBoneWeightsModifierBlockX@CIFXBoneWeightsModifierDecoder@@AAEXAAVIFXDataBlockX@@@Z 10026c16 f   Importing:CIFXBoneWeightsModifierDecoder.obj
 0001:000260ba       ??0CIFXBoneWeightsModifierDecoder@@AAE@XZ 100270ba f   Importing:CIFXBoneWeightsModifierDecoder.obj
 0001:00026136       ?InitializeX@CIFXBoneWeightsModifierDecoder@@UAIXABUIFXLoadConfig@@@Z 10027136 f   Importing:CIFXBoneWeightsModifierDecoder.obj
 0001:00026140       ?AddRef@CIFXBoneWeightsModifierDecoder@@$4PPPPPPPM@A@AIIXZ 10027140 f i Importing:CIFXBoneWeightsModifierDecoder.obj
 0001:0002614c       ?Release@CIFXBoneWeightsModifierDecoder@@$4PPPPPPPM@A@AIIXZ 1002714c f i Importing:CIFXBoneWeightsModifierDecoder.obj
 0001:00026158       ?QueryInterface@CIFXBoneWeightsModifierDecoder@@$4PPPPPPPM@A@AIHABUIFXGUID@@PAPAX@Z 10027158 f i Importing:CIFXBoneWeightsModifierDecoder.obj
 0001:00026164       ?PutNextBlockX@CIFXBoneWeightsModifierDecoder@@$4PPPPPPPM@A@AIXAAVIFXDataBlockX@@@Z 10027164 f i Importing:CIFXBoneWeightsModifierDecoder.obj
 0001:00026170       ?TransferX@CIFXBoneWeightsModifierDecoder@@$4PPPPPPPM@A@AIXAAH@Z 10027170 f i Importing:CIFXBoneWeightsModifierDecoder.obj
 0001:0002617c       ?InitializeX@CIFXBoneWeightsModifierDecoder@@$4PPPPPPPM@A@AIXABUIFXLoadConfig@@@Z 1002717c f i Importing:CIFXBoneWeightsModifierDecoder.obj
 0001:00026188       ??_ECIFXCLODModifierDecoder@@EAEPAXI@Z 10027188 f i Importing:CIFXCLODModifierDecoder.obj
 0001:00026188       ??_GCIFXCLODModifierDecoder@@EAEPAXI@Z 10027188 f i Importing:CIFXCLODModifierDecoder.obj
 0001:000261ac       ??1CIFXCLODModifierDecoder@@EAE@XZ 100271ac f   Importing:CIFXCLODModifierDecoder.obj
 0001:0002621a       ?CIFXCLODModifierDecoder_Factory@@YIHABUIFXGUID@@PAPAX@Z 1002721a f   Importing:CIFXCLODModifierDecoder.obj
 0001:00026352       ?AddRef@CIFXCLODModifierDecoder@@UAIIXZ 10027352 f   Importing:CIFXCLODModifierDecoder.obj
 0001:0002635c       ?Release@CIFXCLODModifierDecoder@@UAIIXZ 1002735c f   Importing:CIFXCLODModifierDecoder.obj
 0001:00026378       ?QueryInterface@CIFXCLODModifierDecoder@@UAIHABUIFXGUID@@PAPAX@Z 10027378 f   Importing:CIFXCLODModifierDecoder.obj
 0001:00026550       ?PutNextBlockX@CIFXCLODModifierDecoder@@UAIXAAVIFXDataBlockX@@@Z 10027550 f   Importing:CIFXCLODModifierDecoder.obj
 0001:000265a8       ?TransferX@CIFXCLODModifierDecoder@@UAIXAAH@Z 100275a8 f   Importing:CIFXCLODModifierDecoder.obj
 0001:000266a6       ?ProcessCLODModifierBlockX@CIFXCLODModifierDecoder@@AAEXAAVIFXDataBlockX@@@Z 100276a6 f   Importing:CIFXCLODModifierDecoder.obj
 0001:00026a48       ??0CIFXCLODModifierDecoder@@AAE@XZ 10027a48 f   Importing:CIFXCLODModifierDecoder.obj
 0001:00026ac4       ?InitializeX@CIFXCLODModifierDecoder@@UAIXABUIFXLoadConfig@@@Z 10027ac4 f   Importing:CIFXCLODModifierDecoder.obj
 0001:00026ad0       ?AddRef@CIFXCLODModifierDecoder@@$4PPPPPPPM@A@AIIXZ 10027ad0 f i Importing:CIFXCLODModifierDecoder.obj
 0001:00026adc       ?Release@CIFXCLODModifierDecoder@@$4PPPPPPPM@A@AIIXZ 10027adc f i Importing:CIFXCLODModifierDecoder.obj
 0001:00026ae8       ?QueryInterface@CIFXCLODModifierDecoder@@$4PPPPPPPM@A@AIHABUIFXGUID@@PAPAX@Z 10027ae8 f i Importing:CIFXCLODModifierDecoder.obj
 0001:00026af4       ?PutNextBlockX@CIFXCLODModifierDecoder@@$4PPPPPPPM@A@AIXAAVIFXDataBlockX@@@Z 10027af4 f i Importing:CIFXCLODModifierDecoder.obj
 0001:00026b00       ?TransferX@CIFXCLODModifierDecoder@@$4PPPPPPPM@A@AIXAAH@Z 10027b00 f i Importing:CIFXCLODModifierDecoder.obj
 0001:00026b0c       ?InitializeX@CIFXCLODModifierDecoder@@$4PPPPPPPM@A@AIXABUIFXLoadConfig@@@Z 10027b0c f i Importing:CIFXCLODModifierDecoder.obj
 0001:00026b18       ??_ECIFXDummyModifierDecoder@@EAEPAXI@Z 10027b18 f i Importing:CIFXDummyModifierDecoder.obj
 0001:00026b18       ??_GCIFXDummyModifierDecoder@@EAEPAXI@Z 10027b18 f i Importing:CIFXDummyModifierDecoder.obj
 0001:00026b3c       ??1CIFXDummyModifierDecoder@@EAE@XZ 10027b3c f   Importing:CIFXDummyModifierDecoder.obj
 0001:00026baa       ?CIFXDummyModifierDecoder_Factory@@YIHABUIFXGUID@@PAPAX@Z 10027baa f   Importing:CIFXDummyModifierDecoder.obj
 0001:00026ce2       ?AddRef@CIFXDummyModifierDecoder@@UAIIXZ 10027ce2 f   Importing:CIFXDummyModifierDecoder.obj
 0001:00026cec       ?Release@CIFXDummyModifierDecoder@@UAIIXZ 10027cec f   Importing:CIFXDummyModifierDecoder.obj
 0001:00026d08       ?QueryInterface@CIFXDummyModifierDecoder@@UAIHABUIFXGUID@@PAPAX@Z 10027d08 f   Importing:CIFXDummyModifierDecoder.obj
 0001:00026ee0       ?PutNextBlockX@CIFXDummyModifierDecoder@@UAIXAAVIFXDataBlockX@@@Z 10027ee0 f   Importing:CIFXDummyModifierDecoder.obj
 0001:00026f4e       ?TransferX@CIFXDummyModifierDecoder@@UAIXAAH@Z 10027f4e f   Importing:CIFXDummyModifierDecoder.obj
 0001:00027088       ??0CIFXDummyModifierDecoder@@AAE@XZ 10028088 f   Importing:CIFXDummyModifierDecoder.obj
 0001:00027104       ?InitializeX@CIFXDummyModifierDecoder@@UAIXABUIFXLoadConfig@@@Z 10028104 f   Importing:CIFXDummyModifierDecoder.obj
 0001:00027110       ?AddRef@CIFXDummyModifierDecoder@@$4PPPPPPPM@A@AIIXZ 10028110 f i Importing:CIFXDummyModifierDecoder.obj
 0001:0002711c       ?Release@CIFXDummyModifierDecoder@@$4PPPPPPPM@A@AIIXZ 1002811c f i Importing:CIFXDummyModifierDecoder.obj
 0001:00027128       ?QueryInterface@CIFXDummyModifierDecoder@@$4PPPPPPPM@A@AIHABUIFXGUID@@PAPAX@Z 10028128 f i Importing:CIFXDummyModifierDecoder.obj
 0001:00027134       ?PutNextBlockX@CIFXDummyModifierDecoder@@$4PPPPPPPM@A@AIXAAVIFXDataBlockX@@@Z 10028134 f i Importing:CIFXDummyModifierDecoder.obj
 0001:00027140       ?TransferX@CIFXDummyModifierDecoder@@$4PPPPPPPM@A@AIXAAH@Z 10028140 f i Importing:CIFXDummyModifierDecoder.obj
 0001:0002714c       ?InitializeX@CIFXDummyModifierDecoder@@$4PPPPPPPM@A@AIXABUIFXLoadConfig@@@Z 1002814c f i Importing:CIFXDummyModifierDecoder.obj
 0001:00027158       ??_GIFXModifierBaseDecoder@@MAEPAXI@Z 10028158 f i Importing:IFXModifierBaseDecoder.obj
 0001:00027158       ??_EIFXModifierBaseDecoder@@MAEPAXI@Z 10028158 f i Importing:IFXModifierBaseDecoder.obj
 0001:0002717c       ??1IFXModifierBaseDecoder@@MAE@XZ 1002817c f   Importing:IFXModifierBaseDecoder.obj
 0001:00027254       ??0IFXModifierBaseDecoder@@IAE@XZ 10028254 f   Importing:IFXModifierBaseDecoder.obj
 0001:0002728a       ?CreateObjectX@IFXModifierBaseDecoder@@IAEXAAVIFXDataBlockX@@ABUIFXGUID@@@Z 1002828a f   Importing:IFXModifierBaseDecoder.obj
 0001:000275d8       ?ProcessChainX@IFXModifierBaseDecoder@@IAEXAAVIFXDataBlockX@@@Z 100285d8 f   Importing:IFXModifierBaseDecoder.obj
 0001:00027ba2       ?InitializeX@IFXModifierBaseDecoder@@IAEXABUIFXLoadConfig@@@Z 10028ba2 f   Importing:IFXModifierBaseDecoder.obj
 0001:00027c38       ??1?$IFXAutoRelease@VIFXExtensionDecoderX@@@@QAE@XZ 10028c38 f i Importing:CIFXLoadManager.obj
 0001:00027c38       ??1?$IFXAutoRelease@VIFXShaderList@@@@QAE@XZ 10028c38 f i Importing:CIFXShadingModifierDecoder.obj
 0001:00027c38       ??1?$IFXAutoRelease@VIFXNotificationManager@@@@QAE@XZ 10028c38 f i Importing:CIFXLoadManager.obj
 0001:00027c38       ??1?$IFXAutoRelease@VIFXViewResource@@@@QAE@XZ 10028c38 f i Importing:CIFXViewResourceDecoder.obj
 0001:00027c38       ??1?$IFXAutoRelease@VIFXDataBlockX@@@@QAE@XZ 10028c38 f i Importing:CIFXGroupDecoder.obj
 0001:00027c38       ??1?$IFXAutoRelease@VIFXMixerConstruct@@@@QAE@XZ 10028c38 f i Importing:CIFXMotionDecoder.obj
 0001:00027c38       ??1?$IFXAutoRelease@VIFXShaderLitTexture@@@@QAE@XZ 10028c38 f i Importing:CIFXShaderLitTextureDecoder.obj
 0001:00027c38       ??1?$IFXAutoRelease@VIFXTask@@@@QAE@XZ 10028c38 f i Importing:CIFXLoadManager.obj
 0001:00027c38       ??1?$IFXAutoRelease@VIFXModifier@@@@QAE@XZ 10028c38 f i Importing:IFXModifierBaseDecoder.obj
 0001:00027c38       ??1?$IFXAutoRelease@VIFXAuthorCLODResource@@@@QAE@XZ 10028c38 f i Importing:CIFXAuthorCLODDecoder.obj
 0001:00027c38       ??1?$IFXAutoRelease@VIFXMaterialResource@@@@QAE@XZ 10028c38 f i Importing:CIFXMaterialDecoder.obj
 0001:00027c38       ??1?$IFXAutoRelease@VIFXCLODModifier@@@@QAE@XZ 10028c38 f i Importing:CIFXCLODModifierDecoder.obj
 0001:00027c38       ??1?$IFXAutoRelease@VIFXBoneWeightsModifier@@@@QAE@XZ 10028c38 f i Importing:CIFXBoneWeightsModifierDecoder.obj
 0001:00027c38       ??1?$IFXAutoRelease@VIFXStdio@@@@QAE@XZ 10028c38 f i Importing:CIFXLoadManager.obj
 0001:00027c38       ??1?$IFXAutoRelease@VIFXGlyph2DModifier@@@@QAE@XZ 10028c38 f i Importing:CIFXGlyphModifierDecoder.obj
 0001:00027c38       ??1?$IFXAutoRelease@VIFXMetaDataX@@@@QAE@XZ 10028c38 f i Importing:CIFXAuthorCLODDecoder.obj
 0001:00027c38       ??1?$IFXAutoRelease@VIFXReadingCallback@@@@QAE@XZ 10028c38 f i Importing:CIFXInternetReadBufferX.obj
 0001:00027c38       ??1?$IFXAutoRelease@VIFXLoadManager@@@@QAE@XZ 10028c38 f i Importing:CIFXLoadManager.obj
 0001:00027c38       ??1?$IFXAutoRelease@VIFXNameMap@@@@QAE@XZ 10028c38 f i Importing:CIFXAuthorCLODDecoder.obj
 0001:00027c38       ??1?$IFXAutoRelease@VIFXFileReference@@@@QAE@XZ 10028c38 f i Importing:CIFXLoadManager.obj
 0001:00027c38       ??1?$IFXAutoRelease@VIFXMarker@@@@QAE@XZ 10028c38 f i Importing:CIFXLightDecoder.obj
 0001:00027c38       ??1?$IFXAutoRelease@VIFXReadBuffer@@@@QAE@XZ 10028c38 f i Importing:CIFXLoadManager.obj
 0001:00027c38       ??1?$IFXAutoRelease@VIFXReadBufferX@@@@QAE@XZ 10028c38 f i Importing:CIFXBlockReaderX.obj
 0001:00027c38       ??1?$IFXAutoRelease@VIFXAuthorPointSetResource@@@@QAE@XZ 10028c38 f i Importing:CIFXPointSetDecoder.obj
 0001:00027c38       ??1?$IFXAutoRelease@VIFXShadingModifier@@@@QAE@XZ 10028c38 f i Importing:CIFXShadingModifierDecoder.obj
 0001:00027c38       ??1?$IFXAutoRelease@VIFXLight@@@@QAE@XZ 10028c38 f i Importing:CIFXLightDecoder.obj
 0001:00027c38       ??1?$IFXAutoRelease@VIFXSystemManager@@@@QAE@XZ 10028c38 f i Importing:CIFXLoadManager.obj
 0001:00027c38       ??1?$IFXAutoRelease@VIFXAuthorLineSet@@@@QAE@XZ 10028c38 f i Importing:CIFXLineSetDecoder.obj
 0001:00027c38       ??1?$IFXAutoRelease@VIFXAuthorPointSet@@@@QAE@XZ 10028c38 f i Importing:CIFXPointSetDecoder.obj
 0001:00027c38       ??1?$IFXAutoRelease@VIFXSubdivModifier@@@@QAE@XZ 10028c38 f i Importing:CIFXSubdivisionModifierDecoder.obj
 0001:00027c38       ??1?$IFXAutoRelease@VIFXDecoderX@@@@QAE@XZ 10028c38 f i Importing:CIFXTextureDecoder.obj
 0001:00027c38       ??1?$IFXAutoRelease@VIFXMotionResource@@@@QAE@XZ 10028c38 f i Importing:CIFXMotionDecoder.obj
 0001:00027c38       ??1?$IFXAutoRelease@VIFXModifierChain@@@@QAE@XZ 10028c38 f i Importing:IFXModifierBaseDecoder.obj
 0001:00027c38       ??1?$IFXAutoRelease@VIFXModel@@@@QAE@XZ 10028c38 f i Importing:CIFXAuthorCLODDecoder.obj
 0001:00027c38       ??1?$IFXAutoRelease@VIFXDummyModifier@@@@QAE@XZ 10028c38 f i Importing:CIFXDummyModifierDecoder.obj
 0001:00027c38       ??1?$IFXAutoRelease@VIFXSceneGraph@@@@QAE@XZ 10028c38 f i Importing:CIFXAuthorCLODDecoder.obj
 0001:00027c38       ??1?$IFXAutoRelease@VIFXAuthorLineSetResource@@@@QAE@XZ 10028c38 f i Importing:CIFXLineSetDecoder.obj
 0001:00027c38       ??1?$IFXAutoRelease@VIFXAnimationModifier@@@@QAE@XZ 10028c38 f i Importing:CIFXAnimationModifierDecoder.obj
 0001:00027c38       ??1?$IFXAutoRelease@VIFXNode@@@@QAE@XZ 10028c38 f i Importing:CIFXViewResourceDecoder.obj
 0001:00027c38       ??1?$IFXAutoRelease@VIFXResourceClient@@@@QAE@XZ 10028c38 f i Importing:CIFXModelDecoder.obj
 0001:00027c38       ??1?$IFXAutoRelease@VIFXView@@@@QAE@XZ 10028c38 f i Importing:CIFXViewDecoder.obj
 0001:00027c5c       ??0IFXString@@QAE@XZ       10028c5c f   Importing:IFXString.obj
 0001:00027c6e       ??0IFXString@@QAE@PBD@Z    10028c6e f   Importing:IFXString.obj
 0001:00027d00       ??0IFXString@@QAE@I@Z      10028d00 f   Importing:IFXString.obj
 0001:00027d42       ?Clear@IFXString@@QAEHXZ   10028d42 f   Importing:IFXString.obj
 0001:00027d64       ?LengthU8@IFXString@@QBEIXZ 10028d64 f   Importing:IFXString.obj
 0001:00027d80       ?GetLengthU8@IFXString@@QAEHPAI@Z 10028d80 f   Importing:IFXString.obj
 0001:00027dac       ?IsEmpty@IFXString@@QAEHXZ 10028dac f   Importing:IFXString.obj
 0001:00027dc4       ?Assign@IFXString@@QAEHPBV1@@Z 10028dc4 f   Importing:IFXString.obj
 0001:00027e52       ?Compare@IFXString@@QBEHPBG@Z 10028e52 f   Importing:IFXString.obj
 0001:00027e88       ?CompareNoCase@IFXString@@QBEHPBG@Z 10028e88 f   Importing:IFXString.obj
 0001:00027f12       ??1IFXString@@UAE@XZ       10028f12 f   Importing:IFXString.obj
 0001:00027f38       ?ForceLowercase@IFXString@@QAEXXZ 10028f38 f   Importing:IFXString.obj
 0001:00027f8a       ??0IFXString@@QAE@PBV0@@Z  10028f8a f   Importing:IFXString.obj
 0001:00027fec       ??0IFXString@@QAE@PBG@Z    10028fec f   Importing:IFXString.obj
 0001:0002806a       ?ForceUppercase@IFXString@@QAEXXZ 1002906a f   Importing:IFXString.obj
 0001:000280bc       ?ConvertToRawU8@IFXString@@QAEHPAEI@Z 100290bc f   Importing:IFXString.obj
 0001:00028118       ?Length@IFXString@@QBEIXZ  10029118 f   Importing:IFXString.obj
 0001:0002812a       ?Substring@IFXString@@QBEHPAV1@II@Z 1002912a f   Importing:IFXString.obj
 0001:000281a8       ?Substring@IFXString@@QBEHPAGIII@Z 100291a8 f   Importing:IFXString.obj
 0001:00028208       ?FindSubstring@IFXString@@QBEHPBGPAI@Z 10029208 f   Importing:IFXString.obj
 0001:000282aa       ?SetAt@IFXString@@QAEHIPAG@Z 100292aa f   Importing:IFXString.obj
 0001:000282ec       ?GetAt@IFXString@@QAEHIPAG@Z 100292ec f   Importing:IFXString.obj
 0001:0002832e       ?IsDigit@IFXString@@QAEHI@Z 1002932e f   Importing:IFXString.obj
 0001:0002835e       ?ToString@IFXString@@QAEHID@Z 1002935e f   Importing:IFXString.obj
 0001:000283ec       ?Assign@IFXString@@QAEHPBE@Z 100293ec f   Importing:IFXString.obj
 0001:00028482       ?ToValue@IFXString@@QAEHPAID@Z 10029482 f   Importing:IFXString.obj
 0001:000284cc       ??HIFXString@@QBE?AV0@ABV0@@Z 100294cc f   Importing:IFXString.obj
 0001:000284ee       ??0IFXString@@QAE@ABV0@@Z  100294ee f   Importing:IFXString.obj
 0001:0002853e       ?Concatenate@IFXString@@QAEHPBG@Z 1002953e f   Importing:IFXString.obj
 0001:000285e8       ?Assign@IFXString@@QAEHPBG@Z 100295e8 f   Importing:IFXString.obj
 0001:00028676       ??HIFXString@@QBE?AV0@PBE@Z 10029676 f   Importing:IFXString.obj
 0001:000286b6       ??0IFXString@@QAE@PBE@Z    100296b6 f   Importing:IFXString.obj
 0001:00028748       ??HIFXString@@QBE?AV0@PBG@Z 10029748 f   Importing:IFXString.obj
 0001:00028766       ?VSPrintf@IFXString@@QAEAAV1@PBGPAD@Z 10029766 f   Importing:IFXString.obj
 0001:0002885a       ?Match@IFXString@@QAEIPBGI@Z 1002985a f   Importing:IFXString.obj
 0001:00028880       ?ProcessAuthorCLODStaticGeometryBlockX@CIFXAuthorCLODDecoder@@AAEXI@Z 10029880 f   Importing:CIFXAuthorCLODDecoder_S.obj
 0001:00029510       ?ProcessAuthorCLODProgressiveGeometryBlocksX@CIFXAuthorCLODDecoder@@AAEXI@Z 1002a510 f   Importing:CIFXAuthorCLODDecoder_P.obj
 0001:0002ebfa       ?CalculateFaceNormalX@CIFXAuthorCLODDecoder@@AAEXIAAVIFXVector3@@@Z 1002fbfa f   Importing:CIFXAuthorCLODDecoder_P.obj
 0001:0002f170       _sqrtf                     10030170 f i Importing:CIFXAuthorCLODDecoder_P.obj
 0001:0002f18c       ??4IFXAuthorVertexUpdate@@QAEAAU0@ABU0@@Z 1003018c f i Importing:CIFXAuthorCLODDecoder_P.obj
 0001:0002f2b4       ??0IFXAuthorMaterial@@QAE@XZ 100302b4 f i Importing:CIFXAuthorCLODDecoder_P.obj
 0001:0002f2ec       ??1IFXAuthorVertexUpdate@@QAE@XZ 100302ec f i Importing:CIFXAuthorCLODDecoder_P.obj
 0001:0002f308       ?IFXMatrix4x4_Multiply@@YAXPAMPBM1@Z 10030308 f   Importing:IFXMatrix4x4.obj
 0001:0002f59c       ?IFXMatrix4x4_MakeIdentity@@YAXPAM@Z 1003059c f   Importing:IFXMatrix4x4.obj
 0001:0002f5f8       ?IFXMatrix4x4_Scale@@YAXPAMPBM@Z 100305f8 f   Importing:IFXMatrix4x4.obj
 0001:0002f686       ?IFXMatrix4x4_Transpose@@YAXPAM@Z 10030686 f   Importing:IFXMatrix4x4.obj
 0001:0002f6d4       ?IFXMatrix4x4_CalcDeterminant3x3@@YAMPBM@Z 100306d4 f   Importing:IFXMatrix4x4.obj
 0001:0002f74e       ?CalcDeterminant3x3@@YAMMMMMMMMMM@Z 1003074e f   Importing:IFXMatrix4x4.obj
 0001:0002f7a0       ?IFXMatrix4x4_CalcDeterminant@@YAMPBM@Z 100307a0 f   Importing:IFXMatrix4x4.obj
 0001:0002f92c       ?IFXMatrix4x4_Invert@@YAHPAMPBM@Z 1003092c f   Importing:IFXMatrix4x4.obj
 0001:000300b8       ?IFXMatrix4x4_Multiply3x4@@YAXPAMPBM1@Z 100310b8 f   Importing:IFXMatrix4x4.obj
 0001:00030240       ??4IFXMatrix4x4@@QAEAAV0@ABVIFXQuaternion@@@Z 10031240 f   Importing:IFXMatrix4x4.obj
 0001:00030368       ?Scale@IFXMatrix4x4@@QAEAAV1@ABVIFXVector3@@@Z 10031368 f   Importing:IFXMatrix4x4.obj
 0001:000303f6       ?Multiply3x4@IFXMatrix4x4@@QAEAAV1@ABV1@0@Z 100313f6 f   Importing:IFXMatrix4x4.obj
 0001:00030412       ?Multiply@IFXMatrix4x4@@QAEAAV1@ABV1@0@Z 10031412 f   Importing:IFXMatrix4x4.obj
 0001:0003042e       ?Invert3x4@IFXMatrix4x4@@QAEHABV1@@Z 1003142e f   Importing:IFXMatrix4x4.obj
 0001:00030442       ?IFXMatrix4x4_Invert3x4@@YAHPAMPBM@Z 10031442 f   Importing:IFXMatrix4x4.obj
 0001:0003044a       ?IFXMatrix4x4_Invert3x4.@@YAHPAMPBM@Z 1003144a f   Importing:IFXMatrix4x4.obj
 0001:00030664       ?Invert@IFXMatrix4x4@@QAEHABV1@@Z 10031664 f   Importing:IFXMatrix4x4.obj
 0001:00030676       ?CalcDeterminant@IFXMatrix4x4@@QBEMXZ 10031676 f   Importing:IFXMatrix4x4.obj
 0001:00030804       ?CalcDeterminant3x3@IFXMatrix4x4@@QBEMXZ 10031804 f   Importing:IFXMatrix4x4.obj
 0001:0003081a       ?CalcDeterminant3x3@IFXMatrix4x4@@SAMMMMMMMMMM@Z 1003181a f   Importing:IFXMatrix4x4.obj
 0001:00030878       ?CalcTRS@IFXMatrix4x4@@QBEHPAVIFXVector3@@PAVIFXQuaternion@@0@Z 10031878 f   Importing:IFXMatrix4x4.obj
 0001:0003091a       ?MakeIdentity@IFXMatrix4x4@@QAEAAV1@XZ 1003191a f   Importing:IFXMatrix4x4.obj
 0001:0003092a       ?Decompose@IFXMatrix4x4@@QBEHAAVIFXVector3@@AAV1@0@Z 1003192a f   Importing:IFXMatrix4x4.obj
 0001:00030ff2       ?CalcAxisScale@IFXMatrix4x4@@QBEXAAVIFXVector3@@@Z 10031ff2 f   Importing:IFXMatrix4x4.obj
 0001:000311ec       ?Transpose@IFXMatrix4x4@@QAEXXZ 100321ec f   Importing:IFXMatrix4x4.obj
 0001:000311f6       ?RotateAxis@IFXMatrix4x4@@QAEXABVIFXVector4@@M@Z 100321f6 f   Importing:IFXMatrix4x4.obj
 0001:000313dc       ??_ECIFXNodeBaseDecoder@@MAEPAXI@Z 100323dc f i Importing:CIFXNodeDecoder.obj
 0001:000313dc       ??_GCIFXNodeBaseDecoder@@MAEPAXI@Z 100323dc f i Importing:CIFXNodeDecoder.obj
 0001:00031400       ??1CIFXNodeBaseDecoder@@MAE@XZ 10032400 f   Importing:CIFXNodeDecoder.obj
 0001:00031526       ??0CIFXNodeBaseDecoder@@IAE@XZ 10032526 f   Importing:CIFXNodeDecoder.obj
 0001:00031564       ?CommonNodeReadU3DX@CIFXNodeBaseDecoder@@IAEHAAVIFXDataBlockX@@@Z 10032564 f   Importing:CIFXNodeDecoder.obj
 0001:00031c68       ?CreateObjectX@CIFXNodeBaseDecoder@@IAEXAAVIFXDataBlockX@@ABUIFXGUID@@@Z 10032c68 f   Importing:CIFXNodeDecoder.obj
 0001:00032174       ?ReplaceNodeX@CIFXNodeBaseDecoder@@IAEXIAAVIFXUnknown@@@Z 10033174 f   Importing:CIFXNodeDecoder.obj
 0001:00032530       ?AddParentNodePlaceholderX@CIFXNodeBaseDecoder@@IAEXAAVIFXDataBlockX@@@Z 10033530 f   Importing:CIFXNodeDecoder.obj
 0001:00032b30       ?InitializeX@CIFXNodeBaseDecoder@@IAEXABUIFXLoadConfig@@@Z 10033b30 f   Importing:CIFXNodeDecoder.obj
 0001:00032bd8       ?CheckInitializedX@CIFXNodeBaseDecoder@@IAEXXZ 10033bd8 f   Importing:CIFXNodeDecoder.obj
 0001:00032c18       ??0IFXCoreArray@@QAE@I@Z   10033c18 f   Importing:IFXCoreArray.obj
 0001:00032c38       ?Clear@IFXCoreArray@@UAEXI@Z 10033c38 f   Importing:IFXCoreArray.obj
 0001:00032c6c       ?ResizeToExactly@IFXCoreArray@@QAEXI@Z 10033c6c f   Importing:IFXCoreArray.obj
 0001:00032cc8       ?ResizeToAtLeast@IFXCoreArray@@QAEXI@Z 10033cc8 f   Importing:IFXCoreArray.obj
 0001:00032d10       ??0IFXInternetSessionX@@QAE@XZ 10033d10 f   Importing:IFXInternetSessionX.obj
 0001:00032d1a       ??1IFXInternetSessionX@@QAE@XZ 10033d1a f   Importing:IFXInternetSessionX.obj
 0001:00032d38       ?Close@IFXInternetSessionX@@QAEHXZ 10033d38 f   Importing:IFXInternetSessionX.obj
 0001:00032d46       ?OpenX@IFXInternetSessionX@@QAEXPAG@Z 10033d46 f   Importing:IFXInternetSessionX.obj
 0001:00032f00       ?OpenX@IFXInternetSessionX@@QAEXPAD@Z 10033f00 f   Importing:IFXInternetSessionX.obj
 0001:00033118       ?ParseURL@@YAHPADAAUUrlParseData@@@Z 10034118 f   Importing:IFXInternetSessionX.obj
 0001:00033120       ?ParseURL.@@YAHPADAAUUrlParseData@@@Z 10034120 f   Importing:IFXInternetSessionX.obj
 0001:00033246       ?Read@IFXInternetSessionX@@QAEHPAEIPAI@Z 10034246 f   Importing:IFXInternetSessionX.obj
 0001:00033270       ?SetOptions@IFXInternetSessionX@@QAEHIPBDH@Z 10034270 f   Importing:IFXInternetSessionX.obj
 0001:0003329a       ?GetOptions@IFXInternetSessionX@@QAEHIPADPAH@Z 1003429a f   Importing:IFXInternetSessionX.obj
 0001:000332c4       _WCMatch                   100342c4 f   Importing:wcmatch.obj
 0001:000332ec       _WCMatchPos                100342ec f   Importing:wcmatch.obj
 0001:000332f8       _WCMatchPos.               100342f8 f   Importing:wcmatch.obj
 0001:00033390       ?_wc_match@@YAPBGPBG0H@Z   10034390 f   Importing:wcmatch.obj
 0001:0003339c       ?_wc_match.@@YAPBGPBG0H@Z  1003439c f   Importing:wcmatch.obj
 0001:000334f8       ?_wc_specialchar@@YAHH@Z   100344f8 f   Importing:wcmatch.obj
 0001:000334fc       ?_wc_specialchar.@@YAHH@Z  100344fc f   Importing:wcmatch.obj
 0001:00033514       ?_equal_chars@@YAHHHH@Z    10034514 f   Importing:wcmatch.obj
 0001:00033520       ?_equal_chars.@@YAHHHH@Z   10034520 f   Importing:wcmatch.obj
 0001:0003355c       _WCPossible                1003455c f   Importing:wcmatch.obj
 0001:00033568       _WCPossible.               10034568 f   Importing:wcmatch.obj
 0001:000335d6       ?_wc_ci_strchr@@YAPBGPBGGH@Z 100345d6 f   Importing:wcmatch.obj
 0001:000335e3       ?_wc_ci_strchr.@@YAPBGPBGGH@Z 100345e3 f   Importing:wcmatch.obj
 0001:0003363c       ??4IFXQuaternion@@QAEAAV0@ABVIFXMatrix4x4@@@Z 1003463c f   Importing:IFXQuaternion.obj
 0001:000338a0       ?MakeRotation@IFXQuaternion@@QAEXMW4IFXAxisID@@@Z 100348a0 f   Importing:IFXQuaternion.obj
 0001:000338f2       ?MakeRotation@IFXQuaternion@@QAEXMABVIFXVector3@@@Z 100348f2 f   Importing:IFXQuaternion.obj
 0001:00033a3c       ?MakeRotation@IFXQuaternion@@QAEXABVIFXVector3@@0@Z 10034a3c f   Importing:IFXQuaternion.obj
 0001:00033d22       ?ComputeAngleAxis@IFXQuaternion@@QBEXAAMAAVIFXVector3@@@Z 10034d22 f   Importing:IFXQuaternion.obj
 0001:00033e26       ?Interpolate@IFXQuaternion@@QAEXMABV1@0@Z 10034e26 f   Importing:IFXQuaternion.obj
 0001:00034060       ?ExtractEulerZ@IFXQuaternion@@QAEMXZ 10035060 f   Importing:IFXQuaternion.obj
 0001:000342da       ?ForcePositiveW@IFXQuaternion@@QAEXXZ 100352da f   Importing:IFXQuaternion.obj
 0001:0003430c       ??_EIFXSocketStream@@QAEPAXI@Z 1003530c f i Importing:IFXInternetConnectionX.obj
 0001:0003430c       ??_GIFXSocketStream@@QAEPAXI@Z 1003530c f i Importing:IFXInternetConnectionX.obj
 0001:00034330       ??_GIFXInternetConnectionX@@UAEPAXI@Z 10035330 f i Importing:IFXInternetConnectionX.obj
 0001:00034330       ??_EIFXInternetConnectionX@@UAEPAXI@Z 10035330 f i Importing:IFXInternetConnectionX.obj
 0001:00034354       ??_EIFXHTTPConnectionX@@UAEPAXI@Z 10035354 f i Importing:IFXInternetConnectionX.obj
 0001:00034354       ??_GIFXHTTPConnectionX@@UAEPAXI@Z 10035354 f i Importing:IFXInternetConnectionX.obj
 0001:00034378       ??1IFXHTTPConnectionX@@UAE@XZ 10035378 f   Importing:IFXInternetConnectionX.obj
 0001:000343ca       ??1IFXInternetConnectionX@@UAE@XZ 100353ca f   Importing:IFXInternetConnectionX.obj
 0001:000343f2       ?Close@IFXInternetConnectionX@@UAEHXZ 100353f2 f   Importing:IFXInternetConnectionX.obj
 0001:00034402       ??1IFXFTPConnectionX@@UAE@XZ 10035402 f   Importing:IFXInternetConnectionX.obj
 0001:00034480       ?Close@IFXFTPConnectionX@@UAEHXZ 10035480 f   Importing:IFXInternetConnectionX.obj
 0001:00034490       ?MakeInternetConnectionX@@YAPAVIFXInternetConnectionX@@PBD@Z 10035490 f   Importing:IFXInternetConnectionX.obj
 0001:00034636       ??0IFXHTTPConnectionX@@QAE@XZ 10035636 f   Importing:IFXInternetConnectionX.obj
 0001:00034646       ??0IFXFTPConnectionX@@QAE@XZ 10035646 f   Importing:IFXInternetConnectionX.obj
 0001:00034658       ??0IFXInternetConnectionX@@QAE@XZ 10035658 f   Importing:IFXInternetConnectionX.obj
 0001:00034668       ?GetStream@IFXInternetConnectionX@@UBEPAVIFXSocketStream@@XZ 10035668 f   Importing:IFXInternetConnectionX.obj
 0001:0003466c       ?OpenFileX@IFXHTTPConnectionX@@UAEXPBD@Z 1003566c f   Importing:IFXInternetConnectionX.obj
 0001:000346ea       ?OpenFileX@IFXFTPConnectionX@@UAEXPBD@Z 100356ea f   Importing:IFXInternetConnectionX.obj
 0001:00034770       ?CreateDataConnectionX@IFXFTPConnectionX@@AAEXXZ 10035770 f   Importing:IFXInternetConnectionX.obj
 0001:00034a2e       ?CheckResponse@IFXFTPConnectionX@@AAEHPBDPAD@Z 10035a2e f   Importing:IFXInternetConnectionX.obj
 0001:00034af2       ?ParseFtpPasvResponse@@YAHPBDAAG@Z 10035af2 f   Importing:IFXInternetConnectionX.obj
 0001:00034afa       ?ParseFtpPasvResponse.@@YAHPBDAAG@Z 10035afa f   Importing:IFXInternetConnectionX.obj
 0001:00034be0       ?CheckFileRequestResponseX@IFXFTPConnectionX@@AAEXXZ 10035be0 f   Importing:IFXInternetConnectionX.obj
 0001:00034d10       ?GetStream@IFXFTPConnectionX@@UBEPAVIFXSocketStream@@XZ 10035d10 f   Importing:IFXInternetConnectionX.obj
 0001:00034d20       ?DoAuthorizationX@IFXFTPConnectionX@@AAEXPBD0@Z 10035d20 f   Importing:IFXInternetConnectionX.obj
 0001:00035164       ?SendRequest@IFXInternetConnectionX@@IAEHPBD0@Z 10036164 f   Importing:IFXInternetConnectionX.obj
 0001:000352de       ?InitializeX@IFXFTPConnectionX@@UAEXPBDAAG00@Z 100362de f   Importing:IFXInternetConnectionX.obj
 0001:00035342       ?InitializeX@IFXHTTPConnectionX@@UAEXPBDAAG00@Z 10036342 f   Importing:IFXInternetConnectionX.obj
 0001:0003536a       ?InitializeX@IFXInternetConnectionX@@UAEXPBDAAG00@Z 1003636a f   Importing:IFXInternetConnectionX.obj
 0001:00035540       ??_GIFXFTPConnectionX@@UAEPAXI@Z 10036540 f i Importing:IFXInternetConnectionX.obj
 0001:00035540       ??_EIFXFTPConnectionX@@UAEPAXI@Z 10036540 f i Importing:IFXInternetConnectionX.obj
 0001:00035564       ??0IFXSocketStream@@QAE@XZ 10036564 f   Importing:IFXSocketStream.obj
 0001:0003556e       ??1IFXSocketStream@@QAE@XZ 1003656e f   Importing:IFXSocketStream.obj
 0001:00035574       ?Close@IFXSocketStream@@QAEHXZ 10036574 f   Importing:IFXSocketStream.obj
 0001:0003558e       ?Open@IFXSocketStream@@QAEHXZ 1003658e f   Importing:IFXSocketStream.obj
 0001:000355a8       ?Connect@IFXSocketStream@@QAEHPBDG@Z 100365a8 f   Importing:IFXSocketStream.obj
 0001:000355bc       ?Receive@IFXSocketStream@@QAEHPADH@Z 100365bc f   Importing:IFXSocketStream.obj
 0001:000355d0       ?Send@IFXSocketStream@@QAEHPBDH@Z 100365d0 f   Importing:IFXSocketStream.obj
 0001:000355e4       ?ReadBytes@IFXSocketStream@@QAEHPAEIPAI@Z 100365e4 f   Importing:IFXSocketStream.obj
 0001:00035698       ?SendBytes@IFXSocketStream@@QAEHPBD@Z 10036698 f   Importing:IFXSocketStream.obj
 0001:000356e4       ?SetOptions@IFXSocketStream@@QAEHIPBDH@Z 100366e4 f   Importing:IFXSocketStream.obj
 0001:000356fa       ?GetOptions@IFXSocketStream@@QAEHIPADPAH@Z 100366fa f   Importing:IFXSocketStream.obj
 0001:00035710       @IFXDeallocate@4           10036710 f   IFXCore:IFXCore.dll
 0001:00035716       @IFXAllocate@4             10036716 f   IFXCore:IFXCore.dll
 0001:0003571c       @IFXCreateComponent@12     1003671c f   IFXCore:IFXCore.dll
 0001:00035722       @IFXGetMemoryFunctions@12  10036722 f   IFXCore:IFXCore.dll
 0001:00035728       @IFXSetMemoryFunctions@12  10036728 f   IFXCore:IFXCore.dll
 0001:0003572e       @IFXReallocate@8           1003672e f   IFXCore:IFXCore.dll
 0001:00035734       _sqrt                      10036734 f   libmmt:sqrt_stub.omu
 0001:0003575c       _cos                       1003675c f   libmmt:cos_stub.omu
 0001:00035784       _sin                       10036784 f   libmmt:sin_stub.omu
 0001:000357ac       _acos                      100367ac f   libmmt:acos_stub.omu
 0001:000357d4       _atan2                     100367d4 f   libmmt:atan2_stub.omu
 0001:000357fc       _sqrt.J                    100367fc f   libmmt:sqrt_wmt.omu
 0001:0003587c       _sqrt.A                    1003687c f   libmmt:sqrt_gen.omu
 0001:000358f8       _cos.J                     100368f8 f   libmmt:cos_wmt.omu
 0001:00035ac4       _cos.A                     10036ac4 f   libmmt:cos_gen.omu
 0001:00035f7c       _sin.J                     10036f7c f   libmmt:sin_wmt.omu
 0001:00036160       _sin.A                     10037160 f   libmmt:sin_gen.omu
 0001:00036674       _acos.J                    10037674 f   libmmt:acos_wmt.omu
 0001:00036b90       _acos.A                    10037b90 f   libmmt:acos_gen.omu
 0001:00036fc8       _atan2.J                   10037fc8 f   libmmt:atan2_wmt.omu
 0001:000375c4       _atan2.A                   100385c4 f   libmmt:atan2_gen.omu
 0001:00037650       ___libm_error_support      10038650 f   libmmt:libm_error.omu
 0001:0003e484       ___libm_sincos_huge        1003f484 f   libmmt:libm_sincos_huge.omu
 0001:0003e9a4       ___libm_reduce_pi04l       1003f9a4 f   libmmt:libm_reduce_pi04l.omu
 0001:0003ed90       _matherrf                  1003fd90 f   libmmt:matherrf.omu
 0001:0003ed90       _matherr                   1003fd90 f   libmmt:matherr.omu
 0001:0003ed90       _matherrl                  1003fd90 f   libmmt:matherrl.omu
 0001:0003ed98       __CRT_INIT@12              1003fd98 f   LIBCMT:dllcrt0.obj
 0001:0003ef19       __DllMainCRTStartup@12     1003ff19 f   LIBCMT:dllcrt0.obj
 0001:0003effd       __amsg_exit                1003fffd f   LIBCMT:dllcrt0.obj
 0001:0003f030       __fpclear                  10040030 f   LIBCMT:fpinit.obj
 0001:0003f031       __cfltcvt_init             10040031 f   LIBCMT:fpinit.obj
 0001:0003f069       __fpmath                   10040069 f   LIBCMT:fpinit.obj
 0001:0003f088       __global_unwind2           10040088 f   LIBCMT:exsup.obj
 0001:0003f0ca       __local_unwind2            100400ca f   LIBCMT:exsup.obj
 0001:0003f122       __NLG_Return2              10040122     LIBCMT:exsup.obj
 0001:0003f132       __abnormal_termination     10040132 f   LIBCMT:exsup.obj
 0001:0003f155       __NLG_Notify1              10040155 f   LIBCMT:exsup.obj
 0001:0003f15e       __NLG_Notify               1004015e f   LIBCMT:exsup.obj
 0001:0003f171       __NLG_Dispatch             10040171     LIBCMT:exsup.obj
 0001:0003f176       ?_JumpToContinuation@@YGXPAXPAUEHRegistrationNode@@@Z 10040176 f   LIBCMT:trnsctrl.obj
 0001:0003f1a6       ?_CallMemberFunction0@@YGXPAX0@Z 100401a6 f   LIBCMT:trnsctrl.obj
 0001:0003f1a6       ?_CallMemberFunction1@@YGXPAX00@Z 100401a6 f   LIBCMT:trnsctrl.obj
 0001:0003f1a6       ?_CallMemberFunction2@@YGXPAX00H@Z 100401a6 f   LIBCMT:trnsctrl.obj
 0001:0003f1ad       ?_UnwindNestedFrames@@YGXPAUEHRegistrationNode@@PAUEHExceptionRecord@@@Z 100401ad f   LIBCMT:trnsctrl.obj
 0001:0003f1ff       ___CxxFrameHandler         100401ff f   LIBCMT:trnsctrl.obj
 0001:0003f270       ?_CallSETranslator@@YAHPAUEHExceptionRecord@@PAUEHRegistrationNode@@PAX2PBU_s_FuncInfo@@H1@Z 10040270 f   LIBCMT:trnsctrl.obj
 0001:0003f3e9       ?_GetRangeOfTrysToCheck@@YAPBU_s_TryBlockMapEntry@@PBU_s_FuncInfo@@HHPAI1@Z 100403e9 f   LIBCMT:trnsctrl.obj
 0001:0003f463       ?_CreateFrameInfo@@YAPAUFrameInfo@@PAU1@PAX@Z 10040463 f   LIBCMT:trnsctrl.obj
 0001:0003f48b       ?IsExceptionObjectToBeDestroyed@@YAHPAX@Z 1004048b f   LIBCMT:trnsctrl.obj
 0001:0003f4ac       ?_FindAndUnlinkFrame@@YAXPAUFrameInfo@@@Z 100404ac f   LIBCMT:trnsctrl.obj
 0001:0003f4f8       ?_CallCatchBlock2@@YAPAXPAUEHRegistrationNode@@PBU_s_FuncInfo@@PAXHK@Z 100404f8 f   LIBCMT:trnsctrl.obj
 0001:0003f551       ?__ArrayUnwind@@YGXPAXIHP6EX0@Z@Z 10040551 f   LIBCMT:ehvecdtr.obj
 0001:0003f5af       ??_M@YGXPAXIHP6EX0@Z@Z     100405af f   LIBCMT:ehvecdtr.obj
 0001:0003f60f       __CxxThrowException@8      1004060f f   LIBCMT:throw.obj
 0001:0003f649       ??_L@YGXPAXIHP6EX0@Z1@Z    10040649 f   LIBCMT:ehvecctr.obj
 0001:0003f6ab       __purecall                 100406ab f   LIBCMT:purevirt.obj
 0001:0003f6bf       ??1type_info@@UAE@XZ       100406bf f   LIBCMT:typinfo.obj
 0001:0003f705       ??_Gtype_info@@UAEPAXI@Z   10040705 f i LIBCMT:typinfo.obj
 0001:0003f705       ??_Etype_info@@UAEPAXI@Z   10040705 f i LIBCMT:typinfo.obj
 0001:0003f7a1       ___onexitinit              100407a1 f   LIBCMT:onexit.obj
 0001:0003f7c9       __onexit                   100407c9 f   LIBCMT:onexit.obj
 0001:0003f801       _atexit                    10040801 f   LIBCMT:onexit.obj
 0001:0003f813       __fclose_lk                10040813 f   LIBCMT:fclose.obj
 0001:0003f85f       _fclose                    1004085f f   LIBCMT:fclose.obj
 0001:0003f8b0       __fseek_lk                 100408b0 f   LIBCMT:fseek.obj
 0001:0003f93f       _fseek                     1004093f f   LIBCMT:fseek.obj
 0001:0003f988       __fread_lk                 10040988 f   LIBCMT:fread.obj
 0001:0003fa71       _fread                     10040a71 f   LIBCMT:fread.obj
 0001:0003fabd       __ftell_lk                 10040abd f   LIBCMT:ftell.obj
 0001:0003fc1f       _ftell                     10040c1f f   LIBCMT:ftell.obj
 0001:0003fc60       _wcscat                    10040c60 f   LIBCMT:wcscat.obj
 0001:0003fc8a       _wcscpy                    10040c8a f   LIBCMT:wcscat.obj
 0001:0003fca6       _wcscmp                    10040ca6 f   LIBCMT:wcscmp.obj
 0001:0003fcd8       ___towlower_mt             10040cd8 f   LIBCMT:towlower.obj
 0001:0003fd39       _towlower                  10040d39 f   LIBCMT:towlower.obj
 0001:0003fd84       _wcslen                    10040d84 f   LIBCMT:wcslen.obj
 0001:0003fd9a       ___towupper_mt             10040d9a f   LIBCMT:towupper.obj
 0001:0003fdfb       _towupper                  10040dfb f   LIBCMT:towupper.obj
 0001:0003fe3e       _wcsncpy                   10040e3e f   LIBCMT:wcsncpy.obj
 0001:0003fe7b       _wcsncmp                   10040e7b f   LIBCMT:wcsncmp.obj
 0001:0003feb0       _iswdigit                  10040eb0 f   LIBCMT:_wctype.obj
 0001:0004009d       _wcstol                    1004109d f   LIBCMT:wcstol.obj
 0001:000400b4       ?vswprintf@@YAHPA_WIPB_WPAD@Z 100410b4 f   LIBCMT:vswprinn.obj
 0001:00040123       ?vswprintf@@YAHPAGIPBGPAD@Z 10041123 f   LIBCMT:vswprinn.obj
 0001:00040130       _strncpy                   10041130 f   LIBCMT:strncpy.obj
 0001:00040260       _strstr                    10041260 f   LIBCMT:strstr.obj
 0001:000402f0       _strrchr                   100412f0 f   LIBCMT:strrchr.obj
 0001:00040330       _strchr                    10041330 f   LIBCMT:strchr.obj
 0001:00040336       ___from_strstr_to_strchr   10041336     LIBCMT:strchr.obj
 0001:000403ee       _atol                      100413ee f   LIBCMT:atox.obj
 0001:00040476       _atoi                      10041476 f   LIBCMT:atox.obj
 0001:0004047b       ___toupper_mt              1004147b f   LIBCMT:toupper.obj
 0001:00040544       _toupper                   10041544 f   LIBCMT:toupper.obj
 0001:00040566       _wcschr                    10041566 f   LIBCMT:wcschr.obj
 0001:00040590       _strncat                   10041590 f   LIBCMT:strncat.obj
 0001:000406c5       ___initstdio               100416c5 f   LIBCMT:_file.obj
 0001:0004076e       ___endstdio                1004176e f   LIBCMT:_file.obj
 0001:00040782       __lock_file                10041782 f   LIBCMT:_file.obj
 0001:000407b1       __lock_file2               100417b1 f   LIBCMT:_file.obj
 0001:000407d4       __unlock_file              100417d4 f   LIBCMT:_file.obj
 0001:00040803       __unlock_file2             10041803 f   LIBCMT:_file.obj
 0001:00040826       __errno                    10041826 f   LIBCMT:dosmap.obj
 0001:0004082f       ___doserrno                1004182f f   LIBCMT:dosmap.obj
 0001:00040838       __dosmaperr                10041838 f   LIBCMT:dosmap.obj
 0001:000408ab       _fputs                     100418ab f   LIBCMT:fputs.obj
 0001:0004091c       ___crtExitProcess          1004191c f   LIBCMT:crt0dat.obj
 0001:0004094c       __lockexit                 1004194c f   LIBCMT:crt0dat.obj
 0001:00040955       __unlockexit               10041955 f   LIBCMT:crt0dat.obj
 0001:00040976       __cinit                    10041976 f   LIBCMT:crt0dat.obj
 0001:00040aa3       _exit                      10041aa3 f   LIBCMT:crt0dat.obj
 0001:00040ab4       __exit                     10041ab4 f   LIBCMT:crt0dat.obj
 0001:00040ac5       __cexit                    10041ac5 f   LIBCMT:crt0dat.obj
 0001:00040ad4       ___crtTlsAlloc@4           10041ad4 f   LIBCMT:tidtable.obj
 0001:00040add       __mtterm                   10041add f   LIBCMT:tidtable.obj
 0001:00040afa       __initptd                  10041afa f   LIBCMT:tidtable.obj
 0001:00040b0d       __getptd                   10041b0d f   LIBCMT:tidtable.obj
 0001:00040b7e       __freefls@4                10041b7e f   LIBCMT:tidtable.obj
 0001:00040cc5       __freeptd                  10041cc5 f   LIBCMT:tidtable.obj
 0001:00040cf4       __mtinit                   10041cf4 f   LIBCMT:tidtable.obj
 0001:00040de3       _free                      10041de3 f   LIBCMT:free.obj
 0001:00040e54       _calloc                    10041e54 f   LIBCMT:calloc.obj
 0001:00040f0f       __ioinit                   10041f0f f   LIBCMT:ioinit.obj
 0001:0004110d       __ioterm                   1004210d f   LIBCMT:ioinit.obj
 0001:00041159       __setenvp                  10042159 f   LIBCMT:stdenvp.obj
 0001:0004138c       __setargv                  1004238c f   LIBCMT:stdargv.obj
 0001:0004142e       ___crtGetEnvironmentStringsA 1004242e f   LIBCMT:a_env.obj
 0001:00041550       __RTC_Initialize           10042550 f   LIBCMT:initsect.obj
 0001:00041594       __RTC_Terminate            10042594 f   LIBCMT:initsect.obj
 0001:000415d8       ___heap_select             100425d8 f   LIBCMT:heapinit.obj
 0001:000415f2       __heap_init                100425f2 f   LIBCMT:heapinit.obj
 0001:00041643       __heap_term                10042643 f   LIBCMT:heapinit.obj
 0001:000416d0       __chkstk                   100426d0 f   LIBCMT:chkstk.obj
 0001:000416d0       __alloca_probe             100426d0     LIBCMT:chkstk.obj
 0001:0004170d       __XcptFilter               1004270d f   LIBCMT:winxfltr.obj
 0001:00041871       ___CppXcptFilter           10042871 f   LIBCMT:winxfltr.obj
 0001:0004188c       __SEH_prolog               1004288c f   LIBCMT:sehprolg.obj
 0001:000418c7       __SEH_epilog               100428c7 f   LIBCMT:sehprolg.obj
 0001:000418e0       __except_handler3          100428e0 f   LIBCMT:exsup3.obj
 0001:000419c6       __seh_longjmp_unwind@4     100429c6 f   LIBCMT:exsup3.obj
 0001:000419e1       __NMSG_WRITE               100429e1 f   LIBCMT:crt0msg.obj
 0001:00041b58       __FF_MSGBANNER             10042b58 f   LIBCMT:crt0msg.obj
 0001:00041b91       __forcdecpt                10042b91 f   LIBCMT:cvt.obj
 0001:00041bcd       __cropzeros                10042bcd f   LIBCMT:cvt.obj
 0001:00041c18       __positive                 10042c18 f   LIBCMT:cvt.obj
 0001:00041c32       __fassign                  10042c32 f   LIBCMT:cvt.obj
 0001:00041d3b       __cftoe                    10042d3b f   LIBCMT:cvt.obj
 0001:00041e43       __cftof                    10042e43 f   LIBCMT:cvt.obj
 0001:00041ea5       __cftog                    10042ea5 f   LIBCMT:cvt.obj
 0001:00041f3f       __cfltcvt                  10042f3f f   LIBCMT:cvt.obj
 0001:00041f90       __setdefaultprecision      10042f90 f   LIBCMT:fp8.obj
 0001:00041fa2       __ms_p5_test_fdiv          10042fa2 f   LIBCMT:testfdiv.obj
 0001:00041fe2       __ms_p5_mp_test_fdiv       10042fe2 f   LIBCMT:testfdiv.obj
 0001:00042078       ___FrameUnwindToState      10043078 f   LIBCMT:frame.obj
 0001:00042146       ___DestructExceptionObject 10043146 f   LIBCMT:frame.obj
 0001:00042813       ___InternalCxxFrameHandler 10043813 f   LIBCMT:frame.obj
 0001:000428b5       ?terminate@@YAXXZ          100438b5 f   LIBCMT:hooks.obj
 0001:000428ea       ?_inconsistency@@YAXXZ     100438ea f   LIBCMT:hooks.obj
 0001:00042920       __CallSettingFrame@12      10043920 f   LIBCMT:lowhelpr.obj
 0001:00042947       __NLG_Return               10043947     LIBCMT:lowhelpr.obj
 0001:0004296c       ?__CxxUnhandledExceptionFilter@@YGJPAU_EXCEPTION_POINTERS@@@Z 1004396c f   LIBCMT:unhandld.obj
 0001:000429ba       ?__CxxSetUnhandledExceptionFilter@@YAHXZ 100439ba f   LIBCMT:unhandld.obj
 0001:000429cd       ?__CxxRestoreUnhandledExceptionFilter@@YAXXZ 100439cd f   LIBCMT:unhandld.obj
 0001:000429da       __mtinitlocks              100439da f   LIBCMT:mlock.obj
 0001:00042a23       __mtdeletelocks            10043a23 f   LIBCMT:mlock.obj
 0001:00042a78       __unlock                   10043a78 f   LIBCMT:mlock.obj
 0001:00042a8d       __mtinitlocknum            10043a8d f   LIBCMT:mlock.obj
 0001:00042b2d       __lock                     10043b2d f   LIBCMT:mlock.obj
 0001:00042b60       _strcmp                    10043b60 f   LIBCMT:strcmp.obj
 0001:00042be8       _realloc                   10043be8 f   LIBCMT:realloc.obj
 0001:00042d95       __msize                    10043d95 f   LIBCMT:msize.obj
 0001:00042e0b       __heap_alloc               10043e0b f   LIBCMT:malloc.obj
 0001:00042e86       __nh_malloc                10043e86 f   LIBCMT:malloc.obj
 0001:00042eb2       _malloc                    10043eb2 f   LIBCMT:malloc.obj
 0001:00042ec4       __close_lk                 10043ec4 f   LIBCMT:close.obj
 0001:00042f47       __close                    10043f47 f   LIBCMT:close.obj
 0001:00042fe2       __freebuf                  10043fe2 f   LIBCMT:_freebuf.obj
 0001:0004300d       __flush                    1004400d f   LIBCMT:fflush.obj
 0001:0004306a       __fflush_lk                1004406a f   LIBCMT:fflush.obj
 0001:0004316d       __flushall                 1004416d f   LIBCMT:fflush.obj
 0001:00043176       __lseek_lk                 10044176 f   LIBCMT:lseek.obj
 0001:000431ea       __lseek                    100441ea f   LIBCMT:lseek.obj
 0001:00043295       __filbuf                   10044295 f   LIBCMT:_filbuf.obj
 0001:00043376       __read_lk                  10044376 f   LIBCMT:read.obj
 0001:00043551       __read                     10044551 f   LIBCMT:read.obj
 0001:00043600       _memcpy                    10044600 f   LIBCMT:memcpy.obj
 0001:0004393d       ___crtLCMapStringW         1004493d f   LIBCMT:w_map.obj
 0001:00043b96       ___iswctype_mt             10044b96 f   LIBCMT:iswctype.obj
 0001:00043bed       _iswctype                  10044bed f   LIBCMT:iswctype.obj
 0001:00043c3f       ___freetlocinfo            10044c3f f   LIBCMT:setlocal.obj
 0001:00043dd0       __strcats                  10044dd0 f   LIBCMT:setlocal.obj
 0001:00043df4       ___lc_strtolc              10044df4 f   LIBCMT:setlocal.obj
 0001:00043ed0       ___lc_lctostr              10044ed0 f   LIBCMT:setlocal.obj
 0001:00043f1e       ___updatetlocinfo          10044f1e f   LIBCMT:setlocal.obj
 0001:00044018       __expandlocale             10045018 f   LIBCMT:setlocal.obj
 0001:000445dc       _setlocale                 100455dc f   LIBCMT:setlocal.obj
 0001:00044736       __wchartodigit             10045736 f   LIBCMT:wchtodig.obj
 0001:000448ac       __flsbuf                   100458ac f   LIBCMT:_flsbuf.obj
 0001:00044a4c       __woutput                  10045a4c f   LIBCMT:woutput.obj
 0001:0004527c       ___isctype_mt              1004627c f   LIBCMT:isctype.obj
 0001:00045300       __allmul                   10046300 f   LIBCMT:llmul.obj
 0001:00045334       ___crtLCMapStringA         10046334 f   LIBCMT:a_map.obj
 0001:000456f0       __fcloseall                100466f0 f   LIBCMT:closeall.obj
 0001:0004578b       __stbuf                    1004678b f   LIBCMT:_sftbuf.obj
 0001:00045813       __ftbuf                    10046813 f   LIBCMT:_sftbuf.obj
 0001:0004583d       __fwrite_lk                1004683d f   LIBCMT:fwrite.obj
 0001:00045950       _strlen                    10046950 f   LIBCMT:strlen.obj
 0001:00045d4f       __setmbcp                  10046d4f f   LIBCMT:mbctype.obj
 0001:00045e9f       ___initmbctable            10046e9f f   LIBCMT:mbctype.obj
 0001:00045ebd       ___sbh_heap_init           10046ebd f   LIBCMT:sbheap.obj
 0001:00045f05       ___sbh_find_block          10046f05 f   LIBCMT:sbheap.obj
 0001:00045f30       ___sbh_free_block          10046f30 f   LIBCMT:sbheap.obj
 0001:00046248       ___sbh_alloc_new_region    10047248 f   LIBCMT:sbheap.obj
 0001:000462ff       ___sbh_alloc_new_group     100472ff f   LIBCMT:sbheap.obj
 0001:00046405       ___sbh_resize_block        10047405 f   LIBCMT:sbheap.obj
 0001:000466e4       ___sbh_alloc_block         100476e4 f   LIBCMT:sbheap.obj
 0001:000469e0       __callnewh                 100479e0 f   LIBCMT:handler.obj
 0001:00046a00       _memset                    10047a00 f   LIBCMT:memset.obj
 0001:00046a70       ___crtInitCritSecAndSpinCount 10047a70 f   LIBCMT:initcrit.obj
 0001:00046b00       _strcpy                    10047b00 f   LIBCMT:strcat.obj
 0001:00046b10       _strcat                    10047b10 f   LIBCMT:strcat.obj
 0001:00046bf8       __ValidateEH3RN            10047bf8 f   LIBCMT:eh3valid.obj
 0001:00046e21       ___crtMessageBoxA          10047e21 f   LIBCMT:crtmbox.obj
 0001:00046f4b       @__security_check_cookie@4 10047f4b f   LIBCMT:secchk.obj
 0001:00046f59       _isdigit                   10047f59 f   LIBCMT:_ctype.obj
 0001:00046f93       ___tolower_mt              10047f93 f   LIBCMT:tolower.obj
 0001:0004705b       _tolower                   1004805b f   LIBCMT:tolower.obj
 0001:0004707d       __ZeroTail                 1004807d f   LIBCMT:intrncvt.obj
 0001:000470af       __IncMan                   100480af f   LIBCMT:intrncvt.obj
 0001:000470fc       __RoundMan                 100480fc f   LIBCMT:intrncvt.obj
 0001:0004716e       __CopyMan                  1004816e f   LIBCMT:intrncvt.obj
 0001:00047189       __IsZeroMan                10048189 f   LIBCMT:intrncvt.obj
 0001:000471a2       __ShrMan                   100481a2 f   LIBCMT:intrncvt.obj
 0001:0004721d       __ld12cvt                  1004821d f   LIBCMT:intrncvt.obj
 0001:00047375       __ld12tod                  10048375 f   LIBCMT:intrncvt.obj
 0001:0004738b       __ld12tof                  1004838b f   LIBCMT:intrncvt.obj
 0001:000473a1       __atodbl                   100483a1 f   LIBCMT:intrncvt.obj
 0001:000473de       __atoflt                   100483de f   LIBCMT:intrncvt.obj
 0001:00047420       _memmove                   10048420 f   LIBCMT:memmove.obj
 0001:0004775d       __fptostr                  1004875d f   LIBCMT:_fptostr.obj
 0001:000477d4       ___dtold                   100487d4 f   LIBCMT:cfout.obj
 0001:0004788e       __fltout2                  1004888e f   LIBCMT:cfout.obj
 0001:000478fa       __fptrap                   100488fa f   LIBCMT:crt0fp.obj
 0001:00047a23       __control87                10048a23 f   LIBCMT:ieee87.obj
 0001:00047a55       __controlfp                10048a55 f   LIBCMT:ieee87.obj
 0001:00047a6b       ?_ValidateRead@@YAHPBXI@Z  10048a6b f   LIBCMT:validate.obj
 0001:00047a87       ?_ValidateWrite@@YAHPAXI@Z 10048a87 f   LIBCMT:validate.obj
 0001:00047aa3       ?_ValidateExecute@@YAHP6GHXZ@Z 10048aa3 f   LIBCMT:validate.obj
 0001:00047abb       _abort                     10048abb f   LIBCMT:abort.obj
 0001:00047ad3       __set_osfhnd               10048ad3 f   LIBCMT:osfinfo.obj
 0001:00047b4f       __free_osfhnd              10048b4f f   LIBCMT:osfinfo.obj
 0001:00047bce       __get_osfhandle            10048bce f   LIBCMT:osfinfo.obj
 0001:00047c0f       __lock_fhandle             10048c0f f   LIBCMT:osfinfo.obj
 0001:00047caf       __unlock_fhandle           10048caf f   LIBCMT:osfinfo.obj
 0001:00047cd1       __alloc_osfhnd             10048cd1 f   LIBCMT:osfinfo.obj
 0001:00047e4d       __write_lk                 10048e4d f   LIBCMT:write.obj
 0001:0004801b       __write                    1004901b f   LIBCMT:write.obj
 0001:000480c6       __commit                   100490c6 f   LIBCMT:commit.obj
 0001:00048182       __getbuf                   10049182 f   LIBCMT:_getbuf.obj
 0001:000481c6       __resetstkoflw             100491c6 f   LIBCMT:resetstk.obj
 0001:000482a9       ___ansicp                  100492a9 f   LIBCMT:convrtcp.obj
 0001:000482ec       ___convertcp               100492ec f   LIBCMT:convrtcp.obj
 0001:000484b5       ___crtGetStringTypeW       100494b5 f   LIBCMT:w_str.obj
 0001:00048a41       ___free_lc_time            10049a41 f   LIBCMT:inittime.obj
 0001:00048bd1       ___init_time               10049bd1 f   LIBCMT:inittime.obj
 0001:00048c30       ___free_lconv_num          10049c30 f   LIBCMT:initnum.obj
 0001:00048c8f       ___init_numeric            10049c8f f   LIBCMT:initnum.obj
 0001:00048e5c       ___free_lconv_mon          10049e5c f   LIBCMT:initmon.obj
 0001:00048f35       ___init_monetary           10049f35 f   LIBCMT:initmon.obj
 0001:00049174       ___init_ctype              1004a174 f   LIBCMT:initctyp.obj
 0001:0004935e       ___init_collate            1004a35e f   LIBCMT:initcoll.obj
 0001:0004935e       ___init_dummy              1004a35e f   LIBCMT:setlocal.obj
 0001:00049370       _strcspn                   1004a370 f   LIBCMT:strcspn.obj
 0001:00049af5       ___get_qualified_locale    1004aaf5 f   LIBCMT:getqloc.obj
 0001:00049cb0       _memcmp                    1004acb0 f   LIBCMT:memcmp.obj
 0001:00049d68       ___crtGetStringTypeA       1004ad68 f   LIBCMT:a_str.obj
 0001:00049f30       _strncmp                   1004af30 f   LIBCMT:strncmp.obj
 0001:00049f70       _strpbrk                   1004af70 f   LIBCMT:strpbrk.obj
 0001:00049fb0       __isatty                   1004afb0 f   LIBCMT:isatty.obj
 0001:00049fda       __putwc_lk                 1004afda f   LIBCMT:fputwc.obj
 0001:0004a0b0       ___mbtowc_mt               1004b0b0 f   LIBCMT:mbtowc.obj
 0001:0004a170       _mbtowc                    1004b170 f   LIBCMT:mbtowc.obj
 0001:0004a1a0       __aulldvrm                 1004b1a0 f   LIBCMT:ulldvrm.obj
 0001:0004a235       ___security_init_cookie    1004b235 f   LIBCMT:seccinit.obj
 0001:0004a29b       ___security_error_handler  1004b29b f   LIBCMT:secfail.obj
 0001:0004a3e3       ___addl                    1004b3e3 f   LIBCMT:mantold.obj
 0001:0004a404       ___add_12                  1004b404 f   LIBCMT:mantold.obj
 0001:0004a462       ___shl_12                  1004b462 f   LIBCMT:mantold.obj
 0001:0004a490       ___shr_12                  1004b490 f   LIBCMT:mantold.obj
 0001:0004a4bd       ___mtold12                 1004b4bd f   LIBCMT:mantold.obj
 0001:0004a59b       ___strgtold12              1004b59b f   LIBCMT:strgtold.obj
 0001:0004a9cf       _$I10_OUTPUT               1004b9cf f   LIBCMT:x10fout.obj
 0001:0004ac8b       _raise                     1004bc8b f   LIBCMT:winsig.obj
 0001:0004ae04       __lseeki64_lk              1004be04 f   LIBCMT:lseeki64.obj
 0001:0004ae90       ___ascii_stricmp           1004be90 f   LIBCMT:_stricmp.obj
 0001:0004aede       ___getlocaleinfo           1004bede f   LIBCMT:inithelp.obj
 0001:0004b005       __stricmp                  1004c005 f   LIBCMT:stricmp.obj
 0001:0004b06e       __strnicmp                 1004c06e f   LIBCMT:strnicmp.obj
 0001:0004b12b       __itoa                     1004c12b f   LIBCMT:xtoa.obj
 0001:0004b155       __flswbuf                  1004c155 f   LIBCMT:_flswbuf.obj
 0001:0004b27d       ___wctomb_mt               1004c27d f   LIBCMT:wctomb.obj
 0001:0004b2dd       _wctomb                    1004c2dd f   LIBCMT:wctomb.obj
 0001:0004b304       ___ld12mul                 1004c304 f   LIBCMT:tenpow.obj
 0001:0004b536       ___multtenpow12            1004c536 f   LIBCMT:tenpow.obj
 0001:0004b5bc       ___crtGetLocaleInfoW       1004c5bc f   LIBCMT:w_loc.obj
 0001:0004b6ec       ___crtGetLocaleInfoA       1004c6ec f   LIBCMT:a_loc.obj
 0001:0004b830       ___ascii_strnicmp          1004c830 f   LIBCMT:_strnicm.obj
 0001:0004b894       __intel_fast_memset.A      1004c894 f   libirc:fastmemset.obj
 0001:0004b8ac       __intel_fast_memset.H      1004c8ac f   libirc:fastmemset.obj
 0001:0004b8ac       __intel_fast_memset.J      1004c8ac f   libirc:fastmemset.obj
 0001:0004b8b4       __intel_fast_memset        1004c8b4 f   libirc:fastmemset.obj
 0001:0004b8ec       __intel_fast_memcpy.A      1004c8ec f   libirc:fastmemcpy.obj
 0001:0004b904       __intel_fast_memcpy.H      1004c904 f   libirc:fastmemcpy.obj
 0001:0004b904       __intel_fast_memcpy.J      1004c904 f   libirc:fastmemcpy.obj
 0001:0004b90c       __intel_fast_memcpy        1004c90c f   libirc:fastmemcpy.obj
 0001:0004b944       ___intel_cpu_indicator_init 1004c944 f   libirc:cpu_disp.obj
 0001:0004bab0       ___intel_new_memset        1004cab0 f   libirc:fast_memset.obj
 0001:0004c530       ___intel_new_memcpy        1004d530 f   libirc:fast_memcpy.obj
 0001:0004d7b0       _init_mem_ops_method       1004e7b0 f   libirc:fast_mem_ops.obj
 0001:0004d9a8       _RtlUnwind@16              1004e9a8 f   kernel32:KERNEL32.dll
 0001:0004d9b0       @IFXOSCheckCPUFeature@4    1004e9b0 f   Platform:IFXOSUtilities.obj
 0001:0004d9f4       @IFXOSGetTime@0            1004e9f4 f   Platform:IFXOSUtilities.obj
 0001:0004da40       @IFXOSSleep@4              1004ea40 f   Platform:IFXOSUtilities.obj
 0001:0004da48       @IFXOSControlFP@8          1004ea48 f   Platform:IFXOSUtilities.obj
 0001:0004da54       @IFXOSGetUtf8StrSize@8     1004ea54 f   Platform:IFXOSUtilities.obj
 0001:0004da96       @IFXOSGetWideCharStrSize@8 1004ea96 f   Platform:IFXOSUtilities.obj
 0001:0004dad6       @IFXOSConvertWideCharStrToUtf8@12 1004ead6 f   Platform:IFXOSUtilities.obj
 0001:0004db26       @IFXOSConvertUtf8StrToWideChar@12 1004eb26 f   Platform:IFXOSUtilities.obj
 0001:0004db72       @IFXOSDebugOutput@16       1004eb72 f   Platform:IFXOSUtilities.obj
 0001:0004dbd6       @IFXSetDefaultLocale@0     1004ebd6 f   Platform:IFXOSUtilities.obj
 0001:0004dbf2       @IFXOSUninitialize@0       1004ebf2 f   Platform:IFXOSUtilities.obj
 0001:0004dc04       @IFXOSInitialize@0         1004ec04 f   Platform:IFXOSUtilities.obj
 0001:0004dca4       @IFXGetSystemDefaultLangID@0 1004eca4 f   Platform:IFXOSUtilities.obj
 0001:0004dcac       @IFXLoadCoreLibrary@0      1004ecac f   Platform:IFXOSLoader.obj
 0001:0004dcb8       @IFXLoadLibrary@4          1004ecb8 f   Platform:IFXOSLoader.obj
 0001:0004dcc0       @IFXLoadOpenGLLibrary@0    1004ecc0 f   Platform:IFXOSLoader.obj
 0001:0004dccc       @IFXOSGetCoreLibraryPath@4 1004eccc f   Platform:IFXOSLoader.obj
 0001:0004ddde       @IFXGetAddress@8           1004edde f   Platform:IFXOSLoader.obj
 0001:0004dde8       @IFXReleaseLibrary@4       1004ede8 f   Platform:IFXOSLoader.obj
 0001:0004ddfc       @IFXOSFileOpen@8           1004edfc f   Platform:IFXOSLoader.obj
 0001:0004de08       @IFXOSSocketOpen@0         1004ee08 f   Platform:IFXOSSocket.obj
 0001:0004de40       @IFXOSSocketClose@4        1004ee40 f   Platform:IFXOSSocket.obj
 0001:0004de64       @IFXOSSocketConnect@12     1004ee64 f   Platform:IFXOSSocket.obj
 0001:0004df06       @IFXOSSocketReceive@16     1004ef06 f   Platform:IFXOSSocket.obj
 0001:0004df1a       @IFXOSSocketSend@16        1004ef1a f   Platform:IFXOSSocket.obj
 0001:0004df2e       @IFXOSSocketSetOptions@16  1004ef2e f   Platform:IFXOSSocket.obj
 0001:0004df54       @IFXOSSocketGetOptions@16  1004ef54 f   Platform:IFXOSSocket.obj
 0001:0004dfa0       __alldiv                   1004efa0 f   LIBCMT:lldiv.obj
 0001:0004e04a       _swprintf                  1004f04a f   LIBCMT:swprintf.obj
 0001:0004e0b9       __wfsopen                  1004f0b9 f   LIBCMT:wfopen.obj
 0001:0004e115       __wfopen                   1004f115 f   LIBCMT:wfopen.obj
 0001:0004e128       __wopenfile                1004f128 f   LIBCMT:_wopen.obj
 0001:0004e297       __getstream                1004f297 f   LIBCMT:stream.obj
 0001:0004e6a1       __wsopen                   1004f6a1 f   LIBCMT:wopen.obj
 0001:0004e6f6       __chsize_lk                1004f6f6 f   LIBCMT:chsize.obj
 0001:0004e837       __setmode_lk               1004f837 f   LIBCMT:setmode.obj
 0002:00000000       __VInfreq_??1CIFXAuthorCLODDecoder@@EAE@XZ 10050000     Importing:CIFXAuthorCLODDecoder.obj
 0002:0000006a       __VInfreq_?CIFXAuthorCLODDecoder_Factory@@YIHABUIFXGUID@@PAPAX@Z 1005006a     Importing:CIFXAuthorCLODDecoder.obj
 0002:0000008c       __VInfreq_?TransferX@CIFXAuthorCLODDecoder@@UAIXAAH@Z 1005008c     Importing:CIFXAuthorCLODDecoder.obj
 0002:00000100       __VInfreq_?ProcessAuthorCLODDeclarationBlockX@CIFXAuthorCLODDecoder@@AAEXI@Z 10050100     Importing:CIFXAuthorCLODDecoder.obj
 0002:000001f8       __VInfreq_??1CIFXGroupDecoder@@EAE@XZ 100501f8     Importing:CIFXGroupDecoder.obj
 0002:00000212       __VInfreq_?CIFXGroupDecoder_Factory@@YIHABUIFXGUID@@PAPAX@Z 10050212     Importing:CIFXGroupDecoder.obj
 0002:00000234       __VInfreq_?TransferX@CIFXGroupDecoder@@UAIXAAH@Z 10050234     Importing:CIFXGroupDecoder.obj
 0002:00000250       __VInfreq_??1CIFXLightDecoder@@EAE@XZ 10050250     Importing:CIFXLightDecoder.obj
 0002:0000026a       __VInfreq_?CIFXLightDecoder_Factory@@YIHABUIFXGUID@@PAPAX@Z 1005026a     Importing:CIFXLightDecoder.obj
 0002:0000028c       __VInfreq_?TransferX@CIFXLightDecoder@@UAIXAAH@Z 1005028c     Importing:CIFXLightDecoder.obj
 0002:00000340       __VInfreq_??1CIFXLightResourceDecoder@@EAE@XZ 10050340     Importing:CIFXLightResourceDecoder.obj
 0002:0000035a       __VInfreq_?CIFXLightResourceDecoder_Factory@@YIHABUIFXGUID@@PAPAX@Z 1005035a     Importing:CIFXLightResourceDecoder.obj
 0002:0000037c       __VInfreq_?PutNextBlockX@CIFXLightResourceDecoder@@UAIXAAVIFXDataBlockX@@@Z 1005037c     Importing:CIFXLightResourceDecoder.obj
 0002:000003fe       __VInfreq_?TransferX@CIFXLightResourceDecoder@@UAIXAAH@Z 100503fe     Importing:CIFXLightResourceDecoder.obj
 0002:0000042c       __VInfreq_??1CIFXViewResourceDecoder@@EAE@XZ 1005042c     Importing:CIFXViewResourceDecoder.obj
 0002:00000458       __VInfreq_?CIFXViewResourceDecoder_Factory@@YIHABUIFXGUID@@PAPAX@Z 10050458     Importing:CIFXViewResourceDecoder.obj
 0002:0000047a       __VInfreq_?PutNextBlockX@CIFXViewResourceDecoder@@UAIXAAVIFXDataBlockX@@@Z 1005047a     Importing:CIFXViewResourceDecoder.obj
 0002:000004fc       __VInfreq_?TransferX@CIFXViewResourceDecoder@@UAIXAAH@Z 100504fc     Importing:CIFXViewResourceDecoder.obj
 0002:00000516       __VInfreq_?LoadViewResourceBlockX@CIFXViewResourceDecoder@@AAEXAAVIFXDataBlockX@@@Z 10050516     Importing:CIFXViewResourceDecoder.obj
 0002:000005a4       __VInfreq_??1CIFXMaterialDecoder@@EAE@XZ 100505a4     Importing:CIFXMaterialDecoder.obj
 0002:000005e4       __VInfreq_?CIFXMaterialDecoder_Factory@@YIHABUIFXGUID@@PAPAX@Z 100505e4     Importing:CIFXMaterialDecoder.obj
 0002:00000606       __VInfreq_?PutNextBlockX@CIFXMaterialDecoder@@UAIXAAVIFXDataBlockX@@@Z 10050606     Importing:CIFXMaterialDecoder.obj
 0002:0000067a       __VInfreq_?TransferX@CIFXMaterialDecoder@@UAIXAAH@Z 1005067a     Importing:CIFXMaterialDecoder.obj
 0002:00000694       __VInfreq_?ProcessMaterialBlockX@CIFXMaterialDecoder@@AAEXAAVIFXDataBlockX@@@Z 10050694     Importing:CIFXMaterialDecoder.obj
 0002:000006ec       __VInfreq_??1CIFXModelDecoder@@EAE@XZ 100506ec     Importing:CIFXModelDecoder.obj
 0002:00000706       __VInfreq_?CIFXModelDecoder_Factory@@YIHABUIFXGUID@@PAPAX@Z 10050706     Importing:CIFXModelDecoder.obj
 0002:00000728       __VInfreq_?TransferX@CIFXModelDecoder@@UAIXAAH@Z 10050728     Importing:CIFXModelDecoder.obj
 0002:00000794       __VInfreq_??1CIFXAnimationModifierDecoder@@EAE@XZ 10050794     Importing:CIFXAnimationModifierDecoder.obj
 0002:000007c0       __VInfreq_?CIFXAnimationModifierDecoder_Factory@@YIHABUIFXGUID@@PAPAX@Z 100507c0     Importing:CIFXAnimationModifierDecoder.obj
 0002:000007e2       __VInfreq_?PutNextBlockX@CIFXAnimationModifierDecoder@@UAIXAAVIFXDataBlockX@@@Z 100507e2     Importing:CIFXAnimationModifierDecoder.obj
 0002:00000828       __VInfreq_?TransferX@CIFXAnimationModifierDecoder@@UAIXAAH@Z 10050828     Importing:CIFXAnimationModifierDecoder.obj
 0002:000008d4       __VInfreq_??1CIFXMotionDecoder@@EAE@XZ 100508d4     Importing:CIFXMotionDecoder.obj
 0002:00000914       __VInfreq_?CIFXMotionDecoder_Factory@@YIHABUIFXGUID@@PAPAX@Z 10050914     Importing:CIFXMotionDecoder.obj
 0002:00000936       __VInfreq_?PutNextBlockX@CIFXMotionDecoder@@UAIXAAVIFXDataBlockX@@@Z 10050936     Importing:CIFXMotionDecoder.obj
 0002:000009aa       __VInfreq_?TransferX@CIFXMotionDecoder@@UAIXAAH@Z 100509aa     Importing:CIFXMotionDecoder.obj
 0002:000009c4       __VInfreq_?ProcessMotionCompressedX@CIFXMotionDecoder@@AAEXAAVIFXDataBlockX@@@Z 100509c4     Importing:CIFXMotionDecoder.obj
 0002:00000aec       __VInfreq_??1CIFXGlyphGeneratorDecoder@@EAE@XZ 10050aec     Importing:CIFXGlyphModifierDecoder.obj
 0002:00000b06       __VInfreq_?CIFXGlyphGeneratorDecoder_Factory@@YIHABUIFXGUID@@PAPAX@Z 10050b06     Importing:CIFXGlyphModifierDecoder.obj
 0002:00000b28       __VInfreq_?TransferX@CIFXGlyphGeneratorDecoder@@UAIXAAH@Z 10050b28     Importing:CIFXGlyphModifierDecoder.obj
 0002:00000b42       __VInfreq_?ProcessGlyph2DBlockX@CIFXGlyphGeneratorDecoder@@AAEXAAVIFXDataBlockX@@@Z 10050b42     Importing:CIFXGlyphModifierDecoder.obj
 0002:00000ba8       __VInfreq_??1CIFXShaderLitTextureDecoder@@EAE@XZ 10050ba8     Importing:CIFXShaderLitTextureDecoder.obj
 0002:00000bfa       __VInfreq_?CIFXShaderLitTextureDecoder_Factory@@YIHABUIFXGUID@@PAPAX@Z 10050bfa     Importing:CIFXShaderLitTextureDecoder.obj
 0002:00000c1c       __VInfreq_?PutNextBlockX@CIFXShaderLitTextureDecoder@@UAIXAAVIFXDataBlockX@@@Z 10050c1c     Importing:CIFXShaderLitTextureDecoder.obj
 0002:00000c90       __VInfreq_?TransferX@CIFXShaderLitTextureDecoder@@UAIXAAH@Z 10050c90     Importing:CIFXShaderLitTextureDecoder.obj
 0002:00000caa       __VInfreq_?DecodeShaderLitTextureU3DX@CIFXShaderLitTextureDecoder@@AAEXAAVIFXDataBlockX@@@Z 10050caa     Importing:CIFXShaderLitTextureDecoder.obj
 0002:00000d20       __VInfreq_??1CIFXTextureDecoder@@EAE@XZ 10050d20     Importing:CIFXTextureDecoder.obj
 0002:00000d4e       __VInfreq_?CIFXTextureDecoder_Factory@@YIHABUIFXGUID@@PAPAX@Z 10050d4e     Importing:CIFXTextureDecoder.obj
 0002:00000d70       __VInfreq_?PutNextBlockX@CIFXTextureDecoder@@UAIXAAVIFXDataBlockX@@@Z 10050d70     Importing:CIFXTextureDecoder.obj
 0002:00000de4       __VInfreq_??1CIFXSubdivisionModifierDecoder@@EAE@XZ 10050de4     Importing:CIFXSubdivisionModifierDecoder.obj
 0002:00000dfe       __VInfreq_?CIFXSubdivisionModifierDecoder_Factory@@YIHABUIFXGUID@@PAPAX@Z 10050dfe     Importing:CIFXSubdivisionModifierDecoder.obj
 0002:00000e20       __VInfreq_?TransferX@CIFXSubdivisionModifierDecoder@@UAIXAAH@Z 10050e20     Importing:CIFXSubdivisionModifierDecoder.obj
 0002:00000e3a       __VInfreq_?ProcessSubdivisionModifierBlockX@CIFXSubdivisionModifierDecoder@@AAEXAAVIFXDataBlockX@@@Z 10050e3a     Importing:CIFXSubdivisionModifierDecoder.obj
 0002:00000e90       __VInfreq_??1CIFXShadingModifierDecoder@@EAE@XZ 10050e90     Importing:CIFXShadingModifierDecoder.obj
 0002:00000eaa       __VInfreq_?CIFXShadingModifierDecoder_Factory@@YIHABUIFXGUID@@PAPAX@Z 10050eaa     Importing:CIFXShadingModifierDecoder.obj
 0002:00000ecc       __VInfreq_?TransferX@CIFXShadingModifierDecoder@@UAIXAAH@Z 10050ecc     Importing:CIFXShadingModifierDecoder.obj
 0002:00000ee6       __VInfreq_?ProcessShadingModifierBlockX@CIFXShadingModifierDecoder@@AAEXAAVIFXDataBlockX@@@Z 10050ee6     Importing:CIFXShadingModifierDecoder.obj
 0002:00000fa8       __VInfreq_?CIFXDecoderChainX_Factory@@YIHABUIFXGUID@@PAPAX@Z 10050fa8     Importing:CIFXDecoderChainX.obj
 0002:00000fcc       __VInfreq_??1CIFXViewDecoder@@EAE@XZ 10050fcc     Importing:CIFXViewDecoder.obj
 0002:00000fe6       __VInfreq_?CIFXViewDecoder_Factory@@YIHABUIFXGUID@@PAPAX@Z 10050fe6     Importing:CIFXViewDecoder.obj
 0002:00001008       __VInfreq_?TransferX@CIFXViewDecoder@@UAIXAAH@Z 10051008     Importing:CIFXViewDecoder.obj
 0002:00001022       __VInfreq_?LoadViewNodeBlockU3DX@CIFXViewDecoder@@AAEXAAVIFXDataBlockX@@@Z 10051022     Importing:CIFXViewDecoder.obj
 0002:00001124       __VInfreq_??1CIFXBlockReaderX@@EAE@XZ 10051124     Importing:CIFXBlockReaderX.obj
 0002:00001152       __VInfreq_?CIFXBlockReaderX_Factory@@YIHABUIFXGUID@@PAPAX@Z 10051152     Importing:CIFXBlockReaderX.obj
 0002:00001174       __VInfreq_?ReadBlockX@CIFXBlockReaderX@@UAIXAAPAVIFXDataBlockX@@AAH@Z 10051174     Importing:CIFXBlockReaderX.obj
 0002:000011f8       __VInfreq_?CIFXBTTHash_Factory@@YIHABUIFXGUID@@PAPAX@Z 100511f8     Importing:CIFXBTTHash.obj
 0002:0000124c       __VInfreq_??1CIFXLoadManager@@EAE@XZ 1005124c     Importing:CIFXLoadManager.obj
 0002:0000133a       __VInfreq_?CIFXLoadManager_Factory@@YIHABUIFXGUID@@PAPAX@Z 1005133a     Importing:CIFXLoadManager.obj
 0002:0000135c       __VInfreq_??0CIFXLoadManager@@AAE@XZ 1005135c     Importing:CIFXLoadManager.obj
 0002:0000147e       __VInfreq_?Load@CIFXLoadManager@@UAIHPAVIFXReadBuffer@@HABVIFXString@@W4IFXCollisionPolicy@@I@Z 1005147e     Importing:CIFXLoadManager.obj
 0002:000014c4       __VInfreq_?Load@CIFXLoadManager@@UAIHPAVIFXReadBuffer@@HABVIFXString@@W4IFXCollisionPolicy@@IABV?$IFXArray@UIFXObjectFilter@@@@1H@Z 100514c4     Importing:CIFXLoadManager.obj
 0002:0000154a       __VInfreq_?ExecuteReadX@CIFXLoadManager@@AAEXXZ 1005154a     Importing:CIFXLoadManager.obj
 0002:00001564       __VInfreq_?ProcessGenericBlockX@CIFXLoadManager@@AAEXAAVIFXDataBlockX@@W4EIFXPalette@IFXSceneGraph@@@Z 10051564     Importing:CIFXLoadManager.obj
 0002:000016dc       __VInfreq_?ProcessModifierChainBlockX@CIFXLoadManager@@AAEXAAVIFXDataBlockX@@@Z 100516dc     Importing:CIFXLoadManager.obj
 0002:00001732       __VInfreq_?ProcessFileReferenceBlockX@CIFXLoadManager@@AAEXAAVIFXDataBlockX@@@Z 10051732     Importing:CIFXLoadManager.obj
 0002:00001944       __VInfreq_?ProcessNewBlockTypeDeclarationBlockX@CIFXLoadManager@@AAEXAAVIFXDataBlockX@@@Z 10051944     Importing:CIFXLoadManager.obj
 0002:000019b4       __VInfreq_?ProcessPriorityUpdateBlockX@CIFXLoadManager@@AAEXAAVIFXDataBlockX@@@Z 100519b4     Importing:CIFXLoadManager.obj
 0002:000019ce       __VInfreq_?ProcessFileHeaderBlockX@CIFXLoadManager@@AAEXAAVIFXDataBlockX@@@Z 100519ce     Importing:CIFXLoadManager.obj
 0002:000019e8       __VInfreq_?UnRegisterTransferX@CIFXLoadManager@@AAEXXZ 100519e8     Importing:CIFXLoadManager.obj
 0002:00001a10       __VInfreq_?ProcessTransferOrderX@CIFXLoadManager@@AAEXAAH@Z 10051a10     Importing:CIFXLoadManager.obj
 0002:00001a6e       __VInfreq_?ThumpX@CIFXLoadManager@@AAEXXZ 10051a6e     Importing:CIFXLoadManager.obj
 0002:00001a9e       __VInfreq_?NotifyStreamStateX@CIFXLoadManager@@AAIXXZ 10051a9e     Importing:CIFXLoadManager.obj
 0002:00001ade       __VInfreq_?Execute@CIFXLoadManager@@UAIHPAVIFXTaskData@@@Z 10051ade     Importing:CIFXLoadManager.obj
 0002:00001af8       __VInfreq_?UnRegisterReadX@CIFXLoadManager@@AAEXXZ 10051af8     Importing:CIFXLoadManager.obj
 0002:00001b20       __VInfreq_?Initialize@CIFXLoadManager@@UAIHPAVIFXCoreServices@@@Z 10051b20     Importing:CIFXLoadManager.obj
 0002:00001da8       __VInfreq_?CIFXStdioReadBufferX_Factory@@YIHABUIFXGUID@@PAPAX@Z 10051da8     Importing:CIFXStdioReadBufferX.obj
 0002:00001dca       __VInfreq_?Read@CIFXStdioReadBufferX@@UAIHPAE_KI@Z 10051dca     Importing:CIFXStdioReadBufferX.obj
 0002:00001df6       __VInfreq_?GetTotalSize@CIFXStdioReadBufferX@@UAIHPA_K@Z 10051df6     Importing:CIFXStdioReadBufferX.obj
 0002:00001e22       __VInfreq_?GetAvailableSize@CIFXStdioReadBufferX@@UAIHPA_K@Z 10051e22     Importing:CIFXStdioReadBufferX.obj
 0002:00001e50       __VInfreq_??1CIFXInternetReadBufferX@@EAE@XZ 10051e50     Importing:CIFXInternetReadBufferX.obj
 0002:00001e90       __VInfreq_?CIFXInternetReadBufferX_Factory@@YIHABUIFXGUID@@PAPAX@Z 10051e90     Importing:CIFXInternetReadBufferX.obj
 0002:00001eb2       __VInfreq_??0CIFXInternetReadBufferX@@AAE@XZ 10051eb2     Importing:CIFXInternetReadBufferX.obj
 0002:00001ee0       __VInfreq_?Execute@CIFXInternetReadBufferX@@UAIHPAVIFXTaskData@@@Z 10051ee0     Importing:CIFXInternetReadBufferX.obj
 0002:00001f54       __VInfreq_?InitiateRead@CIFXInternetReadBufferX@@UAIHPAVIFXCoreServices@@PAVIFXReadingCallback@@@Z 10051f54     Importing:CIFXInternetReadBufferX.obj
 0002:00001f8c       __VInfreq_??1CIFXPointSetDecoder@@EAE@XZ 10051f8c     Importing:CIFXPointSetDecoder.obj
 0002:00001fe2       __VInfreq_?CIFXPointSetDecoder_Factory@@YIHABUIFXGUID@@PAPAX@Z 10051fe2     Importing:CIFXPointSetDecoder.obj
 0002:00002004       __VInfreq_?TransferX@CIFXPointSetDecoder@@UAIXAAH@Z 10052004     Importing:CIFXPointSetDecoder.obj
 0002:00002078       __VInfreq_?ProcessAuthorPointSetContinuationBlockX@CIFXPointSetDecoder@@AAEXXZ 10052078     Importing:CIFXPointSetDecoder.obj
 0002:00002092       __VInfreq_?ProcessAuthorPointSetDeclarationBlockX@CIFXPointSetDecoder@@AAEXXZ 10052092     Importing:CIFXPointSetDecoder.obj
 0002:000020cc       __VInfreq_??1CIFXLineSetDecoder@@EAE@XZ 100520cc     Importing:CIFXLineSetDecoder.obj
 0002:00002136       __VInfreq_?CIFXLineSetDecoder_Factory@@YIHABUIFXGUID@@PAPAX@Z 10052136     Importing:CIFXLineSetDecoder.obj
 0002:00002158       __VInfreq_?TransferX@CIFXLineSetDecoder@@UAIXAAH@Z 10052158     Importing:CIFXLineSetDecoder.obj
 0002:000021cc       __VInfreq_?ProcessAuthorLineSetContinuationBlockX@CIFXLineSetDecoder@@AAEXXZ 100521cc     Importing:CIFXLineSetDecoder.obj
 0002:000021e6       __VInfreq_?CalculatePredictedColorAtSplitPosX@CIFXLineSetDecoder@@AAEXHIIAAVIFXVector4@@@Z 100521e6     Importing:CIFXLineSetDecoder.obj
 0002:0000236c       __VInfreq_?CalculatePredictedTexCoordAtSplitPosX@CIFXLineSetDecoder@@AAEXIIIAAVIFXVector4@@@Z 1005236c     Importing:CIFXLineSetDecoder.obj
 0002:000024f2       __VInfreq_?CalculatePredictedNormalAtSplitPosX@CIFXLineSetDecoder@@AAEXIIAAVIFXVector3@@@Z 100524f2     Importing:CIFXLineSetDecoder.obj
 0002:00002678       __VInfreq_?ProcessAuthorLineSetDeclarationBlockX@CIFXLineSetDecoder@@AAEXXZ 10052678     Importing:CIFXLineSetDecoder.obj
 0002:000026e8       __VInfreq_??1CIFXBoneWeightsModifierDecoder@@EAE@XZ 100526e8     Importing:CIFXBoneWeightsModifierDecoder.obj
 0002:00002702       __VInfreq_?CIFXBoneWeightsModifierDecoder_Factory@@YIHABUIFXGUID@@PAPAX@Z 10052702     Importing:CIFXBoneWeightsModifierDecoder.obj
 0002:00002724       __VInfreq_?TransferX@CIFXBoneWeightsModifierDecoder@@UAIXAAH@Z 10052724     Importing:CIFXBoneWeightsModifierDecoder.obj
 0002:0000273e       __VInfreq_?ProcessBoneWeightsModifierBlockX@CIFXBoneWeightsModifierDecoder@@AAEXAAVIFXDataBlockX@@@Z 1005273e     Importing:CIFXBoneWeightsModifierDecoder.obj
 0002:00002794       __VInfreq_??1CIFXCLODModifierDecoder@@EAE@XZ 10052794     Importing:CIFXCLODModifierDecoder.obj
 0002:000027ae       __VInfreq_?CIFXCLODModifierDecoder_Factory@@YIHABUIFXGUID@@PAPAX@Z 100527ae     Importing:CIFXCLODModifierDecoder.obj
 0002:000027d0       __VInfreq_?TransferX@CIFXCLODModifierDecoder@@UAIXAAH@Z 100527d0     Importing:CIFXCLODModifierDecoder.obj
 0002:000027ea       __VInfreq_?ProcessCLODModifierBlockX@CIFXCLODModifierDecoder@@AAEXAAVIFXDataBlockX@@@Z 100527ea     Importing:CIFXCLODModifierDecoder.obj
 0002:00002840       __VInfreq_??1CIFXDummyModifierDecoder@@EAE@XZ 10052840     Importing:CIFXDummyModifierDecoder.obj
 0002:0000285a       __VInfreq_?CIFXDummyModifierDecoder_Factory@@YIHABUIFXGUID@@PAPAX@Z 1005285a     Importing:CIFXDummyModifierDecoder.obj
 0002:0000287c       __VInfreq_?TransferX@CIFXDummyModifierDecoder@@UAIXAAH@Z 1005287c     Importing:CIFXDummyModifierDecoder.obj
 0002:00002898       __VInfreq_??1IFXModifierBaseDecoder@@MAE@XZ 10052898     Importing:IFXModifierBaseDecoder.obj
 0002:000028ea       __VInfreq_?CreateObjectX@IFXModifierBaseDecoder@@IAEXAAVIFXDataBlockX@@ABUIFXGUID@@@Z 100528ea     Importing:IFXModifierBaseDecoder.obj
 0002:00002930       __VInfreq_?ProcessChainX@IFXModifierBaseDecoder@@IAEXAAVIFXDataBlockX@@@Z 10052930     Importing:IFXModifierBaseDecoder.obj
 0002:00002994       __VInfreq_?ProcessAuthorCLODStaticGeometryBlockX@CIFXAuthorCLODDecoder@@AAEXI@Z 10052994     Importing:CIFXAuthorCLODDecoder_S.obj
 0002:000029c8       __VInfreq_?ProcessAuthorCLODProgressiveGeometryBlocksX@CIFXAuthorCLODDecoder@@AAEXI@Z 100529c8     Importing:CIFXAuthorCLODDecoder_P.obj
 0002:00002d28       __VInfreq_??1CIFXNodeBaseDecoder@@MAE@XZ 10052d28     Importing:CIFXNodeDecoder.obj
 0002:00002d8c       __VInfreq_?CommonNodeReadU3DX@CIFXNodeBaseDecoder@@IAEHAAVIFXDataBlockX@@@Z 10052d8c     Importing:CIFXNodeDecoder.obj
 0002:00002e3e       __VInfreq_?CreateObjectX@CIFXNodeBaseDecoder@@IAEXAAVIFXDataBlockX@@ABUIFXGUID@@@Z 10052e3e     Importing:CIFXNodeDecoder.obj
 0002:00002eb2       __VInfreq_?ReplaceNodeX@CIFXNodeBaseDecoder@@IAEXIAAVIFXUnknown@@@Z 10052eb2     Importing:CIFXNodeDecoder.obj
 0002:00002ef8       __VInfreq_?AddParentNodePlaceholderX@CIFXNodeBaseDecoder@@IAEXAAVIFXDataBlockX@@@Z 10052ef8     Importing:CIFXNodeDecoder.obj
 0002:00002f7c       __VInfreq_??1IFXHTTPConnectionX@@UAE@XZ 10052f7c     Importing:IFXInternetConnectionX.obj
 0002:00002f96       __VInfreq_??1IFXFTPConnectionX@@UAE@XZ 10052f96     Importing:IFXInternetConnectionX.obj
 0002:00002fb0       __VInfreq_?MakeInternetConnectionX@@YAPAVIFXInternetConnectionX@@PBD@Z 10052fb0     Importing:IFXInternetConnectionX.obj
 0002:00002fea       __VInfreq_?CreateDataConnectionX@IFXFTPConnectionX@@AAEXXZ 10052fea     Importing:IFXInternetConnectionX.obj
 0002:0000300c       __VInfreq_?InitializeX@IFXInternetConnectionX@@UAEXPBDAAG00@Z 1005300c     Importing:IFXInternetConnectionX.obj
 0002:00003030       __VInfreq_@IFXOSGetCoreLibraryPath@4 10053030     Platform:IFXOSLoader.obj
 0003:00000000       __imp_@IFXCreateComponent@12 10054000     IFXCore:IFXCore.dll
 0003:00000004       __imp_@IFXReallocate@8     10054004     IFXCore:IFXCore.dll
 0003:00000008       __imp_@IFXDeallocate@4     10054008     IFXCore:IFXCore.dll
 0003:0000000c       __imp_@IFXAllocate@4       1005400c     IFXCore:IFXCore.dll
 0003:00000010       __imp_@IFXGetMemoryFunctions@12 10054010     IFXCore:IFXCore.dll
 0003:00000014       __imp_@IFXSetMemoryFunctions@12 10054014     IFXCore:IFXCore.dll
 0003:00000018       \177IFXCore_NULL_THUNK_DATA 10054018     IFXCore:IFXCore.dll
 0003:0000001c       __imp__DisableThreadLibraryCalls@4 1005401c     kernel32:KERNEL32.dll
 0003:00000020       __imp__GetCurrentThreadId@0 10054020     kernel32:KERNEL32.dll
 0003:00000024       __imp__GetCommandLineA@0   10054024     kernel32:KERNEL32.dll
 0003:00000028       __imp__GetVersionExA@4     10054028     kernel32:KERNEL32.dll
 0003:0000002c       __imp__RtlUnwind@16        1005402c     kernel32:KERNEL32.dll
 0003:00000030       __imp__RaiseException@16   10054030     kernel32:KERNEL32.dll
 0003:00000034       __imp__EnterCriticalSection@4 10054034     kernel32:KERNEL32.dll
 0003:00000038       __imp__LeaveCriticalSection@4 10054038     kernel32:KERNEL32.dll
 0003:0000003c       __imp__ExitProcess@4       1005403c     kernel32:KERNEL32.dll
 0003:00000040       __imp__GetProcAddress@8    10054040     kernel32:KERNEL32.dll
 0003:00000044       __imp__GetModuleHandleA@4  10054044     kernel32:KERNEL32.dll
 0003:00000048       __imp__TerminateProcess@8  10054048     kernel32:KERNEL32.dll
 0003:0000004c       __imp__GetCurrentProcess@0 1005404c     kernel32:KERNEL32.dll
 0003:00000050       __imp__TlsAlloc@0          10054050     kernel32:KERNEL32.dll
 0003:00000054       __imp__SetLastError@4      10054054     kernel32:KERNEL32.dll
 0003:00000058       __imp__GetLastError@0      10054058     kernel32:KERNEL32.dll
 0003:0000005c       __imp__TlsFree@4           1005405c     kernel32:KERNEL32.dll
 0003:00000060       __imp__TlsSetValue@8       10054060     kernel32:KERNEL32.dll
 0003:00000064       __imp__TlsGetValue@4       10054064     kernel32:KERNEL32.dll
 0003:00000068       __imp__HeapFree@12         10054068     kernel32:KERNEL32.dll
 0003:0000006c       __imp__HeapAlloc@12        1005406c     kernel32:KERNEL32.dll
 0003:00000070       __imp__SetHandleCount@4    10054070     kernel32:KERNEL32.dll
 0003:00000074       __imp__GetStdHandle@4      10054074     kernel32:KERNEL32.dll
 0003:00000078       __imp__GetFileType@4       10054078     kernel32:KERNEL32.dll
 0003:0000007c       __imp__GetStartupInfoA@4   1005407c     kernel32:KERNEL32.dll
 0003:00000080       __imp__DeleteCriticalSection@4 10054080     kernel32:KERNEL32.dll
 0003:00000084       __imp__GetModuleFileNameA@12 10054084     kernel32:KERNEL32.dll
 0003:00000088       __imp__FreeEnvironmentStringsA@4 10054088     kernel32:KERNEL32.dll
 0003:0000008c       __imp__GetEnvironmentStrings@0 1005408c     kernel32:KERNEL32.dll
 0003:00000090       __imp__FreeEnvironmentStringsW@4 10054090     kernel32:KERNEL32.dll
 0003:00000094       __imp__WideCharToMultiByte@32 10054094     kernel32:KERNEL32.dll
 0003:00000098       __imp__GetEnvironmentStringsW@0 10054098     kernel32:KERNEL32.dll
 0003:0000009c       __imp__HeapDestroy@4       1005409c     kernel32:KERNEL32.dll
 0003:000000a0       __imp__HeapCreate@12       100540a0     kernel32:KERNEL32.dll
 0003:000000a4       __imp__VirtualFree@12      100540a4     kernel32:KERNEL32.dll
 0003:000000a8       __imp__UnhandledExceptionFilter@4 100540a8     kernel32:KERNEL32.dll
 0003:000000ac       __imp__WriteFile@20        100540ac     kernel32:KERNEL32.dll
 0003:000000b0       __imp__SetUnhandledExceptionFilter@4 100540b0     kernel32:KERNEL32.dll
 0003:000000b4       __imp__HeapReAlloc@16      100540b4     kernel32:KERNEL32.dll
 0003:000000b8       __imp__HeapSize@12         100540b8     kernel32:KERNEL32.dll
 0003:000000bc       __imp__CloseHandle@4       100540bc     kernel32:KERNEL32.dll
 0003:000000c0       __imp__SetFilePointer@16   100540c0     kernel32:KERNEL32.dll
 0003:000000c4       __imp__ReadFile@20         100540c4     kernel32:KERNEL32.dll
 0003:000000c8       __imp__MultiByteToWideChar@24 100540c8     kernel32:KERNEL32.dll
 0003:000000cc       __imp__LCMapStringA@24     100540cc     kernel32:KERNEL32.dll
 0003:000000d0       __imp__LCMapStringW@24     100540d0     kernel32:KERNEL32.dll
 0003:000000d4       __imp__GetACP@0            100540d4     kernel32:KERNEL32.dll
 0003:000000d8       __imp__GetOEMCP@0          100540d8     kernel32:KERNEL32.dll
 0003:000000dc       __imp__GetCPInfo@8         100540dc     kernel32:KERNEL32.dll
 0003:000000e0       __imp__VirtualAlloc@16     100540e0     kernel32:KERNEL32.dll
 0003:000000e4       __imp__IsBadWritePtr@8     100540e4     kernel32:KERNEL32.dll
 0003:000000e8       __imp__InitializeCriticalSection@4 100540e8     kernel32:KERNEL32.dll
 0003:000000ec       __imp__InterlockedExchange@8 100540ec     kernel32:KERNEL32.dll
 0003:000000f0       __imp__VirtualQuery@12     100540f0     kernel32:KERNEL32.dll
 0003:000000f4       __imp__LoadLibraryA@4      100540f4     kernel32:KERNEL32.dll
 0003:000000f8       __imp__IsBadReadPtr@8      100540f8     kernel32:KERNEL32.dll
 0003:000000fc       __imp__IsBadCodePtr@4      100540fc     kernel32:KERNEL32.dll
 0003:00000100       __imp__SetStdHandle@8      10054100     kernel32:KERNEL32.dll
 0003:00000104       __imp__FlushFileBuffers@4  10054104     kernel32:KERNEL32.dll
 0003:00000108       __imp__VirtualProtect@16   10054108     kernel32:KERNEL32.dll
 0003:0000010c       __imp__GetSystemInfo@4     1005410c     kernel32:KERNEL32.dll
 0003:00000110       __imp__GetLocaleInfoA@16   10054110     kernel32:KERNEL32.dll
 0003:00000114       __imp__GetStringTypeA@20   10054114     kernel32:KERNEL32.dll
 0003:00000118       __imp__GetStringTypeW@16   10054118     kernel32:KERNEL32.dll
 0003:0000011c       __imp__GetUserDefaultLCID@0 1005411c     kernel32:KERNEL32.dll
 0003:00000120       __imp__EnumSystemLocalesA@8 10054120     kernel32:KERNEL32.dll
 0003:00000124       __imp__IsValidLocale@8     10054124     kernel32:KERNEL32.dll
 0003:00000128       __imp__IsValidCodePage@4   10054128     kernel32:KERNEL32.dll
 0003:0000012c       __imp__QueryPerformanceCounter@4 1005412c     kernel32:KERNEL32.dll
 0003:00000130       __imp__GetTickCount@0      10054130     kernel32:KERNEL32.dll
 0003:00000134       __imp__GetCurrentProcessId@0 10054134     kernel32:KERNEL32.dll
 0003:00000138       __imp__GetSystemTimeAsFileTime@4 10054138     kernel32:KERNEL32.dll
 0003:0000013c       __imp__GetLocaleInfoW@16   1005413c     kernel32:KERNEL32.dll
 0003:00000140       __imp__Sleep@4             10054140     kernel32:KERNEL32.dll
 0003:00000144       __imp__QueryPerformanceFrequency@4 10054144     kernel32:KERNEL32.dll
 0003:00000148       __imp__GetSystemDefaultLangID@0 10054148     kernel32:KERNEL32.dll
 0003:0000014c       __imp__LoadLibraryW@4      1005414c     kernel32:KERNEL32.dll
 0003:00000150       __imp__GetModuleHandleW@4  10054150     kernel32:KERNEL32.dll
 0003:00000154       __imp__GetModuleFileNameW@12 10054154     kernel32:KERNEL32.dll
 0003:00000158       __imp__FreeLibrary@4       10054158     kernel32:KERNEL32.dll
 0003:0000015c       __imp__CreateFileW@28      1005415c     kernel32:KERNEL32.dll
 0003:00000160       __imp__SetEndOfFile@4      10054160     kernel32:KERNEL32.dll
 0003:00000164       \177KERNEL32_NULL_THUNK_DATA 10054164     kernel32:KERNEL32.dll
 0003:00000168       __imp__MessageBoxW@16      10054168     user32:USER32.dll
 0003:0000016c       \177USER32_NULL_THUNK_DATA 1005416c     user32:USER32.dll
 0003:00000170       __imp__timeEndPeriod@4     10054170     winmm:WINMM.dll
 0003:00000174       __imp__timeBeginPeriod@4   10054174     winmm:WINMM.dll
 0003:00000178       __imp__timeGetTime@0       10054178     winmm:WINMM.dll
 0003:0000017c       \177WINMM_NULL_THUNK_DATA  1005417c     winmm:WINMM.dll
 0003:00000180       __imp__WSAStartup@8        10054180     ws2_32:WS2_32.dll
 0003:00000184       __imp__socket@12           10054184     ws2_32:WS2_32.dll
 0003:00000188       __imp__closesocket@4       10054188     ws2_32:WS2_32.dll
 0003:0000018c       __imp__WSACleanup@0        1005418c     ws2_32:WS2_32.dll
 0003:00000190       __imp__htons@4             10054190     ws2_32:WS2_32.dll
 0003:00000194       __imp__gethostbyname@4     10054194     ws2_32:WS2_32.dll
 0003:00000198       __imp__connect@12          10054198     ws2_32:WS2_32.dll
 0003:0000019c       __imp__recv@16             1005419c     ws2_32:WS2_32.dll
 0003:000001a0       __imp__send@16             100541a0     ws2_32:WS2_32.dll
 0003:000001a4       __imp__setsockopt@20       100541a4     ws2_32:WS2_32.dll
 0003:000001a8       __imp__getsockopt@20       100541a8     ws2_32:WS2_32.dll
 0003:000001ac       \177WS2_32_NULL_THUNK_DATA 100541ac     ws2_32:WS2_32.dll
 0003:000001c0       _IID_IFXUnknown            100541c0     Importing:IFXImportingGuids.obj
 0003:000001d0       _IID_IFXPalette            100541d0     Importing:IFXImportingGuids.obj
 0003:000001e0       _IID_IFXCoreServices       100541e0     Importing:IFXImportingGuids.obj
 0003:000001f0       _IID_IFXMetaDataX          100541f0     Importing:IFXImportingGuids.obj
 0003:00000200       _IID_IFXDataBlockX         10054200     Importing:IFXImportingGuids.obj
 0003:00000210       _IID_IFXFileReference      10054210     Importing:IFXImportingGuids.obj
 0003:00000220       _IID_IFXNameMap            10054220     Importing:IFXImportingGuids.obj
 0003:00000230       _IID_IFXMarker             10054230     Importing:IFXImportingGuids.obj
 0003:00000240       _IID_IFXSubject            10054240     Importing:IFXImportingGuids.obj
 0003:00000250       _IID_IFXSceneGraph         10054250     Importing:IFXImportingGuids.obj
 0003:00000260       _IID_IFXDecoderX           10054260     Importing:IFXImportingGuids.obj
 0003:00000270       _IID_IFXDataBlockQueueX    10054270     Importing:IFXImportingGuids.obj
 0003:00000280       _IID_IFXBitStreamX         10054280     Importing:IFXImportingGuids.obj
 0003:00000290       _IID_IFXAuthorMesh         10054290     Importing:IFXImportingGuids.obj
 0003:000002a0       _IID_IFXSetX               100542a0     Importing:IFXImportingGuids.obj
 0003:000002b0       _IID_IFXAuthorCLODMesh     100542b0     Importing:IFXImportingGuids.obj
 0003:000002c0       _IID_IFXSetAdjacencyX      100542c0     Importing:IFXImportingGuids.obj
 0003:000002d0       _IID_IFXModifier           100542d0     Importing:IFXImportingGuids.obj
 0003:000002e0       _IID_IFXGenerator          100542e0     Importing:IFXImportingGuids.obj
 0003:000002f0       _IID_IFXBTTHash            100542f0     Importing:IFXImportingGuids.obj
 0003:00000300       _IID_IFXSpatial            10054300     Importing:IFXImportingGuids.obj
 0003:00000310       _IID_IFXCollection         10054310     Importing:IFXImportingGuids.obj
 0003:00000320       _IID_IFXSimpleList         10054320     Importing:IFXImportingGuids.obj
 0003:00000330       _IID_IFXNode               10054330     Importing:IFXImportingGuids.obj
 0003:00000340       _IID_IFXResourceClient     10054340     Importing:IFXImportingGuids.obj
 0003:00000350       _IID_IFXSpatialAssociation 10054350     Importing:IFXImportingGuids.obj
 0003:00000360       _IID_IFXShaderList         10054360     Importing:IFXImportingGuids.obj
 0003:00000370       _IID_IFXModel              10054370     Importing:IFXImportingGuids.obj
 0003:00000380       _IID_IFXSpatialSetQuery    10054380     Importing:IFXImportingGuids.obj
 0003:00000390       _IID_IFXRenderClear        10054390     Importing:IFXImportingGuids.obj
 0003:000003a0       _CID_IFXNameMap            100543a0     Importing:IFXImportingGuids.obj
 0003:000003b0       _CID_IFXDevice             100543b0     Importing:IFXImportingGuids.obj
 0003:000003c0       _CID_IFXCLODManager        100543c0     Importing:IFXImportingGuids.obj
 0003:000003d0       _CID_IFXSetAdjacencyX      100543d0     Importing:IFXImportingGuids.obj
 0003:000003e0       _CID_IFXSetX               100543e0     Importing:IFXImportingGuids.obj
 0003:000003f0       _CID_IFXAuthorCLODGen      100543f0     Importing:IFXImportingGuids.obj
 0003:00000400       _CID_IFXAuthorLineSetAnalyzer 10054400     Importing:IFXImportingGuids.obj
 0003:00000410       _CID_IFXMetaDataX          10054410     Importing:IFXImportingGuids.obj
 0003:00000420       _CID_IFXFileReference      10054420     Importing:IFXImportingGuids.obj
 0003:00000430       _CID_IFXMeshCompiler       10054430     Importing:IFXImportingGuids.obj
 0003:00000440       _CID_IFXMeshMap            10054440     Importing:IFXImportingGuids.obj
 0003:00000450       _CID_IFXAuthorMeshMap      10054450     Importing:IFXImportingGuids.obj
 0003:00000460       _CID_IFXGlyph2DCommands    10054460     Importing:IFXImportingGuids.obj
 0003:00000470       _CID_IFXGlyphCommandList   10054470     Importing:IFXImportingGuids.obj
 0003:00000480       _CID_IFXGlyph3DGenerator   10054480     Importing:IFXImportingGuids.obj
 0003:00000490       _CID_IFXAuthorMeshScrub    10054490     Importing:IFXImportingGuids.obj
 0003:000004a0       _CID_IFXAuthorMesh         100544a0     Importing:IFXImportingGuids.obj
 0003:000004b0       _CID_IFXAuthorCLODResource 100544b0     Importing:IFXImportingGuids.obj
 0003:000004c0       _CID_IFXBitStreamX         100544c0     Importing:IFXImportingGuids.obj
 0003:000004d0       _CID_IFXSkeleton           100544d0     Importing:IFXImportingGuids.obj
 0003:000004e0       _CID_IFXBoneWeightsModifier 100544e0     Importing:IFXImportingGuids.obj
 0003:000004f0       _CID_IFXBoundHierarchy     100544f0     Importing:IFXImportingGuids.obj
 0003:00000500       _CID_IFXBoundSphereDataElement 10054500     Importing:IFXImportingGuids.obj
 0003:00000510       _CID_IFXConnector          10054510     Importing:IFXImportingGuids.obj
 0003:00000520       _CID_IFXContour            10054520     Importing:IFXImportingGuids.obj
 0003:00000530       _CID_IFXContourExtruder    10054530     Importing:IFXImportingGuids.obj
 0003:00000540       _CID_IFXContourGenerator   10054540     Importing:IFXImportingGuids.obj
 0003:00000550       _CID_IFXContourTessellator 10054550     Importing:IFXImportingGuids.obj
 0003:00000560       _CID_IFXCoreServices       10054560     Importing:IFXImportingGuids.obj
 0003:00000570       _CID_IFXCoreServicesRef    10054570     Importing:IFXImportingGuids.obj
 0003:00000580       _CID_IFXDataBlock          10054580     Importing:IFXImportingGuids.obj
 0003:00000590       _CID_IFXDataBlockX         10054590     Importing:IFXImportingGuids.obj
 0003:000005a0       _CID_IFXDataBlockQueueX    100545a0     Importing:IFXImportingGuids.obj
 0003:000005b0       _CID_IFXModifierDataPacket 100545b0     Importing:IFXImportingGuids.obj
 0003:000005c0       _CID_IFXGlyphCurveToBlock  100545c0     Importing:IFXImportingGuids.obj
 0003:000005d0       _CID_IFXGlyphLineToBlock   100545d0     Importing:IFXImportingGuids.obj
 0003:000005e0       _CID_IFXGlyphMoveToBlock   100545e0     Importing:IFXImportingGuids.obj
 0003:000005f0       _CID_IFXGlyphTagBlock      100545f0     Importing:IFXImportingGuids.obj
 0003:00000600       _CID_IFXGroup              10054600     Importing:IFXImportingGuids.obj
 0003:00000610       _CID_IFXHashMap            10054610     Importing:IFXImportingGuids.obj
 0003:00000620       _CID_IFXIDManager          10054620     Importing:IFXImportingGuids.obj
 0003:00000630       _CID_IFXLight              10054630     Importing:IFXImportingGuids.obj
 0003:00000640       _CID_IFXLightResource      10054640     Importing:IFXImportingGuids.obj
 0003:00000650       _CID_IFXViewResource       10054650     Importing:IFXImportingGuids.obj
 0003:00000660       _CID_IFXLightSet           10054660     Importing:IFXImportingGuids.obj
 0003:00000670       _CID_IFXImageCodec         10054670     Importing:IFXImportingGuids.obj
 0003:00000680       _CID_IFXCLODModifier       10054680     Importing:IFXImportingGuids.obj
 0003:00000690       _CID_IFXMaterialResource   10054690     Importing:IFXImportingGuids.obj
 0003:000006a0       _CID_IFXMesh               100546a0     Importing:IFXImportingGuids.obj
 0003:000006b0       _CID_IFXInterleavedData    100546b0     Importing:IFXImportingGuids.obj
 0003:000006c0       _CID_IFXMeshGroup          100546c0     Importing:IFXImportingGuids.obj
 0003:000006d0       _CID_IFXNeighborMesh       100546d0     Importing:IFXImportingGuids.obj
 0003:000006e0       _CID_IFXMixerConstruct     100546e0     Importing:IFXImportingGuids.obj
 0003:000006f0       _CID_IFXModel              100546f0     Importing:IFXImportingGuids.obj
 0003:00000700       _CID_IFXModifierChain      10054700     Importing:IFXImportingGuids.obj
 0003:00000710       _CID_IFXDidRegistry        10054710     Importing:IFXImportingGuids.obj
 0003:00000720       _CID_IFXMotionResource     10054720     Importing:IFXImportingGuids.obj
 0003:00000730       _CID_IFXShaderList         10054730     Importing:IFXImportingGuids.obj
 0003:00000740       _CID_IFXGlyph2DModifier    10054740     Importing:IFXImportingGuids.obj
 0003:00000750       _CID_IFXPalette            10054750     Importing:IFXImportingGuids.obj
 0003:00000760       _CID_IFXPerformanceTimer   10054760     Importing:IFXImportingGuids.obj
 0003:00000770       _CID_IFXPickObject         10054770     Importing:IFXImportingGuids.obj
 0003:00000780       _CID_IFXRenderPass         10054780     Importing:IFXImportingGuids.obj
 0003:00000790       _CID_IFXSceneGraph         10054790     Importing:IFXImportingGuids.obj
 0003:000007a0       _CID_IFXSimpleCollection   100547a0     Importing:IFXImportingGuids.obj
 0003:000007b0       _CID_IFXAnimationModifier  100547b0     Importing:IFXImportingGuids.obj
 0003:000007c0       _CID_IFXAuthorPointSet     100547c0     Importing:IFXImportingGuids.obj
 0003:000007d0       _CID_IFXAuthorPointSetResource 100547d0     Importing:IFXImportingGuids.obj
 0003:000007e0       _CID_IFXAuthorLineSet      100547e0     Importing:IFXImportingGuids.obj
 0003:000007f0       _CID_IFXAuthorLineSetResource 100547f0     Importing:IFXImportingGuids.obj
 0003:00000800       _CID_IFXSimpleHash         10054800     Importing:IFXImportingGuids.obj
 0003:00000810       _CID_IFXSimpleList         10054810     Importing:IFXImportingGuids.obj
 0003:00000820       _CID_IFXSimpleObject       10054820     Importing:IFXImportingGuids.obj
 0003:00000830       _CID_IFXSpatialSubdiv      10054830     Importing:IFXImportingGuids.obj
 0003:00000840       _CID_IFXSubdivModifier     10054840     Importing:IFXImportingGuids.obj
 0003:00000850       _CID_IFXTextureImageTools  10054850     Importing:IFXImportingGuids.obj
 0003:00000860       _CID_IFXTextureObject      10054860     Importing:IFXImportingGuids.obj
 0003:00000870       _CID_IFXUVGenerator        10054870     Importing:IFXImportingGuids.obj
 0003:00000880       _CID_IFXUVMapperCylindrical 10054880     Importing:IFXImportingGuids.obj
 0003:00000890       _CID_IFXUVMapperNone       10054890     Importing:IFXImportingGuids.obj
 0003:000008a0       _CID_IFXUVMapperPlanar     100548a0     Importing:IFXImportingGuids.obj
 0003:000008b0       _CID_IFXUVMapperSpherical  100548b0     Importing:IFXImportingGuids.obj
 0003:000008c0       _CID_IFXUVMapperReflection 100548c0     Importing:IFXImportingGuids.obj
 0003:000008d0       _CID_IFXView               100548d0     Importing:IFXImportingGuids.obj
 0003:000008e0       _CID_IFXVoidWrapper        100548e0     Importing:IFXImportingGuids.obj
 0003:000008f0       _CID_IFXShadingModifier    100548f0     Importing:IFXImportingGuids.obj
 0003:00000900       _CID_IFXDummyModifier      10054900     Importing:IFXImportingGuids.obj
 0003:00000910       _CID_IFXShaderLitTexture   10054910     Importing:IFXImportingGuids.obj
 0003:00000920       _IID_IFXEncoderX           10054920     Importing:IFXImportingGuids.obj
 0003:00000930       _IID_IFXMarkerX            10054930     Importing:IFXImportingGuids.obj
 0003:00000940       _IID_IFXRenderable         10054940     Importing:IFXImportingGuids.obj
 0003:00000950       _IID_IFXMeshGroup          10054950     Importing:IFXImportingGuids.obj
 0003:00000960       _IID_IFXInterleavedData    10054960     Importing:IFXImportingGuids.obj
 0003:00000970       _IID_IFXMesh               10054970     Importing:IFXImportingGuids.obj
 0003:00000980       _IID_IFXTextureObject      10054980     Importing:IFXImportingGuids.obj
 0003:00000990       _IID_IFXTextureImageTools  10054990     Importing:IFXImportingGuids.obj
 0003:000009a0       _IID_IFXRenderServices     100549a0     Importing:IFXImportingGuids.obj
 0003:000009b0       _IID_IFXRenderContext      100549b0     Importing:IFXImportingGuids.obj
 0003:000009c0       _IID_IFXViewResource       100549c0     Importing:IFXImportingGuids.obj
 0003:000009d0       _IID_IFXView               100549d0     Importing:IFXImportingGuids.obj
 0003:000009e0       _IID_IFXAnimationModifier  100549e0     Importing:IFXImportingGuids.obj
 0003:000009f0       _IID_IFXDataPacket         100549f0     Importing:IFXImportingGuids.obj
 0003:00000a00       _IID_IFXModifierDataPacket 10054a00     Importing:IFXImportingGuids.obj
 0003:00000a10       _IID_IFXShader             10054a10     Importing:IFXImportingGuids.obj
 0003:00000a20       _IID_IFXShaderLitTexture   10054a20     Importing:IFXImportingGuids.obj
 0003:00000a30       _IID_IFXSubdivModifier     10054a30     Importing:IFXImportingGuids.obj
 0003:00000a40       _IID_IFXCLODManager        10054a40     Importing:IFXImportingGuids.obj
 0003:00000a50       _IID_IFXHashMap            10054a50     Importing:IFXImportingGuids.obj
 0003:00000a60       _IID_IFXMotionResource     10054a60     Importing:IFXImportingGuids.obj
 0003:00000a70       _IID_IFXMaterialResource   10054a70     Importing:IFXImportingGuids.obj
 0003:00000a80       _IID_IFXReadBuffer         10054a80     Importing:IFXImportingGuids.obj
 0003:00000a90       _IID_IFXTaskData           10054a90     Importing:IFXImportingGuids.obj
 0003:00000aa0       _IID_IFXTask               10054aa0     Importing:IFXImportingGuids.obj
 0003:00000ab0       _IID_IFXLightResource      10054ab0     Importing:IFXImportingGuids.obj
 0003:00000ac0       _IID_IFXLight              10054ac0     Importing:IFXImportingGuids.obj
 0003:00000ad0       _IID_IFXLoadManager        10054ad0     Importing:IFXImportingGuids.obj
 0003:00000ae0       _IID_IFXCLODModifier       10054ae0     Importing:IFXImportingGuids.obj
 0003:00000af0       _IID_IFXErrorInfo          10054af0     Importing:IFXImportingGuids.obj
 0003:00000b00       _IID_IFXNotificationInfo   10054b00     Importing:IFXImportingGuids.obj
 0003:00000b10       _IID_IFXTaskManagerNode    10054b10     Importing:IFXImportingGuids.obj
 0003:00000b20       _IID_IFXTaskManagerView    10054b20     Importing:IFXImportingGuids.obj
 0003:00000b30       _IID_IFXTaskManager        10054b30     Importing:IFXImportingGuids.obj
 0003:00000b40       _IID_IFXNotificationManager 10054b40     Importing:IFXImportingGuids.obj
 0003:00000b50       _IID_IFXClock              10054b50     Importing:IFXImportingGuids.obj
 0003:00000b60       _IID_IFXSimulationManager  10054b60     Importing:IFXImportingGuids.obj
 0003:00000b70       _IID_IFXSystemManager      10054b70     Importing:IFXImportingGuids.obj
 0003:00000b80       _IID_IFXTimeManager        10054b80     Importing:IFXImportingGuids.obj
 0003:00000b90       _IID_IFXScheduler          10054b90     Importing:IFXImportingGuids.obj
 0003:00000ba0       _IID_IFXDecoderChainX      10054ba0     Importing:IFXImportingGuids.obj
 0003:00000bb0       _IID_IFXReadBufferX        10054bb0     Importing:IFXImportingGuids.obj
 0003:00000bc0       _IID_IFXStdio              10054bc0     Importing:IFXImportingGuids.obj
 0003:00000bd0       _IID_IFXInet               10054bd0     Importing:IFXImportingGuids.obj
 0003:00000be0       _IID_IFXBlockReaderX       10054be0     Importing:IFXImportingGuids.obj
 0003:00000bf0       _IID_IFXAuthorMeshMap      10054bf0     Importing:IFXImportingGuids.obj
 0003:00000c00       _IID_IFXAuthorLineSet      10054c00     Importing:IFXImportingGuids.obj
 0003:00000c10       _IID_IFXAuthorPointSet     10054c10     Importing:IFXImportingGuids.obj
 0003:00000c20       _IID_IFXMeshMap            10054c20     Importing:IFXImportingGuids.obj
 0003:00000c30       _IID_IFXSkeleton           10054c30     Importing:IFXImportingGuids.obj
 0003:00000c40       _IID_IFXAuthorCLODResource 10054c40     Importing:IFXImportingGuids.obj
 0003:00000c50       _IID_IFXMixerConstruct     10054c50     Importing:IFXImportingGuids.obj
 0003:00000c60       _IID_IFXBitStreamCompressedX 10054c60     Importing:IFXImportingGuids.obj
 0003:00000c70       _IID_IFXBoneWeightsModifier 10054c70     Importing:IFXImportingGuids.obj
 0003:00000c80       _IID_IFXGlyph2DCommands    10054c80     Importing:IFXImportingGuids.obj
 0003:00000c90       _IID_IFXGlyphTagBlock      10054c90     Importing:IFXImportingGuids.obj
 0003:00000ca0       _IID_IFXGlyphMoveToBlock   10054ca0     Importing:IFXImportingGuids.obj
 0003:00000cb0       _IID_IFXGlyphLineToBlock   10054cb0     Importing:IFXImportingGuids.obj
 0003:00000cc0       _IID_IFXGlyphCurveToBlock  10054cc0     Importing:IFXImportingGuids.obj
 0003:00000cd0       _IID_IFXGlyph2DModifier    10054cd0     Importing:IFXImportingGuids.obj
 0003:00000ce0       _IID_IFXShadingModifier    10054ce0     Importing:IFXImportingGuids.obj
 0003:00000cf0       _IID_IFXAuthorLineSetResource 10054cf0     Importing:IFXImportingGuids.obj
 0003:00000d00       _IID_IFXAuthorLineSetAnalyzer 10054d00     Importing:IFXImportingGuids.obj
 0003:00000d10       _IID_IFXAuthorPointSetResource 10054d10     Importing:IFXImportingGuids.obj
 0003:00000d20       _IID_IFXExtensionDecoderX  10054d20     Importing:IFXImportingGuids.obj
 0003:00000d30       _IID_IFXDummyModifier      10054d30     Importing:IFXImportingGuids.obj
 0003:00000d40       _CID_IFXAuthorCLODEncoderX 10054d40     Importing:IFXImportingGuids.obj
 0003:00000d50       _CID_IFXMaterialResourceEncoder 10054d50     Importing:IFXImportingGuids.obj
 0003:00000d60       _CID_IFXMotionResourceEncoder 10054d60     Importing:IFXImportingGuids.obj
 0003:00000d70       _CID_IFXCLODGeneratorEncoder 10054d70     Importing:IFXImportingGuids.obj
 0003:00000d80       _CID_IFXGlyphGeneratorEncoder 10054d80     Importing:IFXImportingGuids.obj
 0003:00000d90       _CID_IFXBoxGeneratorEncoder 10054d90     Importing:IFXImportingGuids.obj
 0003:00000da0       _CID_IFXCylinderGeneratorEncoder 10054da0     Importing:IFXImportingGuids.obj
 0003:00000db0       _CID_IFXPlaneGeneratorEncoder 10054db0     Importing:IFXImportingGuids.obj
 0003:00000dc0       _CID_IFXSphereGeneratorEncoder 10054dc0     Importing:IFXImportingGuids.obj
 0003:00000dd0       _CID_IFXShaderLitTextureEncoder 10054dd0     Importing:IFXImportingGuids.obj
 0003:00000de0       _CID_IFXSkeletonModifierEncoder 10054de0     Importing:IFXImportingGuids.obj
 0003:00000df0       _CID_IFXSubdivisionModifierEncoder 10054df0     Importing:IFXImportingGuids.obj
 0003:00000e00       _CID_IFXShadingModifierEncoder 10054e00     Importing:IFXImportingGuids.obj
 0003:00000e10       _CID_IFXInkerModifierEncoder 10054e10     Importing:IFXImportingGuids.obj
 0003:00000e20       _CID_IFXCLODGeneratorParamEncoder 10054e20     Importing:IFXImportingGuids.obj
 0003:00000e30       _CID_IFXAnimationModifierEncoder 10054e30     Importing:IFXImportingGuids.obj
 0003:00000e40       _CID_IFXGroupNodeEncoder   10054e40     Importing:IFXImportingGuids.obj
 0003:00000e50       _CID_IFXLightNodeEncoder   10054e50     Importing:IFXImportingGuids.obj
 0003:00000e60       _CID_IFXLightResourceEncoder 10054e60     Importing:IFXImportingGuids.obj
 0003:00000e70       _CID_IFXModelNodeEncoder   10054e70     Importing:IFXImportingGuids.obj
 0003:00000e80       _CID_IFXViewNodeEncoder    10054e80     Importing:IFXImportingGuids.obj
 0003:00000e90       _CID_IFXViewResourceEncoder 10054e90     Importing:IFXImportingGuids.obj
 0003:00000ea0       _CID_IFXFileReferenceEncoder 10054ea0     Importing:IFXImportingGuids.obj
 0003:00000eb0       _CID_IFXBlockPriorityQueueX 10054eb0     Importing:IFXImportingGuids.obj
 0003:00000ec0       _CID_IFXBlockWriterX       10054ec0     Importing:IFXImportingGuids.obj
 0003:00000ed0       _CID_IFXWriteManager       10054ed0     Importing:IFXImportingGuids.obj
 0003:00000ee0       _CID_IFXAuthorGeomCompiler 10054ee0     Importing:IFXImportingGuids.obj
 0003:00000ef0       _CID_IFXStdioWriteBuffer   10054ef0     Importing:IFXImportingGuids.obj
 0003:00000f00       _CID_IFXStdioWriteBufferX  10054f00     Importing:IFXImportingGuids.obj
 0003:00000f10       _CID_IFXPointSetEncoder    10054f10     Importing:IFXImportingGuids.obj
 0003:00000f20       _CID_IFXLineSetEncoderX    10054f20     Importing:IFXImportingGuids.obj
 0003:00000f30       _CID_IFXBoneWeightsModifierEncoder 10054f30     Importing:IFXImportingGuids.obj
 0003:00000f40       _CID_IFXCLODModifierEncoder 10054f40     Importing:IFXImportingGuids.obj
 0003:00000f50       _CID_IFXDummyModifierEncoder 10054f50     Importing:IFXImportingGuids.obj
 0003:00000f60       _CID_IFXDirectX8           10054f60     Importing:IFXImportingGuids.obj
 0003:00000f70       _CID_IFXDirectX7           10054f70     Importing:IFXImportingGuids.obj
 0003:00000f80       _CID_IFXOpenGL             10054f80     Importing:IFXImportingGuids.obj
 0003:00000f90       _CID_IFXDeviceLight        10054f90     Importing:IFXImportingGuids.obj
 0003:00000fa0       _CID_IFXDeviceTexture      10054fa0     Importing:IFXImportingGuids.obj
 0003:00000fb0       _CID_IFXDeviceTexUnit      10054fb0     Importing:IFXImportingGuids.obj
 0003:00000fc0       _CID_IFXDeviceLightDX8     10054fc0     Importing:IFXImportingGuids.obj
 0003:00000fd0       _CID_IFXDeviceTextureDX8   10054fd0     Importing:IFXImportingGuids.obj
 0003:00000fe0       _CID_IFXDeviceTexUnitDX8   10054fe0     Importing:IFXImportingGuids.obj
 0003:00000ff0       _CID_IFXDeviceLightDX7     10054ff0     Importing:IFXImportingGuids.obj
 0003:00001000       _CID_IFXDeviceTextureDX7   10055000     Importing:IFXImportingGuids.obj
 0003:00001010       _CID_IFXDeviceTexUnitDX7   10055010     Importing:IFXImportingGuids.obj
 0003:00001020       _CID_IFXDeviceLightNULL    10055020     Importing:IFXImportingGuids.obj
 0003:00001030       _CID_IFXDeviceTextureNULL  10055030     Importing:IFXImportingGuids.obj
 0003:00001040       _CID_IFXDeviceTexUnitNULL  10055040     Importing:IFXImportingGuids.obj
 0003:00001050       _CID_IFXDeviceLightOGL     10055050     Importing:IFXImportingGuids.obj
 0003:00001060       _CID_IFXDeviceTextureOGL   10055060     Importing:IFXImportingGuids.obj
 0003:00001070       _CID_IFXDeviceTexUnitOGL   10055070     Importing:IFXImportingGuids.obj
 0003:00001080       _CID_IFXRenderServices     10055080     Importing:IFXImportingGuids.obj
 0003:00001090       _CID_IFXRenderContext      10055090     Importing:IFXImportingGuids.obj
 0003:000010a0       _CID_IFXRenderDevice       100550a0     Importing:IFXImportingGuids.obj
 0003:000010b0       _CID_IFXRenderDX8          100550b0     Importing:IFXImportingGuids.obj
 0003:000010c0       _CID_IFXRenderDeviceDX8    100550c0     Importing:IFXImportingGuids.obj
 0003:000010d0       _CID_IFXRenderDX7          100550d0     Importing:IFXImportingGuids.obj
 0003:000010e0       _CID_IFXRenderDeviceDX7    100550e0     Importing:IFXImportingGuids.obj
 0003:000010f0       _CID_IFXRenderNULL         100550f0     Importing:IFXImportingGuids.obj
 0003:00001100       _CID_IFXRenderDeviceNULL   10055100     Importing:IFXImportingGuids.obj
 0003:00001110       _CID_IFXRenderOGL          10055110     Importing:IFXImportingGuids.obj
 0003:00001120       _CID_IFXRenderDeviceOGL    10055120     Importing:IFXImportingGuids.obj
 0003:00001130       _CID_IFXOctreeCollection   10055130     Importing:IFXImportingGuids.obj
 0003:00001140       _CID_IFXOctreeCuller       10055140     Importing:IFXImportingGuids.obj
 0003:00001150       _CID_IFXSceneGraphCuller   10055150     Importing:IFXImportingGuids.obj
 0003:00001160       _CID_IFXSimulationInfo     10055160     Importing:IFXImportingGuids.obj
 0003:00001170       _CID_IFXNotificationInfo   10055170     Importing:IFXImportingGuids.obj
 0003:00001180       _CID_IFXNotificationManager 10055180     Importing:IFXImportingGuids.obj
 0003:00001190       _CID_IFXSchedulerInfo      10055190     Importing:IFXImportingGuids.obj
 0003:000011a0       _CID_IFXSimulationManager  100551a0     Importing:IFXImportingGuids.obj
 0003:000011b0       _CID_IFXSystemManager      100551b0     Importing:IFXImportingGuids.obj
 0003:000011c0       _CID_IFXScheduler          100551c0     Importing:IFXImportingGuids.obj
 0003:000011d0       _CID_IFXTaskData           100551d0     Importing:IFXImportingGuids.obj
 0003:000011e0       _CID_IFXTaskManager        100551e0     Importing:IFXImportingGuids.obj
 0003:000011f0       _CID_IFXTaskManagerNode    100551f0     Importing:IFXImportingGuids.obj
 0003:00001200       _CID_IFXTaskManagerView    10055200     Importing:IFXImportingGuids.obj
 0003:00001210       _CID_IFXTimeManager        10055210     Importing:IFXImportingGuids.obj
 0003:00001220       _CID_IFXErrorInfo          10055220     Importing:IFXImportingGuids.obj
 0003:00001230       _CID_IFXClock              10055230     Importing:IFXImportingGuids.obj
 0003:00001240       _CID_IFXTaskCallback       10055240     Importing:IFXImportingGuids.obj
 0003:00001250       _CID_IFXAuthorCLODDecoder  10055250     Importing:IFXImportingGuids.obj
 0003:00001260       _CID_IFXGroupDecoder       10055260     Importing:IFXImportingGuids.obj
 0003:00001270       _CID_IFXLightDecoder       10055270     Importing:IFXImportingGuids.obj
 0003:00001280       _CID_IFXLightResourceDecoder 10055280     Importing:IFXImportingGuids.obj
 0003:00001290       _CID_IFXMaterialDecoder    10055290     Importing:IFXImportingGuids.obj
 0003:000012a0       _CID_IFXModelDecoder       100552a0     Importing:IFXImportingGuids.obj
 0003:000012b0       _CID_IFXCLODModifierParamDecoder 100552b0     Importing:IFXImportingGuids.obj
 0003:000012c0       _CID_IFXSkeletonModifierDecoder 100552c0     Importing:IFXImportingGuids.obj
 0003:000012d0       _CID_IFXAnimationModifierDecoder 100552d0     Importing:IFXImportingGuids.obj
 0003:000012e0       _CID_IFXMotionDecoder      100552e0     Importing:IFXImportingGuids.obj
 0003:000012f0       _CID_IFXCLODGeneratorDecoder 100552f0     Importing:IFXImportingGuids.obj
 0003:00001300       _CID_IFXGlyphGeneratorDecoder 10055300     Importing:IFXImportingGuids.obj
 0003:00001310       _CID_IFXBoxGeneratorDecoder 10055310     Importing:IFXImportingGuids.obj
 0003:00001320       _CID_IFXCylinderGeneratorDecoder 10055320     Importing:IFXImportingGuids.obj
 0003:00001330       _CID_IFXPlaneGeneratorDecoder 10055330     Importing:IFXImportingGuids.obj
 0003:00001340       _CID_IFXSphereGeneratorDecoder 10055340     Importing:IFXImportingGuids.obj
 0003:00001350       _CID_IFXShaderLitTextureDecoder 10055350     Importing:IFXImportingGuids.obj
 0003:00001360       _CID_IFXTextureDecoder     10055360     Importing:IFXImportingGuids.obj
 0003:00001370       _CID_IFXSubdivisionModifierDecoder 10055370     Importing:IFXImportingGuids.obj
 0003:00001380       _CID_IFXShadingModifierDecoder 10055380     Importing:IFXImportingGuids.obj
 0003:00001390       _CID_IFXExternalPluginDecoder 10055390     Importing:IFXImportingGuids.obj
 0003:000013a0       _CID_IFXDecoderChainX      100553a0     Importing:IFXImportingGuids.obj
 0003:000013b0       _CID_IFXViewDecoder        100553b0     Importing:IFXImportingGuids.obj
 0003:000013c0       _CID_IFXViewResourceDecoder 100553c0     Importing:IFXImportingGuids.obj
 0003:000013d0       _CID_IFXBlockReaderX       100553d0     Importing:IFXImportingGuids.obj
 0003:000013e0       _CID_IFXBTTHash            100553e0     Importing:IFXImportingGuids.obj
 0003:000013f0       _CID_IFXLoadManager        100553f0     Importing:IFXImportingGuids.obj
 0003:00001400       _CID_IFXStdioReadBuffer    10055400     Importing:IFXImportingGuids.obj
 0003:00001410       _CID_IFXStdioReadBufferX   10055410     Importing:IFXImportingGuids.obj
 0003:00001420       _CID_IFXInternetReadBuffer 10055420     Importing:IFXImportingGuids.obj
 0003:00001430       _CID_IFXInternetReadBufferX 10055430     Importing:IFXImportingGuids.obj
 0003:00001440       _CID_IFXPointSetDecoder    10055440     Importing:IFXImportingGuids.obj
 0003:00001450       _CID_IFXLineSetDecoder     10055450     Importing:IFXImportingGuids.obj
 0003:00001460       _CID_IFXBoneWeightsModifierDecoder 10055460     Importing:IFXImportingGuids.obj
 0003:00001470       _CID_IFXCLODModifierDecoder 10055470     Importing:IFXImportingGuids.obj
 0003:00001480       _CID_IFXDummyModifierDecoder 10055480     Importing:IFXImportingGuids.obj
 0003:000022c8       ?m_uArrayGrowthModifier@CIFXDecoderChainX@@0IB 100562c8     Importing:CIFXDecoderChainX.obj
 0003:00003068       ?ReadTaskID@CIFXLoadManager@@0IB 10057068     Importing:CIFXLoadManager.obj
 0003:0000306c       ?TransferTaskID@CIFXLoadManager@@0IB 1005706c     Importing:CIFXLoadManager.obj
 0003:00003070       ?NotificationTaskID@CIFXLoadManager@@0IB 10057070     Importing:CIFXLoadManager.obj
 0003:00003074       ?m_uMinDecoderPaletteSize@CIFXLoadManager@@0IB 10057074     Importing:CIFXLoadManager.obj
 0003:000035b0       ?m_uMaximumUpdatesPerCall@CIFXPointSetDecoder@@0IB 100575b0     Importing:CIFXPointSetDecoder.obj
 0003:00003978       ?m_uMaximumUpdatesPerCall@CIFXLineSetDecoder@@0IB 10057978     Importing:CIFXLineSetDecoder.obj
 0003:00003ddc       ?m_uMaximumUpdatesPerCall@CIFXAuthorCLODDecoder@@0IB 10057ddc     Importing:CIFXAuthorCLODDecoder_P.obj
 0003:00008b04       ___libm_float_zero         1005cb04     libmmt:libm_error.omu
 0003:00008b0c       ___libm_float_one          1005cb0c     libmmt:libm_error.omu
 0003:00008b14       ___libm_float_inf          1005cb14     libmmt:libm_error.omu
 0003:00008b1c       ___libm_float_huge         1005cb1c     libmmt:libm_error.omu
 0003:00008b24       ___libm_double_zero        1005cb24     libmmt:libm_error.omu
 0003:00008b34       ___libm_double_one         1005cb34     libmmt:libm_error.omu
 0003:00008b44       ___libm_double_inf         1005cb44     libmmt:libm_error.omu
 0003:00008b54       ___libm_double_huge        1005cb54     libmmt:libm_error.omu
 0003:00008b64       ___libm_ldouble_zero       1005cb64     libmmt:libm_error.omu
 0003:00008b74       ___libm_ldouble_neg_zero   1005cb74     libmmt:libm_error.omu
 0003:00008b84       ___libm_ldouble_one        1005cb84     libmmt:libm_error.omu
 0003:00008b94       ___libm_ldouble_neg_one    1005cb94     libmmt:libm_error.omu
 0003:00008ba4       ___libm_ldouble_inf        1005cba4     libmmt:libm_error.omu
 0003:00008bb4       ___libm_ldouble_neg_inf    1005cbb4     libmmt:libm_error.omu
 0003:00008bc4       ___libm_ldouble_huge       1005cbc4     libmmt:libm_error.omu
 0003:00008bd4       ___libm_ldouble_neg_huge   1005cbd4     libmmt:libm_error.omu
 0003:0000afe0       ??_7type_info@@6B@         1005efe0     LIBCMT:typinfo.obj
 0003:0000b054       ??_C@_0P@MIGLKIOC@CorExitProcess?$AA@ 1005f054     LIBCMT:crt0dat.obj
 0003:0000b064       ??_C@_0M@MBOPBNBK@mscoree?4dll?$AA@ 1005f064     LIBCMT:crt0dat.obj
 0003:0000b098       ??_C@_07PEJMOBNF@FlsFree?$AA@ 1005f098     LIBCMT:tidtable.obj
 0003:0000b0a0       ??_C@_0M@JCPCPOEF@FlsSetValue?$AA@ 1005f0a0     LIBCMT:tidtable.obj
 0003:0000b0ac       ??_C@_0M@GDNOONDI@FlsGetValue?$AA@ 1005f0ac     LIBCMT:tidtable.obj
 0003:0000b0b8       ??_C@_08KNHFBNJ@FlsAlloc?$AA@ 1005f0b8     LIBCMT:tidtable.obj
 0003:0000b0c4       ??_C@_0N@MDJJJHMB@kernel32?4dll?$AA@ 1005f0c4     LIBCMT:tidtable.obj
 0003:0000b114       ??_C@_0P@GGKDKEEG@runtime?5error?5?$AA@ 1005f114     LIBCMT:crt0msg.obj
 0003:0000b124       ??_C@_02PCIJFNDE@?$AN?6?$AA@ 1005f124     LIBCMT:crt0msg.obj
 0003:0000b128       ??_C@_0O@MJNIPGOH@TLOSS?5error?$AN?6?$AA@ 1005f128     LIBCMT:crt0msg.obj
 0003:0000b138       ??_C@_0N@BONNPDHF@SING?5error?$AN?6?$AA@ 1005f138     LIBCMT:crt0msg.obj
 0003:0000b148       ??_C@_0P@MBDAJNE@DOMAIN?5error?$AN?6?$AA@ 1005f148     LIBCMT:crt0msg.obj
 0003:0000b158       ??_C@_0KC@BDDGGBEJ@R6029?$AN?6?9?5This?5application?5cannot@ 1005f158     LIBCMT:crt0msg.obj
 0003:0000b1fc       ??_C@_0CF@KJDAIALP@R6028?$AN?6?9?5unable?5to?5initialize?5he@ 1005f1fc     LIBCMT:crt0msg.obj
 0003:0000b224       ??_C@_0DF@GAKBPDFP@R6027?$AN?6?9?5not?5enough?5space?5for?5lo@ 1005f224     LIBCMT:crt0msg.obj
 0003:0000b25c       ??_C@_0DF@IBLNNAIG@R6026?$AN?6?9?5not?5enough?5space?5for?5st@ 1005f25c     LIBCMT:crt0msg.obj
 0003:0000b294       ??_C@_0CG@IOHKGFNJ@R6025?$AN?6?9?5pure?5virtual?5function?5c@ 1005f294     LIBCMT:crt0msg.obj
 0003:0000b2bc       ??_C@_0DF@JIJJFJDC@R6024?$AN?6?9?5not?5enough?5space?5for?5_o@ 1005f2bc     LIBCMT:crt0msg.obj
 0003:0000b2f4       ??_C@_0CJ@EGEJHFME@R6019?$AN?6?9?5unable?5to?5open?5console?5@ 1005f2f4     LIBCMT:crt0msg.obj
 0003:0000b320       ??_C@_0CB@GNHNIELH@R6018?$AN?6?9?5unexpected?5heap?5error?$AN?6@ 1005f320     LIBCMT:crt0msg.obj
 0003:0000b344       ??_C@_0CN@FOLDKNG@R6017?$AN?6?9?5unexpected?5multithread?5@ 1005f344     LIBCMT:crt0msg.obj
 0003:0000b374       ??_C@_0CM@FAHFJNHO@R6016?$AN?6?9?5not?5enough?5space?5for?5th@ 1005f374     LIBCMT:crt0msg.obj
 0003:0000b3a0       ??_C@_0JG@LBKMGKLD@?$AN?6This?5application?5has?5requested@ 1005f3a0     LIBCMT:crt0msg.obj
 0003:0000b438       ??_C@_0CM@FLCNIPKK@R6009?$AN?6?9?5not?5enough?5space?5for?5en@ 1005f438     LIBCMT:crt0msg.obj
 0003:0000b464       ??_C@_0CK@KMMJOAPP@R6008?$AN?6?9?5not?5enough?5space?5for?5ar@ 1005f464     LIBCMT:crt0msg.obj
 0003:0000b490       ??_C@_0CF@HOHMHDEK@R6002?$AN?6?9?5floating?5point?5not?5load@ 1005f490     LIBCMT:crt0msg.obj
 0003:0000b4b8       ??_C@_0CF@GOGNBNAK@Microsoft?5Visual?5C?$CL?$CL?5Runtime?5Lib@ 1005f4b8     LIBCMT:crt0msg.obj
 0003:0000b4e0       ??_C@_02PHMGELLB@?6?6?$AA@ 1005f4e0     LIBCMT:crt0msg.obj
 0003:0000b4e4       ??_C@_0BK@OFGJDLJJ@Runtime?5Error?$CB?6?6Program?3?5?$AA@ 1005f4e4     LIBCMT:crt0msg.obj
 0003:0000b500       ??_C@_03KHICJKCI@?4?4?4?$AA@ 1005f500     LIBCMT:crt0msg.obj
 0003:0000b504       ??_C@_0BH@DNAGHKFM@?$DMprogram?5name?5unknown?$DO?$AA@ 1005f504     LIBCMT:crt0msg.obj
 0003:0000b520       __real@0000000000000000    1005f520     LIBCMT:cvt.obj
 0003:0000b528       ??_C@_05KLBDPFGC@e?$CL000?$AA@ 1005f528     LIBCMT:cvt.obj
 0003:0000b530       __real@3ff0000000000000    1005f530     LIBCMT:testfdiv.obj
 0003:0000b538       __real@4150017ec0000000    1005f538     LIBCMT:testfdiv.obj
 0003:0000b540       __real@4147ffff80000000    1005f540     LIBCMT:testfdiv.obj
 0003:0000b548       ??_C@_0BK@NHEOCAHP@IsProcessorFeaturePresent?$AA@ 1005f548     LIBCMT:testfdiv.obj
 0003:0000b564       ??_C@_08CPNIBGIE@KERNEL32?$AA@ 1005f564     LIBCMT:testfdiv.obj
 0003:0000b664       ??_C@_13NOLLCAOD@?$AA?$AA?$AA?$AA@ 1005f664     LIBCMT:w_map.obj
 0003:0000b800       ??_C@_07LCBHPJJN@LC_TIME?$AA@ 1005f800     LIBCMT:setlocal.obj
 0003:0000b808       ??_C@_0L@DLHIECNL@LC_NUMERIC?$AA@ 1005f808     LIBCMT:setlocal.obj
 0003:0000b814       ??_C@_0M@MIENIKLA@LC_MONETARY?$AA@ 1005f814     LIBCMT:setlocal.obj
 0003:0000b820       ??_C@_08EADHIDAD@LC_CTYPE?$AA@ 1005f820     LIBCMT:setlocal.obj
 0003:0000b82c       ??_C@_0L@KFJHEKIK@LC_COLLATE?$AA@ 1005f82c     LIBCMT:setlocal.obj
 0003:0000b838       ??_C@_06NEFDFEKB@LC_ALL?$AA@ 1005f838     LIBCMT:setlocal.obj
 0003:0000b840       ??_C@_03EGDHDPFD@_?4?0?$AA@ 1005f840     LIBCMT:setlocal.obj
 0003:0000b844       ??_C@_01LFCBOECM@?4?$AA@   1005f844     LIBCMT:setlocal.obj
 0003:0000b848       ??_C@_01IDAFKMJL@_?$AA@    1005f848     LIBCMT:setlocal.obj
 0003:0000b85c       ??_C@_01ICJEACDI@?$DL?$AA@ 1005f85c     LIBCMT:setlocal.obj
 0003:0000b860       ??_C@_01NEMOKFLO@?$DN?$AA@ 1005f860     LIBCMT:setlocal.obj
 0003:0000b862       ??_C@_00CNPNBAHC@?$AA@     1005f862     LIBCMT:setlocal.obj
 0003:0000b864       ??_C@_02BALPLPBG@?$DN?$DL?$AA@ 1005f864     LIBCMT:setlocal.obj
 0003:0000b878       ___newctype                1005f878     LIBCMT:ctype.obj
 0003:0000bb78       __wctype                   1005fb78     LIBCMT:ctype.obj
 0003:0000bdc4       ??_C@_0CG@PKBDLMEO@InitializeCriticalSectionAndSpin@ 1005fdc4     LIBCMT:initcrit.obj
 0003:0000bdfc       ??_C@_0BI@DFKBFLJE@GetProcessWindowStation?$AA@ 1005fdfc     LIBCMT:crtmbox.obj
 0003:0000be14       ??_C@_0BK@CIDNPOGP@GetUserObjectInformationA?$AA@ 1005fe14     LIBCMT:crtmbox.obj
 0003:0000be30       ??_C@_0BD@HHGDFDBJ@GetLastActivePopup?$AA@ 1005fe30     LIBCMT:crtmbox.obj
 0003:0000be44       ??_C@_0BA@HNOPNCHB@GetActiveWindow?$AA@ 1005fe44     LIBCMT:crtmbox.obj
 0003:0000be54       ??_C@_0M@CHKKJDAI@MessageBoxA?$AA@ 1005fe54     LIBCMT:crtmbox.obj
 0003:0000be60       ??_C@_0L@GMPLCCII@user32?4dll?$AA@ 1005fe60     LIBCMT:crtmbox.obj
 0003:0000bef0       ??_C@_08JCCMCCIL@HH?3mm?3ss?$AA@ 1005fef0     LIBCMT:strftime.obj
 0003:0000befc       ??_C@_0BE@CKGJFCPC@dddd?0?5MMMM?5dd?0?5yyyy?$AA@ 1005fefc     LIBCMT:strftime.obj
 0003:0000bf10       ??_C@_08BPBNCDIB@MM?1dd?1yy?$AA@ 1005ff10     LIBCMT:strftime.obj
 0003:0000bf1c       ??_C@_02CJNFDJBF@PM?$AA@   1005ff1c     LIBCMT:strftime.obj
 0003:0000bf20       ??_C@_02DEDBPAFC@AM?$AA@   1005ff20     LIBCMT:strftime.obj
 0003:0000bf24       ??_C@_08EDHMEBNP@December?$AA@ 1005ff24     LIBCMT:strftime.obj
 0003:0000bf30       ??_C@_08HCHEGEOA@November?$AA@ 1005ff30     LIBCMT:strftime.obj
 0003:0000bf3c       ??_C@_07JJNFCEND@October?$AA@ 1005ff3c     LIBCMT:strftime.obj
 0003:0000bf44       ??_C@_09BHHEALKD@September?$AA@ 1005ff44     LIBCMT:strftime.obj
 0003:0000bf50       ??_C@_06LBBHFDDG@August?$AA@ 1005ff50     LIBCMT:strftime.obj
 0003:0000bf58       ??_C@_04MIEPOIFP@July?$AA@ 1005ff58     LIBCMT:strftime.obj
 0003:0000bf60       ??_C@_04CNLMGBGM@June?$AA@ 1005ff60     LIBCMT:strftime.obj
 0003:0000bf68       ??_C@_05DMJDNLEJ@April?$AA@ 1005ff68     LIBCMT:strftime.obj
 0003:0000bf70       ??_C@_05HPCKOFNC@March?$AA@ 1005ff70     LIBCMT:strftime.obj
 0003:0000bf78       ??_C@_08GNJGEPFN@February?$AA@ 1005ff78     LIBCMT:strftime.obj
 0003:0000bf84       ??_C@_07CGJPFGJA@January?$AA@ 1005ff84     LIBCMT:strftime.obj
 0003:0000bf8c       ??_C@_03MKABNOCG@Dec?$AA@  1005ff8c     LIBCMT:strftime.obj
 0003:0000bf90       ??_C@_03JPJOFNIA@Nov?$AA@  1005ff90     LIBCMT:strftime.obj
 0003:0000bf94       ??_C@_03BMAOKBAD@Oct?$AA@  1005ff94     LIBCMT:strftime.obj
 0003:0000bf98       ??_C@_03GGCAPAJC@Sep?$AA@  1005ff98     LIBCMT:strftime.obj
 0003:0000bf9c       ??_C@_03IFJFEIGA@Aug?$AA@  1005ff9c     LIBCMT:strftime.obj
 0003:0000bfa0       ??_C@_03LBGABGKK@Jul?$AA@  1005ffa0     LIBCMT:strftime.obj
 0003:0000bfa4       ??_C@_03IDFGHECI@Jun?$AA@  1005ffa4     LIBCMT:strftime.obj
 0003:0000bfa8       ??_C@_03CNMDKL@May?$AA@    1005ffa8     LIBCMT:strftime.obj
 0003:0000bfac       ??_C@_03LEOLGMJP@Apr?$AA@  1005ffac     LIBCMT:strftime.obj
 0003:0000bfb0       ??_C@_03ODNJBKGA@Mar?$AA@  1005ffb0     LIBCMT:strftime.obj
 0003:0000bfb4       ??_C@_03HJBDCHOM@Feb?$AA@  1005ffb4     LIBCMT:strftime.obj
 0003:0000bfb8       ??_C@_03JIHJHPIE@Jan?$AA@  1005ffb8     LIBCMT:strftime.obj
 0003:0000bfbc       ??_C@_08INBOOONO@Saturday?$AA@ 1005ffbc     LIBCMT:strftime.obj
 0003:0000bfc8       ??_C@_06JECMNKMI@Friday?$AA@ 1005ffc8     LIBCMT:strftime.obj
 0003:0000bfd0       ??_C@_08HACCIKIA@Thursday?$AA@ 1005ffd0     LIBCMT:strftime.obj
 0003:0000bfdc       ??_C@_09DLIGFAKA@Wednesday?$AA@ 1005ffdc     LIBCMT:strftime.obj
 0003:0000bfe8       ??_C@_07BAAGCFCM@Tuesday?$AA@ 1005ffe8     LIBCMT:strftime.obj
 0003:0000bff0       ??_C@_06JLEDEDGH@Monday?$AA@ 1005fff0     LIBCMT:strftime.obj
 0003:0000bff8       ??_C@_06OOPIFAJ@Sunday?$AA@ 1005fff8     LIBCMT:strftime.obj
 0003:0000c000       ??_C@_03FEFJNEK@Sat?$AA@   10060000     LIBCMT:strftime.obj
 0003:0000c004       ??_C@_03IDIOELNC@Fri?$AA@  10060004     LIBCMT:strftime.obj
 0003:0000c008       ??_C@_03IOFIKPDN@Thu?$AA@  10060008     LIBCMT:strftime.obj
 0003:0000c00c       ??_C@_03MHOMLAJA@Wed?$AA@  1006000c     LIBCMT:strftime.obj
 0003:0000c010       ??_C@_03NAGEINEP@Tue?$AA@  10060010     LIBCMT:strftime.obj
 0003:0000c014       ??_C@_03PDAGKDH@Mon?$AA@   10060014     LIBCMT:strftime.obj
 0003:0000c018       ??_C@_03KOEHGMDN@Sun?$AA@  10060018     LIBCMT:strftime.obj
 0003:0000c020       ___rgLocInfo               10060020     LIBCMT:getqloc.obj
 0003:0000c4c4       ??_C@_08PKBIPKE@Paraguay?$AA@ 100604c4     LIBCMT:getqloc.obj
 0003:0000c4d0       ??_C@_07GHBIBIBP@Uruguay?$AA@ 100604d0     LIBCMT:getqloc.obj
 0003:0000c4d8       ??_C@_05HBNKAPDN@Chile?$AA@ 100604d8     LIBCMT:getqloc.obj
 0003:0000c4e0       ??_C@_07FEIFIPNF@Ecuador?$AA@ 100604e0     LIBCMT:getqloc.obj
 0003:0000c4e8       ??_C@_09PGNFPGME@Argentina?$AA@ 100604e8     LIBCMT:getqloc.obj
 0003:0000c4f4       ??_C@_04IALPBJF@Peru?$AA@  100604f4     LIBCMT:getqloc.obj
 0003:0000c4fc       ??_C@_08IJPLNLKH@Colombia?$AA@ 100604fc     LIBCMT:getqloc.obj
 0003:0000c508       ??_C@_09IDMFKCN@Venezuela?$AA@ 10060508     LIBCMT:getqloc.obj
 0003:0000c514       ??_C@_0BD@DNEJOGOK@Dominican?5Republic?$AA@ 10060514     LIBCMT:getqloc.obj
 0003:0000c528       ??_C@_0N@LPINDNDB@South?5Africa?$AA@ 10060528     LIBCMT:getqloc.obj
 0003:0000c538       ??_C@_06BLJPEOBG@Panama?$AA@ 10060538     LIBCMT:getqloc.obj
 0003:0000c540       ??_C@_0L@BOCNDGON@Luxembourg?$AA@ 10060540     LIBCMT:getqloc.obj
 0003:0000c54c       ??_C@_0L@CONEHKA@Costa?5Rica?$AA@ 1006054c     LIBCMT:getqloc.obj
 0003:0000c558       ??_C@_0M@KGBPELAM@Switzerland?$AA@ 10060558     LIBCMT:getqloc.obj
 0003:0000c564       ??_C@_09FJGLIMAG@Guatemala?$AA@ 10060564     LIBCMT:getqloc.obj
 0003:0000c570       ??_C@_06ECHIPDMK@Canada?$AA@ 10060570     LIBCMT:getqloc.obj
 0003:0000c578       ??_C@_0BG@CCEBNPGH@Spanish?5?9?5Modern?5Sort?$AA@ 10060578     LIBCMT:getqloc.obj
 0003:0000c590       ??_C@_09EFGJAPAD@Australia?$AA@ 10060590     LIBCMT:getqloc.obj
 0003:0000c59c       ??_C@_07NEKHPBCG@English?$AA@ 1006059c     LIBCMT:getqloc.obj
 0003:0000c5a4       ??_C@_07LKIIOGFH@Austria?$AA@ 100605a4     LIBCMT:getqloc.obj
 0003:0000c5ac       ??_C@_06EDDDIONA@German?$AA@ 100605ac     LIBCMT:getqloc.obj
 0003:0000c5b4       ??_C@_07LIIIOFOA@Belgium?$AA@ 100605b4     LIBCMT:getqloc.obj
 0003:0000c5bc       ??_C@_06DIAOLLEH@Mexico?$AA@ 100605bc     LIBCMT:getqloc.obj
 0003:0000c5c4       ??_C@_07PFALJOGE@Spanish?$AA@ 100605c4     LIBCMT:getqloc.obj
 0003:0000c5cc       ??_C@_06FFOOPAJB@Basque?$AA@ 100605cc     LIBCMT:getqloc.obj
 0003:0000c5d4       ??_C@_06DGHNDJFJ@Sweden?$AA@ 100605d4     LIBCMT:getqloc.obj
 0003:0000c5dc       ??_C@_07OBINPKFN@Swedish?$AA@ 100605dc     LIBCMT:getqloc.obj
 0003:0000c5e4       ??_C@_07NCOIHDGC@Iceland?$AA@ 100605e4     LIBCMT:getqloc.obj
 0003:0000c5ec       ??_C@_09JHBBDDIA@Icelandic?$AA@ 100605ec     LIBCMT:getqloc.obj
 0003:0000c5f8       ??_C@_06COBCPIFO@France?$AA@ 100605f8     LIBCMT:getqloc.obj
 0003:0000c600       ??_C@_06GODMCAND@French?$AA@ 10060600     LIBCMT:getqloc.obj
 0003:0000c608       ??_C@_07MFHPMOED@Finland?$AA@ 10060608     LIBCMT:getqloc.obj
 0003:0000c610       ??_C@_07MCEAMKOD@Finnish?$AA@ 10060610     LIBCMT:getqloc.obj
 0003:0000c618       ??_C@_05CBHOCCK@Spain?$AA@ 10060618     LIBCMT:getqloc.obj
 0003:0000c620       ??_C@_0BL@GIOEGDHB@Spanish?5?9?5Traditional?5Sort?$AA@ 10060620     LIBCMT:getqloc.obj
 0003:0000c63c       ___rglangidNotDefault      1006063c     LIBCMT:getqloc.obj
 0003:0000c650       ___rg_country              10060650     LIBCMT:getqloc.obj
 0003:0000c708       ??_C@_0O@FMJNFNKE@united?9states?$AA@ 10060708     LIBCMT:getqloc.obj
 0003:0000c718       ??_C@_0P@NDHFFKCA@united?9kingdom?$AA@ 10060718     LIBCMT:getqloc.obj
 0003:0000c728       ??_C@_0BC@HHDADLGF@trinidad?5?$CG?5tobago?$AA@ 10060728     LIBCMT:getqloc.obj
 0003:0000c73c       ??_C@_0M@IOAEBDAC@south?9korea?$AA@ 1006073c     LIBCMT:getqloc.obj
 0003:0000c748       ??_C@_0N@FIELFKIJ@south?9africa?$AA@ 10060748     LIBCMT:getqloc.obj
 0003:0000c758       ??_C@_0M@OPNDHCMC@south?5korea?$AA@ 10060758     LIBCMT:getqloc.obj
 0003:0000c764       ??_C@_0N@MDEOEPFI@south?5africa?$AA@ 10060764     LIBCMT:getqloc.obj
 0003:0000c774       ??_C@_06FKAPCJLB@slovak?$AA@ 10060774     LIBCMT:getqloc.obj
 0003:0000c77c       ??_C@_0M@EFJANOAL@puerto?9rico?$AA@ 1006077c     LIBCMT:getqloc.obj
 0003:0000c788       ??_C@_08PGOJKDAI@pr?9china?$AA@ 10060788     LIBCMT:getqloc.obj
 0003:0000c794       ??_C@_08JHDOMCMI@pr?5china?$AA@ 10060794     LIBCMT:getqloc.obj
 0003:0000c7a0       ??_C@_02JHCHFBLL@nz?$AA@   100607a0     LIBCMT:getqloc.obj
 0003:0000c7a4       ??_C@_0M@LINHDHKP@new?9zealand?$AA@ 100607a4     LIBCMT:getqloc.obj
 0003:0000c7b0       ??_C@_09IIIPPBDB@hong?9kong?$AA@ 100607b0     LIBCMT:getqloc.obj
 0003:0000c7bc       ??_C@_07HJLCKBG@holland?$AA@ 100607bc     LIBCMT:getqloc.obj
 0003:0000c7c4       ??_C@_0O@LEHGMHAG@great?5britain?$AA@ 100607c4     LIBCMT:getqloc.obj
 0003:0000c7d4       ??_C@_07FACOMELA@england?$AA@ 100607d4     LIBCMT:getqloc.obj
 0003:0000c7dc       ??_C@_05JIHCEICB@czech?$AA@ 100607dc     LIBCMT:getqloc.obj
 0003:0000c7e4       ??_C@_05BBJOBLGB@china?$AA@ 100607e4     LIBCMT:getqloc.obj
 0003:0000c7ec       ??_C@_07GPKPHICP@britain?$AA@ 100607ec     LIBCMT:getqloc.obj
 0003:0000c7f4       ??_C@_07MHIPBHMG@america?$AA@ 100607f4     LIBCMT:getqloc.obj
 0003:0000c800       ___rg_language             10060800     LIBCMT:getqloc.obj
 0003:0000ca08       ??_C@_03KIALPMKC@usa?$AA@  10060a08     LIBCMT:getqloc.obj
 0003:0000ca0c       ??_C@_02FGJGKGGD@us?$AA@   10060a0c     LIBCMT:getqloc.obj
 0003:0000ca10       ??_C@_02NEINDODK@uk?$AA@   10060a10     LIBCMT:getqloc.obj
 0003:0000ca14       ??_C@_05JMPCFJFJ@swiss?$AA@ 10060a14     LIBCMT:getqloc.obj
 0003:0000ca1c       ??_C@_0BA@HLOCPIOD@swedish?9finland?$AA@ 10060a1c     LIBCMT:getqloc.obj
 0003:0000ca2c       ??_C@_0BC@PKCNIABK@spanish?9venezuela?$AA@ 10060a2c     LIBCMT:getqloc.obj
 0003:0000ca40       ??_C@_0BA@GBHHMIJI@spanish?9uruguay?$AA@ 10060a40     LIBCMT:getqloc.obj
 0003:0000ca50       ??_C@_0BE@BHDOHPMC@spanish?9puerto?5rico?$AA@ 10060a50     LIBCMT:getqloc.obj
 0003:0000ca64       ??_C@_0N@KMOIDGGN@spanish?9peru?$AA@ 10060a64     LIBCMT:getqloc.obj
 0003:0000ca74       ??_C@_0BB@HMHLPGPH@spanish?9paraguay?$AA@ 10060a74     LIBCMT:getqloc.obj
 0003:0000ca88       ??_C@_0P@MCPKNGFD@spanish?9panama?$AA@ 10060a88     LIBCMT:getqloc.obj
 0003:0000ca98       ??_C@_0BC@IHOHGAIL@spanish?9nicaragua?$AA@ 10060a98     LIBCMT:getqloc.obj
 0003:0000caac       ??_C@_0P@KLMJDNFJ@spanish?9modern?$AA@ 10060aac     LIBCMT:getqloc.obj
 0003:0000cabc       ??_C@_0BA@BPAPGBCM@spanish?9mexican?$AA@ 10060abc     LIBCMT:getqloc.obj
 0003:0000cacc       ??_C@_0BB@PDECHHHE@spanish?9honduras?$AA@ 10060acc     LIBCMT:getqloc.obj
 0003:0000cae0       ??_C@_0BC@KLHKFGDB@spanish?9guatemala?$AA@ 10060ae0     LIBCMT:getqloc.obj
 0003:0000caf4       ??_C@_0BE@MFOOKJAI@spanish?9el?5salvador?$AA@ 10060af4     LIBCMT:getqloc.obj
 0003:0000cb08       ??_C@_0BA@FCOKFPFC@spanish?9ecuador?$AA@ 10060b08     LIBCMT:getqloc.obj
 0003:0000cb18       ??_C@_0BL@PLMGIMOO@spanish?9dominican?5republic?$AA@ 10060b18     LIBCMT:getqloc.obj
 0003:0000cb34       ??_C@_0BD@HLGDNMHB@spanish?9costa?5rica?$AA@ 10060b34     LIBCMT:getqloc.obj
 0003:0000cb48       ??_C@_0BB@PKCBKCPE@spanish?9colombia?$AA@ 10060b48     LIBCMT:getqloc.obj
 0003:0000cb5c       ??_C@_0O@MCBIJGNE@spanish?9chile?$AA@ 10060b5c     LIBCMT:getqloc.obj
 0003:0000cb6c       ??_C@_0BA@BEFEIGJJ@spanish?9bolivia?$AA@ 10060b6c     LIBCMT:getqloc.obj
 0003:0000cb7c       ??_C@_0BC@EMECMPD@spanish?9argentina?$AA@ 10060b7c     LIBCMT:getqloc.obj
 0003:0000cb90       ??_C@_0BF@EALFLENP@portuguese?9brazilian?$AA@ 10060b90     LIBCMT:getqloc.obj
 0003:0000cba8       ??_C@_0BC@HBLEBLNN@norwegian?9nynorsk?$AA@ 10060ba8     LIBCMT:getqloc.obj
 0003:0000cbbc       ??_C@_0BB@HMACDDCK@norwegian?9bokmal?$AA@ 10060bbc     LIBCMT:getqloc.obj
 0003:0000cbd0       ??_C@_09BAFFPPHE@norwegian?$AA@ 10060bd0     LIBCMT:getqloc.obj
 0003:0000cbdc       ??_C@_0O@EAJFJDFG@italian?9swiss?$AA@ 10060bdc     LIBCMT:getqloc.obj
 0003:0000cbec       ??_C@_0O@CNOMPGD@irish?9english?$AA@ 10060bec     LIBCMT:getqloc.obj
 0003:0000cbfc       ??_C@_0N@EDHBGCKG@german?9swiss?$AA@ 10060bfc     LIBCMT:getqloc.obj
 0003:0000cc0c       ??_C@_0BC@JACMHNBP@german?9luxembourg?$AA@ 10060c0c     LIBCMT:getqloc.obj
 0003:0000cc20       ??_C@_0BE@HBGMGFEG@german?9lichtenstein?$AA@ 10060c20     LIBCMT:getqloc.obj
 0003:0000cc34       ??_C@_0BA@HKKBIBKL@german?9austrian?$AA@ 10060c34     LIBCMT:getqloc.obj
 0003:0000cc44       ??_C@_0N@GCAEPEBK@french?9swiss?$AA@ 10060c44     LIBCMT:getqloc.obj
 0003:0000cc54       ??_C@_0BC@DJFJJCK@french?9luxembourg?$AA@ 10060c54     LIBCMT:getqloc.obj
 0003:0000cc68       ??_C@_0BA@NNCEDFIC@french?9canadian?$AA@ 10060c68     LIBCMT:getqloc.obj
 0003:0000cc78       ??_C@_0P@CMPOCLM@french?9belgian?$AA@ 10060c78     LIBCMT:getqloc.obj
 0003:0000cc88       ??_C@_0M@GHHDJOK@english?9usa?$AA@ 10060c88     LIBCMT:getqloc.obj
 0003:0000cc94       ??_C@_0L@PLDJKEIL@english?9us?$AA@ 10060c94     LIBCMT:getqloc.obj
 0003:0000cca0       ??_C@_0L@HJCCDMNC@english?9uk?$AA@ 10060ca0     LIBCMT:getqloc.obj
 0003:0000ccac       ??_C@_0BK@CKLIAGJB@english?9trinidad?5y?5tobago?$AA@ 10060cac     LIBCMT:getqloc.obj
 0003:0000ccc8       ??_C@_0BF@JMJMGNNF@english?9south?5africa?$AA@ 10060cc8     LIBCMT:getqloc.obj
 0003:0000cce0       ??_C@_0L@DKIIFDFD@english?9nz?$AA@ 10060ce0     LIBCMT:getqloc.obj
 0003:0000ccec       ??_C@_0BA@ONHGJCLH@english?9jamaica?$AA@ 10060cec     LIBCMT:getqloc.obj
 0003:0000ccfc       ??_C@_0M@HJBGHOPO@english?9ire?$AA@ 10060cfc     LIBCMT:getqloc.obj
 0003:0000cd08       ??_C@_0BC@LFEKMIFB@english?9caribbean?$AA@ 10060d08     LIBCMT:getqloc.obj
 0003:0000cd1c       ??_C@_0M@OLDPFKHI@english?9can?$AA@ 10060d1c     LIBCMT:getqloc.obj
 0003:0000cd28       ??_C@_0P@OMDEHBMP@english?9belize?$AA@ 10060d28     LIBCMT:getqloc.obj
 0003:0000cd38       ??_C@_0M@KFHFPFED@english?9aus?$AA@ 10060d38     LIBCMT:getqloc.obj
 0003:0000cd44       ??_C@_0BB@MNMBKDFE@english?9american?$AA@ 10060d44     LIBCMT:getqloc.obj
 0003:0000cd58       ??_C@_0O@KIDLNNBA@dutch?9belgian?$AA@ 10060d58     LIBCMT:getqloc.obj
 0003:0000cd68       ??_C@_0BE@JBKABBMH@chinese?9traditional?$AA@ 10060d68     LIBCMT:getqloc.obj
 0003:0000cd7c       ??_C@_0BC@MJJMPKCG@chinese?9singapore?$AA@ 10060d7c     LIBCMT:getqloc.obj
 0003:0000cd90       ??_C@_0BD@FDKADDCP@chinese?9simplified?$AA@ 10060d90     LIBCMT:getqloc.obj
 0003:0000cda4       ??_C@_0BB@DBEFDDME@chinese?9hongkong?$AA@ 10060da4     LIBCMT:getqloc.obj
 0003:0000cdb8       ??_C@_07DHNMFMCI@chinese?$AA@ 10060db8     LIBCMT:getqloc.obj
 0003:0000cdc0       ??_C@_03FNDDCHI@chi?$AA@   10060dc0     LIBCMT:getqloc.obj
 0003:0000cdc4       ??_C@_03BMMIADDJ@chh?$AA@  10060dc4     LIBCMT:getqloc.obj
 0003:0000cdc8       ??_C@_08OAIPJDGI@canadian?$AA@ 10060dc8     LIBCMT:getqloc.obj
 0003:0000cdd4       ??_C@_07HBPMNPNJ@belgian?$AA@ 10060dd4     LIBCMT:getqloc.obj
 0003:0000cddc       ??_C@_0L@OEKOPBEL@australian?$AA@ 10060ddc     LIBCMT:getqloc.obj
 0003:0000cde8       ??_C@_0BB@MEIMBEDG@american?9english?$AA@ 10060de8     LIBCMT:getqloc.obj
 0003:0000cdfc       ??_C@_0BB@DFMDPDGB@american?5english?$AA@ 10060dfc     LIBCMT:getqloc.obj
 0003:0000ce10       ??_C@_08IJLOKOLL@american?$AA@ 10060e10     LIBCMT:getqloc.obj
 0003:0000ce1c       ??_C@_03NFKLAGEF@OCP?$AA@  10060e1c     LIBCMT:getqloc.obj
 0003:0000ce20       ??_C@_03DFHEHBHG@ACP?$AA@  10060e20     LIBCMT:getqloc.obj
 0003:0000ce24       ??_C@_0BC@NFIEMBLL@Norwegian?9Nynorsk?$AA@ 10060e24     LIBCMT:getqloc.obj
 0003:0000ce48       ___lookuptable             10060e48     LIBCMT:output.obj
 0003:0000cea4       ??_C@_1O@CEDCILHN@?$AA?$CI?$AAn?$AAu?$AAl?$AAl?$AA?$CJ?$AA?$AA@ 10060ea4     LIBCMT:output.obj
 0003:0000ceb4       ??_C@_06OJHGLDPL@?$CInull?$CJ?$AA@ 10060eb4     LIBCMT:output.obj
 0003:0000cebc       ??_C@_09KLGCKDOD@Program?3?5?$AA@ 10060ebc     LIBCMT:secfail.obj
 0003:0000cec8       ??_C@_0KA@JEHFIFGP@A?5buffer?5overrun?5has?5been?5detect@ 10060ec8     LIBCMT:secfail.obj
 0003:0000cf68       ??_C@_0BJ@MDEKIEOJ@Buffer?5overrun?5detected?$CB?$AA@ 10060f68     LIBCMT:secfail.obj
 0003:0000cf88       ??_C@_0LB@BPLHHLFD@A?5security?5error?5of?5unknown?5caus@ 10060f88     LIBCMT:secfail.obj
 0003:0000d03c       ??_C@_0CD@GMKACBEK@Unknown?5security?5failure?5detecte@ 1006103c     LIBCMT:secfail.obj
 0003:0000d06c       ??_C@_06IMKFLFPG@1?$CDQNAN?$AA@ 1006106c     LIBCMT:x10fout.obj
 0003:0000d074       ??_C@_05DNEBIAHO@1?$CDINF?$AA@ 10061074     LIBCMT:x10fout.obj
 0003:0000d07c       ??_C@_05PHHOCPM@1?$CDIND?$AA@ 1006107c     LIBCMT:x10fout.obj
 0003:0000d084       ??_C@_06PGGFOGJG@1?$CDSNAN?$AA@ 10061084     LIBCMT:x10fout.obj
 0003:0000d09c       ___dnames                  1006109c     LIBCMT:timeset.obj
 0003:0000d0b4       ___mnames                  100610b4     LIBCMT:timeset.obj
 0003:0000d16c       ??_R1A@?0A@A@type_info@@8  1006116c     LIBCMT:typinfo.obj
 0003:0000d184       ??_R2type_info@@8          10061184     LIBCMT:typinfo.obj
 0003:0000d18c       ??_R3type_info@@8          1006118c     LIBCMT:typinfo.obj
 0003:0000d19c       ??_R4type_info@@6B@        1006119c     LIBCMT:typinfo.obj
 0003:0000d1b0       ___rtc_iaa                 100611b0     LIBCMT:initsect.obj
 0003:0000d1b4       ___rtc_izz                 100611b4     LIBCMT:initsect.obj
 0003:0000d1b8       ___rtc_taa                 100611b8     LIBCMT:initsect.obj
 0003:0000d1bc       ___rtc_tzz                 100611bc     LIBCMT:initsect.obj
 0003:0000d1c0       __IMPORT_DESCRIPTOR_KERNEL32 100611c0     kernel32:KERNEL32.dll
 0003:0000d1d4       __IMPORT_DESCRIPTOR_IFXCore 100611d4     IFXCore:IFXCore.dll
 0003:0000d1e8       __IMPORT_DESCRIPTOR_USER32 100611e8     user32:USER32.dll
 0003:0000d1fc       __IMPORT_DESCRIPTOR_WINMM  100611fc     winmm:WINMM.dll
 0003:0000d210       __IMPORT_DESCRIPTOR_WS2_32 10061210     ws2_32:WS2_32.dll
 0003:0000d224       __NULL_IMPORT_DESCRIPTOR   10061224     kernel32:KERNEL32.dll
 0004:00000000       ___xc_a                    10062000     LIBCMT:crt0init.obj
 0004:00000010       ___xc_z                    10062010     LIBCMT:crt0init.obj
 0004:00000014       ___xi_a                    10062014     LIBCMT:crt0init.obj
 0004:00000028       ___xi_z                    10062028     LIBCMT:crt0init.obj
 0004:0000002c       ___xp_a                    1006202c     LIBCMT:crt0init.obj
 0004:00000034       ___xp_z                    10062034     LIBCMT:crt0init.obj
 0004:00000038       ___xt_a                    10062038     LIBCMT:crt0init.obj
 0004:00000040       ___xt_z                    10062040     LIBCMT:crt0init.obj
 0004:000001c0       ??_R4IFXUnknown@@6B@       100621c0     Importing:CIFXAuthorCLODDecoder.obj
 0004:000001d8       ??_R0?AVIFXUnknown@@@8     100621d8     Importing:CIFXAuthorCLODDecoder.obj
 0004:000001f8       ??_R3IFXUnknown@@8         100621f8     Importing:CIFXAuthorCLODDecoder.obj
 0004:00000208       ??_R2IFXUnknown@@8         10062208     Importing:CIFXAuthorCLODDecoder.obj
 0004:00000210       ??_R1A@?0A@A@IFXUnknown@@8 10062210     Importing:CIFXAuthorCLODDecoder.obj
 0004:00000228       ??_R4IFXException@@6B@     10062228     Importing:CIFXAuthorCLODDecoder.obj
 0004:00000240       ??_R0?AVIFXException@@@8   10062240     Importing:CIFXAuthorCLODDecoder.obj
 0004:00000260       ??_R3IFXException@@8       10062260     Importing:CIFXAuthorCLODDecoder.obj
 0004:00000270       ??_R2IFXException@@8       10062270     Importing:CIFXAuthorCLODDecoder.obj
 0004:00000278       ??_R1A@?0A@A@IFXException@@8 10062278     Importing:CIFXAuthorCLODDecoder.obj
 0004:00000290       ??_R4IFXDecoderX@@6B0@@    10062290     Importing:CIFXAuthorCLODDecoder.obj
 0004:000002a8       ??_R0?AVIFXDecoderX@@@8    100622a8     Importing:CIFXAuthorCLODDecoder.obj
 0004:000002c8       ??_R3IFXDecoderX@@8        100622c8     Importing:CIFXAuthorCLODDecoder.obj
 0004:000002d8       ??_R2IFXDecoderX@@8        100622d8     Importing:CIFXAuthorCLODDecoder.obj
 0004:000002e0       ??_R1A@?0A@A@IFXDecoderX@@8 100622e0     Importing:CIFXAuthorCLODDecoder.obj
 0004:000002f8       ??_R1A@33BA@IFXUnknown@@8  100622f8     Importing:CIFXAuthorCLODDecoder.obj
 0004:00000310       ??_R4IFXDecoderX@@6BIFXUnknown@@@ 10062310     Importing:CIFXAuthorCLODDecoder.obj
 0004:00000328       ??_R4CIFXAuthorCLODDecoder@@6BIFXUnknown@@@ 10062328     Importing:CIFXAuthorCLODDecoder.obj
 0004:00000340       ??_R0?AVCIFXAuthorCLODDecoder@@@8 10062340     Importing:CIFXAuthorCLODDecoder.obj
 0004:00000368       ??_R3CIFXAuthorCLODDecoder@@8 10062368     Importing:CIFXAuthorCLODDecoder.obj
 0004:00000378       ??_R2CIFXAuthorCLODDecoder@@8 10062378     Importing:CIFXAuthorCLODDecoder.obj
 0004:00000388       ??_R1A@?0A@A@CIFXAuthorCLODDecoder@@8 10062388     Importing:CIFXAuthorCLODDecoder.obj
 0004:000003a0       ??_R1A@DM@7BA@IFXDecoderX@@8 100623a0     Importing:CIFXAuthorCLODDecoder.obj
 0004:000003b8       ??_R1A@DM@3BA@IFXUnknown@@8 100623b8     Importing:CIFXAuthorCLODDecoder.obj
 0004:000003d0       ??_R1A@?0A@A@IFXModifierBaseDecoder@@8 100623d0     Importing:CIFXAuthorCLODDecoder.obj
 0004:000003e8       ??_R0?AVIFXModifierBaseDecoder@@@8 100623e8     Importing:CIFXAuthorCLODDecoder.obj
 0004:00000410       ??_R4CIFXAuthorCLODDecoder@@6BIFXDecoderX@@@ 10062410     Importing:CIFXAuthorCLODDecoder.obj
 0004:00000428       ??_R4CIFXAuthorCLODDecoder@@6BIFXModifierBaseDecoder@@@ 10062428     Importing:CIFXAuthorCLODDecoder.obj
 0004:00000440       ??_8CIFXAuthorCLODDecoder@@7B0@@ 10062440     Importing:CIFXAuthorCLODDecoder.obj
 0004:0000044c       ??_8CIFXAuthorCLODDecoder@@7BIFXDecoderX@@@ 1006244c     Importing:CIFXAuthorCLODDecoder.obj
 0004:00000458       __CTA1?AVIFXException@@    10062458     Importing:CIFXAuthorCLODDecoder.obj
 0004:00000460       __CT??_R0?AVIFXException@@@8IFXException@20 10062460     Importing:CIFXAuthorCLODDecoder.obj
 0004:00000480       __TI1?AVIFXException@@     10062480     Importing:CIFXAuthorCLODDecoder.obj
 0004:00000490       ??_R4CIFXGroupDecoder@@6BIFXUnknown@@@ 10062490     Importing:CIFXGroupDecoder.obj
 0004:000004a8       ??_R0?AVCIFXGroupDecoder@@@8 100624a8     Importing:CIFXGroupDecoder.obj
 0004:000004c8       ??_R3CIFXGroupDecoder@@8   100624c8     Importing:CIFXGroupDecoder.obj
 0004:000004d8       ??_R2CIFXGroupDecoder@@8   100624d8     Importing:CIFXGroupDecoder.obj
 0004:000004e8       ??_R1A@?0A@A@CIFXGroupDecoder@@8 100624e8     Importing:CIFXGroupDecoder.obj
 0004:00000500       ??_R1A@EI@7BA@IFXDecoderX@@8 10062500     Importing:CIFXGroupDecoder.obj
 0004:00000518       ??_R1A@EI@3BA@IFXUnknown@@8 10062518     Importing:CIFXGroupDecoder.obj
 0004:00000530       ??_R1A@?0A@A@CIFXNodeBaseDecoder@@8 10062530     Importing:CIFXGroupDecoder.obj
 0004:00000548       ??_R0?AVCIFXNodeBaseDecoder@@@8 10062548     Importing:CIFXGroupDecoder.obj
 0004:00000570       ??_R4CIFXGroupDecoder@@6BIFXDecoderX@@@ 10062570     Importing:CIFXGroupDecoder.obj
 0004:00000588       ??_R4CIFXGroupDecoder@@6BCIFXNodeBaseDecoder@@@ 10062588     Importing:CIFXGroupDecoder.obj
 0004:000005a0       ??_8CIFXGroupDecoder@@7B0@@ 100625a0     Importing:CIFXGroupDecoder.obj
 0004:000005ac       ??_8CIFXGroupDecoder@@7BIFXDecoderX@@@ 100625ac     Importing:CIFXGroupDecoder.obj
 0004:000005b8       ??_R4CIFXLightDecoder@@6BIFXUnknown@@@ 100625b8     Importing:CIFXLightDecoder.obj
 0004:000005d0       ??_R0?AVCIFXLightDecoder@@@8 100625d0     Importing:CIFXLightDecoder.obj
 0004:000005f0       ??_R3CIFXLightDecoder@@8   100625f0     Importing:CIFXLightDecoder.obj
 0004:00000600       ??_R2CIFXLightDecoder@@8   10062600     Importing:CIFXLightDecoder.obj
 0004:00000610       ??_R1A@?0A@A@CIFXLightDecoder@@8 10062610     Importing:CIFXLightDecoder.obj
 0004:00000628       ??_R4CIFXLightDecoder@@6BIFXDecoderX@@@ 10062628     Importing:CIFXLightDecoder.obj
 0004:00000640       ??_R4CIFXLightDecoder@@6BCIFXNodeBaseDecoder@@@ 10062640     Importing:CIFXLightDecoder.obj
 0004:00000658       ??_8CIFXLightDecoder@@7B0@@ 10062658     Importing:CIFXLightDecoder.obj
 0004:00000664       ??_8CIFXLightDecoder@@7BIFXDecoderX@@@ 10062664     Importing:CIFXLightDecoder.obj
 0004:00000670       ??_R4CIFXLightResourceDecoder@@6BIFXUnknown@@@ 10062670     Importing:CIFXLightResourceDecoder.obj
 0004:00000688       ??_R0?AVCIFXLightResourceDecoder@@@8 10062688     Importing:CIFXLightResourceDecoder.obj
 0004:000006b0       ??_R3CIFXLightResourceDecoder@@8 100626b0     Importing:CIFXLightResourceDecoder.obj
 0004:000006c0       ??_R2CIFXLightResourceDecoder@@8 100626c0     Importing:CIFXLightResourceDecoder.obj
 0004:000006d0       ??_R1A@?0A@A@CIFXLightResourceDecoder@@8 100626d0     Importing:CIFXLightResourceDecoder.obj
 0004:000006e8       ??_R4CIFXLightResourceDecoder@@6BIFXDecoderX@@@ 100626e8     Importing:CIFXLightResourceDecoder.obj
 0004:00000700       ??_R4CIFXLightResourceDecoder@@6BCIFXNodeBaseDecoder@@@ 10062700     Importing:CIFXLightResourceDecoder.obj
 0004:00000718       ??_8CIFXLightResourceDecoder@@7B0@@ 10062718     Importing:CIFXLightResourceDecoder.obj
 0004:00000724       ??_8CIFXLightResourceDecoder@@7BIFXDecoderX@@@ 10062724     Importing:CIFXLightResourceDecoder.obj
 0004:00000730       ??_R4CIFXViewResourceDecoder@@6BIFXUnknown@@@ 10062730     Importing:CIFXViewResourceDecoder.obj
 0004:00000748       ??_R0?AVCIFXViewResourceDecoder@@@8 10062748     Importing:CIFXViewResourceDecoder.obj
 0004:00000770       ??_R3CIFXViewResourceDecoder@@8 10062770     Importing:CIFXViewResourceDecoder.obj
 0004:00000780       ??_R2CIFXViewResourceDecoder@@8 10062780     Importing:CIFXViewResourceDecoder.obj
 0004:00000790       ??_R1A@?0A@A@CIFXViewResourceDecoder@@8 10062790     Importing:CIFXViewResourceDecoder.obj
 0004:000007a8       ??_R4CIFXViewResourceDecoder@@6BIFXDecoderX@@@ 100627a8     Importing:CIFXViewResourceDecoder.obj
 0004:000007c0       ??_R4CIFXViewResourceDecoder@@6BCIFXNodeBaseDecoder@@@ 100627c0     Importing:CIFXViewResourceDecoder.obj
 0004:000007d8       ??_8CIFXViewResourceDecoder@@7B0@@ 100627d8     Importing:CIFXViewResourceDecoder.obj
 0004:000007e4       ??_8CIFXViewResourceDecoder@@7BIFXDecoderX@@@ 100627e4     Importing:CIFXViewResourceDecoder.obj
 0004:000007f0       ??_R4CIFXMaterialDecoder@@6B0@@ 100627f0     Importing:CIFXMaterialDecoder.obj
 0004:00000808       ??_R0?AVCIFXMaterialDecoder@@@8 10062808     Importing:CIFXMaterialDecoder.obj
 0004:00000830       ??_R3CIFXMaterialDecoder@@8 10062830     Importing:CIFXMaterialDecoder.obj
 0004:00000840       ??_R2CIFXMaterialDecoder@@8 10062840     Importing:CIFXMaterialDecoder.obj
 0004:00000850       ??_R1A@?0A@A@CIFXMaterialDecoder@@8 10062850     Importing:CIFXMaterialDecoder.obj
 0004:00000868       ??_R1A@37BA@IFXDecoderX@@8 10062868     Importing:CIFXMaterialDecoder.obj
 0004:00000880       ??_R4CIFXMaterialDecoder@@6BIFXUnknown@@@ 10062880     Importing:CIFXMaterialDecoder.obj
 0004:00000898       ??_R4CIFXMaterialDecoder@@6BIFXDecoderX@@@ 10062898     Importing:CIFXMaterialDecoder.obj
 0004:000008b0       ??_8CIFXMaterialDecoder@@7B0@@ 100628b0     Importing:CIFXMaterialDecoder.obj
 0004:000008bc       ??_8CIFXMaterialDecoder@@7BIFXDecoderX@@@ 100628bc     Importing:CIFXMaterialDecoder.obj
 0004:000008c8       ??_R4CIFXModelDecoder@@6BIFXUnknown@@@ 100628c8     Importing:CIFXModelDecoder.obj
 0004:000008e0       ??_R0?AVCIFXModelDecoder@@@8 100628e0     Importing:CIFXModelDecoder.obj
 0004:00000900       ??_R3CIFXModelDecoder@@8   10062900     Importing:CIFXModelDecoder.obj
 0004:00000910       ??_R2CIFXModelDecoder@@8   10062910     Importing:CIFXModelDecoder.obj
 0004:00000920       ??_R1A@?0A@A@CIFXModelDecoder@@8 10062920     Importing:CIFXModelDecoder.obj
 0004:00000938       ??_R4CIFXModelDecoder@@6BIFXDecoderX@@@ 10062938     Importing:CIFXModelDecoder.obj
 0004:00000950       ??_R4CIFXModelDecoder@@6BCIFXNodeBaseDecoder@@@ 10062950     Importing:CIFXModelDecoder.obj
 0004:00000968       ??_8CIFXModelDecoder@@7B0@@ 10062968     Importing:CIFXModelDecoder.obj
 0004:00000974       ??_8CIFXModelDecoder@@7BIFXDecoderX@@@ 10062974     Importing:CIFXModelDecoder.obj
 0004:00000980       ??_R4CIFXAnimationModifierDecoder@@6BIFXUnknown@@@ 10062980     Importing:CIFXAnimationModifierDecoder.obj
 0004:00000998       ??_R0?AVCIFXAnimationModifierDecoder@@@8 10062998     Importing:CIFXAnimationModifierDecoder.obj
 0004:000009c8       ??_R3CIFXAnimationModifierDecoder@@8 100629c8     Importing:CIFXAnimationModifierDecoder.obj
 0004:000009d8       ??_R2CIFXAnimationModifierDecoder@@8 100629d8     Importing:CIFXAnimationModifierDecoder.obj
 0004:000009e8       ??_R1A@?0A@A@CIFXAnimationModifierDecoder@@8 100629e8     Importing:CIFXAnimationModifierDecoder.obj
 0004:00000a00       ??_R4CIFXAnimationModifierDecoder@@6BIFXDecoderX@@@ 10062a00     Importing:CIFXAnimationModifierDecoder.obj
 0004:00000a18       ??_R4CIFXAnimationModifierDecoder@@6BIFXModifierBaseDecoder@@@ 10062a18     Importing:CIFXAnimationModifierDecoder.obj
 0004:00000a30       ??_8CIFXAnimationModifierDecoder@@7B0@@ 10062a30     Importing:CIFXAnimationModifierDecoder.obj
 0004:00000a3c       ??_8CIFXAnimationModifierDecoder@@7BIFXDecoderX@@@ 10062a3c     Importing:CIFXAnimationModifierDecoder.obj
 0004:00000a48       ??_R4CIFXMotionDecoder@@6B0@@ 10062a48     Importing:CIFXMotionDecoder.obj
 0004:00000a60       ??_R0?AVCIFXMotionDecoder@@@8 10062a60     Importing:CIFXMotionDecoder.obj
 0004:00000a80       ??_R3CIFXMotionDecoder@@8  10062a80     Importing:CIFXMotionDecoder.obj
 0004:00000a90       ??_R2CIFXMotionDecoder@@8  10062a90     Importing:CIFXMotionDecoder.obj
 0004:00000aa0       ??_R1A@?0A@A@CIFXMotionDecoder@@8 10062aa0     Importing:CIFXMotionDecoder.obj
 0004:00000ab8       ??_R4CIFXMotionDecoder@@6BIFXUnknown@@@ 10062ab8     Importing:CIFXMotionDecoder.obj
 0004:00000ad0       ??_R4CIFXMotionDecoder@@6BIFXDecoderX@@@ 10062ad0     Importing:CIFXMotionDecoder.obj
 0004:00000ae8       ??_8CIFXMotionDecoder@@7B0@@ 10062ae8     Importing:CIFXMotionDecoder.obj
 0004:00000af4       ??_8CIFXMotionDecoder@@7BIFXDecoderX@@@ 10062af4     Importing:CIFXMotionDecoder.obj
 0004:00000b00       ??_R4CIFXGlyphGeneratorDecoder@@6BIFXUnknown@@@ 10062b00     Importing:CIFXGlyphModifierDecoder.obj
 0004:00000b18       ??_R0?AVCIFXGlyphGeneratorDecoder@@@8 10062b18     Importing:CIFXGlyphModifierDecoder.obj
 0004:00000b40       ??_R3CIFXGlyphGeneratorDecoder@@8 10062b40     Importing:CIFXGlyphModifierDecoder.obj
 0004:00000b50       ??_R2CIFXGlyphGeneratorDecoder@@8 10062b50     Importing:CIFXGlyphModifierDecoder.obj
 0004:00000b60       ??_R1A@?0A@A@CIFXGlyphGeneratorDecoder@@8 10062b60     Importing:CIFXGlyphModifierDecoder.obj
 0004:00000b78       ??_R4CIFXGlyphGeneratorDecoder@@6BIFXDecoderX@@@ 10062b78     Importing:CIFXGlyphModifierDecoder.obj
 0004:00000b90       ??_R4CIFXGlyphGeneratorDecoder@@6BIFXModifierBaseDecoder@@@ 10062b90     Importing:CIFXGlyphModifierDecoder.obj
 0004:00000ba8       ??_8CIFXGlyphGeneratorDecoder@@7B0@@ 10062ba8     Importing:CIFXGlyphModifierDecoder.obj
 0004:00000bb4       ??_8CIFXGlyphGeneratorDecoder@@7BIFXDecoderX@@@ 10062bb4     Importing:CIFXGlyphModifierDecoder.obj
 0004:00000bc0       ??_R4CIFXShaderLitTextureDecoder@@6B0@@ 10062bc0     Importing:CIFXShaderLitTextureDecoder.obj
 0004:00000bd8       ??_R0?AVCIFXShaderLitTextureDecoder@@@8 10062bd8     Importing:CIFXShaderLitTextureDecoder.obj
 0004:00000c08       ??_R3CIFXShaderLitTextureDecoder@@8 10062c08     Importing:CIFXShaderLitTextureDecoder.obj
 0004:00000c18       ??_R2CIFXShaderLitTextureDecoder@@8 10062c18     Importing:CIFXShaderLitTextureDecoder.obj
 0004:00000c28       ??_R1A@?0A@A@CIFXShaderLitTextureDecoder@@8 10062c28     Importing:CIFXShaderLitTextureDecoder.obj
 0004:00000c40       ??_R4CIFXShaderLitTextureDecoder@@6BIFXUnknown@@@ 10062c40     Importing:CIFXShaderLitTextureDecoder.obj
 0004:00000c58       ??_R4CIFXShaderLitTextureDecoder@@6BIFXDecoderX@@@ 10062c58     Importing:CIFXShaderLitTextureDecoder.obj
 0004:00000c70       ??_8CIFXShaderLitTextureDecoder@@7B0@@ 10062c70     Importing:CIFXShaderLitTextureDecoder.obj
 0004:00000c7c       ??_8CIFXShaderLitTextureDecoder@@7BIFXDecoderX@@@ 10062c7c     Importing:CIFXShaderLitTextureDecoder.obj
 0004:00000c88       ??_R4CIFXTextureDecoder@@6B0@@ 10062c88     Importing:CIFXTextureDecoder.obj
 0004:00000ca0       ??_R0?AVCIFXTextureDecoder@@@8 10062ca0     Importing:CIFXTextureDecoder.obj
 0004:00000cc8       ??_R3CIFXTextureDecoder@@8 10062cc8     Importing:CIFXTextureDecoder.obj
 0004:00000cd8       ??_R2CIFXTextureDecoder@@8 10062cd8     Importing:CIFXTextureDecoder.obj
 0004:00000ce8       ??_R1A@?0A@A@CIFXTextureDecoder@@8 10062ce8     Importing:CIFXTextureDecoder.obj
 0004:00000d00       ??_R4CIFXTextureDecoder@@6BIFXUnknown@@@ 10062d00     Importing:CIFXTextureDecoder.obj
 0004:00000d18       ??_R4CIFXTextureDecoder@@6BIFXDecoderX@@@ 10062d18     Importing:CIFXTextureDecoder.obj
 0004:00000d30       ??_8CIFXTextureDecoder@@7B0@@ 10062d30     Importing:CIFXTextureDecoder.obj
 0004:00000d3c       ??_8CIFXTextureDecoder@@7BIFXDecoderX@@@ 10062d3c     Importing:CIFXTextureDecoder.obj
 0004:00000d48       ??_R4CIFXSubdivisionModifierDecoder@@6BIFXUnknown@@@ 10062d48     Importing:CIFXSubdivisionModifierDecoder.obj
 0004:00000d60       ??_R0?AVCIFXSubdivisionModifierDecoder@@@8 10062d60     Importing:CIFXSubdivisionModifierDecoder.obj
 0004:00000d90       ??_R3CIFXSubdivisionModifierDecoder@@8 10062d90     Importing:CIFXSubdivisionModifierDecoder.obj
 0004:00000da0       ??_R2CIFXSubdivisionModifierDecoder@@8 10062da0     Importing:CIFXSubdivisionModifierDecoder.obj
 0004:00000db0       ??_R1A@?0A@A@CIFXSubdivisionModifierDecoder@@8 10062db0     Importing:CIFXSubdivisionModifierDecoder.obj
 0004:00000dc8       ??_R4CIFXSubdivisionModifierDecoder@@6BIFXDecoderX@@@ 10062dc8     Importing:CIFXSubdivisionModifierDecoder.obj
 0004:00000de0       ??_R4CIFXSubdivisionModifierDecoder@@6BIFXModifierBaseDecoder@@@ 10062de0     Importing:CIFXSubdivisionModifierDecoder.obj
 0004:00000df8       ??_8CIFXSubdivisionModifierDecoder@@7B0@@ 10062df8     Importing:CIFXSubdivisionModifierDecoder.obj
 0004:00000e04       ??_8CIFXSubdivisionModifierDecoder@@7BIFXDecoderX@@@ 10062e04     Importing:CIFXSubdivisionModifierDecoder.obj
 0004:00000e10       ??_R4CIFXShadingModifierDecoder@@6BIFXUnknown@@@ 10062e10     Importing:CIFXShadingModifierDecoder.obj
 0004:00000e28       ??_R0?AVCIFXShadingModifierDecoder@@@8 10062e28     Importing:CIFXShadingModifierDecoder.obj
 0004:00000e58       ??_R3CIFXShadingModifierDecoder@@8 10062e58     Importing:CIFXShadingModifierDecoder.obj
 0004:00000e68       ??_R2CIFXShadingModifierDecoder@@8 10062e68     Importing:CIFXShadingModifierDecoder.obj
 0004:00000e78       ??_R1A@?0A@A@CIFXShadingModifierDecoder@@8 10062e78     Importing:CIFXShadingModifierDecoder.obj
 0004:00000e90       ??_R4CIFXShadingModifierDecoder@@6BIFXDecoderX@@@ 10062e90     Importing:CIFXShadingModifierDecoder.obj
 0004:00000ea8       ??_R4CIFXShadingModifierDecoder@@6BIFXModifierBaseDecoder@@@ 10062ea8     Importing:CIFXShadingModifierDecoder.obj
 0004:00000ec0       ??_8CIFXShadingModifierDecoder@@7B0@@ 10062ec0     Importing:CIFXShadingModifierDecoder.obj
 0004:00000ecc       ??_8CIFXShadingModifierDecoder@@7BIFXDecoderX@@@ 10062ecc     Importing:CIFXShadingModifierDecoder.obj
 0004:00000ed8       ??_R0?AVIFXDecoderChainX@@@8 10062ed8     Importing:CIFXDecoderChainX.obj
 0004:00000ef8       ??_R1A@?0A@A@IFXDecoderChainX@@8 10062ef8     Importing:CIFXDecoderChainX.obj
 0004:00000f10       ??_R4CIFXDecoderChainX@@6B@ 10062f10     Importing:CIFXDecoderChainX.obj
 0004:00000f28       ??_R0?AVCIFXDecoderChainX@@@8 10062f28     Importing:CIFXDecoderChainX.obj
 0004:00000f48       ??_R3CIFXDecoderChainX@@8  10062f48     Importing:CIFXDecoderChainX.obj
 0004:00000f58       ??_R2CIFXDecoderChainX@@8  10062f58     Importing:CIFXDecoderChainX.obj
 0004:00000f68       ??_R1A@?0A@A@CIFXDecoderChainX@@8 10062f68     Importing:CIFXDecoderChainX.obj
 0004:00000f80       ??_R4IFXViewLayer@@6B@     10062f80     Importing:CIFXViewDecoder.obj
 0004:00000f98       ??_R0?AVIFXViewLayer@@@8   10062f98     Importing:CIFXViewDecoder.obj
 0004:00000fb8       ??_R3IFXViewLayer@@8       10062fb8     Importing:CIFXViewDecoder.obj
 0004:00000fc8       ??_R2IFXViewLayer@@8       10062fc8     Importing:CIFXViewDecoder.obj
 0004:00000fd0       ??_R1A@?0A@A@IFXViewLayer@@8 10062fd0     Importing:CIFXViewDecoder.obj
 0004:00000fe8       ??_R4CIFXViewDecoder@@6BIFXUnknown@@@ 10062fe8     Importing:CIFXViewDecoder.obj
 0004:00001000       ??_R0?AVCIFXViewDecoder@@@8 10063000     Importing:CIFXViewDecoder.obj
 0004:00001020       ??_R3CIFXViewDecoder@@8    10063020     Importing:CIFXViewDecoder.obj
 0004:00001030       ??_R2CIFXViewDecoder@@8    10063030     Importing:CIFXViewDecoder.obj
 0004:00001040       ??_R1A@?0A@A@CIFXViewDecoder@@8 10063040     Importing:CIFXViewDecoder.obj
 0004:00001058       ??_R4CIFXViewDecoder@@6BIFXDecoderX@@@ 10063058     Importing:CIFXViewDecoder.obj
 0004:00001070       ??_R4CIFXViewDecoder@@6BCIFXNodeBaseDecoder@@@ 10063070     Importing:CIFXViewDecoder.obj
 0004:00001088       ??_8CIFXViewDecoder@@7B0@@ 10063088     Importing:CIFXViewDecoder.obj
 0004:00001094       ??_8CIFXViewDecoder@@7BIFXDecoderX@@@ 10063094     Importing:CIFXViewDecoder.obj
 0004:000010a0       ??_R0?AVIFXBlockReaderX@@@8 100630a0     Importing:CIFXBlockReaderX.obj
 0004:000010c0       ??_R1A@?0A@A@IFXBlockReaderX@@8 100630c0     Importing:CIFXBlockReaderX.obj
 0004:000010d8       ??_R4CIFXBlockReaderX@@6B@ 100630d8     Importing:CIFXBlockReaderX.obj
 0004:000010f0       ??_R0?AVCIFXBlockReaderX@@@8 100630f0     Importing:CIFXBlockReaderX.obj
 0004:00001110       ??_R3CIFXBlockReaderX@@8   10063110     Importing:CIFXBlockReaderX.obj
 0004:00001120       ??_R2CIFXBlockReaderX@@8   10063120     Importing:CIFXBlockReaderX.obj
 0004:00001130       ??_R1A@?0A@A@CIFXBlockReaderX@@8 10063130     Importing:CIFXBlockReaderX.obj
 0004:00001148       ?m_uDefaultBlockTypeCount@CIFXBTTHash@@0IA 10063148     Importing:CIFXBTTHash.obj
 0004:00001150       ??_R4IFXBTTHash@@6B@       10063150     Importing:CIFXBTTHash.obj
 0004:00001168       ??_R0?AVIFXBTTHash@@@8     10063168     Importing:CIFXBTTHash.obj
 0004:00001188       ??_R3IFXBTTHash@@8         10063188     Importing:CIFXBTTHash.obj
 0004:00001198       ??_R2IFXBTTHash@@8         10063198     Importing:CIFXBTTHash.obj
 0004:000011a0       ??_R1A@?0A@A@IFXBTTHash@@8 100631a0     Importing:CIFXBTTHash.obj
 0004:000011b8       ??_R4CIFXBTTHash@@6B0@@    100631b8     Importing:CIFXBTTHash.obj
 0004:000011d0       ??_R0?AVCIFXBTTHash@@@8    100631d0     Importing:CIFXBTTHash.obj
 0004:000011f0       ??_R3CIFXBTTHash@@8        100631f0     Importing:CIFXBTTHash.obj
 0004:00001200       ??_R2CIFXBTTHash@@8        10063200     Importing:CIFXBTTHash.obj
 0004:00001210       ??_R1A@?0A@A@CIFXBTTHash@@8 10063210     Importing:CIFXBTTHash.obj
 0004:00001228       ??_R1A@33BA@IFXBTTHash@@8  10063228     Importing:CIFXBTTHash.obj
 0004:00001240       ??_R1A@33A@IFXUnknown@@8   10063240     Importing:CIFXBTTHash.obj
 0004:00001258       ??_R4CIFXBTTHash@@6BIFXUnknown@@@ 10063258     Importing:CIFXBTTHash.obj
 0004:00001270       ??_8CIFXBTTHash@@7B@       10063270     Importing:CIFXBTTHash.obj
 0004:00001278       ??_R4IFXCoreArray@@6B@     10063278     Importing:CIFXLoadManager.obj
 0004:00001290       ??_R0?AVIFXCoreArray@@@8   10063290     Importing:CIFXLoadManager.obj
 0004:000012b0       ??_R3IFXCoreArray@@8       100632b0     Importing:CIFXLoadManager.obj
 0004:000012c0       ??_R2IFXCoreArray@@8       100632c0     Importing:CIFXLoadManager.obj
 0004:000012c8       ??_R1A@?0A@A@IFXCoreArray@@8 100632c8     Importing:CIFXLoadManager.obj
 0004:000012e0       ??_R4IFXLoadManager@@6B0@@ 100632e0     Importing:CIFXLoadManager.obj
 0004:000012f8       ??_R0?AVIFXLoadManager@@@8 100632f8     Importing:CIFXLoadManager.obj
 0004:00001318       ??_R3IFXLoadManager@@8     10063318     Importing:CIFXLoadManager.obj
 0004:00001328       ??_R2IFXLoadManager@@8     10063328     Importing:CIFXLoadManager.obj
 0004:00001330       ??_R1A@?0A@A@IFXLoadManager@@8 10063330     Importing:CIFXLoadManager.obj
 0004:00001348       ??_R4IFXLoadManager@@6BIFXUnknown@@@ 10063348     Importing:CIFXLoadManager.obj
 0004:00001360       ??_R4IFXTask@@6B0@@        10063360     Importing:CIFXLoadManager.obj
 0004:00001378       ??_R0?AVIFXTask@@@8        10063378     Importing:CIFXLoadManager.obj
 0004:00001390       ??_R3IFXTask@@8            10063390     Importing:CIFXLoadManager.obj
 0004:000013a0       ??_R2IFXTask@@8            100633a0     Importing:CIFXLoadManager.obj
 0004:000013a8       ??_R1A@?0A@A@IFXTask@@8    100633a8     Importing:CIFXLoadManager.obj
 0004:000013c0       ??_R4IFXTask@@6BIFXUnknown@@@ 100633c0     Importing:CIFXLoadManager.obj
 0004:000013d8       ??_R4CIFXLoadManager@@6BIFXUnknown@@@ 100633d8     Importing:CIFXLoadManager.obj
 0004:000013f0       ??_R0?AVCIFXLoadManager@@@8 100633f0     Importing:CIFXLoadManager.obj
 0004:00001410       ??_R3CIFXLoadManager@@8    10063410     Importing:CIFXLoadManager.obj
 0004:00001420       ??_R2CIFXLoadManager@@8    10063420     Importing:CIFXLoadManager.obj
 0004:00001438       ??_R1A@?0A@A@CIFXLoadManager@@8 10063438     Importing:CIFXLoadManager.obj
 0004:00001450       ??_R17?0A@A@IFXTask@@8     10063450     Importing:CIFXLoadManager.obj
 0004:00001468       ??_R4CIFXLoadManager@@6BIFXLoadManager@@@ 10063468     Importing:CIFXLoadManager.obj
 0004:00001480       ??_R4CIFXLoadManager@@6BIFXTask@@@ 10063480     Importing:CIFXLoadManager.obj
 0004:00001498       ??_8CIFXLoadManager@@7BIFXLoadManager@@@ 10063498     Importing:CIFXLoadManager.obj
 0004:000014a0       ??_8CIFXLoadManager@@7BIFXTask@@@ 100634a0     Importing:CIFXLoadManager.obj
 0004:000014a8       ??_R4?$IFXArray@VIFXExternalDecoderCont@CIFXLoadManager@@@@6B@ 100634a8     Importing:CIFXLoadManager.obj
 0004:000014c0       ??_R0?AV?$IFXArray@VIFXExternalDecoderCont@CIFXLoadManager@@@@@8 100634c0     Importing:CIFXLoadManager.obj
 0004:00001520       ??_R3?$IFXArray@VIFXExternalDecoderCont@CIFXLoadManager@@@@8 10063520     Importing:CIFXLoadManager.obj
 0004:00001530       ??_R2?$IFXArray@VIFXExternalDecoderCont@CIFXLoadManager@@@@8 10063530     Importing:CIFXLoadManager.obj
 0004:00001538       ??_R1A@?0A@A@?$IFXArray@VIFXExternalDecoderCont@CIFXLoadManager@@@@8 10063538     Importing:CIFXLoadManager.obj
 0004:00001550       ??_R4?$IFXArray@UIFXObjectFilter@@@@6B@ 10063550     Importing:CIFXLoadManager.obj
 0004:00001568       ??_R0?AV?$IFXArray@UIFXObjectFilter@@@@@8 10063568     Importing:CIFXLoadManager.obj
 0004:00001598       ??_R3?$IFXArray@UIFXObjectFilter@@@@8 10063598     Importing:CIFXLoadManager.obj
 0004:000015a8       ??_R2?$IFXArray@UIFXObjectFilter@@@@8 100635a8     Importing:CIFXLoadManager.obj
 0004:000015b0       ??_R1A@?0A@A@?$IFXArray@UIFXObjectFilter@@@@8 100635b0     Importing:CIFXLoadManager.obj
 0004:000015c8       ??_R4?$IFXArray@PAVIFXLoadManager@@@@6B@ 100635c8     Importing:CIFXLoadManager.obj
 0004:000015e0       ??_R0?AV?$IFXArray@PAVIFXLoadManager@@@@@8 100635e0     Importing:CIFXLoadManager.obj
 0004:00001610       ??_R3?$IFXArray@PAVIFXLoadManager@@@@8 10063610     Importing:CIFXLoadManager.obj
 0004:00001620       ??_R2?$IFXArray@PAVIFXLoadManager@@@@8 10063620     Importing:CIFXLoadManager.obj
 0004:00001628       ??_R1A@?0A@A@?$IFXArray@PAVIFXLoadManager@@@@8 10063628     Importing:CIFXLoadManager.obj
 0004:00001640       ??_R4?$IFXArray@VIFXString@@@@6B@ 10063640     Importing:CIFXLoadManager.obj
 0004:00001658       ??_R0?AV?$IFXArray@VIFXString@@@@@8 10063658     Importing:CIFXLoadManager.obj
 0004:00001680       ??_R3?$IFXArray@VIFXString@@@@8 10063680     Importing:CIFXLoadManager.obj
 0004:00001690       ??_R2?$IFXArray@VIFXString@@@@8 10063690     Importing:CIFXLoadManager.obj
 0004:00001698       ??_R1A@?0A@A@?$IFXArray@VIFXString@@@@8 10063698     Importing:CIFXLoadManager.obj
 0004:000016b0       ??_R4IFXReadBuffer@@6B0@@  100636b0     Importing:CIFXStdioReadBufferX.obj
 0004:000016c8       ??_R0?AVIFXReadBuffer@@@8  100636c8     Importing:CIFXStdioReadBufferX.obj
 0004:000016e8       ??_R3IFXReadBuffer@@8      100636e8     Importing:CIFXStdioReadBufferX.obj
 0004:000016f8       ??_R2IFXReadBuffer@@8      100636f8     Importing:CIFXStdioReadBufferX.obj
 0004:00001700       ??_R1A@?0A@A@IFXReadBuffer@@8 10063700     Importing:CIFXStdioReadBufferX.obj
 0004:00001718       ??_R4IFXReadBuffer@@6BIFXUnknown@@@ 10063718     Importing:CIFXStdioReadBufferX.obj
 0004:00001730       ??_R4IFXReadBufferX@@6B0@@ 10063730     Importing:CIFXStdioReadBufferX.obj
 0004:00001748       ??_R0?AVIFXReadBufferX@@@8 10063748     Importing:CIFXStdioReadBufferX.obj
 0004:00001768       ??_R3IFXReadBufferX@@8     10063768     Importing:CIFXStdioReadBufferX.obj
 0004:00001778       ??_R2IFXReadBufferX@@8     10063778     Importing:CIFXStdioReadBufferX.obj
 0004:00001780       ??_R1A@?0A@A@IFXReadBufferX@@8 10063780     Importing:CIFXStdioReadBufferX.obj
 0004:00001798       ??_R4IFXReadBufferX@@6BIFXUnknown@@@ 10063798     Importing:CIFXStdioReadBufferX.obj
 0004:000017b0       ??_R4IFXStdio@@6B0@@       100637b0     Importing:CIFXStdioReadBufferX.obj
 0004:000017c8       ??_R0?AVIFXStdio@@@8       100637c8     Importing:CIFXStdioReadBufferX.obj
 0004:000017e0       ??_R3IFXStdio@@8           100637e0     Importing:CIFXStdioReadBufferX.obj
 0004:000017f0       ??_R2IFXStdio@@8           100637f0     Importing:CIFXStdioReadBufferX.obj
 0004:000017f8       ??_R1A@?0A@A@IFXStdio@@8   100637f8     Importing:CIFXStdioReadBufferX.obj
 0004:00001810       ??_R4IFXStdio@@6BIFXUnknown@@@ 10063810     Importing:CIFXStdioReadBufferX.obj
 0004:00001828       ??_R4CIFXStdioReadBufferX@@6BIFXUnknown@@@ 10063828     Importing:CIFXStdioReadBufferX.obj
 0004:00001840       ??_R0?AVCIFXStdioReadBufferX@@@8 10063840     Importing:CIFXStdioReadBufferX.obj
 0004:00001868       ??_R3CIFXStdioReadBufferX@@8 10063868     Importing:CIFXStdioReadBufferX.obj
 0004:00001878       ??_R2CIFXStdioReadBufferX@@8 10063878     Importing:CIFXStdioReadBufferX.obj
 0004:00001898       ??_R1A@?0A@A@CIFXStdioReadBufferX@@8 10063898     Importing:CIFXStdioReadBufferX.obj
 0004:000018b0       ??_R17?0A@A@IFXReadBufferX@@8 100638b0     Importing:CIFXStdioReadBufferX.obj
 0004:000018c8       ??_R1BA@?0A@A@IFXStdio@@8  100638c8     Importing:CIFXStdioReadBufferX.obj
 0004:000018e0       ??_R4CIFXStdioReadBufferX@@6BIFXReadBuffer@@@ 100638e0     Importing:CIFXStdioReadBufferX.obj
 0004:000018f8       ??_R4CIFXStdioReadBufferX@@6BIFXReadBufferX@@@ 100638f8     Importing:CIFXStdioReadBufferX.obj
 0004:00001910       ??_R4CIFXStdioReadBufferX@@6BIFXStdio@@@ 10063910     Importing:CIFXStdioReadBufferX.obj
 0004:00001928       ??_8CIFXStdioReadBufferX@@7BIFXReadBuffer@@@ 10063928     Importing:CIFXStdioReadBufferX.obj
 0004:00001930       ??_8CIFXStdioReadBufferX@@7BIFXReadBufferX@@@ 10063930     Importing:CIFXStdioReadBufferX.obj
 0004:00001938       ??_8CIFXStdioReadBufferX@@7BIFXStdio@@@ 10063938     Importing:CIFXStdioReadBufferX.obj
 0004:00001940       ??_R4IFXInet@@6B0@@        10063940     Importing:CIFXInternetReadBufferX.obj
 0004:00001958       ??_R0?AVIFXInet@@@8        10063958     Importing:CIFXInternetReadBufferX.obj
 0004:00001970       ??_R3IFXInet@@8            10063970     Importing:CIFXInternetReadBufferX.obj
 0004:00001980       ??_R2IFXInet@@8            10063980     Importing:CIFXInternetReadBufferX.obj
 0004:00001988       ??_R1A@?0A@A@IFXInet@@8    10063988     Importing:CIFXInternetReadBufferX.obj
 0004:000019a0       ??_R4IFXInet@@6BIFXUnknown@@@ 100639a0     Importing:CIFXInternetReadBufferX.obj
 0004:000019b8       ??_R4CIFXInternetReadBufferX@@6BIFXUnknown@@@ 100639b8     Importing:CIFXInternetReadBufferX.obj
 0004:000019d0       ??_R0?AVCIFXInternetReadBufferX@@@8 100639d0     Importing:CIFXInternetReadBufferX.obj
 0004:000019f8       ??_R3CIFXInternetReadBufferX@@8 100639f8     Importing:CIFXInternetReadBufferX.obj
 0004:00001a08       ??_R2CIFXInternetReadBufferX@@8 10063a08     Importing:CIFXInternetReadBufferX.obj
 0004:00001a38       ??_R1A@?0A@A@CIFXInternetReadBufferX@@8 10063a38     Importing:CIFXInternetReadBufferX.obj
 0004:00001a50       ??_R1BI@?0A@A@IFXInet@@8   10063a50     Importing:CIFXInternetReadBufferX.obj
 0004:00001a68       ??_R1CA@?0A@A@IFXTask@@8   10063a68     Importing:CIFXInternetReadBufferX.obj
 0004:00001a80       ??_R4CIFXInternetReadBufferX@@6BIFXReadBuffer@@@ 10063a80     Importing:CIFXInternetReadBufferX.obj
 0004:00001a98       ??_R4CIFXInternetReadBufferX@@6BIFXReadBufferX@@@ 10063a98     Importing:CIFXInternetReadBufferX.obj
 0004:00001ab0       ??_R4CIFXInternetReadBufferX@@6BIFXStdio@@@ 10063ab0     Importing:CIFXInternetReadBufferX.obj
 0004:00001ac8       ??_R4CIFXInternetReadBufferX@@6BIFXInet@@@ 10063ac8     Importing:CIFXInternetReadBufferX.obj
 0004:00001ae0       ??_R4CIFXInternetReadBufferX@@6BIFXTask@@@ 10063ae0     Importing:CIFXInternetReadBufferX.obj
 0004:00001af8       ??_8CIFXInternetReadBufferX@@7BIFXReadBuffer@@@ 10063af8     Importing:CIFXInternetReadBufferX.obj
 0004:00001b00       ??_8CIFXInternetReadBufferX@@7BIFXReadBufferX@@@ 10063b00     Importing:CIFXInternetReadBufferX.obj
 0004:00001b08       ??_8CIFXInternetReadBufferX@@7BIFXStdio@@@ 10063b08     Importing:CIFXInternetReadBufferX.obj
 0004:00001b10       ??_8CIFXInternetReadBufferX@@7BIFXInet@@@ 10063b10     Importing:CIFXInternetReadBufferX.obj
 0004:00001b18       ??_8CIFXInternetReadBufferX@@7BIFXTask@@@ 10063b18     Importing:CIFXInternetReadBufferX.obj
 0004:00001b20       ??_R4CIFXPointSetDecoder@@6BIFXUnknown@@@ 10063b20     Importing:CIFXPointSetDecoder.obj
 0004:00001b38       ??_R0?AVCIFXPointSetDecoder@@@8 10063b38     Importing:CIFXPointSetDecoder.obj
 0004:00001b60       ??_R3CIFXPointSetDecoder@@8 10063b60     Importing:CIFXPointSetDecoder.obj
 0004:00001b70       ??_R2CIFXPointSetDecoder@@8 10063b70     Importing:CIFXPointSetDecoder.obj
 0004:00001b80       ??_R1A@?0A@A@CIFXPointSetDecoder@@8 10063b80     Importing:CIFXPointSetDecoder.obj
 0004:00001b98       ??_R4CIFXPointSetDecoder@@6BIFXDecoderX@@@ 10063b98     Importing:CIFXPointSetDecoder.obj
 0004:00001bb0       ??_R4CIFXPointSetDecoder@@6BIFXModifierBaseDecoder@@@ 10063bb0     Importing:CIFXPointSetDecoder.obj
 0004:00001bc8       ??_8CIFXPointSetDecoder@@7B0@@ 10063bc8     Importing:CIFXPointSetDecoder.obj
 0004:00001bd4       ??_8CIFXPointSetDecoder@@7BIFXDecoderX@@@ 10063bd4     Importing:CIFXPointSetDecoder.obj
 0004:00001be0       ??_R4CIFXLineSetDecoder@@6BIFXUnknown@@@ 10063be0     Importing:CIFXLineSetDecoder.obj
 0004:00001bf8       ??_R0?AVCIFXLineSetDecoder@@@8 10063bf8     Importing:CIFXLineSetDecoder.obj
 0004:00001c20       ??_R3CIFXLineSetDecoder@@8 10063c20     Importing:CIFXLineSetDecoder.obj
 0004:00001c30       ??_R2CIFXLineSetDecoder@@8 10063c30     Importing:CIFXLineSetDecoder.obj
 0004:00001c40       ??_R1A@?0A@A@CIFXLineSetDecoder@@8 10063c40     Importing:CIFXLineSetDecoder.obj
 0004:00001c58       ??_R4CIFXLineSetDecoder@@6BIFXDecoderX@@@ 10063c58     Importing:CIFXLineSetDecoder.obj
 0004:00001c70       ??_R4CIFXLineSetDecoder@@6BIFXModifierBaseDecoder@@@ 10063c70     Importing:CIFXLineSetDecoder.obj
 0004:00001c88       ??_8CIFXLineSetDecoder@@7B0@@ 10063c88     Importing:CIFXLineSetDecoder.obj
 0004:00001c94       ??_8CIFXLineSetDecoder@@7BIFXDecoderX@@@ 10063c94     Importing:CIFXLineSetDecoder.obj
 0004:00001ca0       ??_R4?$IFXArray@I@@6B@     10063ca0     Importing:CIFXLineSetDecoder.obj
 0004:00001cb8       ??_R0?AV?$IFXArray@I@@@8   10063cb8     Importing:CIFXLineSetDecoder.obj
 0004:00001cd8       ??_R3?$IFXArray@I@@8       10063cd8     Importing:CIFXLineSetDecoder.obj
 0004:00001ce8       ??_R2?$IFXArray@I@@8       10063ce8     Importing:CIFXLineSetDecoder.obj
 0004:00001cf0       ??_R1A@?0A@A@?$IFXArray@I@@8 10063cf0     Importing:CIFXLineSetDecoder.obj
 0004:00001d08       ??_R4CIFXBoneWeightsModifierDecoder@@6BIFXUnknown@@@ 10063d08     Importing:CIFXBoneWeightsModifierDecoder.obj
 0004:00001d20       ??_R0?AVCIFXBoneWeightsModifierDecoder@@@8 10063d20     Importing:CIFXBoneWeightsModifierDecoder.obj
 0004:00001d50       ??_R3CIFXBoneWeightsModifierDecoder@@8 10063d50     Importing:CIFXBoneWeightsModifierDecoder.obj
 0004:00001d60       ??_R2CIFXBoneWeightsModifierDecoder@@8 10063d60     Importing:CIFXBoneWeightsModifierDecoder.obj
 0004:00001d70       ??_R1A@?0A@A@CIFXBoneWeightsModifierDecoder@@8 10063d70     Importing:CIFXBoneWeightsModifierDecoder.obj
 0004:00001d88       ??_R4CIFXBoneWeightsModifierDecoder@@6BIFXDecoderX@@@ 10063d88     Importing:CIFXBoneWeightsModifierDecoder.obj
 0004:00001da0       ??_R4CIFXBoneWeightsModifierDecoder@@6BIFXModifierBaseDecoder@@@ 10063da0     Importing:CIFXBoneWeightsModifierDecoder.obj
 0004:00001db8       ??_8CIFXBoneWeightsModifierDecoder@@7B0@@ 10063db8     Importing:CIFXBoneWeightsModifierDecoder.obj
 0004:00001dc4       ??_8CIFXBoneWeightsModifierDecoder@@7BIFXDecoderX@@@ 10063dc4     Importing:CIFXBoneWeightsModifierDecoder.obj
 0004:00001dd0       ??_R4CIFXCLODModifierDecoder@@6BIFXUnknown@@@ 10063dd0     Importing:CIFXCLODModifierDecoder.obj
 0004:00001de8       ??_R0?AVCIFXCLODModifierDecoder@@@8 10063de8     Importing:CIFXCLODModifierDecoder.obj
 0004:00001e10       ??_R3CIFXCLODModifierDecoder@@8 10063e10     Importing:CIFXCLODModifierDecoder.obj
 0004:00001e20       ??_R2CIFXCLODModifierDecoder@@8 10063e20     Importing:CIFXCLODModifierDecoder.obj
 0004:00001e30       ??_R1A@?0A@A@CIFXCLODModifierDecoder@@8 10063e30     Importing:CIFXCLODModifierDecoder.obj
 0004:00001e48       ??_R4CIFXCLODModifierDecoder@@6BIFXDecoderX@@@ 10063e48     Importing:CIFXCLODModifierDecoder.obj
 0004:00001e60       ??_R4CIFXCLODModifierDecoder@@6BIFXModifierBaseDecoder@@@ 10063e60     Importing:CIFXCLODModifierDecoder.obj
 0004:00001e78       ??_8CIFXCLODModifierDecoder@@7B0@@ 10063e78     Importing:CIFXCLODModifierDecoder.obj
 0004:00001e84       ??_8CIFXCLODModifierDecoder@@7BIFXDecoderX@@@ 10063e84     Importing:CIFXCLODModifierDecoder.obj
 0004:00001e90       ??_R4CIFXDummyModifierDecoder@@6BIFXUnknown@@@ 10063e90     Importing:CIFXDummyModifierDecoder.obj
 0004:00001ea8       ??_R0?AVCIFXDummyModifierDecoder@@@8 10063ea8     Importing:CIFXDummyModifierDecoder.obj
 0004:00001ed0       ??_R3CIFXDummyModifierDecoder@@8 10063ed0     Importing:CIFXDummyModifierDecoder.obj
 0004:00001ee0       ??_R2CIFXDummyModifierDecoder@@8 10063ee0     Importing:CIFXDummyModifierDecoder.obj
 0004:00001ef0       ??_R1A@?0A@A@CIFXDummyModifierDecoder@@8 10063ef0     Importing:CIFXDummyModifierDecoder.obj
 0004:00001f08       ??_R4CIFXDummyModifierDecoder@@6BIFXDecoderX@@@ 10063f08     Importing:CIFXDummyModifierDecoder.obj
 0004:00001f20       ??_R4CIFXDummyModifierDecoder@@6BIFXModifierBaseDecoder@@@ 10063f20     Importing:CIFXDummyModifierDecoder.obj
 0004:00001f38       ??_8CIFXDummyModifierDecoder@@7B0@@ 10063f38     Importing:CIFXDummyModifierDecoder.obj
 0004:00001f44       ??_8CIFXDummyModifierDecoder@@7BIFXDecoderX@@@ 10063f44     Importing:CIFXDummyModifierDecoder.obj
 0004:00001f50       ??_R4IFXModifierBaseDecoder@@6B@ 10063f50     Importing:IFXModifierBaseDecoder.obj
 0004:00001f68       ??_R3IFXModifierBaseDecoder@@8 10063f68     Importing:IFXModifierBaseDecoder.obj
 0004:00001f78       ??_R2IFXModifierBaseDecoder@@8 10063f78     Importing:IFXModifierBaseDecoder.obj
 0004:00001f80       ??_R4IFXString@@6B@        10063f80     Importing:IFXString.obj
 0004:00001f98       ??_R0?AVIFXString@@@8      10063f98     Importing:IFXString.obj
 0004:00001fb0       ??_R3IFXString@@8          10063fb0     Importing:IFXString.obj
 0004:00001fc0       ??_R2IFXString@@8          10063fc0     Importing:IFXString.obj
 0004:00001fc8       ??_R1A@?0A@A@IFXString@@8  10063fc8     Importing:IFXString.obj
 0004:00001fe0       ?_IFXMatrix4x4_Multiply@@3P6AXPAMPBM1@ZA 10063fe0     Importing:IFXMatrix4x4.obj
 0004:00001fe4       ?_IFXMatrix4x4_MakeIdentity@@3P6AXPAM@ZA 10063fe4     Importing:IFXMatrix4x4.obj
 0004:00001fe8       ?_IFXMatrix4x4_Scale@@3P6AXPAMPBM@ZA 10063fe8     Importing:IFXMatrix4x4.obj
 0004:00001fec       ?_IFXMatrix4x4_Transpose@@3P6AXPAM@ZA 10063fec     Importing:IFXMatrix4x4.obj
 0004:00001ff0       ?_IFXMatrix4x4_CalcDeterminant3x3@@3P6AMPBM@ZA 10063ff0     Importing:IFXMatrix4x4.obj
 0004:00001ff4       ?_IFXMatrix4x4_CalcDeterminant@@3P6AMPBM@ZA 10063ff4     Importing:IFXMatrix4x4.obj
 0004:00001ff8       ?_IFXMatrix4x4_Invert3x4@@3P6AHPAMPBM@ZA 10063ff8     Importing:IFXMatrix4x4.obj
 0004:00001ffc       ?_IFXMatrix4x4_Invert@@3P6AHPAMPBM@ZA 10063ffc     Importing:IFXMatrix4x4.obj
 0004:00002000       ?_IFXMatrix4x4_Multiply3x4@@3P6AXPAMPBM1@ZA 10064000     Importing:IFXMatrix4x4.obj
 0004:00002008       ??_R4CIFXNodeBaseDecoder@@6B@ 10064008     Importing:CIFXNodeDecoder.obj
 0004:00002020       ??_R3CIFXNodeBaseDecoder@@8 10064020     Importing:CIFXNodeDecoder.obj
 0004:00002030       ??_R2CIFXNodeBaseDecoder@@8 10064030     Importing:CIFXNodeDecoder.obj
 0004:00002038       ??_R4IFXInternetConnectionX@@6B@ 10064038     Importing:IFXInternetConnectionX.obj
 0004:00002050       ??_R0?AVIFXInternetConnectionX@@@8 10064050     Importing:IFXInternetConnectionX.obj
 0004:00002078       ??_R3IFXInternetConnectionX@@8 10064078     Importing:IFXInternetConnectionX.obj
 0004:00002088       ??_R2IFXInternetConnectionX@@8 10064088     Importing:IFXInternetConnectionX.obj
 0004:00002090       ??_R1A@?0A@A@IFXInternetConnectionX@@8 10064090     Importing:IFXInternetConnectionX.obj
 0004:000020a8       ??_R4IFXHTTPConnectionX@@6B@ 100640a8     Importing:IFXInternetConnectionX.obj
 0004:000020c0       ??_R0?AVIFXHTTPConnectionX@@@8 100640c0     Importing:IFXInternetConnectionX.obj
 0004:000020e8       ??_R3IFXHTTPConnectionX@@8 100640e8     Importing:IFXInternetConnectionX.obj
 0004:000020f8       ??_R2IFXHTTPConnectionX@@8 100640f8     Importing:IFXInternetConnectionX.obj
 0004:00002100       ??_R1A@?0A@A@IFXHTTPConnectionX@@8 10064100     Importing:IFXInternetConnectionX.obj
 0004:00002118       ??_R4IFXFTPConnectionX@@6B@ 10064118     Importing:IFXInternetConnectionX.obj
 0004:00002130       ??_R0?AVIFXFTPConnectionX@@@8 10064130     Importing:IFXInternetConnectionX.obj
 0004:00002150       ??_R3IFXFTPConnectionX@@8  10064150     Importing:IFXInternetConnectionX.obj
 0004:00002160       ??_R2IFXFTPConnectionX@@8  10064160     Importing:IFXInternetConnectionX.obj
 0004:00002168       ??_R1A@?0A@A@IFXFTPConnectionX@@8 10064168     Importing:IFXInternetConnectionX.obj
 0004:00002180       __LIB_VERSIONIMF           10064180     libmmt:libm_error.omu
 0004:00002184       _pmatherrf                 10064184     libmmt:libm_error.omu
 0004:00002188       _pmatherr                  10064188     libmmt:libm_error.omu
 0004:0000218c       _pmatherrl                 1006418c     libmmt:libm_error.omu
 0004:00002190       __aexit_rtn                10064190     LIBCMT:dllcrt0.obj
 0004:00002194       __fltused                  10064194     LIBCMT:fpinit.obj
 0004:00002198       __ldused                   10064198     LIBCMT:fpinit.obj
 0004:0000219c       __FPinit                   1006419c     LIBCMT:fpinit.obj
 0004:000021a0       __FPmtinit                 100641a0     LIBCMT:fpinit.obj
 0004:000021a4       __FPmtterm                 100641a4     LIBCMT:fpinit.obj
 0004:000021a8       __NLG_Destination          100641a8     LIBCMT:exsup.obj
 0004:000021b8       ?__pMyUnhandledExceptionFilter@@3PAXA 100641b8     LIBCMT:throw.obj
 0004:000021bc       ??_R0?AVtype_info@@@8      100641bc     LIBCMT:typinfo.obj
 0004:000021e0       __iob                      100641e0     LIBCMT:_file.obj
 0004:000025c8       ___tlsindex                100645c8     LIBCMT:tidtable.obj
 0004:000025cc       ___badioinfo               100645cc     LIBCMT:ioinit.obj
 0004:000025f0       __amblksiz                 100645f0     LIBCMT:heapinit.obj
 0004:00002600       __XcptActTab               10064600     LIBCMT:winxfltr.obj
 0004:00002678       __First_FPE_Indx           10064678     LIBCMT:winxfltr.obj
 0004:0000267c       __Num_FPE                  1006467c     LIBCMT:winxfltr.obj
 0004:00002680       __XcptActTabSize           10064680     LIBCMT:winxfltr.obj
 0004:00002684       __XcptActTabCount          10064684     LIBCMT:winxfltr.obj
 0004:00002720       __cfltcvt_tab              10064720     LIBCMT:cmiscdat.obj
 0004:0000273c       ___security_cookie         1006473c     LIBCMT:seccook.obj
 0004:00002740       ?__pInconsistency@@3P6AXXZA 10064740     LIBCMT:hooks.obj
 0004:00002878       ___initiallocinfo          10064878     LIBCMT:setlocal.obj
 0004:000028cc       ___ptlocinfo               100648cc     LIBCMT:setlocal.obj
 0004:00002a08       ___lc_category             10064a08     LIBCMT:setlocal.obj
 0004:00002a50       __pctype                   10064a50     LIBCMT:ctype.obj
 0004:00002a54       __pwctype                  10064a54     LIBCMT:ctype.obj
 0004:00002b60       ___mb_cur_max              10064b60     LIBCMT:nlsdata1.obj
 0004:00002b64       ___decimal_point           10064b64     LIBCMT:nlsdata1.obj
 0004:00002b68       ___decimal_point_length    10064b68     LIBCMT:nlsdata1.obj
 0004:00002ba0       ___lc_clike                10064ba0     LIBCMT:nlsdata2.obj
 0004:00002ba4       ___lc_time_curr            10064ba4     LIBCMT:strftime.obj
 0004:00002ba8       ___lc_time_c               10064ba8     LIBCMT:strftime.obj
 0004:00002c60       ___lconv_static_decimal    10064c60     LIBCMT:lconv.obj
 0004:00002c64       ___lconv_c                 10064c64     LIBCMT:lconv.obj
 0004:00002c94       ___lconv                   10064c94     LIBCMT:lconv.obj
 0004:00002ca0       ___nullstring              10064ca0     LIBCMT:output.obj
 0004:00002ca4       ___wnullstring             10064ca4     LIBCMT:output.obj
 0004:00002cb0       __timezone                 10064cb0     LIBCMT:timeset.obj
 0004:00002cb4       __daylight                 10064cb4     LIBCMT:timeset.obj
 0004:00002cb8       __dstbias                  10064cb8     LIBCMT:timeset.obj
 0004:00002d40       __tzname                   10064d40     LIBCMT:timeset.obj
 0004:00002d60       __lpdays                   10064d60     LIBCMT:days.obj
 0004:00002d94       __days                     10064d94     LIBCMT:days.obj
 0004:00002dd0       __pow10pos                 10064dd0     LIBCMT:constpow.obj
 0004:00002f30       __pow10neg                 10064f30     LIBCMT:constpow.obj
 0004:000030a0       _cache_values              100650a0     libirc:fast_mem_ops.obj
 0004:000036f4       __memcpy_mem_ops_method    100656f4     libirc:fast_mem_ops.obj
 0004:00003720       ?g_countActiveObjects@@3IA 10065720     Importing:IFXCorePluginStatic.obj
 0004:00003740       ?m_DefaultBlockTypes@CIFXBTTHash@@0PAVIFXBTTHashEntry@IFXBTTHash@@A 10065740     Importing:CIFXBTTHash.obj
 0004:000039e8       __aenvptr                  100659e8     LIBCMT:dllcrt0.obj
 0004:000039ec       __wenvptr                  100659ec     LIBCMT:dllcrt0.obj
 0004:000039f0       ___error_mode              100659f0     LIBCMT:dllcrt0.obj
 0004:000039f4       ___app_type                100659f4     LIBCMT:dllcrt0.obj
 0004:000039f8       ___fastflag                100659f8     LIBCMT:fpinit.obj
 0004:000039fc       __adjust_fdiv              100659fc     LIBCMT:fpinit.obj
 0004:00003a00       ___pPurecall               10065a00     LIBCMT:purevirt.obj
 0004:00003a04       __cflush                   10065a04     LIBCMT:_file.obj
 0004:00003a08       __umaskval                 10065a08     LIBCMT:crt0dat.obj
 0004:00003a0c       __osplatform               10065a0c     LIBCMT:crt0dat.obj
 0004:00003a10       __osver                    10065a10     LIBCMT:crt0dat.obj
 0004:00003a14       __winver                   10065a14     LIBCMT:crt0dat.obj
 0004:00003a18       __winmajor                 10065a18     LIBCMT:crt0dat.obj
 0004:00003a1c       __winminor                 10065a1c     LIBCMT:crt0dat.obj
 0004:00003a20       ___argc                    10065a20     LIBCMT:crt0dat.obj
 0004:00003a24       ___argv                    10065a24     LIBCMT:crt0dat.obj
 0004:00003a28       ___wargv                   10065a28     LIBCMT:crt0dat.obj
 0004:00003a2c       __environ                  10065a2c     LIBCMT:crt0dat.obj
 0004:00003a30       ___initenv                 10065a30     LIBCMT:crt0dat.obj
 0004:00003a34       __wenviron                 10065a34     LIBCMT:crt0dat.obj
 0004:00003a38       ___winitenv                10065a38     LIBCMT:crt0dat.obj
 0004:00003a3c       __pgmptr                   10065a3c     LIBCMT:crt0dat.obj
 0004:00003a40       __wpgmptr                  10065a40     LIBCMT:crt0dat.obj
 0004:00003a44       __exitflag                 10065a44     LIBCMT:crt0dat.obj
 0004:00003a48       __C_Termination_Done       10065a48     LIBCMT:crt0dat.obj
 0004:00003a4c       __C_Exit_Done              10065a4c     LIBCMT:crt0dat.obj
 0004:00003a50       _gpFlsAlloc                10065a50     LIBCMT:tidtable.obj
 0004:00003a54       _gpFlsGetValue             10065a54     LIBCMT:tidtable.obj
 0004:00003a58       _gpFlsSetValue             10065a58     LIBCMT:tidtable.obj
 0004:00003a5c       _gpFlsFree                 10065a5c     LIBCMT:tidtable.obj
 0004:00003b6c       __adbgmsg                  10065b6c     LIBCMT:crt0msg.obj
 0004:00003cdc       __stdbuf                   10065cdc     LIBCMT:_sftbuf.obj
 0004:00003ce8       ?_pnhHeap@@3P6AHI@ZA       10065ce8     LIBCMT:handler.obj
 0004:00003cec       __newmode                  10065cec     LIBCMT:_newmode.obj
 0004:00003d58       ___lc_handle               10065d58     LIBCMT:nlsdata2.obj
 0004:00003d70       ___lc_codepage             10065d70     LIBCMT:nlsdata2.obj
 0004:00003d74       ___lc_collate_cp           10065d74     LIBCMT:nlsdata2.obj
 0004:00003d7c       ___lconv_static_null       10065d7c     LIBCMT:lconv.obj
 0004:00003d80       ___lc_time_intl            10065d80     LIBCMT:inittime.obj
 0004:00003d84       ___lconv_intl              10065d84     LIBCMT:initmon.obj
 0004:00003db0       ___lc_id                   10065db0     LIBCMT:nlsdata3.obj
 0004:00003ebc       ___intel_cpu_indicator     10065ebc     libirc:cpu_disp.obj
 0004:00003ec0       __memcpy_largest_cache_size 10065ec0     libirc:fast_mem_ops.obj
 0004:00003ec4       __memcpy_largest_cachelinesize 10065ec4     libirc:fast_mem_ops.obj
 0004:000046e0       ?g_QPCFrequency@@3T_LARGE_INTEGER@@A 100666e0     Platform:IFXOSUtilities.obj
 0004:000046e8       ?g_bUseQPC@@3HA            100666e8     Platform:IFXOSUtilities.obj
 0004:000046ec       ?g_eax@@3IA                100666ec     Platform:IFXOSUtilities.obj
 0004:000046f0       ?g_ebx@@3IA                100666f0     Platform:IFXOSUtilities.obj
 0004:000046f4       ?g_ecx@@3IA                100666f4     Platform:IFXOSUtilities.obj
 0004:000046f8       ?g_edx@@3IA                100666f8     Platform:IFXOSUtilities.obj
 0004:00004700       __commode                  10066700     LIBCMT:ncommode.obj
 0004:00004704       __fmode                    10066704     LIBCMT:txtmode.obj
 0004:00004708       ___ctype1                  10066708     <common>
 0004:0000470c       ___ctype1_refcount         1006670c     <common>
 0004:00004710       ___lconv_mon_refcount      10066710     <common>
 0004:00004714       ___lconv_intl_refcount     10066714     <common>
 0004:00004718       ___lconv_num_refcount      10066718     <common>
 0004:0000471c       ___sbh_pHeaderDefer        1006671c     <common>
 0004:00004720       ___sbh_cntHeaderList       10066720     <common>
 0004:00004724       ___sbh_pHeaderList         10066724     <common>
 0004:00004728       ___sbh_threshold           10066728     <common>
 0004:0000472c       ___sbh_pHeaderScan         1006672c     <common>
 0004:00004730       ___sbh_sizeHeaderList      10066730     <common>
 0004:00004734       ___sbh_indGroupDefer       10066734     <common>
 0004:00004738       ___mblcid                  10066738     <common>
 0004:0000473c       ___ptmbcinfo               1006673c     <common>
 0004:00004740       ___ismbcodepage            10066740     <common>
 0004:00004760       __mbctype                  10066760     <common>
 0004:00004864       ___mbcodepage              10066864     <common>
 0004:00004870       ___mbulinfo                10066870     <common>
 0004:00004880       __mbcasemap                10066880     <common>
 0004:00004980       __crtheap                  10066980     <common>
 0004:00004984       ___active_heap             10066984     <common>
 0004:00004988       __nhandle                  10066988     <common>
 0004:000049a0       ___pioinfo                 100669a0     <common>
 0004:00004aa0       ___env_initialized         10066aa0     <common>
 0004:00004aa4       ___onexitend               10066aa4     <common>
 0004:00004aa8       ___onexitbegin             10066aa8     <common>
 0004:00004aac       ___mbctype_initialized     10066aac     <common>
 0004:00004ab0       ___piob                    10066ab0     <common>
 0004:00004ac0       __bufin                    10066ac0     <common>
 0004:00005ac0       __nstream                  10067ac0     <common>
 0004:00005ac4       __acmdln                   10067ac4     <common>
 0004:00005ac8       __pRawDllMain              10067ac8     <common>
 0005:00000000       ??_C@_1BE@A@?$DM?$AAu?$AAn?$AAn?$AAa?$AAm?$AAe?$AAd?$AA?$DO?$AA?$AA?$AA@ 10068000     Importing:CIFXAuthorCLODDecoder.obj
 0005:00000014       ??_C@_11A@?$AA?$AA@        10068014     Importing:CIFXLoadManager.obj
 0005:00000018       ??_C@_1BA@A@f?$AAi?$AAl?$AAe?$AA?3?$AA?1?$AA?1?$AA?$AA?$AA@ 10068018     Importing:CIFXLoadManager.obj
 0005:00000028       ??_C@_13A@?3?$AA?$AA?$AA@  10068028     Importing:CIFXLoadManager.obj
 0005:0000002c       ??_C@_17A@?3?$AA?1?$AA?1?$AA?$AA?$AA@ 1006802c     Importing:CIFXLoadManager.obj
 0005:00000040       ??_C@_1FG@A@C?$AAa?$AAn?$AAn?$AAo?$AAt?$AA?5?$AAl?$AAo?$AAa?$AAd?$AA?5?$AAf?$AAi?$AAl?$AAe?$AA?5?$AAr?$AAe?$AAf?$AAe?$AAr?$AAe?$AAn?$AAc?$AAe?$AAd?$AA?5?$AAb?$AAl?$AAo?$AAc?$AAk?$AA?5?$AA?3?$AA?5?$AA?$CC?$AA?$CF?$AAl?$AAs?$AA?$CC?$AA?6?$AA?$AA?$AA@ 10068040     Importing:CIFXLoadManager.obj
 0005:000000a0       ??_C@_15A@r?$AAb?$AA?$AA?$AA@ 100680a0     Importing:CIFXStdioReadBufferX.obj
 0005:000000a8       ??_C@_00A@?$AA@            100680a8     Importing:IFXInternetConnectionX.obj
 0005:000000ac       ??_C@_05A@sqrtl?$AA@       100680ac     libmmt:libm_error.omu
 0005:000000b4       ??_C@_0BG@A@?$ANsqrtl?3?5DOMAIN?5error?6?$AA@ 100680b4     libmmt:libm_error.omu
 0005:000000cc       ??_C@_04A@sqrt?$AA@        100680cc     libmmt:libm_error.omu
 0005:000000d4       ??_C@_0BF@A@?$ANsqrt?3?5DOMAIN?5error?6?$AA@ 100680d4     libmmt:libm_error.omu
 0005:000000ec       ??_C@_05A@sqrtf?$AA@       100680ec     libmmt:libm_error.omu
 0005:000000f4       ??_C@_0BG@A@?$ANsqrtf?3?5DOMAIN?5error?6?$AA@ 100680f4     libmmt:libm_error.omu
 0005:0000010c       ??_C@_04A@logl?$AA@        1006810c     libmmt:libm_error.omu
 0005:00000114       ??_C@_0BD@A@?$ANlogl?3?5SING?5error?6?$AA@ 10068114     libmmt:libm_error.omu
 0005:00000128       ??_C@_03A@log?$AA@         10068128     libmmt:libm_error.omu
 0005:0000012c       ??_C@_0BC@A@?$ANlog?3?5SING?5error?6?$AA@ 1006812c     libmmt:libm_error.omu
 0005:00000140       ??_C@_04A@logf?$AA@        10068140     libmmt:libm_error.omu
 0005:00000148       ??_C@_0BD@A@?$ANlogf?3?5SING?5error?6?$AA@ 10068148     libmmt:libm_error.omu
 0005:0000015c       ??_C@_0BF@A@?$ANlogl?3?5DOMAIN?5error?6?$AA@ 1006815c     libmmt:libm_error.omu
 0005:00000174       ??_C@_0BE@A@?$ANlog?3?5DOMAIN?5error?6?$AA@ 10068174     libmmt:libm_error.omu
 0005:00000188       ??_C@_0BF@A@?$ANlogf?3?5DOMAIN?5error?6?$AA@ 10068188     libmmt:libm_error.omu
 0005:000001a0       ??_C@_06A@log1pl?$AA@      100681a0     libmmt:libm_error.omu
 0005:000001a8       ??_C@_0BF@A@?$ANlog1pl?3?5SING?5error?6?$AA@ 100681a8     libmmt:libm_error.omu
 0005:000001c0       ??_C@_05A@log1p?$AA@       100681c0     libmmt:libm_error.omu
 0005:000001c8       ??_C@_0BE@A@?$ANlog1p?3?5SING?5error?6?$AA@ 100681c8     libmmt:libm_error.omu
 0005:000001dc       ??_C@_06A@log1pf?$AA@      100681dc     libmmt:libm_error.omu
 0005:000001e4       ??_C@_0BF@A@?$ANlog1pf?3?5SING?5error?6?$AA@ 100681e4     libmmt:libm_error.omu
 0005:000001fc       ??_C@_0BH@A@?$ANlog1pl?3?5DOMAIN?5error?6?$AA@ 100681fc     libmmt:libm_error.omu
 0005:00000214       ??_C@_0BG@A@?$ANlog1p?3?5DOMAIN?5error?6?$AA@ 10068214     libmmt:libm_error.omu
 0005:0000022c       ??_C@_0BH@A@?$ANlog1pf?3?5DOMAIN?5error?6?$AA@ 1006822c     libmmt:libm_error.omu
 0005:00000244       ??_C@_06A@log10l?$AA@      10068244     libmmt:libm_error.omu
 0005:0000024c       ??_C@_0BF@A@?$ANlog10l?3?5SING?5error?6?$AA@ 1006824c     libmmt:libm_error.omu
 0005:00000264       ??_C@_05A@log10?$AA@       10068264     libmmt:libm_error.omu
 0005:0000026c       ??_C@_0BE@A@?$ANlog10?3?5SING?5error?6?$AA@ 1006826c     libmmt:libm_error.omu
 0005:00000280       ??_C@_06A@log10f?$AA@      10068280     libmmt:libm_error.omu
 0005:00000288       ??_C@_0BF@A@?$ANlog10f?3?5SING?5error?6?$AA@ 10068288     libmmt:libm_error.omu
 0005:000002a0       ??_C@_0BH@A@?$ANlog10l?3?5DOMAIN?5error?6?$AA@ 100682a0     libmmt:libm_error.omu
 0005:000002b8       ??_C@_0BG@A@?$ANlog10?3?5DOMAIN?5error?6?$AA@ 100682b8     libmmt:libm_error.omu
 0005:000002d0       ??_C@_0BH@A@?$ANlog10f?3?5DOMAIN?5error?6?$AA@ 100682d0     libmmt:libm_error.omu
 0005:000002e8       ??_C@_05A@log2l?$AA@       100682e8     libmmt:libm_error.omu
 0005:000002f0       ??_C@_0BE@A@?$ANlog2l?3?5SING?5error?6?$AA@ 100682f0     libmmt:libm_error.omu
 0005:00000304       ??_C@_04A@log2?$AA@        10068304     libmmt:libm_error.omu
 0005:0000030c       ??_C@_0BD@A@?$ANlog2?3?5SING?5error?6?$AA@ 1006830c     libmmt:libm_error.omu
 0005:00000320       ??_C@_05A@log2f?$AA@       10068320     libmmt:libm_error.omu
 0005:00000328       ??_C@_0BE@A@?$ANlog2f?3?5SING?5error?6?$AA@ 10068328     libmmt:libm_error.omu
 0005:0000033c       ??_C@_0BG@A@?$ANlog2l?3?5DOMAIN?5error?6?$AA@ 1006833c     libmmt:libm_error.omu
 0005:00000354       ??_C@_0BF@A@?$ANlog2?3?5DOMAIN?5error?6?$AA@ 10068354     libmmt:libm_error.omu
 0005:0000036c       ??_C@_0BG@A@?$ANlog2f?3?5DOMAIN?5error?6?$AA@ 1006836c     libmmt:libm_error.omu
 0005:00000384       ??_C@_04A@expl?$AA@        10068384     libmmt:libm_error.omu
 0005:0000038c       ??_C@_03A@exp?$AA@         1006838c     libmmt:libm_error.omu
 0005:00000390       ??_C@_04A@expf?$AA@        10068390     libmmt:libm_error.omu
 0005:00000398       ??_C@_04A@powl?$AA@        10068398     libmmt:libm_error.omu
 0005:000003a0       ??_C@_0BK@A@?$ANpowl?$CI0?00?$CJ?3?5DOMAIN?5error?6?$AA@ 100683a0     libmmt:libm_error.omu
 0005:000003bc       ??_C@_03A@pow?$AA@         100683bc     libmmt:libm_error.omu
 0005:000003c0       ??_C@_0BJ@A@?$ANpow?$CI0?00?$CJ?3?5DOMAIN?5error?6?$AA@ 100683c0     libmmt:libm_error.omu
 0005:000003dc       ??_C@_04A@powf?$AA@        100683dc     libmmt:libm_error.omu
 0005:000003e4       ??_C@_0BK@A@?$ANpowf?$CI0?00?$CJ?3?5DOMAIN?5error?6?$AA@ 100683e4     libmmt:libm_error.omu
 0005:00000400       ??_C@_0CB@A@?$ANpowl?$CI0?0negative?$CJ?3?5DOMAIN?5error?6?$AA@ 10068400     libmmt:libm_error.omu
 0005:00000424       ??_C@_0CA@A@?$ANpow?$CI0?0negative?$CJ?3?5DOMAIN?5error?6?$AA@ 10068424     libmmt:libm_error.omu
 0005:00000444       ??_C@_0CB@A@?$ANpowf?$CI0?0negative?$CJ?3?5DOMAIN?5error?6?$AA@ 10068444     libmmt:libm_error.omu
 0005:00000468       ??_C@_0CL@A@?$ANpowl?$CInegative?0non?9integer?$CJ?3?5DOMAIN?5error?6?$AA@ 10068468     libmmt:libm_error.omu
 0005:00000494       ??_C@_0CK@A@?$ANpow?$CInegative?0non?9integer?$CJ?3?5DOMAIN?5error?6?$AA@ 10068494     libmmt:libm_error.omu
 0005:000004c0       ??_C@_0CL@A@?$ANpowf?$CInegative?0non?9integer?$CJ?3?5DOMAIN?5error?6?$AA@ 100684c0     libmmt:libm_error.omu
 0005:000004ec       ??_C@_06A@atan2l?$AA@      100684ec     libmmt:libm_error.omu
 0005:000004f4       ??_C@_0BH@A@?$ANatan2l?3?5DOMAIN?5error?6?$AA@ 100684f4     libmmt:libm_error.omu
 0005:0000050c       ??_C@_05A@atan2?$AA@       1006850c     libmmt:libm_error.omu
 0005:00000514       ??_C@_0BG@A@?$ANatan2?3?5DOMAIN?5error?6?$AA@ 10068514     libmmt:libm_error.omu
 0005:0000052c       ??_C@_06A@atan2f?$AA@      1006852c     libmmt:libm_error.omu
 0005:00000534       ??_C@_0BH@A@?$ANatan2f?3?5DOMAIN?5error?6?$AA@ 10068534     libmmt:libm_error.omu
 0005:0000054c       ??_C@_07A@atan2dl?$AA@     1006854c     libmmt:libm_error.omu
 0005:00000554       ??_C@_0BI@A@?$ANatan2dl?3?5DOMAIN?5error?6?$AA@ 10068554     libmmt:libm_error.omu
 0005:0000056c       ??_C@_06A@atan2d?$AA@      1006856c     libmmt:libm_error.omu
 0005:00000574       ??_C@_0BH@A@?$ANatan2d?3?5DOMAIN?5error?6?$AA@ 10068574     libmmt:libm_error.omu
 0005:0000058c       ??_C@_07A@atan2df?$AA@     1006858c     libmmt:libm_error.omu
 0005:00000594       ??_C@_0BI@A@?$ANatan2df?3?5DOMAIN?5error?6?$AA@ 10068594     libmmt:libm_error.omu
 0005:000005ac       ??_C@_06A@scalbl?$AA@      100685ac     libmmt:libm_error.omu
 0005:000005b4       ??_C@_05A@scalb?$AA@       100685b4     libmmt:libm_error.omu
 0005:000005bc       ??_C@_06A@scalbf?$AA@      100685bc     libmmt:libm_error.omu
 0005:000005c4       ??_C@_06A@hypotl?$AA@      100685c4     libmmt:libm_error.omu
 0005:000005cc       ??_C@_05A@hypot?$AA@       100685cc     libmmt:libm_error.omu
 0005:000005d4       ??_C@_06A@hypotf?$AA@      100685d4     libmmt:libm_error.omu
 0005:000005dc       ??_C@_05A@acosl?$AA@       100685dc     libmmt:libm_error.omu
 0005:000005e4       ??_C@_0BG@A@?$ANacosl?3?5DOMAIN?5error?6?$AA@ 100685e4     libmmt:libm_error.omu
 0005:000005fc       ??_C@_04A@acos?$AA@        100685fc     libmmt:libm_error.omu
 0005:00000604       ??_C@_0BF@A@?$ANacos?3?5DOMAIN?5error?6?$AA@ 10068604     libmmt:libm_error.omu
 0005:0000061c       ??_C@_05A@acosf?$AA@       1006861c     libmmt:libm_error.omu
 0005:00000624       ??_C@_0BG@A@?$ANacosf?3?5DOMAIN?5error?6?$AA@ 10068624     libmmt:libm_error.omu
 0005:0000063c       ??_C@_05A@asinl?$AA@       1006863c     libmmt:libm_error.omu
 0005:00000644       ??_C@_0BG@A@?$ANasinl?3?5DOMAIN?5error?6?$AA@ 10068644     libmmt:libm_error.omu
 0005:0000065c       ??_C@_04A@asin?$AA@        1006865c     libmmt:libm_error.omu
 0005:00000664       ??_C@_0BF@A@?$ANasin?3?5DOMAIN?5error?6?$AA@ 10068664     libmmt:libm_error.omu
 0005:0000067c       ??_C@_05A@asinf?$AA@       1006867c     libmmt:libm_error.omu
 0005:00000684       ??_C@_0BG@A@?$ANasinf?3?5DOMAIN?5error?6?$AA@ 10068684     libmmt:libm_error.omu
 0005:0000069c       ??_C@_06A@acosdl?$AA@      1006869c     libmmt:libm_error.omu
 0005:000006a4       ??_C@_0BH@A@?$ANacosdl?3?5DOMAIN?5error?6?$AA@ 100686a4     libmmt:libm_error.omu
 0005:000006bc       ??_C@_05A@acosd?$AA@       100686bc     libmmt:libm_error.omu
 0005:000006c4       ??_C@_0BG@A@?$ANacosd?3?5DOMAIN?5error?6?$AA@ 100686c4     libmmt:libm_error.omu
 0005:000006dc       ??_C@_06A@acosdf?$AA@      100686dc     libmmt:libm_error.omu
 0005:000006e4       ??_C@_0BH@A@?$ANacosdf?3?5DOMAIN?5error?6?$AA@ 100686e4     libmmt:libm_error.omu
 0005:000006fc       ??_C@_06A@asindl?$AA@      100686fc     libmmt:libm_error.omu
 0005:00000704       ??_C@_0BH@A@?$ANasindl?3?5DOMAIN?5error?6?$AA@ 10068704     libmmt:libm_error.omu
 0005:0000071c       ??_C@_05A@asind?$AA@       1006871c     libmmt:libm_error.omu
 0005:00000724       ??_C@_0BG@A@?$ANasind?3?5DOMAIN?5error?6?$AA@ 10068724     libmmt:libm_error.omu
 0005:0000073c       ??_C@_06A@asindf?$AA@      1006873c     libmmt:libm_error.omu
 0005:00000744       ??_C@_0BH@A@?$ANasindf?3?5DOMAIN?5error?6?$AA@ 10068744     libmmt:libm_error.omu
 0005:0000075c       ??_C@_05A@coshl?$AA@       1006875c     libmmt:libm_error.omu
 0005:00000764       ??_C@_04A@cosh?$AA@        10068764     libmmt:libm_error.omu
 0005:0000076c       ??_C@_05A@coshf?$AA@       1006876c     libmmt:libm_error.omu
 0005:00000774       ??_C@_05A@sinhl?$AA@       10068774     libmmt:libm_error.omu
 0005:0000077c       ??_C@_04A@sinh?$AA@        1006877c     libmmt:libm_error.omu
 0005:00000784       ??_C@_05A@sinhf?$AA@       10068784     libmmt:libm_error.omu
 0005:0000078c       ??_C@_06A@acoshl?$AA@      1006878c     libmmt:libm_error.omu
 0005:00000794       ??_C@_0BH@A@?$ANacoshl?3?5DOMAIN?5error?6?$AA@ 10068794     libmmt:libm_error.omu
 0005:000007ac       ??_C@_05A@acosh?$AA@       100687ac     libmmt:libm_error.omu
 0005:000007b4       ??_C@_0BG@A@?$ANacosh?3?5DOMAIN?5error?6?$AA@ 100687b4     libmmt:libm_error.omu
 0005:000007cc       ??_C@_06A@acoshf?$AA@      100687cc     libmmt:libm_error.omu
 0005:000007d4       ??_C@_0BH@A@?$ANacoshf?3?5DOMAIN?5error?6?$AA@ 100687d4     libmmt:libm_error.omu
 0005:000007ec       ??_C@_06A@atanhl?$AA@      100687ec     libmmt:libm_error.omu
 0005:000007f4       ??_C@_0BH@A@?$ANatanhl?3?5DOMAIN?5error?6?$AA@ 100687f4     libmmt:libm_error.omu
 0005:0000080c       ??_C@_05A@atanh?$AA@       1006880c     libmmt:libm_error.omu
 0005:00000814       ??_C@_0BG@A@?$ANatanh?3?5DOMAIN?5error?6?$AA@ 10068814     libmmt:libm_error.omu
 0005:0000082c       ??_C@_06A@atanhf?$AA@      1006882c     libmmt:libm_error.omu
 0005:00000834       ??_C@_0BH@A@?$ANatanhf?3?5DOMAIN?5error?6?$AA@ 10068834     libmmt:libm_error.omu
 0005:0000084c       ??_C@_0BF@A@?$ANatanhl?3?5SING?5error?6?$AA@ 1006884c     libmmt:libm_error.omu
 0005:00000864       ??_C@_0BE@A@?$ANatanh?3?5SING?5error?6?$AA@ 10068864     libmmt:libm_error.omu
 0005:00000878       ??_C@_0BF@A@?$ANatanhf?3?5SING?5error?6?$AA@ 10068878     libmmt:libm_error.omu
 0005:00000890       ??_C@_06A@gammal?$AA@      10068890     libmmt:libm_error.omu
 0005:00000898       ??_C@_05A@gamma?$AA@       10068898     libmmt:libm_error.omu
 0005:000008a0       ??_C@_06A@gammaf?$AA@      100688a0     libmmt:libm_error.omu
 0005:000008a8       ??_C@_0BF@A@?$ANgammal?3?5SING?5error?6?$AA@ 100688a8     libmmt:libm_error.omu
 0005:000008c0       ??_C@_0BE@A@?$ANgamma?3?5SING?5error?6?$AA@ 100688c0     libmmt:libm_error.omu
 0005:000008d4       ??_C@_0BF@A@?$ANgammaf?3?5SING?5error?6?$AA@ 100688d4     libmmt:libm_error.omu
 0005:000008ec       ??_C@_07A@lgammal?$AA@     100688ec     libmmt:libm_error.omu
 0005:000008f4       ??_C@_06A@lgamma?$AA@      100688f4     libmmt:libm_error.omu
 0005:000008fc       ??_C@_07A@lgammaf?$AA@     100688fc     libmmt:libm_error.omu
 0005:00000904       ??_C@_0BG@A@?$ANlgammal?3?5SING?5error?6?$AA@ 10068904     libmmt:libm_error.omu
 0005:0000091c       ??_C@_0BF@A@?$ANlgamma?3?5SING?5error?6?$AA@ 1006891c     libmmt:libm_error.omu
 0005:00000934       ??_C@_0BG@A@?$ANlgammaf?3?5SING?5error?6?$AA@ 10068934     libmmt:libm_error.omu
 0005:0000094c       ??_C@_07A@tgammal?$AA@     1006894c     libmmt:libm_error.omu
 0005:00000954       ??_C@_06A@tgamma?$AA@      10068954     libmmt:libm_error.omu
 0005:0000095c       ??_C@_07A@tgammaf?$AA@     1006895c     libmmt:libm_error.omu
 0005:00000964       ??_C@_0BI@A@?$ANtgammal?3?5DOMAIN?5error?6?$AA@ 10068964     libmmt:libm_error.omu
 0005:0000097c       ??_C@_0BH@A@?$ANtgamma?3?5DOMAIN?5error?6?$AA@ 1006897c     libmmt:libm_error.omu
 0005:00000994       ??_C@_0BI@A@?$ANtgammaf?3?5DOMAIN?5error?6?$AA@ 10068994     libmmt:libm_error.omu
 0005:000009ac       ??_C@_03A@j0l?$AA@         100689ac     libmmt:libm_error.omu
 0005:000009b0       ??_C@_0BD@A@?$ANj0l?3?5TLOSS?5error?6?$AA@ 100689b0     libmmt:libm_error.omu
 0005:000009c4       ??_C@_02A@j0?$AA@          100689c4     libmmt:libm_error.omu
 0005:000009c8       ??_C@_0BC@A@?$ANj0?3?5TLOSS?5error?6?$AA@ 100689c8     libmmt:libm_error.omu
 0005:000009dc       ??_C@_03A@j0f?$AA@         100689dc     libmmt:libm_error.omu
 0005:000009e0       ??_C@_0BD@A@?$ANj0f?3?5TLOSS?5error?6?$AA@ 100689e0     libmmt:libm_error.omu
 0005:000009f4       ??_C@_03A@j1l?$AA@         100689f4     libmmt:libm_error.omu
 0005:000009f8       ??_C@_0BD@A@?$ANj1l?3?5TLOSS?5error?6?$AA@ 100689f8     libmmt:libm_error.omu
 0005:00000a0c       ??_C@_02A@j1?$AA@          10068a0c     libmmt:libm_error.omu
 0005:00000a10       ??_C@_0BC@A@?$ANj1?3?5TLOSS?5error?6?$AA@ 10068a10     libmmt:libm_error.omu
 0005:00000a24       ??_C@_03A@j1f?$AA@         10068a24     libmmt:libm_error.omu
 0005:00000a28       ??_C@_0BD@A@?$ANj1f?3?5TLOSS?5error?6?$AA@ 10068a28     libmmt:libm_error.omu
 0005:00000a3c       ??_C@_03A@jnl?$AA@         10068a3c     libmmt:libm_error.omu
 0005:00000a40       ??_C@_0BD@A@?$ANjnl?3?5TLOSS?5error?6?$AA@ 10068a40     libmmt:libm_error.omu
 0005:00000a54       ??_C@_02A@jn?$AA@          10068a54     libmmt:libm_error.omu
 0005:00000a58       ??_C@_0BC@A@?$ANjn?3?5TLOSS?5error?6?$AA@ 10068a58     libmmt:libm_error.omu
 0005:00000a6c       ??_C@_03A@jnf?$AA@         10068a6c     libmmt:libm_error.omu
 0005:00000a70       ??_C@_0BD@A@?$ANjnf?3?5TLOSS?5error?6?$AA@ 10068a70     libmmt:libm_error.omu
 0005:00000a84       ??_C@_03A@y0l?$AA@         10068a84     libmmt:libm_error.omu
 0005:00000a88       ??_C@_0BD@A@?$ANy0l?3?5TLOSS?5error?6?$AA@ 10068a88     libmmt:libm_error.omu
 0005:00000a9c       ??_C@_02A@y0?$AA@          10068a9c     libmmt:libm_error.omu
 0005:00000aa0       ??_C@_0BC@A@?$ANy0?3?5TLOSS?5error?6?$AA@ 10068aa0     libmmt:libm_error.omu
 0005:00000ab4       ??_C@_03A@y0f?$AA@         10068ab4     libmmt:libm_error.omu
 0005:00000ab8       ??_C@_0BD@A@?$ANy0f?3?5TLOSS?5error?6?$AA@ 10068ab8     libmmt:libm_error.omu
 0005:00000acc       ??_C@_0BE@A@?$ANy0l?3?5DOMAIN?5error?6?$AA@ 10068acc     libmmt:libm_error.omu
 0005:00000ae0       ??_C@_0BD@A@?$ANy0?3?5DOMAIN?5error?6?$AA@ 10068ae0     libmmt:libm_error.omu
 0005:00000af4       ??_C@_0BE@A@?$ANy0f?3?5DOMAIN?5error?6?$AA@ 10068af4     libmmt:libm_error.omu
 0005:00000b08       ??_C@_03A@y1l?$AA@         10068b08     libmmt:libm_error.omu
 0005:00000b0c       ??_C@_0BD@A@?$ANy1l?3?5TLOSS?5error?6?$AA@ 10068b0c     libmmt:libm_error.omu
 0005:00000b20       ??_C@_02A@y1?$AA@          10068b20     libmmt:libm_error.omu
 0005:00000b24       ??_C@_0BC@A@?$ANy1?3?5TLOSS?5error?6?$AA@ 10068b24     libmmt:libm_error.omu
 0005:00000b38       ??_C@_03A@y1f?$AA@         10068b38     libmmt:libm_error.omu
 0005:00000b3c       ??_C@_0BD@A@?$ANy1f?3?5TLOSS?5error?6?$AA@ 10068b3c     libmmt:libm_error.omu
 0005:00000b50       ??_C@_0BE@A@?$ANy1l?3?5DOMAIN?5error?6?$AA@ 10068b50     libmmt:libm_error.omu
 0005:00000b64       ??_C@_0BD@A@?$ANy1?3?5DOMAIN?5error?6?$AA@ 10068b64     libmmt:libm_error.omu
 0005:00000b78       ??_C@_0BE@A@?$ANy1f?3?5DOMAIN?5error?6?$AA@ 10068b78     libmmt:libm_error.omu
 0005:00000b8c       ??_C@_03A@ynl?$AA@         10068b8c     libmmt:libm_error.omu
 0005:00000b90       ??_C@_0BD@A@?$ANynl?3?5TLOSS?5error?6?$AA@ 10068b90     libmmt:libm_error.omu
 0005:00000ba4       ??_C@_02A@yn?$AA@          10068ba4     libmmt:libm_error.omu
 0005:00000ba8       ??_C@_0BC@A@?$ANyn?3?5TLOSS?5error?6?$AA@ 10068ba8     libmmt:libm_error.omu
 0005:00000bbc       ??_C@_03A@ynf?$AA@         10068bbc     libmmt:libm_error.omu
 0005:00000bc0       ??_C@_0BD@A@?$ANynf?3?5TLOSS?5error?6?$AA@ 10068bc0     libmmt:libm_error.omu
 0005:00000bd4       ??_C@_0BE@A@?$ANynl?3?5DOMAIN?5error?6?$AA@ 10068bd4     libmmt:libm_error.omu
 0005:00000be8       ??_C@_0BD@A@?$ANyn?3?5DOMAIN?5error?6?$AA@ 10068be8     libmmt:libm_error.omu
 0005:00000bfc       ??_C@_0BE@A@?$ANynf?3?5DOMAIN?5error?6?$AA@ 10068bfc     libmmt:libm_error.omu
 0005:00000c10       ??_C@_05A@fmodl?$AA@       10068c10     libmmt:libm_error.omu
 0005:00000c18       ??_C@_0BG@A@?$ANfmodl?3?5DOMAIN?5error?6?$AA@ 10068c18     libmmt:libm_error.omu
 0005:00000c30       ??_C@_04A@fmod?$AA@        10068c30     libmmt:libm_error.omu
 0005:00000c38       ??_C@_0BF@A@?$ANfmod?3?5DOMAIN?5error?6?$AA@ 10068c38     libmmt:libm_error.omu
 0005:00000c50       ??_C@_05A@fmodf?$AA@       10068c50     libmmt:libm_error.omu
 0005:00000c58       ??_C@_0BG@A@?$ANfmodf?3?5DOMAIN?5error?6?$AA@ 10068c58     libmmt:libm_error.omu
 0005:00000c70       ??_C@_0L@A@remainderl?$AA@ 10068c70     libmmt:libm_error.omu
 0005:00000c7c       ??_C@_0BL@A@?$ANremainderl?3?5DOMAIN?5error?6?$AA@ 10068c7c     libmmt:libm_error.omu
 0005:00000c98       ??_C@_09A@remainder?$AA@   10068c98     libmmt:libm_error.omu
 0005:00000ca4       ??_C@_0BK@A@?$ANremainder?3?5DOMAIN?5error?6?$AA@ 10068ca4     libmmt:libm_error.omu
 0005:00000cc0       ??_C@_0L@A@remainderf?$AA@ 10068cc0     libmmt:libm_error.omu
 0005:00000ccc       ??_C@_0BL@A@?$ANremainderf?3?5DOMAIN?5error?6?$AA@ 10068ccc     libmmt:libm_error.omu
 0005:00000d00       ??_C@_1NG@A@?$CF?$AAl?$AAs?$AA?6?$AA?6?$AAF?$AAi?$AAl?$AAe?$AA?3?$AA?7?$AA?7?$AA?$CF?$AAl?$AAs?$AA?6?$AAL?$AAi?$AAn?$AAe?$AA?3?$AA?7?$AA?7?$AA?$CF?$AAd?$AA?6?$AAE?$AAx?$AAp?$AAr?$AAe?$AAs?$AAs?$AAi?$AAo?$AAn?$AA?3?$AA?7?$AA?$CF?$AAl?$AAs?$AA?6?$AA?6?$AAA?$AAb?$AAo?$AAr?$AAt?$AA?5?$AA?$DN?$AA?5?$AAS?$AAt?$AAo?$AAp?$AA?5?$AAD?$AAe?$AAb?$AAu?$AAg?$AAg?$AAi?$AAn?$AAg?$AA?6?$AAR?$AAe?$AAt?$AAr?$AAy?$AA?5?$AA?$DN?$AA?5?$AAD?$AAe?$AAb?$AAu?$AAg?$AA?6?$AAI?$AAg?$AAn?$AAo?$AAr?$AAe?$AA?5?$AA?$DN?$AA?5?$AAC?$AAo?$AAn?$AAt?$AAi?$AAn?$AAu?$AAe?$AA?5?$AAR?$AAu?$AAn?$AAn?$AAi?$AAn?$AAg?$AA?6?$AA?$AA?$AA@ 10068d00     Platform:IFXOSUtilities.obj
 0005:00000de0       ??_C@_1CE@A@A?$AAs?$AAs?$AAe?$AAr?$AAt?$AAi?$AAo?$AAn?$AA?5?$AAF?$AAa?$AAi?$AAl?$AAe?$AAd?$AA?$CB?$AA?$AA?$AA@ 10068de0     Platform:IFXOSUtilities.obj
 0005:00000e20       ??_C@_1FO@A@I?$AAg?$AAn?$AAo?$AAr?$AAe?$AA?5?$AAa?$AAl?$AAl?$AA?5?$AAf?$AAu?$AAt?$AAu?$AAr?$AAe?$AA?5?$AAi?$AAn?$AAs?$AAt?$AAa?$AAn?$AAc?$AAe?$AAs?$AA?5?$AAo?$AAf?$AA?5?$AAt?$AAh?$AAi?$AAs?$AA?5?$AAa?$AAs?$AAs?$AAe?$AAr?$AAt?$AAi?$AAo?$AAn?$AA?$DP?$AA?$AA?$AA@ 10068e20     Platform:IFXOSUtilities.obj
 0005:00000e80       ??_C@_1BE@A@I?$AAF?$AAX?$AAA?$AAS?$AAS?$AAE?$AAR?$AAT?$AA?$AA?$AA@ 10068e80     Platform:IFXOSUtilities.obj
 0005:00000e94       ??_C@_07A@English?$AA@     10068e94     Platform:IFXOSUtilities.obj
 0005:00000e9c       ??_C@_1BI@A@I?$AAF?$AAX?$AAC?$AAo?$AAr?$AAe?$AA?4?$AAd?$AAl?$AAl?$AA?$AA?$AA@ 10068e9c     Platform:IFXOSLoader.obj
 0005:00000eb4       ??_C@_1BC@A@O?$AAP?$AAE?$AAN?$AAG?$AAL?$AA3?$AA2?$AA?$AA?$AA@ 10068eb4     Platform:IFXOSLoader.obj
 0006:00000154       ??_7IFXUnknown@@6B@        10069154     Importing:CIFXAuthorCLODDecoder.obj
 0006:00000164       ??_7IFXException@@6B@      10069164     Importing:CIFXAuthorCLODDecoder.obj
 0006:0000016c       ??_7IFXDecoderX@@6B0@@     1006916c     Importing:CIFXAuthorCLODDecoder.obj
 0006:0000017c       ??_7IFXDecoderX@@6BIFXUnknown@@@ 1006917c     Importing:CIFXAuthorCLODDecoder.obj
 0006:0000018c       ??_7CIFXAuthorCLODDecoder@@6BIFXUnknown@@@ 1006918c     Importing:CIFXAuthorCLODDecoder.obj
 0006:0000019c       ??_7CIFXAuthorCLODDecoder@@6BIFXDecoderX@@@ 1006919c     Importing:CIFXAuthorCLODDecoder.obj
 0006:000001ac       ??_7CIFXAuthorCLODDecoder@@6BIFXModifierBaseDecoder@@@ 100691ac     Importing:CIFXAuthorCLODDecoder.obj
 0006:000001b4       ??_7CIFXGroupDecoder@@6BIFXUnknown@@@ 100691b4     Importing:CIFXGroupDecoder.obj
 0006:000001c4       ??_7CIFXGroupDecoder@@6BIFXDecoderX@@@ 100691c4     Importing:CIFXGroupDecoder.obj
 0006:000001d4       ??_7CIFXGroupDecoder@@6BCIFXNodeBaseDecoder@@@ 100691d4     Importing:CIFXGroupDecoder.obj
 0006:000001dc       ??_7CIFXLightDecoder@@6BIFXUnknown@@@ 100691dc     Importing:CIFXLightDecoder.obj
 0006:000001ec       ??_7CIFXLightDecoder@@6BIFXDecoderX@@@ 100691ec     Importing:CIFXLightDecoder.obj
 0006:000001fc       ??_7CIFXLightDecoder@@6BCIFXNodeBaseDecoder@@@ 100691fc     Importing:CIFXLightDecoder.obj
 0006:00000204       ??_7CIFXLightResourceDecoder@@6BIFXUnknown@@@ 10069204     Importing:CIFXLightResourceDecoder.obj
 0006:00000214       ??_7CIFXLightResourceDecoder@@6BIFXDecoderX@@@ 10069214     Importing:CIFXLightResourceDecoder.obj
 0006:00000224       ??_7CIFXLightResourceDecoder@@6BCIFXNodeBaseDecoder@@@ 10069224     Importing:CIFXLightResourceDecoder.obj
 0006:0000022c       ??_7CIFXViewResourceDecoder@@6BIFXUnknown@@@ 1006922c     Importing:CIFXViewResourceDecoder.obj
 0006:0000023c       ??_7CIFXViewResourceDecoder@@6BIFXDecoderX@@@ 1006923c     Importing:CIFXViewResourceDecoder.obj
 0006:0000024c       ??_7CIFXViewResourceDecoder@@6BCIFXNodeBaseDecoder@@@ 1006924c     Importing:CIFXViewResourceDecoder.obj
 0006:00000254       ??_7CIFXMaterialDecoder@@6B0@@ 10069254     Importing:CIFXMaterialDecoder.obj
 0006:0000025c       ??_7CIFXMaterialDecoder@@6BIFXUnknown@@@ 1006925c     Importing:CIFXMaterialDecoder.obj
 0006:0000026c       ??_7CIFXMaterialDecoder@@6BIFXDecoderX@@@ 1006926c     Importing:CIFXMaterialDecoder.obj
 0006:0000027c       ??_7CIFXModelDecoder@@6BIFXUnknown@@@ 1006927c     Importing:CIFXModelDecoder.obj
 0006:0000028c       ??_7CIFXModelDecoder@@6BIFXDecoderX@@@ 1006928c     Importing:CIFXModelDecoder.obj
 0006:0000029c       ??_7CIFXModelDecoder@@6BCIFXNodeBaseDecoder@@@ 1006929c     Importing:CIFXModelDecoder.obj
 0006:000002a4       ??_7CIFXAnimationModifierDecoder@@6BIFXUnknown@@@ 100692a4     Importing:CIFXAnimationModifierDecoder.obj
 0006:000002b4       ??_7CIFXAnimationModifierDecoder@@6BIFXDecoderX@@@ 100692b4     Importing:CIFXAnimationModifierDecoder.obj
 0006:000002c4       ??_7CIFXAnimationModifierDecoder@@6BIFXModifierBaseDecoder@@@ 100692c4     Importing:CIFXAnimationModifierDecoder.obj
 0006:000002cc       ??_7CIFXMotionDecoder@@6B0@@ 100692cc     Importing:CIFXMotionDecoder.obj
 0006:000002d4       ??_7CIFXMotionDecoder@@6BIFXUnknown@@@ 100692d4     Importing:CIFXMotionDecoder.obj
 0006:000002e4       ??_7CIFXMotionDecoder@@6BIFXDecoderX@@@ 100692e4     Importing:CIFXMotionDecoder.obj
 0006:000002f4       ??_7CIFXGlyphGeneratorDecoder@@6BIFXUnknown@@@ 100692f4     Importing:CIFXGlyphModifierDecoder.obj
 0006:00000304       ??_7CIFXGlyphGeneratorDecoder@@6BIFXDecoderX@@@ 10069304     Importing:CIFXGlyphModifierDecoder.obj
 0006:00000314       ??_7CIFXGlyphGeneratorDecoder@@6BIFXModifierBaseDecoder@@@ 10069314     Importing:CIFXGlyphModifierDecoder.obj
 0006:0000031c       ??_7CIFXShaderLitTextureDecoder@@6B0@@ 1006931c     Importing:CIFXShaderLitTextureDecoder.obj
 0006:00000324       ??_7CIFXShaderLitTextureDecoder@@6BIFXUnknown@@@ 10069324     Importing:CIFXShaderLitTextureDecoder.obj
 0006:00000334       ??_7CIFXShaderLitTextureDecoder@@6BIFXDecoderX@@@ 10069334     Importing:CIFXShaderLitTextureDecoder.obj
 0006:00000344       ??_7CIFXTextureDecoder@@6B0@@ 10069344     Importing:CIFXTextureDecoder.obj
 0006:0000034c       ??_7CIFXTextureDecoder@@6BIFXUnknown@@@ 1006934c     Importing:CIFXTextureDecoder.obj
 0006:0000035c       ??_7CIFXTextureDecoder@@6BIFXDecoderX@@@ 1006935c     Importing:CIFXTextureDecoder.obj
 0006:0000036c       ??_7CIFXSubdivisionModifierDecoder@@6BIFXUnknown@@@ 1006936c     Importing:CIFXSubdivisionModifierDecoder.obj
 0006:0000037c       ??_7CIFXSubdivisionModifierDecoder@@6BIFXDecoderX@@@ 1006937c     Importing:CIFXSubdivisionModifierDecoder.obj
 0006:0000038c       ??_7CIFXSubdivisionModifierDecoder@@6BIFXModifierBaseDecoder@@@ 1006938c     Importing:CIFXSubdivisionModifierDecoder.obj
 0006:00000394       ??_7CIFXShadingModifierDecoder@@6BIFXUnknown@@@ 10069394     Importing:CIFXShadingModifierDecoder.obj
 0006:000003a4       ??_7CIFXShadingModifierDecoder@@6BIFXDecoderX@@@ 100693a4     Importing:CIFXShadingModifierDecoder.obj
 0006:000003b4       ??_7CIFXShadingModifierDecoder@@6BIFXModifierBaseDecoder@@@ 100693b4     Importing:CIFXShadingModifierDecoder.obj
 0006:000003bc       ??_7CIFXDecoderChainX@@6B@ 100693bc     Importing:CIFXDecoderChainX.obj
 0006:000003e4       ??_7IFXViewLayer@@6B@      100693e4     Importing:CIFXViewDecoder.obj
 0006:000003ec       ??_7CIFXViewDecoder@@6BIFXUnknown@@@ 100693ec     Importing:CIFXViewDecoder.obj
 0006:000003fc       ??_7CIFXViewDecoder@@6BIFXDecoderX@@@ 100693fc     Importing:CIFXViewDecoder.obj
 0006:0000040c       ??_7CIFXViewDecoder@@6BCIFXNodeBaseDecoder@@@ 1006940c     Importing:CIFXViewDecoder.obj
 0006:00000414       ??_7CIFXBlockReaderX@@6B@  10069414     Importing:CIFXBlockReaderX.obj
 0006:0000047c       ??_7IFXBTTHash@@6B@        1006947c     Importing:CIFXBTTHash.obj
 0006:000004a0       ??_7CIFXBTTHash@@6B0@@     100694a0     Importing:CIFXBTTHash.obj
 0006:000004a8       ??_7CIFXBTTHash@@6BIFXUnknown@@@ 100694a8     Importing:CIFXBTTHash.obj
 0006:00000994       ??_7IFXCoreArray@@6B@      10069994     Importing:CIFXLoadManager.obj
 0006:000009c4       ??_7IFXLoadManager@@6B0@@  100699c4     Importing:CIFXLoadManager.obj
 0006:00000a24       ??_7IFXLoadManager@@6BIFXUnknown@@@ 10069a24     Importing:CIFXLoadManager.obj
 0006:00000a84       ??_7IFXTask@@6B0@@         10069a84     Importing:CIFXLoadManager.obj
 0006:00000a8c       ??_7IFXTask@@6BIFXUnknown@@@ 10069a8c     Importing:CIFXLoadManager.obj
 0006:00000aa4       ??_7CIFXLoadManager@@6BIFXUnknown@@@ 10069aa4     Importing:CIFXLoadManager.obj
 0006:00000b04       ??_7CIFXLoadManager@@6BIFXLoadManager@@@ 10069b04     Importing:CIFXLoadManager.obj
 0006:00000b64       ??_7CIFXLoadManager@@6BIFXTask@@@ 10069b64     Importing:CIFXLoadManager.obj
 0006:00000bc4       ??_7?$IFXArray@VIFXExternalDecoderCont@CIFXLoadManager@@@@6B@ 10069bc4     Importing:CIFXLoadManager.obj
 0006:00000bf0       ??_7?$IFXArray@UIFXObjectFilter@@@@6B@ 10069bf0     Importing:CIFXLoadManager.obj
 0006:00000c1c       ??_7?$IFXArray@PAVIFXLoadManager@@@@6B@ 10069c1c     Importing:CIFXLoadManager.obj
 0006:00000c48       ??_7?$IFXArray@VIFXString@@@@6B@ 10069c48     Importing:CIFXLoadManager.obj
 0006:00000c74       ??_7IFXReadBuffer@@6B0@@   10069c74     Importing:CIFXStdioReadBufferX.obj
 0006:00000c84       ??_7IFXReadBuffer@@6BIFXUnknown@@@ 10069c84     Importing:CIFXStdioReadBufferX.obj
 0006:00000c94       ??_7IFXReadBufferX@@6B0@@  10069c94     Importing:CIFXStdioReadBufferX.obj
 0006:00000ca4       ??_7IFXReadBufferX@@6BIFXUnknown@@@ 10069ca4     Importing:CIFXStdioReadBufferX.obj
 0006:00000cb4       ??_7IFXStdio@@6B0@@        10069cb4     Importing:CIFXStdioReadBufferX.obj
 0006:00000cc0       ??_7IFXStdio@@6BIFXUnknown@@@ 10069cc0     Importing:CIFXStdioReadBufferX.obj
 0006:00000cd0       ??_7CIFXStdioReadBufferX@@6BIFXUnknown@@@ 10069cd0     Importing:CIFXStdioReadBufferX.obj
 0006:00000ce4       ??_7CIFXStdioReadBufferX@@6BIFXReadBuffer@@@ 10069ce4     Importing:CIFXStdioReadBufferX.obj
 0006:00000cf8       ??_7CIFXStdioReadBufferX@@6BIFXReadBufferX@@@ 10069cf8     Importing:CIFXStdioReadBufferX.obj
 0006:00000d0c       ??_7CIFXStdioReadBufferX@@6BIFXStdio@@@ 10069d0c     Importing:CIFXStdioReadBufferX.obj
 0006:00000d20       ??_7IFXInet@@6B0@@         10069d20     Importing:CIFXInternetReadBufferX.obj
 0006:00000d40       ??_7IFXInet@@6BIFXUnknown@@@ 10069d40     Importing:CIFXInternetReadBufferX.obj
 0006:00000d60       ??_7CIFXInternetReadBufferX@@6BIFXUnknown@@@ 10069d60     Importing:CIFXInternetReadBufferX.obj
 0006:00000d74       ??_7CIFXInternetReadBufferX@@6BIFXReadBuffer@@@ 10069d74     Importing:CIFXInternetReadBufferX.obj
 0006:00000d88       ??_7CIFXInternetReadBufferX@@6BIFXReadBufferX@@@ 10069d88     Importing:CIFXInternetReadBufferX.obj
 0006:00000d9c       ??_7CIFXInternetReadBufferX@@6BIFXStdio@@@ 10069d9c     Importing:CIFXInternetReadBufferX.obj
 0006:00000db0       ??_7CIFXInternetReadBufferX@@6BIFXInet@@@ 10069db0     Importing:CIFXInternetReadBufferX.obj
 0006:00000dd0       ??_7CIFXInternetReadBufferX@@6BIFXTask@@@ 10069dd0     Importing:CIFXInternetReadBufferX.obj
 0006:00000de4       ??_7CIFXPointSetDecoder@@6BIFXUnknown@@@ 10069de4     Importing:CIFXPointSetDecoder.obj
 0006:00000df4       ??_7CIFXPointSetDecoder@@6BIFXDecoderX@@@ 10069df4     Importing:CIFXPointSetDecoder.obj
 0006:00000e04       ??_7CIFXPointSetDecoder@@6BIFXModifierBaseDecoder@@@ 10069e04     Importing:CIFXPointSetDecoder.obj
 0006:00000e8c       ??_7CIFXLineSetDecoder@@6BIFXUnknown@@@ 10069e8c     Importing:CIFXLineSetDecoder.obj
 0006:00000e9c       ??_7CIFXLineSetDecoder@@6BIFXDecoderX@@@ 10069e9c     Importing:CIFXLineSetDecoder.obj
 0006:00000eac       ??_7CIFXLineSetDecoder@@6BIFXModifierBaseDecoder@@@ 10069eac     Importing:CIFXLineSetDecoder.obj
 0006:00000eb4       ??_7?$IFXArray@I@@6B@      10069eb4     Importing:CIFXLineSetDecoder.obj
 0006:00000ee0       ??_7CIFXBoneWeightsModifierDecoder@@6BIFXUnknown@@@ 10069ee0     Importing:CIFXBoneWeightsModifierDecoder.obj
 0006:00000ef0       ??_7CIFXBoneWeightsModifierDecoder@@6BIFXDecoderX@@@ 10069ef0     Importing:CIFXBoneWeightsModifierDecoder.obj
 0006:00000f00       ??_7CIFXBoneWeightsModifierDecoder@@6BIFXModifierBaseDecoder@@@ 10069f00     Importing:CIFXBoneWeightsModifierDecoder.obj
 0006:00000f08       ??_7CIFXCLODModifierDecoder@@6BIFXUnknown@@@ 10069f08     Importing:CIFXCLODModifierDecoder.obj
 0006:00000f18       ??_7CIFXCLODModifierDecoder@@6BIFXDecoderX@@@ 10069f18     Importing:CIFXCLODModifierDecoder.obj
 0006:00000f28       ??_7CIFXCLODModifierDecoder@@6BIFXModifierBaseDecoder@@@ 10069f28     Importing:CIFXCLODModifierDecoder.obj
 0006:00000f30       ??_7CIFXDummyModifierDecoder@@6BIFXUnknown@@@ 10069f30     Importing:CIFXDummyModifierDecoder.obj
 0006:00000f40       ??_7CIFXDummyModifierDecoder@@6BIFXDecoderX@@@ 10069f40     Importing:CIFXDummyModifierDecoder.obj
 0006:00000f50       ??_7CIFXDummyModifierDecoder@@6BIFXModifierBaseDecoder@@@ 10069f50     Importing:CIFXDummyModifierDecoder.obj
 0006:00000f58       ??_7IFXModifierBaseDecoder@@6B@ 10069f58     Importing:IFXModifierBaseDecoder.obj
 0006:00000f60       ??_7IFXString@@6B@         10069f60     Importing:IFXString.obj
 0006:00000fac       ??_7CIFXNodeBaseDecoder@@6B@ 10069fac     Importing:CIFXNodeDecoder.obj
 0006:00000fb4       ??_7IFXInternetConnectionX@@6B@ 10069fb4     Importing:IFXInternetConnectionX.obj
 0006:00000fcc       ??_7IFXHTTPConnectionX@@6B@ 10069fcc     Importing:IFXInternetConnectionX.obj
 0006:00000fe4       ??_7IFXFTPConnectionX@@6B@ 10069fe4     Importing:IFXInternetConnectionX.obj

 entry point at        0001:0003ef19

 Static symbols

 0001:00011cc2       ___sti__$E                 10012cc2 f   Importing:CIFXBTTHash.obj
 0001:000124b8       __$U0                      100134b8 f   Importing:CIFXBTTHash.obj
 0001:000183a0       B101.EH                    100193a0 f   Importing:CIFXLoadManager.obj
 0001:00018484       B103.EH                    10019484 f   Importing:CIFXLoadManager.obj
 0001:000185f0       B104.EH                    100195f0 f   Importing:CIFXLoadManager.obj
 0001:0001875c       B105.EH                    1001975c f   Importing:CIFXLoadManager.obj
 0001:000187da       B106.EH                    100197da f   Importing:CIFXLoadManager.obj
 0001:00018858       B107.EH                    10019858 f   Importing:CIFXLoadManager.obj
 0001:0001890c       B109.EH                    1001990c f   Importing:CIFXLoadManager.obj
 0001:00019bdc       B29.EH                     1001abdc f i Importing:CIFXLoadManager.obj
 0001:0001b8dc       B17.EH                     1001c8dc f   Importing:CIFXInternetReadBufferX.obj
 0001:0001b992       B18.EH                     1001c992 f   Importing:CIFXInternetReadBufferX.obj
 0001:0001ba48       B19.EH                     1001ca48 f   Importing:CIFXInternetReadBufferX.obj
 0001:0001bbdc       B23.EH                     1001cbdc f   Importing:CIFXInternetReadBufferX.obj
 0001:00032ef6       B6.EH                      10033ef6 f   Importing:IFXInternetSessionX.obj
 0001:0003310e       B7.EH                      1003410e f   Importing:IFXInternetSessionX.obj
 0001:00034d14       ___sti__$E                 10035d14 f   Importing:IFXInternetConnectionX.obj
 0001:000352d4       B27.EH                     100362d4 f   Importing:IFXInternetConnectionX.obj
 0001:0003f088       $$$00001                   10040088 f   LIBCMT:exsup.obj
 0001:0003f0a8       $$$00003                   100400a8 f   LIBCMT:exsup.obj
 0001:0003f0a8       __unwind_handler           100400a8 f   LIBCMT:exsup.obj
 0001:0003f0ca       $$$00005                   100400ca f   LIBCMT:exsup.obj
 0001:0003f132       $$$00007                   10040132 f   LIBCMT:exsup.obj
 0001:0003f176       $$$00011                   10040176 f   LIBCMT:exsup.obj
 0001:0003f235       ?CatchGuardHandler@@YA?AW4_EXCEPTION_DISPOSITION@@PAUEHExceptionRecord@@PAUCatchGuardRN@@PAX2@Z 10040235 f   LIBCMT:trnsctrl.obj
 0001:0003f337       ?TranslatorGuardHandler@@YA?AW4_EXCEPTION_DISPOSITION@@PAUEHExceptionRecord@@PAUTranslatorGuardRN@@PAX2@Z 10040337 f   LIBCMT:trnsctrl.obj
 0001:0003f721       __onexit_lk                10040721 f   LIBCMT:onexit.obj
 0001:0003febe       _wcstoxl                   10040ebe f   LIBCMT:wcstol.obj
 0001:00040320       _$$$00001                  10041320 f   LIBCMT:strchr.obj
 0001:0004095e       __initterm                 1004195e f   LIBCMT:crt0dat.obj
 0001:000409e0       _doexit                    100419e0 f   LIBCMT:crt0dat.obj
 0001:00041220       _parse_cmdline             10042220 f   LIBCMT:stdargv.obj
 0001:000419e1       $$$00003                   100429e1 f   LIBCMT:exsup3.obj
 0001:00041c70       __shift                    10042c70 f   LIBCMT:cvt.obj
 0001:00041c8d       __cftoe2                   10042c8d f   LIBCMT:cvt.obj
 0001:00041da7       __cftof2                   10042da7 f   LIBCMT:cvt.obj
 0001:0004200b       ?TypeMatch@@YAHPBU_s_HandlerType@@PBU_s_CatchableType@@PBU_s_ThrowInfo@@@Z 1004300b f   LIBCMT:frame.obj
 0001:0004205a       ?FrameUnwindFilter@@YAHPAU_EXCEPTION_POINTERS@@@Z 1004305a f   LIBCMT:frame.obj
 0001:0004218b       ?AdjustPointer@@YAPAXPAXABUPMD@@@Z 1004318b f   LIBCMT:frame.obj
 0001:000421aa       ?CallCatchBlock@@YAPAXPAUEHExceptionRecord@@PAUEHRegistrationNode@@PAU_CONTEXT@@PBU_s_FuncInfo@@PAXHK@Z 100431aa f   LIBCMT:frame.obj
 0001:0004236e       ?BuildCatchObject@@YAXPAUEHExceptionRecord@@PAXPBU_s_HandlerType@@PBU_s_CatchableType@@@Z 1004336e f   LIBCMT:frame.obj
 0001:000424ea       ?CatchIt@@YAXPAUEHExceptionRecord@@PAUEHRegistrationNode@@PAU_CONTEXT@@PAXPBU_s_FuncInfo@@PBU_s_HandlerType@@PBU_s_CatchableType@@PBU_s_TryBlockMapEntry@@H1E@Z 100434ea f   LIBCMT:frame.obj
 0001:00042551       ?FindHandlerForForeignException@@YAXPAUEHExceptionRecord@@PAUEHRegistrationNode@@PAU_CONTEXT@@PAXPBU_s_FuncInfo@@HH1@Z 10043551 f   LIBCMT:frame.obj
 0001:0004260f       ?FindHandler@@YAXPAUEHExceptionRecord@@PAUEHRegistrationNode@@PAU_CONTEXT@@PAXPBU_s_FuncInfo@@EH1@Z 1004360f f   LIBCMT:frame.obj
 0001:00043098       _flsall                    10044098 f   LIBCMT:fflush.obj
 0001:00043d0f       ___updatetlocinfo_lk       10044d0f f   LIBCMT:setlocal.obj
 0001:00043f59       __setlocale_get_all        10044f59 f   LIBCMT:setlocal.obj
 0001:00044174       __setlocale_set_cat        10045174 f   LIBCMT:setlocal.obj
 0001:00044403       __setlocale_lk             10045403 f   LIBCMT:setlocal.obj
 0001:000449c5       _write_char                100459c5 f   LIBCMT:woutput.obj
 0001:000449ea       _write_multi_char          100459ea f   LIBCMT:woutput.obj
 0001:00044a0f       _write_string              10045a0f f   LIBCMT:woutput.obj
 0001:000459db       _CPtoLCID                  100469db f   LIBCMT:mbctype.obj
 0001:00045a0a       _setSBCS                   10046a0a f   LIBCMT:mbctype.obj
 0001:00045a33       _setSBUpLow                10046a33 f   LIBCMT:mbctype.obj
 0001:00045bbf       __setmbcp_lk               10046bbf f   LIBCMT:mbctype.obj
 0001:00046a60       ___crtInitCritSecNoSpinCount@8 10047a60 f   LIBCMT:initcrit.obj
 0001:00046f1a       _report_failure            10047f1a f   LIBCMT:secchk.obj
 0001:00047903       __abstract_cw              10048903 f   LIBCMT:ieee87.obj
 0001:00047995       __hw_cw                    10048995 f   LIBCMT:ieee87.obj
 0001:000486da       __get_lc_time              100496da f   LIBCMT:inittime.obj
 0001:000493b6       _TranslateName             1004a3b6 f   LIBCMT:getqloc.obj
 0001:00049416       _GetLcidFromDefault        1004a416 f   LIBCMT:getqloc.obj
 0001:00049430       _ProcessCodePage           1004a430 f   LIBCMT:getqloc.obj
 0001:000494a6       _TestDefaultCountry        1004a4a6 f   LIBCMT:getqloc.obj
 0001:000494c4       _crtGetLocaleInfoA@16      1004a4c4 f   LIBCMT:getqloc.obj
 0001:000495a7       _LcidFromHexString         1004a5a7 f   LIBCMT:getqloc.obj
 0001:000495dc       _GetPrimaryLen             1004a5dc f   LIBCMT:getqloc.obj
 0001:000495f9       _CountryEnumProc@4         1004a5f9 f   LIBCMT:getqloc.obj
 0001:0004968d       _TestDefaultLanguage       1004a68d f   LIBCMT:getqloc.obj
 0001:000496fe       _LangCountryEnumProc@4     1004a6fe f   LIBCMT:getqloc.obj
 0001:00049918       _LanguageEnumProc@4        1004a918 f   LIBCMT:getqloc.obj
 0001:000499e3       _GetLcidFromCountry        1004a9e3 f   LIBCMT:getqloc.obj
 0001:00049a1a       _GetLcidFromLangCountry    1004aa1a f   LIBCMT:getqloc.obj
 0001:00049aa0       _GetLcidFromLanguage       1004aaa0 f   LIBCMT:getqloc.obj
 0001:0004ac5d       _siglookup                 1004bc5d f   LIBCMT:winsig.obj
 0001:0004b0ed       _xtoa                      1004c0ed f   LIBCMT:xtoa.obj
 0001:0004e3b9       __tsopen_lk                1004f3b9 f   LIBCMT:wopen.obj
 0002:00000060       B2.EH                      10050060 f   Importing:CIFXAuthorCLODDecoder.obj
 0002:00000082       B13.EH                     10050082 f   Importing:CIFXAuthorCLODDecoder.obj
 0002:000000f6       B24.EH                     100500f6 f   Importing:CIFXAuthorCLODDecoder.obj
 0002:00000140       B27.EH                     10050140 f   Importing:CIFXAuthorCLODDecoder.obj
 0002:0000015e       B7.EH                      1005015e f   Importing:CIFXAuthorCLODDecoder.obj
 0002:0000018a       B8.EH                      1005018a f   Importing:CIFXAuthorCLODDecoder.obj
 0002:000001b6       B9.EH                      100501b6 f   Importing:CIFXAuthorCLODDecoder.obj
 0002:000001d2       B10.EH                     100501d2 f   Importing:CIFXAuthorCLODDecoder.obj
 0002:000001ee       B11.EH                     100501ee f   Importing:CIFXAuthorCLODDecoder.obj
 0002:00000208       B2.EH                      10050208 f   Importing:CIFXGroupDecoder.obj
 0002:0000022a       B6.EH                      1005022a f   Importing:CIFXGroupDecoder.obj
 0002:00000244       B16.EH                     10050244 f   Importing:CIFXGroupDecoder.obj
 0002:00000260       B2.EH                      10050260 f   Importing:CIFXLightDecoder.obj
 0002:00000282       B6.EH                      10050282 f   Importing:CIFXLightDecoder.obj
 0002:00000334       B16.EH                     10050334 f   Importing:CIFXLightDecoder.obj
 0002:00000350       B2.EH                      10050350 f   Importing:CIFXLightResourceDecoder.obj
 0002:00000372       B6.EH                      10050372 f   Importing:CIFXLightResourceDecoder.obj
 0002:000003f4       B14.EH                     100503f4 f   Importing:CIFXLightResourceDecoder.obj
 0002:00000420       B22.EH                     10050420 f   Importing:CIFXLightResourceDecoder.obj
 0002:0000044e       B2.EH                      1005044e f   Importing:CIFXViewResourceDecoder.obj
 0002:00000470       B7.EH                      10050470 f   Importing:CIFXViewResourceDecoder.obj
 0002:000004f2       B15.EH                     100504f2 f   Importing:CIFXViewResourceDecoder.obj
 0002:0000050c       B23.EH                     1005050c f   Importing:CIFXViewResourceDecoder.obj
 0002:00000598       B24.EH                     10050598 f   Importing:CIFXViewResourceDecoder.obj
 0002:000005da       B2.EH                      100505da f   Importing:CIFXMaterialDecoder.obj
 0002:000005fc       B9.EH                      100505fc f   Importing:CIFXMaterialDecoder.obj
 0002:00000670       B17.EH                     10050670 f   Importing:CIFXMaterialDecoder.obj
 0002:0000068a       B25.EH                     1005068a f   Importing:CIFXMaterialDecoder.obj
 0002:000006e0       B26.EH                     100506e0 f   Importing:CIFXMaterialDecoder.obj
 0002:000006fc       B2.EH                      100506fc f   Importing:CIFXModelDecoder.obj
 0002:0000071e       B6.EH                      1005071e f   Importing:CIFXModelDecoder.obj
 0002:0000078a       B16.EH                     1005078a f   Importing:CIFXModelDecoder.obj
 0002:000007b6       B2.EH                      100507b6 f   Importing:CIFXAnimationModifierDecoder.obj
 0002:000007d8       B7.EH                      100507d8 f   Importing:CIFXAnimationModifierDecoder.obj
 0002:0000081e       B15.EH                     1005081e f   Importing:CIFXAnimationModifierDecoder.obj
 0002:000008ca       B20.EH                     100508ca f   Importing:CIFXAnimationModifierDecoder.obj
 0002:0000090a       B2.EH                      1005090a f   Importing:CIFXMotionDecoder.obj
 0002:0000092c       B9.EH                      1005092c f   Importing:CIFXMotionDecoder.obj
 0002:000009a0       B17.EH                     100509a0 f   Importing:CIFXMotionDecoder.obj
 0002:000009ba       B23.EH                     100509ba f   Importing:CIFXMotionDecoder.obj
 0002:00000ae2       B24.EH                     10050ae2 f   Importing:CIFXMotionDecoder.obj
 0002:00000afc       B2.EH                      10050afc f   Importing:CIFXGlyphModifierDecoder.obj
 0002:00000b1e       B6.EH                      10050b1e f   Importing:CIFXGlyphModifierDecoder.obj
 0002:00000b38       B16.EH                     10050b38 f   Importing:CIFXGlyphModifierDecoder.obj
 0002:00000b9c       B17.EH                     10050b9c f   Importing:CIFXGlyphModifierDecoder.obj
 0002:00000bf0       B2.EH                      10050bf0 f   Importing:CIFXShaderLitTextureDecoder.obj
 0002:00000c12       B10.EH                     10050c12 f   Importing:CIFXShaderLitTextureDecoder.obj
 0002:00000c86       B18.EH                     10050c86 f   Importing:CIFXShaderLitTextureDecoder.obj
 0002:00000ca0       B24.EH                     10050ca0 f   Importing:CIFXShaderLitTextureDecoder.obj
 0002:00000d16       B25.EH                     10050d16 f   Importing:CIFXShaderLitTextureDecoder.obj
 0002:00000d44       B2.EH                      10050d44 f   Importing:CIFXTextureDecoder.obj
 0002:00000d66       B8.EH                      10050d66 f   Importing:CIFXTextureDecoder.obj
 0002:00000dda       B16.EH                     10050dda f   Importing:CIFXTextureDecoder.obj
 0002:00000df4       B2.EH                      10050df4 f   Importing:CIFXSubdivisionModifierDecoder.obj
 0002:00000e16       B6.EH                      10050e16 f   Importing:CIFXSubdivisionModifierDecoder.obj
 0002:00000e30       B16.EH                     10050e30 f   Importing:CIFXSubdivisionModifierDecoder.obj
 0002:00000e86       B17.EH                     10050e86 f   Importing:CIFXSubdivisionModifierDecoder.obj
 0002:00000ea0       B2.EH                      10050ea0 f   Importing:CIFXShadingModifierDecoder.obj
 0002:00000ec2       B6.EH                      10050ec2 f   Importing:CIFXShadingModifierDecoder.obj
 0002:00000edc       B16.EH                     10050edc f   Importing:CIFXShadingModifierDecoder.obj
 0002:00000f9e       B17.EH                     10050f9e f   Importing:CIFXShadingModifierDecoder.obj
 0002:00000fc0       B7.EH                      10050fc0 f   Importing:CIFXDecoderChainX.obj
 0002:00000fdc       B2.EH                      10050fdc f   Importing:CIFXViewDecoder.obj
 0002:00000ffe       B7.EH                      10050ffe f   Importing:CIFXViewDecoder.obj
 0002:00001018       B17.EH                     10051018 f   Importing:CIFXViewDecoder.obj
 0002:00001118       B18.EH                     10051118 f   Importing:CIFXViewDecoder.obj
 0002:00001148       B2.EH                      10051148 f   Importing:CIFXBlockReaderX.obj
 0002:0000116a       B8.EH                      1005116a f   Importing:CIFXBlockReaderX.obj
 0002:000011ec       B13.EH                     100511ec f   Importing:CIFXBlockReaderX.obj
 0002:00001210       B3.EH                      10051210 f   Importing:CIFXBTTHash.obj
 0002:0000121c       B16.EH                     1005121c f   Importing:CIFXBTTHash.obj
 0002:00001240       B11.EH                     10051240 f   Importing:CIFXBTTHash.obj
 0002:00001330       B2.EH                      10051330 f   Importing:CIFXLoadManager.obj
 0002:00001352       B50.EH                     10051352 f   Importing:CIFXLoadManager.obj
 0002:00001474       B51.EH                     10051474 f   Importing:CIFXLoadManager.obj
 0002:000014ba       B61.EH                     100514ba f   Importing:CIFXLoadManager.obj
 0002:00001540       B62.EH                     10051540 f   Importing:CIFXLoadManager.obj
 0002:0000155a       B69.EH                     1005155a f   Importing:CIFXLoadManager.obj
 0002:000016d2       B70.EH                     100516d2 f   Importing:CIFXLoadManager.obj
 0002:00001728       B81.EH                     10051728 f   Importing:CIFXLoadManager.obj
 0002:0000193a       B83.EH                     1005193a f   Importing:CIFXLoadManager.obj
 0002:000019aa       B92.EH                     100519aa f   Importing:CIFXLoadManager.obj
 0002:000019c4       B93.EH                     100519c4 f   Importing:CIFXLoadManager.obj
 0002:000019de       B94.EH                     100519de f   Importing:CIFXLoadManager.obj
 0002:00001a06       B95.EH                     10051a06 f   Importing:CIFXLoadManager.obj
 0002:00001a64       B98.EH                     10051a64 f   Importing:CIFXLoadManager.obj
 0002:00001a94       B99.EH                     10051a94 f   Importing:CIFXLoadManager.obj
 0002:00001ad4       B100.EH                    10051ad4 f   Importing:CIFXLoadManager.obj
 0002:00001aee       B114.EH                    10051aee f   Importing:CIFXLoadManager.obj
 0002:00001b16       B115.EH                    10051b16 f   Importing:CIFXLoadManager.obj
 0002:00001b3e       B116.EH                    10051b3e f   Importing:CIFXLoadManager.obj
 0002:00001b58       B4.EH                      10051b58 f   Importing:CIFXLoadManager.obj
 0002:00001b74       B9.EH                      10051b74 f   Importing:CIFXLoadManager.obj
 0002:00001b90       B12.EH                     10051b90 f   Importing:CIFXLoadManager.obj
 0002:00001bac       B13.EH                     10051bac f   Importing:CIFXLoadManager.obj
 0002:00001bc8       B14.EH                     10051bc8 f   Importing:CIFXLoadManager.obj
 0002:00001be4       B15.EH                     10051be4 f   Importing:CIFXLoadManager.obj
 0002:00001c02       B19.EH                     10051c02 f   Importing:CIFXLoadManager.obj
 0002:00001c24       B21.EH                     10051c24 f   Importing:CIFXLoadManager.obj
 0002:00001c48       B24.EH                     10051c48 f   Importing:CIFXLoadManager.obj
 0002:00001c6c       B27.EH                     10051c6c f   Importing:CIFXLoadManager.obj
 0002:00001c8a       B28.EH                     10051c8a f   Importing:CIFXLoadManager.obj
 0002:00001cac       B30.EH                     10051cac f   Importing:CIFXLoadManager.obj
 0002:00001cd0       B36.EH                     10051cd0 f   Importing:CIFXLoadManager.obj
 0002:00001cf4       B39.EH                     10051cf4 f   Importing:CIFXLoadManager.obj
 0002:00001d10       B84.EH                     10051d10 f   Importing:CIFXLoadManager.obj
 0002:00001d2c       B85.EH                     10051d2c f   Importing:CIFXLoadManager.obj
 0002:00001d9c       B86.EH                     10051d9c f   Importing:CIFXLoadManager.obj
 0002:00001dc0       B5.EH                      10051dc0 f   Importing:CIFXStdioReadBufferX.obj
 0002:00001dec       B12.EH                     10051dec f   Importing:CIFXStdioReadBufferX.obj
 0002:00001e18       B14.EH                     10051e18 f   Importing:CIFXStdioReadBufferX.obj
 0002:00001e44       B15.EH                     10051e44 f   Importing:CIFXStdioReadBufferX.obj
 0002:00001e86       B2.EH                      10051e86 f   Importing:CIFXInternetReadBufferX.obj
 0002:00001ea8       B9.EH                      10051ea8 f   Importing:CIFXInternetReadBufferX.obj
 0002:00001ed6       B10.EH                     10051ed6 f   Importing:CIFXInternetReadBufferX.obj
 0002:00001f4a       B24.EH                     10051f4a f   Importing:CIFXInternetReadBufferX.obj
 0002:00001f82       B29.EH                     10051f82 f   Importing:CIFXInternetReadBufferX.obj
 0002:00001fd8       B2.EH                      10051fd8 f   Importing:CIFXPointSetDecoder.obj
 0002:00001ffa       B12.EH                     10051ffa f   Importing:CIFXPointSetDecoder.obj
 0002:0000206e       B22.EH                     1005206e f   Importing:CIFXPointSetDecoder.obj
 0002:00002088       B25.EH                     10052088 f   Importing:CIFXPointSetDecoder.obj
 0002:000020c0       B33.EH                     100520c0 f   Importing:CIFXPointSetDecoder.obj
 0002:0000212c       B2.EH                      1005212c f   Importing:CIFXLineSetDecoder.obj
 0002:0000214e       B23.EH                     1005214e f   Importing:CIFXLineSetDecoder.obj
 0002:000021c2       B34.EH                     100521c2 f   Importing:CIFXLineSetDecoder.obj
 0002:000021dc       B37.EH                     100521dc f   Importing:CIFXLineSetDecoder.obj
 0002:00002362       B40.EH                     10052362 f   Importing:CIFXLineSetDecoder.obj
 0002:000024e8       B43.EH                     100524e8 f   Importing:CIFXLineSetDecoder.obj
 0002:0000266e       B46.EH                     1005266e f   Importing:CIFXLineSetDecoder.obj
 0002:000026a6       B48.EH                     100526a6 f   Importing:CIFXLineSetDecoder.obj
 0002:000026c0       B9.EH                      100526c0 f   Importing:CIFXLineSetDecoder.obj
 0002:000026dc       B42.EH                     100526dc f   Importing:CIFXLineSetDecoder.obj
 0002:000026f8       B2.EH                      100526f8 f   Importing:CIFXBoneWeightsModifierDecoder.obj
 0002:0000271a       B6.EH                      1005271a f   Importing:CIFXBoneWeightsModifierDecoder.obj
 0002:00002734       B16.EH                     10052734 f   Importing:CIFXBoneWeightsModifierDecoder.obj
 0002:0000278a       B17.EH                     1005278a f   Importing:CIFXBoneWeightsModifierDecoder.obj
 0002:000027a4       B2.EH                      100527a4 f   Importing:CIFXCLODModifierDecoder.obj
 0002:000027c6       B6.EH                      100527c6 f   Importing:CIFXCLODModifierDecoder.obj
 0002:000027e0       B16.EH                     100527e0 f   Importing:CIFXCLODModifierDecoder.obj
 0002:00002836       B17.EH                     10052836 f   Importing:CIFXCLODModifierDecoder.obj
 0002:00002850       B2.EH                      10052850 f   Importing:CIFXDummyModifierDecoder.obj
 0002:00002872       B6.EH                      10052872 f   Importing:CIFXDummyModifierDecoder.obj
 0002:0000288c       B16.EH                     1005288c f   Importing:CIFXDummyModifierDecoder.obj
 0002:000028e0       B2.EH                      100528e0 f   Importing:IFXModifierBaseDecoder.obj
 0002:00002926       B10.EH                     10052926 f   Importing:IFXModifierBaseDecoder.obj
 0002:0000298a       B15.EH                     1005298a f   Importing:IFXModifierBaseDecoder.obj
 0002:000029bc       B4.EH                      100529bc f   Importing:CIFXAuthorCLODDecoder_S.obj
 0002:00002cf8       B4.EH                      10052cf8 f   Importing:CIFXAuthorCLODDecoder_P.obj
 0002:00002d1c       B6.EH                      10052d1c f   Importing:CIFXAuthorCLODDecoder_P.obj
 0002:00002d82       B2.EH                      10052d82 f   Importing:CIFXNodeDecoder.obj
 0002:00002e34       B11.EH                     10052e34 f   Importing:CIFXNodeDecoder.obj
 0002:00002ea8       B15.EH                     10052ea8 f   Importing:CIFXNodeDecoder.obj
 0002:00002eee       B18.EH                     10052eee f   Importing:CIFXNodeDecoder.obj
 0002:00002f70       B20.EH                     10052f70 f   Importing:CIFXNodeDecoder.obj
 0002:00002f8c       B5.EH                      10052f8c f   Importing:IFXInternetConnectionX.obj
 0002:00002fa6       B9.EH                      10052fa6 f   Importing:IFXInternetConnectionX.obj
 0002:00002fe0       B12.EH                     10052fe0 f   Importing:IFXInternetConnectionX.obj
 0002:00003002       B19.EH                     10053002 f   Importing:IFXInternetConnectionX.obj
 0002:00003024       B30.EH                     10053024 f   Importing:IFXInternetConnectionX.obj
 0002:0000304e       B4.EH                      1005304e f   Platform:IFXOSLoader.obj
