 IFXRendering

 Timestamp is 458c06c5 (Fri Dec 22 19:24:37 2006)

 Preferred load address is 10000000

 Start         Length     Name                   Class
 0001:00000000 000531c8H .text                   CODE
 0002:00000000 00002208H .text1                  CODE
 0003:00000000 000001d4H .idata$5                DATA
 0003:000001e0 0000f9d0H .rdata                  DATA
 0003:0000fbb0 00000044H .rdata$r                DATA
 0003:0000fbf4 00000004H .rtc$IAA                DATA
 0003:0000fbf8 00000004H .rtc$IZZ                DATA
 0003:0000fbfc 00000004H .rtc$TAA                DATA
 0003:0000fc00 00000004H .rtc$TZZ                DATA
 0003:0000fc04 00000064H .idata$2                DATA
 0003:0000fc68 00000014H .idata$3                DATA
 0003:0000fc7c 000001d4H .idata$4                DATA
 0003:0000fe50 000007f0H .idata$6                DATA
 0003:00010640 00000075H .edata                  DATA
 0004:00000000 00000004H .CRT$XCA                DATA
 0004:00000004 00000004H .CRT$XCAA               DATA
 0004:00000008 00000004H .CRT$XCU                DATA
 0004:0000000c 00000004H .CRT$XCZ                DATA
 0004:00000010 00000004H .CRT$XIA                DATA
 0004:00000014 0000000cH .CRT$XIC                DATA
 0004:00000020 00000004H .CRT$XIY                DATA
 0004:00000024 00000004H .CRT$XIZ                DATA
 0004:00000028 00000004H .CRT$XPA                DATA
 0004:0000002c 00000004H .CRT$XPX                DATA
 0004:00000030 00000004H .CRT$XPZ                DATA
 0004:00000034 00000004H .CRT$XTA                DATA
 0004:00000038 00000004H .CRT$XTB                DATA
 0004:0000003c 00000004H .CRT$XTZ                DATA
 0004:00000040 00002774H .data                   DATA
 0004:000027c0 0000219cH .bss                    DATA
 0005:00000000 00003aacH .data1                  DATA
 0006:00000000 0000177cH _RDATA                  DATA
 0007:00000000 00000118H .rsrc$01                DATA
 0007:00000120 00000d40H .rsrc$02                DATA

  Address         Publics by Value              Rva+Base     Lib:Object

 0000:00000000       __except_list              00000000     <absolute>
 0000:00000000       ___safe_se_handler_count   00000000     <absolute>
 0000:00000000       ___safe_se_handler_table   00000000     <absolute>
 0001:00000000       _DllMain@12                10001000 f   IFXRenderingDllMain.obj
 0001:00000044       ?IFXRenderingStartup@@YIHXZ 10001044 f   Rendering:IFXRendering.obj
 0001:0000004c       ?IFXRenderingShutdown@@YIHXZ 1000104c f   Rendering:IFXRendering.obj
 0001:00000098       @IFXPluginRegister@8       10001098 f   Rendering:IFXRendering.obj
 0001:000000b6       @IFXPluginCanUnloadNow@0   100010b6 f   Rendering:IFXRendering.obj
 0001:000000c8       ??_ECIFXRenderDevice@@MAEPAXI@Z 100010c8 f i Rendering:CIFXRenderDevice.obj
 0001:000000c8       ??_GCIFXRenderDevice@@MAEPAXI@Z 100010c8 f i Rendering:CIFXRenderDevice.obj
 0001:00000108       ??1CIFXRenderDevice@@MAE@XZ 10001108 f   Rendering:CIFXRenderDevice.obj
 0001:00000272       ?DeleteAllTextures@CIFXRenderDevice@@QAIHXZ 10001272 f   Rendering:CIFXRenderDevice.obj
 0001:000002b0       ?AddRef@CIFXRenderDevice@@UAIIXZ 100012b0 f   Rendering:CIFXRenderDevice.obj
 0001:000002c0       ?Release@CIFXRenderDevice@@UAIIXZ 100012c0 f   Rendering:CIFXRenderDevice.obj
 0001:000002f0       ?QueryInterface@CIFXRenderDevice@@UAIHABUIFXGUID@@PAPAX@Z 100012f0 f   Rendering:CIFXRenderDevice.obj
 0001:000004cc       ?DeleteMesh@CIFXRenderDevice@@UAIHI@Z 100014cc f   Rendering:CIFXRenderDevice.obj
 0001:000004d0       ?DeleteTexture@CIFXRenderDevice@@UAIHI@Z 100014d0 f   Rendering:CIFXRenderDevice.obj
 0001:00000510       ?SetBlendEnabled@CIFXRenderDevice@@QAIHH@Z 10001510 f   Rendering:CIFXRenderDevice.obj
 0001:0000051e       ?SetAlphaTestEnabled@CIFXRenderDevice@@QAIHH@Z 1000151e f   Rendering:CIFXRenderDevice.obj
 0001:0000052c       ?SetBlend@CIFXRenderDevice@@QAIHAAVIFXRenderBlend@@@Z 1000152c f   Rendering:CIFXRenderDevice.obj
 0001:00000598       ?SetFogEnabled@CIFXRenderDevice@@QAIHH@Z 10001598 f   Rendering:CIFXRenderDevice.obj
 0001:000005a6       ?SetFog@CIFXRenderDevice@@QAIHAAVIFXRenderFog@@@Z 100015a6 f   Rendering:CIFXRenderDevice.obj
 0001:00000668       ?SetMaterial@CIFXRenderDevice@@QAIHAAVIFXRenderMaterial@@@Z 10001668 f   Rendering:CIFXRenderDevice.obj
 0001:00000870       ?SetStencilEnabled@CIFXRenderDevice@@QAIHH@Z 10001870 f   Rendering:CIFXRenderDevice.obj
 0001:00000884       ?SetStencil@CIFXRenderDevice@@QAIHAAVIFXRenderStencil@@@Z 10001884 f   Rendering:CIFXRenderDevice.obj
 0001:00000978       ?SetView@CIFXRenderDevice@@QAIHAAVIFXRenderView@@@Z 10001978 f   Rendering:CIFXRenderDevice.obj
 0001:00000bac       ?GetTransformMatrix@CIFXRenderDevice@@QAIHAAVIFXMatrix4x4@@@Z 10001bac f   Rendering:CIFXRenderDevice.obj
 0001:00000d4c       ?Shutdown@CIFXRenderDevice@@SIHXZ 10001d4c f   Rendering:CIFXRenderDevice.obj
 0001:00000d50       ??0CIFXRenderDevice@@IAE@XZ 10001d50 f   Rendering:CIFXRenderDevice.obj
 0001:0000106e       ?Construct@CIFXRenderDevice@@IAIHXZ 1000206e f   Rendering:CIFXRenderDevice.obj
 0001:000010d8       ?CalcFogDensity@CIFXRenderDevice@@IAIMMI@Z 100020d8 f   Rendering:CIFXRenderDevice.obj
 0001:000010fa       ?CalcVisibleViewport@CIFXRenderDevice@@IAIXXZ 100020fa f   Rendering:CIFXRenderDevice.obj
 0001:000011e4       ?SetDefaults@CIFXRenderDevice@@IAIHXZ 100021e4 f   Rendering:CIFXRenderDevice.obj
 0001:00001618       ?InitData@CIFXRenderDevice@@IAIXXZ 10002618 f   Rendering:CIFXRenderDevice.obj
 0001:0000176c       ?Initialize@CIFXRenderDevice@@UAIHI@Z 1000276c f   Rendering:CIFXRenderDevice.obj
 0001:00001770       ??1IFXCoreSmartPtr@@UAE@XZ 10002770 f i Rendering:CIFXRenderDevice.obj
 0001:00001778       ??1IFXRenderDevice@@MAE@XZ 10002778 f i Rendering:CIFXRenderDevice.obj
 0001:00001790       ??1IFXRenderBlend@@UAE@XZ  10002790 f i Rendering:CIFXRenderDevice.obj
 0001:00001798       ??1IFXRenderFog@@UAE@XZ    10002798 f i Rendering:CIFXRenderDevice.obj
 0001:000017a0       ??1IFXRenderMaterial@@UAE@XZ 100027a0 f i Rendering:CIFXRenderDevice.obj
 0001:000017a8       ??1IFXRenderStencil@@UAE@XZ 100027a8 f i Rendering:CIFXRenderDevice.obj
 0001:000017b0       ??1IFXRenderView@@UAE@XZ   100027b0 f i Rendering:CIFXRenderDevice.obj
 0001:000017b8       ??1?$IFXSmartPtr@VIFXSimpleHash@@@@UAE@XZ 100027b8 f i Rendering:CIFXRenderDevice.obj
 0001:00001828       ??_GIFXCoreSmartPtr@@UAEPAXI@Z 10002828 f i Rendering:CIFXRenderDevice.obj
 0001:00001828       ??_EIFXCoreSmartPtr@@UAEPAXI@Z 10002828 f i Rendering:CIFXRenderDevice.obj
 0001:00001844       ??_EIFXRenderBlend@@UAEPAXI@Z 10002844 f i Rendering:CIFXRenderDevice.obj
 0001:00001844       ??_GIFXRenderBlend@@UAEPAXI@Z 10002844 f i Rendering:CIFXRenderDevice.obj
 0001:00001860       ??_EIFXRenderFog@@UAEPAXI@Z 10002860 f i Rendering:CIFXRenderDevice.obj
 0001:00001860       ??_GIFXRenderFog@@UAEPAXI@Z 10002860 f i Rendering:CIFXRenderDevice.obj
 0001:0000187c       ??_EIFXRenderMaterial@@UAEPAXI@Z 1000287c f i Rendering:CIFXRenderDevice.obj
 0001:0000187c       ??_GIFXRenderMaterial@@UAEPAXI@Z 1000287c f i Rendering:CIFXRenderDevice.obj
 0001:00001898       ??_EIFXRenderStencil@@UAEPAXI@Z 10002898 f i Rendering:CIFXRenderDevice.obj
 0001:00001898       ??_GIFXRenderStencil@@UAEPAXI@Z 10002898 f i Rendering:CIFXRenderDevice.obj
 0001:000018b4       ??_GIFXRenderView@@UAEPAXI@Z 100028b4 f i Rendering:CIFXRenderDevice.obj
 0001:000018b4       ??_EIFXRenderView@@UAEPAXI@Z 100028b4 f i Rendering:CIFXRenderDevice.obj
 0001:000018d0       ??_GIFXRenderDevice@@MAEPAXI@Z 100028d0 f i Rendering:CIFXRenderDevice.obj
 0001:000018d0       ??_EIFXRenderDevice@@MAEPAXI@Z 100028d0 f i Rendering:CIFXRenderDevice.obj
 0001:000018fc       ??_E?$IFXSmartPtr@VIFXSimpleHash@@@@UAEPAXI@Z 100028fc f i Rendering:CIFXRenderDevice.obj
 0001:000018fc       ??_G?$IFXSmartPtr@VIFXSimpleHash@@@@UAEPAXI@Z 100028fc f i Rendering:CIFXRenderDevice.obj
 0001:00001988       ??_G?$IFXSmartPtr@VCIFXDeviceLight@@@@UAEPAXI@Z 10002988 f i Rendering:CIFXRenderDevice.obj
 0001:00001988       ??_E?$IFXSmartPtr@VCIFXDeviceLight@@@@UAEPAXI@Z 10002988 f i Rendering:CIFXRenderDevice.obj
 0001:00001a18       ??_E?$IFXSmartPtr@VCIFXDeviceTexUnit@@@@UAEPAXI@Z 10002a18 f i Rendering:CIFXRenderDevice.obj
 0001:00001a18       ??_G?$IFXSmartPtr@VCIFXDeviceTexUnit@@@@UAEPAXI@Z 10002a18 f i Rendering:CIFXRenderDevice.obj
 0001:00001aa8       ?SetCurrent@CIFXRenderDevice@@UAIXPAX@Z 10002aa8 f i Rendering:CIFXRenderDevice.obj
 0001:00001ab0       ?GetCurrent@CIFXRenderDevice@@UBIPAXXZ 10002ab0 f i Rendering:CIFXRenderDevice.obj
 0001:00001ab8       ?SetHWUseVertexColors@CIFXRenderDevice@@MAIHH@Z 10002ab8 f i Rendering:CIFXRenderDevice.obj
 0001:00001ac4       ?SetHWLineOffset@CIFXRenderDevice@@MAIHI@Z 10002ac4 f i Rendering:CIFXRenderDevice.obj
 0001:00001ad0       ?SetHWProjectionMode@CIFXRenderDevice@@MAIHI@Z 10002ad0 f i Rendering:CIFXRenderDevice.obj
 0001:00001b04       ?SetHWAutoHorizontal@CIFXRenderDevice@@MAIHH@Z 10002b04 f i Rendering:CIFXRenderDevice.obj
 0001:00001b10       ?SetHWUseProjectionRect@CIFXRenderDevice@@MAIHH@Z 10002b10 f i Rendering:CIFXRenderDevice.obj
 0001:00001b1c       ?SetHWFOVx@CIFXRenderDevice@@MAIHM@Z 10002b1c f i Rendering:CIFXRenderDevice.obj
 0001:00001b6c       ?SetHWFOVy@CIFXRenderDevice@@MAIHM@Z 10002b6c f i Rendering:CIFXRenderDevice.obj
 0001:00001bc4       ?SetHWOrthoHeight@CIFXRenderDevice@@MAIHM@Z 10002bc4 f i Rendering:CIFXRenderDevice.obj
 0001:00001c00       ?SetHWOrthoWidth@CIFXRenderDevice@@MAIHM@Z 10002c00 f i Rendering:CIFXRenderDevice.obj
 0001:00001c3c       ?SetHWNearClip@CIFXRenderDevice@@MAIHM@Z 10002c3c f i Rendering:CIFXRenderDevice.obj
 0001:00001c78       ?SetHWFarClip@CIFXRenderDevice@@MAIHM@Z 10002c78 f i Rendering:CIFXRenderDevice.obj
 0001:00001c9c       ?SetHWPixelAspect@CIFXRenderDevice@@MAIHM@Z 10002c9c f i Rendering:CIFXRenderDevice.obj
 0001:00001cc0       ?SetHWProjectionRect@CIFXRenderDevice@@MAIHABV?$IFXRectT@M@@@Z 10002cc0 f i Rendering:CIFXRenderDevice.obj
 0001:00001d04       ?SetHWViewport@CIFXRenderDevice@@MAIHABV?$IFXRectT@H@@@Z 10002d04 f i Rendering:CIFXRenderDevice.obj
 0001:00001d40       ??0?$IFXSmartPtr@VCIFXDeviceLight@@@@QAE@XZ 10002d40 f i Rendering:CIFXRenderDevice.obj
 0001:00001d50       ??1?$IFXSmartPtr@VCIFXDeviceLight@@@@UAE@XZ 10002d50 f i Rendering:CIFXRenderDevice.obj
 0001:00001dc4       ??0?$IFXSmartPtr@VCIFXDeviceTexUnit@@@@QAE@XZ 10002dc4 f i Rendering:CIFXRenderDevice.obj
 0001:00001dd4       ??1?$IFXSmartPtr@VCIFXDeviceTexUnit@@@@UAE@XZ 10002dd4 f i Rendering:CIFXRenderDevice.obj
 0001:00001e48       ?AddRef@CIFXRenderDevice@@$4PPPPPPPM@A@AIIXZ 10002e48 f i Rendering:CIFXRenderDevice.obj
 0001:00001e54       ?Release@CIFXRenderDevice@@$4PPPPPPPM@A@AIIXZ 10002e54 f i Rendering:CIFXRenderDevice.obj
 0001:00001e60       ?QueryInterface@CIFXRenderDevice@@$4PPPPPPPM@A@AIHABUIFXGUID@@PAPAX@Z 10002e60 f i Rendering:CIFXRenderDevice.obj
 0001:00001e6c       ?DeleteMesh@CIFXRenderDevice@@$4PPPPPPPM@A@AIHI@Z 10002e6c f i Rendering:CIFXRenderDevice.obj
 0001:00001e78       ?DeleteTexture@CIFXRenderDevice@@$4PPPPPPPM@A@AIHI@Z 10002e78 f i Rendering:CIFXRenderDevice.obj
 0001:00001e84       ??_ECIFXRenderDevice@@$2PPPPPPPM@A@AEPAXI@Z 10002e84 f i Rendering:CIFXRenderDevice.obj
 0001:00001e90       ?Initialize@CIFXRenderDevice@@$4PPPPPPPM@A@AIHI@Z 10002e90 f i Rendering:CIFXRenderDevice.obj
 0001:00001e9c       ??_V@YAXPAX@Z              10002e9c f   Rendering:IFXCorePluginStatic.obj
 0001:00001ea8       ??3@YAXPAX@Z               10002ea8 f   Rendering:IFXCorePluginStatic.obj
 0001:00001eac       ??3.@YAXPAX@Z              10002eac f   Rendering:IFXCorePluginStatic.obj
 0001:00001ec0       ??_U@YAPAXI@Z              10002ec0 f   Rendering:IFXCorePluginStatic.obj
 0001:00001ecc       ??2@YAPAXI@Z               10002ecc f   Rendering:IFXCorePluginStatic.obj
 0001:00001ed0       ??2.@YAPAXI@Z              10002ed0 f   Rendering:IFXCorePluginStatic.obj
 0001:00001ee4       ??_GCIFXRenderContext@@MAEPAXI@Z 10002ee4 f i Rendering:CIFXRenderContext.obj
 0001:00001ee4       ??_ECIFXRenderContext@@MAEPAXI@Z 10002ee4 f i Rendering:CIFXRenderContext.obj
 0001:00001f24       ??1CIFXRenderContext@@MAE@XZ 10002f24 f   Rendering:CIFXRenderContext.obj
 0001:00002098       ?Destroy@CIFXRenderContext@@MAIHXZ 10003098 f   Rendering:CIFXRenderContext.obj
 0001:00002134       ?CIFXRenderContextFactory@@YIHABUIFXGUID@@PAPAX@Z 10003134 f   Rendering:CIFXRenderContext.obj
 0001:00002232       ??0CIFXRenderContext@@IAE@XZ 10003232 f   Rendering:CIFXRenderContext.obj
 0001:0000267a       ?Construct@CIFXRenderContext@@IAIHXZ 1000367a f   Rendering:CIFXRenderContext.obj
 0001:0000280e       ?AddRef@CIFXRenderContext@@UAIIXZ 1000380e f   Rendering:CIFXRenderContext.obj
 0001:0000281e       ?Release@CIFXRenderContext@@UAIIXZ 1000381e f   Rendering:CIFXRenderContext.obj
 0001:00002850       ?QueryInterface@CIFXRenderContext@@UAIHABUIFXGUID@@PAPAX@Z 10003850 f   Rendering:CIFXRenderContext.obj
 0001:00002a2c       ?SetRenderer@CIFXRenderContext@@UAIHI@Z 10003a2c f   Rendering:CIFXRenderContext.obj
 0001:00002a5e       ?GetCaps@CIFXRenderContext@@UAIHAAVIFXRenderCaps@@@Z 10003a5e f   Rendering:CIFXRenderContext.obj
 0001:00002abe       ?GetPerformanceData@CIFXRenderContext@@UAIHIAAI@Z 10003abe f   Rendering:CIFXRenderContext.obj
 0001:00002aee       ?ClearPerformanceData@CIFXRenderContext@@UAIHXZ 10003aee f   Rendering:CIFXRenderContext.obj
 0001:00002b16       ?GetRenderServices@CIFXRenderContext@@UAIHAAPAVIFXRenderServices@@@Z 10003b16 f   Rendering:CIFXRenderContext.obj
 0001:00002b34       ?GetColorFormat@CIFXRenderContext@@UAIIXZ 10003b34 f   Rendering:CIFXRenderContext.obj
 0001:00002b5e       ?Enable@CIFXRenderContext@@UAIHI@Z 10003b5e f   Rendering:CIFXRenderContext.obj
 0001:00002c3a       ?Disable@CIFXRenderContext@@UAIHI@Z 10003c3a f   Rendering:CIFXRenderContext.obj
 0001:00002d16       ?SetBlend@CIFXRenderContext@@UAIHAAVIFXRenderBlend@@@Z 10003d16 f   Rendering:CIFXRenderContext.obj
 0001:00002d34       ?SetFog@CIFXRenderContext@@UAIHAAVIFXRenderFog@@@Z 10003d34 f   Rendering:CIFXRenderContext.obj
 0001:00002d5c       ?SetLight@CIFXRenderContext@@UAIHIAAVIFXRenderLight@@@Z 10003d5c f   Rendering:CIFXRenderContext.obj
 0001:00002d8c       ?GetGlobalAmbient@CIFXRenderContext@@UAIHAAVIFXVector4@@@Z 10003d8c f   Rendering:CIFXRenderContext.obj
 0001:00002db4       ?SetGlobalAmbient@CIFXRenderContext@@UAIHABVIFXVector4@@@Z 10003db4 f   Rendering:CIFXRenderContext.obj
 0001:00002ddc       ?SetMaterial@CIFXRenderContext@@UAIHAAVIFXRenderMaterial@@@Z 10003ddc f   Rendering:CIFXRenderContext.obj
 0001:00002e9c       ?SetStencil@CIFXRenderContext@@UAIHAAVIFXRenderStencil@@@Z 10003e9c f   Rendering:CIFXRenderContext.obj
 0001:00002ec4       ?SetTexture@CIFXRenderContext@@UAIHAAVIFXTextureObject@@@Z 10003ec4 f   Rendering:CIFXRenderContext.obj
 0001:00002eec       ?SetTextureUnit@CIFXRenderContext@@UAIHIAAVIFXRenderTexUnit@@@Z 10003eec f   Rendering:CIFXRenderContext.obj
 0001:00003012       ?SetConstantColor@CIFXRenderContext@@UAIHABVIFXVector4@@@Z 10004012 f   Rendering:CIFXRenderContext.obj
 0001:0000303a       ?SetView@CIFXRenderContext@@UAIHAAVIFXRenderView@@@Z 1000403a f   Rendering:CIFXRenderContext.obj
 0001:0000310c       ?SetWindow@CIFXRenderContext@@UAIHAAVIFXRenderWindow@@@Z 1000410c f   Rendering:CIFXRenderContext.obj
 0001:000031e2       ?GetWindow@CIFXRenderContext@@UAIHAAVIFXRenderWindow@@@Z 100041e2 f   Rendering:CIFXRenderContext.obj
 0001:0000320c       ?GetNumDevices@CIFXRenderContext@@UAIHAAVIFXRenderWindow@@AAI@Z 1000420c f   Rendering:CIFXRenderContext.obj
 0001:000033e8       ?SetDevice@CIFXRenderContext@@UAIHI@Z 100043e8 f   Rendering:CIFXRenderContext.obj
 0001:0000346a       ?Clear@CIFXRenderContext@@UAIHABVIFXRenderClear@@@Z 1000446a f   Rendering:CIFXRenderContext.obj
 0001:00003492       ?DrawMeshLines@CIFXRenderContext@@UAIHAAVIFXMesh@@@Z 10004492 f   Rendering:CIFXRenderContext.obj
 0001:000034ba       ?DrawMeshPoints@CIFXRenderContext@@UAIHAAVIFXMesh@@@Z 100044ba f   Rendering:CIFXRenderContext.obj
 0001:000034e2       ?DrawMesh@CIFXRenderContext@@UAIHAAVIFXMesh@@@Z 100044e2 f   Rendering:CIFXRenderContext.obj
 0001:0000350a       ?DeleteTexture@CIFXRenderContext@@UAIHI@Z 1000450a f   Rendering:CIFXRenderContext.obj
 0001:00003532       ?SetWorldMatrix@CIFXRenderContext@@UAIHABVIFXMatrix4x4@@@Z 10004532 f   Rendering:CIFXRenderContext.obj
 0001:0000355a       ?SetViewMatrix@CIFXRenderContext@@UAIHABVIFXMatrix4x4@@@Z 1000455a f   Rendering:CIFXRenderContext.obj
 0001:00003582       ?GetViewMatrix@CIFXRenderContext@@UAIABVIFXMatrix4x4@@XZ 10004582 f   Rendering:CIFXRenderContext.obj
 0001:000035a6       ?SetDepthMode@CIFXRenderContext@@UAIHI@Z 100045a6 f   Rendering:CIFXRenderContext.obj
 0001:000035d0       ?SetCullMode@CIFXRenderContext@@UAIHI@Z 100045d0 f   Rendering:CIFXRenderContext.obj
 0001:000035fa       ?SetLineOffset@CIFXRenderContext@@UAIHI@Z 100045fa f   Rendering:CIFXRenderContext.obj
 0001:00003624       ?GetFrustumPlaneNormals@CIFXRenderContext@@UAIHPAVIFXVector3@@@Z 10004624 f   Rendering:CIFXRenderContext.obj
 0001:00003628       ?Swap@CIFXRenderContext@@UAIHXZ 10004628 f   Rendering:CIFXRenderContext.obj
 0001:00003672       ?GetTransformMatrix@CIFXRenderContext@@UAIHAAVIFXMatrix4x4@@@Z 10004672 f   Rendering:CIFXRenderContext.obj
 0001:0000369c       ?CalculateNumPasses@CIFXRenderContext@@UAIIXZ 1000469c f   Rendering:CIFXRenderContext.obj
 0001:00003aaa       ?ConfigureRenderPass@CIFXRenderContext@@UAIHI@Z 10004aaa f   Rendering:CIFXRenderContext.obj
 0001:00003c26       ?ConfigureTexturePass@CIFXRenderContext@@IAIHI@Z 10004c26 f   Rendering:CIFXRenderContext.obj
 0001:00004110       ?ConfigureSpecularPass@CIFXRenderContext@@IAIHXZ 10005110 f   Rendering:CIFXRenderContext.obj
 0001:00004334       ?Reset@CIFXRenderContext@@UAIXXZ 10005334 f   Rendering:CIFXRenderContext.obj
 0001:000043b0       ?CreateRender@CIFXRenderContext@@MAIHIAAVIFXRenderWindow@@@Z 100053b0 f   Rendering:CIFXRenderContext.obj
 0001:0000445e       ?InitData@CIFXRenderContext@@IAIXXZ 1000545e f   Rendering:CIFXRenderContext.obj
 0001:00004590       ?Initialize@CIFXRenderContext@@UAIHXZ 10005590 f   Rendering:CIFXRenderContext.obj
 0001:00004634       ??1IFXRenderContext@@MAE@XZ 10005634 f i Rendering:CIFXRenderContext.obj
 0001:0000464c       ??1?$IFXSmartPtr@VCIFXRenderServices@@@@UAE@XZ 1000564c f i Rendering:CIFXRenderContext.obj
 0001:000046bc       ??1IFXRenderTexUnit@@UAE@XZ 100056bc f i Rendering:CIFXRenderContext.obj
 0001:000046c4       ??_EIFXRenderTexUnit@@UAEPAXI@Z 100056c4 f i Rendering:CIFXRenderContext.obj
 0001:000046c4       ??_GIFXRenderTexUnit@@UAEPAXI@Z 100056c4 f i Rendering:CIFXRenderContext.obj
 0001:000046e0       ??_EIFXRenderContext@@MAEPAXI@Z 100056e0 f i Rendering:CIFXRenderContext.obj
 0001:000046e0       ??_GIFXRenderContext@@MAEPAXI@Z 100056e0 f i Rendering:CIFXRenderContext.obj
 0001:0000470c       ??_G?$IFXSmartPtr@VCIFXRenderServices@@@@UAEPAXI@Z 1000570c f i Rendering:CIFXRenderContext.obj
 0001:0000470c       ??_E?$IFXSmartPtr@VCIFXRenderServices@@@@UAEPAXI@Z 1000570c f i Rendering:CIFXRenderContext.obj
 0001:00004798       ??0IFXRenderTexUnit@@QAE@XZ 10005798 f i Rendering:CIFXRenderContext.obj
 0001:0000480c       ??0?$IFXSmartPtr@VIFXRender@@@@QAE@XZ 1000580c f i Rendering:CIFXRenderContext.obj
 0001:0000481c       ??1?$IFXSmartPtr@VIFXRender@@@@UAE@XZ 1000581c f i Rendering:CIFXRenderContext.obj
 0001:0000488c       ??_E?$IFXSmartPtr@VIFXRender@@@@UAEPAXI@Z 1000588c f i Rendering:CIFXRenderContext.obj
 0001:00004940       ?AddRef@CIFXRenderContext@@$4PPPPPPPM@A@AIIXZ 10005940 f i Rendering:CIFXRenderContext.obj
 0001:0000494c       ?Release@CIFXRenderContext@@$4PPPPPPPM@A@AIIXZ 1000594c f i Rendering:CIFXRenderContext.obj
 0001:00004958       ?QueryInterface@CIFXRenderContext@@$4PPPPPPPM@A@AIHABUIFXGUID@@PAPAX@Z 10005958 f i Rendering:CIFXRenderContext.obj
 0001:00004964       ?SetRenderer@CIFXRenderContext@@$4PPPPPPPM@A@AIHI@Z 10005964 f i Rendering:CIFXRenderContext.obj
 0001:00004970       ?GetRenderer@CIFXRenderContext@@$4PPPPPPPM@A@AIIXZ 10005970 f i Rendering:CIFXRenderContext.obj
 0001:0000497c       ?GetRenderer@CIFXRenderContext@@UAIIXZ 1000597c f i Rendering:CIFXRenderContext.obj
 0001:00004984       ?GetCaps@CIFXRenderContext@@$4PPPPPPPM@A@AIHAAVIFXRenderCaps@@@Z 10005984 f i Rendering:CIFXRenderContext.obj
 0001:00004990       ?GetPerformanceData@CIFXRenderContext@@$4PPPPPPPM@A@AIHIAAI@Z 10005990 f i Rendering:CIFXRenderContext.obj
 0001:0000499c       ?ClearPerformanceData@CIFXRenderContext@@$4PPPPPPPM@A@AIHXZ 1000599c f i Rendering:CIFXRenderContext.obj
 0001:000049a8       ?GetRenderServices@CIFXRenderContext@@$4PPPPPPPM@A@AIHAAPAVIFXRenderServices@@@Z 100059a8 f i Rendering:CIFXRenderContext.obj
 0001:000049b4       ?GetColorFormat@CIFXRenderContext@@$4PPPPPPPM@A@AIIXZ 100059b4 f i Rendering:CIFXRenderContext.obj
 0001:000049c0       ?Enable@CIFXRenderContext@@$4PPPPPPPM@A@AIHI@Z 100059c0 f i Rendering:CIFXRenderContext.obj
 0001:000049cc       ?Disable@CIFXRenderContext@@$4PPPPPPPM@A@AIHI@Z 100059cc f i Rendering:CIFXRenderContext.obj
 0001:000049d8       ?SetBlend@CIFXRenderContext@@$4PPPPPPPM@A@AIHAAVIFXRenderBlend@@@Z 100059d8 f i Rendering:CIFXRenderContext.obj
 0001:000049e4       ?SetFog@CIFXRenderContext@@$4PPPPPPPM@A@AIHAAVIFXRenderFog@@@Z 100059e4 f i Rendering:CIFXRenderContext.obj
 0001:000049f0       ?SetLight@CIFXRenderContext@@$4PPPPPPPM@A@AIHIAAVIFXRenderLight@@@Z 100059f0 f i Rendering:CIFXRenderContext.obj
 0001:000049fc       ?GetGlobalAmbient@CIFXRenderContext@@$4PPPPPPPM@A@AIHAAVIFXVector4@@@Z 100059fc f i Rendering:CIFXRenderContext.obj
 0001:00004a08       ?SetGlobalAmbient@CIFXRenderContext@@$4PPPPPPPM@A@AIHABVIFXVector4@@@Z 10005a08 f i Rendering:CIFXRenderContext.obj
 0001:00004a14       ?SetMaterial@CIFXRenderContext@@$4PPPPPPPM@A@AIHAAVIFXRenderMaterial@@@Z 10005a14 f i Rendering:CIFXRenderContext.obj
 0001:00004a20       ?SetStencil@CIFXRenderContext@@$4PPPPPPPM@A@AIHAAVIFXRenderStencil@@@Z 10005a20 f i Rendering:CIFXRenderContext.obj
 0001:00004a2c       ?SetTexture@CIFXRenderContext@@$4PPPPPPPM@A@AIHAAVIFXTextureObject@@@Z 10005a2c f i Rendering:CIFXRenderContext.obj
 0001:00004a38       ?SetTextureUnit@CIFXRenderContext@@$4PPPPPPPM@A@AIHIAAVIFXRenderTexUnit@@@Z 10005a38 f i Rendering:CIFXRenderContext.obj
 0001:00004a44       ?SetConstantColor@CIFXRenderContext@@$4PPPPPPPM@A@AIHABVIFXVector4@@@Z 10005a44 f i Rendering:CIFXRenderContext.obj
 0001:00004a50       ?SetView@CIFXRenderContext@@$4PPPPPPPM@A@AIHAAVIFXRenderView@@@Z 10005a50 f i Rendering:CIFXRenderContext.obj
 0001:00004a5c       ?SetWindow@CIFXRenderContext@@$4PPPPPPPM@A@AIHAAVIFXRenderWindow@@@Z 10005a5c f i Rendering:CIFXRenderContext.obj
 0001:00004a68       ?GetWindow@CIFXRenderContext@@$4PPPPPPPM@A@AIHAAVIFXRenderWindow@@@Z 10005a68 f i Rendering:CIFXRenderContext.obj
 0001:00004a74       ?GetNumDevices@CIFXRenderContext@@$4PPPPPPPM@A@AIHAAVIFXRenderWindow@@AAI@Z 10005a74 f i Rendering:CIFXRenderContext.obj
 0001:00004a80       ?SetDevice@CIFXRenderContext@@$4PPPPPPPM@A@AIHI@Z 10005a80 f i Rendering:CIFXRenderContext.obj
 0001:00004a8c       ?Clear@CIFXRenderContext@@$4PPPPPPPM@A@AIHABVIFXRenderClear@@@Z 10005a8c f i Rendering:CIFXRenderContext.obj
 0001:00004a98       ?DrawMeshLines@CIFXRenderContext@@$4PPPPPPPM@A@AIHAAVIFXMesh@@@Z 10005a98 f i Rendering:CIFXRenderContext.obj
 0001:00004aa4       ?DrawMeshPoints@CIFXRenderContext@@$4PPPPPPPM@A@AIHAAVIFXMesh@@@Z 10005aa4 f i Rendering:CIFXRenderContext.obj
 0001:00004ab0       ?DrawMesh@CIFXRenderContext@@$4PPPPPPPM@A@AIHAAVIFXMesh@@@Z 10005ab0 f i Rendering:CIFXRenderContext.obj
 0001:00004abc       ?DeleteTexture@CIFXRenderContext@@$4PPPPPPPM@A@AIHI@Z 10005abc f i Rendering:CIFXRenderContext.obj
 0001:00004ac8       ?SetWorldMatrix@CIFXRenderContext@@$4PPPPPPPM@A@AIHABVIFXMatrix4x4@@@Z 10005ac8 f i Rendering:CIFXRenderContext.obj
 0001:00004ad4       ?SetViewMatrix@CIFXRenderContext@@$4PPPPPPPM@A@AIHABVIFXMatrix4x4@@@Z 10005ad4 f i Rendering:CIFXRenderContext.obj
 0001:00004ae0       ?GetViewMatrix@CIFXRenderContext@@$4PPPPPPPM@A@AIABVIFXMatrix4x4@@XZ 10005ae0 f i Rendering:CIFXRenderContext.obj
 0001:00004aec       ?GetView@CIFXRenderContext@@$4PPPPPPPM@A@BIABVIFXRenderView@@XZ 10005aec f i Rendering:CIFXRenderContext.obj
 0001:00004af8       ?GetView@CIFXRenderContext@@UBIABVIFXRenderView@@XZ 10005af8 f i Rendering:CIFXRenderContext.obj
 0001:00004b04       ?SetDepthMode@CIFXRenderContext@@$4PPPPPPPM@A@AIHI@Z 10005b04 f i Rendering:CIFXRenderContext.obj
 0001:00004b10       ?SetCullMode@CIFXRenderContext@@$4PPPPPPPM@A@AIHI@Z 10005b10 f i Rendering:CIFXRenderContext.obj
 0001:00004b1c       ?SetLineOffset@CIFXRenderContext@@$4PPPPPPPM@A@AIHI@Z 10005b1c f i Rendering:CIFXRenderContext.obj
 0001:00004b28       ?GetFrustumPlaneNormals@CIFXRenderContext@@$4PPPPPPPM@A@AIHPAVIFXVector3@@@Z 10005b28 f i Rendering:CIFXRenderContext.obj
 0001:00004b34       ?Swap@CIFXRenderContext@@$4PPPPPPPM@A@AIHXZ 10005b34 f i Rendering:CIFXRenderContext.obj
 0001:00004b40       ?GetTransformMatrix@CIFXRenderContext@@$4PPPPPPPM@A@AIHAAVIFXMatrix4x4@@@Z 10005b40 f i Rendering:CIFXRenderContext.obj
 0001:00004b4c       ?CalculateNumPasses@CIFXRenderContext@@$4PPPPPPPM@A@AIIXZ 10005b4c f i Rendering:CIFXRenderContext.obj
 0001:00004b58       ?ConfigureRenderPass@CIFXRenderContext@@$4PPPPPPPM@A@AIHI@Z 10005b58 f i Rendering:CIFXRenderContext.obj
 0001:00004b64       ?Reset@CIFXRenderContext@@$4PPPPPPPM@A@AIXXZ 10005b64 f i Rendering:CIFXRenderContext.obj
 0001:00004b70       ??_ECIFXRenderContext@@$2PPPPPPPM@A@AEPAXI@Z 10005b70 f i Rendering:CIFXRenderContext.obj
 0001:00004b7c       ?Initialize@CIFXRenderContext@@$4PPPPPPPM@A@AIHXZ 10005b7c f i Rendering:CIFXRenderContext.obj
 0001:00004b88       ??_EIFXString@@UAEPAXI@Z   10005b88 f i Rendering:CIFXRenderServices.obj
 0001:00004bdc       ??_ECIFXRenderServices@@MAEPAXI@Z 10005bdc f i Rendering:CIFXRenderServices.obj
 0001:00004bdc       ??_GCIFXRenderServices@@MAEPAXI@Z 10005bdc f i Rendering:CIFXRenderServices.obj
 0001:00004c00       ??1CIFXRenderServices@@MAE@XZ 10005c00 f   Rendering:CIFXRenderServices.obj
 0001:00004c86       ??1CIFXRenderType@@AAE@XZ  10005c86 f   Rendering:CIFXRenderServices.obj
 0001:00004d0a       ??1CIFXRCListEntry@@AAE@XZ 10005d0a f   Rendering:CIFXRenderServices.obj
 0001:00004d2c       ?CIFXRenderServicesFactory@@YIHABUIFXGUID@@PAPAX@Z 10005d2c f   Rendering:CIFXRenderServices.obj
 0001:00004e8c       ?Construct@CIFXRenderServices@@IAIHXZ 10005e8c f   Rendering:CIFXRenderServices.obj
 0001:00004f12       ?AddRef@CIFXRenderServices@@UAIIXZ 10005f12 f   Rendering:CIFXRenderServices.obj
 0001:00004f1c       ?Release@CIFXRenderServices@@UAIIXZ 10005f1c f   Rendering:CIFXRenderServices.obj
 0001:00004f42       ?QueryInterface@CIFXRenderServices@@UAIHABUIFXGUID@@PAPAX@Z 10005f42 f   Rendering:CIFXRenderServices.obj
 0001:000051c4       ?ResetSupportedInfo@CIFXRenderServices@@UAIHXZ 100061c4 f   Rendering:CIFXRenderServices.obj
 0001:000051e6       ?SetNotSupported@CIFXRenderServices@@UAIHI@Z 100061e6 f   Rendering:CIFXRenderServices.obj
 0001:0000520a       ?FindRenderType@CIFXRenderServices@@IAIPAVCIFXRenderType@@I@Z 1000620a f   Rendering:CIFXRenderServices.obj
 0001:0000521e       ?GetSupported@CIFXRenderServices@@UAIHI@Z 1000621e f   Rendering:CIFXRenderServices.obj
 0001:0000527a       ?GetSupported@CIFXRenderType@@AAIHPAVCIFXRenderServices@@I@Z 1000627a f   Rendering:CIFXRenderServices.obj
 0001:000053a0       ?GetRecommended@CIFXRenderServices@@UAIHI@Z 100063a0 f   Rendering:CIFXRenderServices.obj
 0001:000053b4       ?SetRecommended@CIFXRenderServices@@UAIHIH@Z 100063b4 f   Rendering:CIFXRenderServices.obj
 0001:000053d2       ?GetRequestedRenderId@CIFXRenderServices@@UAIIXZ 100063d2 f   Rendering:CIFXRenderServices.obj
 0001:000053d6       ?SetRequestedRenderId@CIFXRenderServices@@UAIHI@Z 100063d6 f   Rendering:CIFXRenderServices.obj
 0001:00005434       ?GetSafeRenderId@CIFXRenderServices@@UAIIXZ 10006434 f   Rendering:CIFXRenderServices.obj
 0001:00005438       ?SetSafeRenderId@CIFXRenderServices@@UAIHI@Z 10006438 f   Rendering:CIFXRenderServices.obj
 0001:00005464       ?SetTextureRenderFormat@CIFXRenderServices@@UAIHI@Z 10006464 f   Rendering:CIFXRenderServices.obj
 0001:0000547a       ?SetPixelAspectRatio@CIFXRenderServices@@UAIHM@Z 1000647a f   Rendering:CIFXRenderServices.obj
 0001:0000549c       ?SetDepthBufferFormat@CIFXRenderServices@@UAIHI@Z 1000649c f   Rendering:CIFXRenderServices.obj
 0001:000054c2       ?SetVSyncEnabled@CIFXRenderServices@@UAIHH@Z 100064c2 f   Rendering:CIFXRenderServices.obj
 0001:0000551e       ?GetTextureRenderFormat@CIFXRenderServices@@UAIIXZ 1000651e f   Rendering:CIFXRenderServices.obj
 0001:00005522       ?GetPixelAspectRatio@CIFXRenderServices@@UAIMXZ 10006522 f   Rendering:CIFXRenderServices.obj
 0001:00005526       ?GetDepthBufferFormat@CIFXRenderServices@@UAIIXZ 10006526 f   Rendering:CIFXRenderServices.obj
 0001:0000552a       ?GetVSyncEnabled@CIFXRenderServices@@UAIHXZ 1000652a f   Rendering:CIFXRenderServices.obj
 0001:0000552e       ?GetColorBufferDepth@CIFXRenderServices@@UAIIXZ 1000652e f   Rendering:CIFXRenderServices.obj
 0001:00005534       ?GetNumDevices@CIFXRenderServices@@UAIIXZ 10006534 f   Rendering:CIFXRenderServices.obj
 0001:00005834       ?GetMonitors@CIFXRenderServices@@UBIPBUIFXMonitor@@AAI@Z 10006834 f   Rendering:CIFXRenderServices.obj
 0001:0000583e       ?DeleteTexture@CIFXRenderServices@@UAIHI@Z 1000683e f   Rendering:CIFXRenderServices.obj
 0001:0000589c       ?DeleteStaticMesh@CIFXRenderServices@@UAIHI@Z 1000689c f   Rendering:CIFXRenderServices.obj
 0001:000058fa       ?PurgeDevices@CIFXRenderServices@@UAIHXZ 100068fa f   Rendering:CIFXRenderServices.obj
 0001:000059a0       ??4CIFXRenderType@@QAIAAV0@ABV0@@Z 100069a0 f   Rendering:CIFXRenderServices.obj
 0001:000059a4       ??0CIFXRenderType@@AAE@IABUIFXGUID@@0@Z 100069a4 f   Rendering:CIFXRenderServices.obj
 0001:000059d2       ??0CIFXRCListEntry@@AAE@XZ 100069d2 f   Rendering:CIFXRenderServices.obj
 0001:000059e0       ?CreateRenderer@CIFXRenderServices@@QAIHAAIAAV?$IFXSmartPtr@VIFXRender@@@@I@Z 100069e0 f   Rendering:CIFXRenderServices.obj
 0001:00005a78       ?CreateRenderer@CIFXRenderServices@@IAIHAAV?$IFXSmartPtr@VIFXRender@@@@II@Z 10006a78 f   Rendering:CIFXRenderServices.obj
 0001:00005af4       ?GetRenderDevice@CIFXRenderServices@@QAIHABUIFXGUID@@IAAV?$IFXSmartPtr@VIFXRenderDevice@@@@@Z 10006af4 f   Rendering:CIFXRenderServices.obj
 0001:00005bde       ?FindRenderType@CIFXRenderServices@@IAIPAVCIFXRenderType@@ABUIFXGUID@@@Z 10006bde f   Rendering:CIFXRenderServices.obj
 0001:00005caa       ?Reset@CIFXRenderServices@@QAIHXZ 10006caa f   Rendering:CIFXRenderServices.obj
 0001:00005cf2       ??0CIFXRenderServices@@IAE@XZ 10006cf2 f   Rendering:CIFXRenderServices.obj
 0001:00005d68       ?RemoveFromList@CIFXRCListEntry@@AAIXXZ 10006d68 f   Rendering:CIFXRenderServices.obj
 0001:00005d8c       ?InsertBefore@CIFXRCListEntry@@AAIXPAV1@@Z 10006d8c f   Rendering:CIFXRenderServices.obj
 0001:00005da8       ?FindRC@CIFXRenderServices@@IAIPAVCIFXRCListEntry@@PAVIFXRenderContext@@@Z 10006da8 f   Rendering:CIFXRenderServices.obj
 0001:00005dbc       ?UnregisterRenderContext@CIFXRenderServices@@QAIHPAVIFXRenderContext@@@Z 10006dbc f   Rendering:CIFXRenderServices.obj
 0001:00005e06       ?RegisterRenderContext@CIFXRenderServices@@QAIHPAVIFXRenderContext@@@Z 10006e06 f   Rendering:CIFXRenderServices.obj
 0001:00005ec2       ?SetDefaultAAMode@CIFXRenderServices@@UAIHI@Z 10006ec2 f   Rendering:CIFXRenderServices.obj
 0001:00005ede       ?GetDefaultAAMode@CIFXRenderServices@@UAIIXZ 10006ede f   Rendering:CIFXRenderServices.obj
 0001:00005ee2       ?SetDefaultAAEnabled@CIFXRenderServices@@UAIHH@Z 10006ee2 f   Rendering:CIFXRenderServices.obj
 0001:00005ee8       ?GetDefaultAAEnalbed@CIFXRenderServices@@UAIHXZ 10006ee8 f   Rendering:CIFXRenderServices.obj
 0001:00005eec       ?RegisterRenderer@CIFXRenderServices@@UAIHIABUIFXGUID@@0@Z 10006eec f   Rendering:CIFXRenderServices.obj
 0001:0000613c       ??_GCIFXRenderType@@AAEPAXI@Z 1000713c f i Rendering:CIFXRenderServices.obj
 0001:0000613c       ??_ECIFXRenderType@@AAEPAXI@Z 1000713c f i Rendering:CIFXRenderServices.obj
 0001:00006160       ??_ECIFXRCListEntry@@AAEPAXI@Z 10007160 f i Rendering:CIFXRenderServices.obj
 0001:00006160       ??_GCIFXRCListEntry@@AAEPAXI@Z 10007160 f i Rendering:CIFXRenderServices.obj
 0001:00006184       ??0?$IFXSmartPtr@VIFXRenderDevice@@@@QAE@XZ 10007184 f i Rendering:CIFXRenderServices.obj
 0001:00006194       ??1?$IFXSmartPtr@VIFXRenderDevice@@@@UAE@XZ 10007194 f i Rendering:CIFXRenderServices.obj
 0001:00006204       ??_E?$IFXSmartPtr@VIFXRenderDevice@@@@UAEPAXI@Z 10007204 f i Rendering:CIFXRenderServices.obj
 0001:000062b8       ?AddRef@CIFXRenderServices@@$4PPPPPPPM@A@AIIXZ 100072b8 f i Rendering:CIFXRenderServices.obj
 0001:000062c4       ?Release@CIFXRenderServices@@$4PPPPPPPM@A@AIIXZ 100072c4 f i Rendering:CIFXRenderServices.obj
 0001:000062d0       ?QueryInterface@CIFXRenderServices@@$4PPPPPPPM@A@AIHABUIFXGUID@@PAPAX@Z 100072d0 f i Rendering:CIFXRenderServices.obj
 0001:000062dc       ?ResetSupportedInfo@CIFXRenderServices@@$4PPPPPPPM@A@AIHXZ 100072dc f i Rendering:CIFXRenderServices.obj
 0001:000062e8       ?SetNotSupported@CIFXRenderServices@@$4PPPPPPPM@A@AIHI@Z 100072e8 f i Rendering:CIFXRenderServices.obj
 0001:000062f4       ?GetSupported@CIFXRenderServices@@$4PPPPPPPM@A@AIHI@Z 100072f4 f i Rendering:CIFXRenderServices.obj
 0001:00006300       ?GetRecommended@CIFXRenderServices@@$4PPPPPPPM@A@AIHI@Z 10007300 f i Rendering:CIFXRenderServices.obj
 0001:0000630c       ?SetRecommended@CIFXRenderServices@@$4PPPPPPPM@A@AIHIH@Z 1000730c f i Rendering:CIFXRenderServices.obj
 0001:00006318       ?GetRequestedRenderId@CIFXRenderServices@@$4PPPPPPPM@A@AIIXZ 10007318 f i Rendering:CIFXRenderServices.obj
 0001:00006324       ?SetRequestedRenderId@CIFXRenderServices@@$4PPPPPPPM@A@AIHI@Z 10007324 f i Rendering:CIFXRenderServices.obj
 0001:00006330       ?GetSafeRenderId@CIFXRenderServices@@$4PPPPPPPM@A@AIIXZ 10007330 f i Rendering:CIFXRenderServices.obj
 0001:0000633c       ?SetSafeRenderId@CIFXRenderServices@@$4PPPPPPPM@A@AIHI@Z 1000733c f i Rendering:CIFXRenderServices.obj
 0001:00006348       ?SetTextureRenderFormat@CIFXRenderServices@@$4PPPPPPPM@A@AIHI@Z 10007348 f i Rendering:CIFXRenderServices.obj
 0001:00006354       ?SetPixelAspectRatio@CIFXRenderServices@@$4PPPPPPPM@A@AIHM@Z 10007354 f i Rendering:CIFXRenderServices.obj
 0001:00006360       ?SetDepthBufferFormat@CIFXRenderServices@@$4PPPPPPPM@A@AIHI@Z 10007360 f i Rendering:CIFXRenderServices.obj
 0001:0000636c       ?SetVSyncEnabled@CIFXRenderServices@@$4PPPPPPPM@A@AIHH@Z 1000736c f i Rendering:CIFXRenderServices.obj
 0001:00006378       ?GetTextureRenderFormat@CIFXRenderServices@@$4PPPPPPPM@A@AIIXZ 10007378 f i Rendering:CIFXRenderServices.obj
 0001:00006384       ?GetPixelAspectRatio@CIFXRenderServices@@$4PPPPPPPM@A@AIMXZ 10007384 f i Rendering:CIFXRenderServices.obj
 0001:00006390       ?GetDepthBufferFormat@CIFXRenderServices@@$4PPPPPPPM@A@AIIXZ 10007390 f i Rendering:CIFXRenderServices.obj
 0001:0000639c       ?GetVSyncEnabled@CIFXRenderServices@@$4PPPPPPPM@A@AIHXZ 1000739c f i Rendering:CIFXRenderServices.obj
 0001:000063a8       ?GetColorBufferDepth@CIFXRenderServices@@$4PPPPPPPM@A@AIIXZ 100073a8 f i Rendering:CIFXRenderServices.obj
 0001:000063b4       ?GetNumDevices@CIFXRenderServices@@$4PPPPPPPM@A@AIIXZ 100073b4 f i Rendering:CIFXRenderServices.obj
 0001:000063c0       ?GetMonitors@CIFXRenderServices@@$4PPPPPPPM@A@BIPBUIFXMonitor@@AAI@Z 100073c0 f i Rendering:CIFXRenderServices.obj
 0001:000063cc       ?DeleteTexture@CIFXRenderServices@@$4PPPPPPPM@A@AIHI@Z 100073cc f i Rendering:CIFXRenderServices.obj
 0001:000063d8       ?DeleteStaticMesh@CIFXRenderServices@@$4PPPPPPPM@A@AIHI@Z 100073d8 f i Rendering:CIFXRenderServices.obj
 0001:000063e4       ?PurgeDevices@CIFXRenderServices@@$4PPPPPPPM@A@AIHXZ 100073e4 f i Rendering:CIFXRenderServices.obj
 0001:000063f0       ?SetDefaultAAMode@CIFXRenderServices@@$4PPPPPPPM@A@AIHI@Z 100073f0 f i Rendering:CIFXRenderServices.obj
 0001:000063fc       ?GetDefaultAAMode@CIFXRenderServices@@$4PPPPPPPM@A@AIIXZ 100073fc f i Rendering:CIFXRenderServices.obj
 0001:00006408       ?SetDefaultAAEnabled@CIFXRenderServices@@$4PPPPPPPM@A@AIHH@Z 10007408 f i Rendering:CIFXRenderServices.obj
 0001:00006414       ?GetDefaultAAEnalbed@CIFXRenderServices@@$4PPPPPPPM@A@AIHXZ 10007414 f i Rendering:CIFXRenderServices.obj
 0001:00006420       ?RegisterRenderer@CIFXRenderServices@@$4PPPPPPPM@A@AIHIABUIFXGUID@@0@Z 10007420 f i Rendering:CIFXRenderServices.obj
 0001:0000642c       ?AddRef@CIFXDeviceTexUnit@@UAIIXZ 1000742c f   Rendering:CIFXDeviceTexUnit.obj
 0001:00006436       ?Release@CIFXDeviceTexUnit@@UAIIXZ 10007436 f   Rendering:CIFXDeviceTexUnit.obj
 0001:0000645c       ?QueryInterface@CIFXDeviceTexUnit@@UAIHABUIFXGUID@@PAPAX@Z 1000745c f   Rendering:CIFXDeviceTexUnit.obj
 0001:00006624       ?SetTexUnit@CIFXDeviceTexUnit@@QAIHAAVIFXRenderTexUnit@@@Z 10007624 f   Rendering:CIFXDeviceTexUnit.obj
 0001:000068f6       ?SetTexCoordSet@CIFXDeviceTexUnit@@QAIHI@Z 100078f6 f   Rendering:CIFXDeviceTexUnit.obj
 0001:00006908       ?SetTextureId@CIFXDeviceTexUnit@@QAIHI@Z 10007908 f   Rendering:CIFXDeviceTexUnit.obj
 0001:0000692a       ?SetHWRGBInput0@CIFXDeviceTexUnit@@MAIHI@Z 1000792a f   Rendering:CIFXDeviceTexUnit.obj
 0001:00006930       ?SetHWRGBInput1@CIFXDeviceTexUnit@@MAIHI@Z 10007930 f   Rendering:CIFXDeviceTexUnit.obj
 0001:00006936       ?SetHWRGBInterpolatorSource@CIFXDeviceTexUnit@@MAIHI@Z 10007936 f   Rendering:CIFXDeviceTexUnit.obj
 0001:0000693c       ?SetHWRGBBlendFunc@CIFXDeviceTexUnit@@MAIHI@Z 1000793c f   Rendering:CIFXDeviceTexUnit.obj
 0001:00006942       ?SetHWAlphaInput0@CIFXDeviceTexUnit@@MAIHI@Z 10007942 f   Rendering:CIFXDeviceTexUnit.obj
 0001:00006948       ?SetHWAlphaInput1@CIFXDeviceTexUnit@@MAIHI@Z 10007948 f   Rendering:CIFXDeviceTexUnit.obj
 0001:0000694e       ?SetHWAlphaInterpolatorSource@CIFXDeviceTexUnit@@MAIHI@Z 1000794e f   Rendering:CIFXDeviceTexUnit.obj
 0001:00006954       ?SetHWAlphaFunc@CIFXDeviceTexUnit@@MAIHI@Z 10007954 f   Rendering:CIFXDeviceTexUnit.obj
 0001:0000695a       ?SetHWTextureId@CIFXDeviceTexUnit@@MAIHI@Z 1000795a f   Rendering:CIFXDeviceTexUnit.obj
 0001:00006960       ?SetHWTexCoordGen@CIFXDeviceTexUnit@@MAIHI@Z 10007960 f   Rendering:CIFXDeviceTexUnit.obj
 0001:00006966       ?SetHWTexRepeatU@CIFXDeviceTexUnit@@MAIHH@Z 10007966 f   Rendering:CIFXDeviceTexUnit.obj
 0001:0000696c       ?SetHWTexRepeatV@CIFXDeviceTexUnit@@MAIHH@Z 1000796c f   Rendering:CIFXDeviceTexUnit.obj
 0001:00006972       ?SetHWTexRepeatW@CIFXDeviceTexUnit@@MAIHH@Z 10007972 f   Rendering:CIFXDeviceTexUnit.obj
 0001:00006978       ?SetHWTextureTransform@CIFXDeviceTexUnit@@MAIHABVIFXMatrix4x4@@@Z 10007978 f   Rendering:CIFXDeviceTexUnit.obj
 0001:000069dc       ?SetHWTextureCoordinateSet@CIFXDeviceTexUnit@@MAIHH@Z 100079dc f   Rendering:CIFXDeviceTexUnit.obj
 0001:000069e2       ?SetHWTexCoordSet@CIFXDeviceTexUnit@@MAIHI@Z 100079e2 f   Rendering:CIFXDeviceTexUnit.obj
 0001:000069ec       ?SetHWTexUnit@CIFXDeviceTexUnit@@MAIHXZ 100079ec f   Rendering:CIFXDeviceTexUnit.obj
 0001:000069f0       ?SetDefaults@CIFXDeviceTexUnit@@IAIHXZ 100079f0 f   Rendering:CIFXDeviceTexUnit.obj
 0001:00006b04       ?IFXMatrix4x4_Multiply@@YAXPAMPBM1@Z 10007b04 f   Rendering:IFXMatrix4x4.obj
 0001:00006d98       ?IFXMatrix4x4_MakeIdentity@@YAXPAM@Z 10007d98 f   Rendering:IFXMatrix4x4.obj
 0001:00006df4       ?IFXMatrix4x4_Scale@@YAXPAMPBM@Z 10007df4 f   Rendering:IFXMatrix4x4.obj
 0001:00006e82       ?IFXMatrix4x4_Transpose@@YAXPAM@Z 10007e82 f   Rendering:IFXMatrix4x4.obj
 0001:00006ed0       ?IFXMatrix4x4_CalcDeterminant3x3@@YAMPBM@Z 10007ed0 f   Rendering:IFXMatrix4x4.obj
 0001:00006f4a       ?CalcDeterminant3x3@@YAMMMMMMMMMM@Z 10007f4a f   Rendering:IFXMatrix4x4.obj
 0001:00006f9c       ?IFXMatrix4x4_CalcDeterminant@@YAMPBM@Z 10007f9c f   Rendering:IFXMatrix4x4.obj
 0001:00007128       ?IFXMatrix4x4_Invert@@YAHPAMPBM@Z 10008128 f   Rendering:IFXMatrix4x4.obj
 0001:000078b4       ?IFXMatrix4x4_Multiply3x4@@YAXPAMPBM1@Z 100088b4 f   Rendering:IFXMatrix4x4.obj
 0001:00007a3c       ??4IFXMatrix4x4@@QAEAAV0@ABVIFXQuaternion@@@Z 10008a3c f   Rendering:IFXMatrix4x4.obj
 0001:00007b64       ?Scale@IFXMatrix4x4@@QAEAAV1@ABVIFXVector3@@@Z 10008b64 f   Rendering:IFXMatrix4x4.obj
 0001:00007bf2       ?Multiply3x4@IFXMatrix4x4@@QAEAAV1@ABV1@0@Z 10008bf2 f   Rendering:IFXMatrix4x4.obj
 0001:00007c0e       ?Multiply@IFXMatrix4x4@@QAEAAV1@ABV1@0@Z 10008c0e f   Rendering:IFXMatrix4x4.obj
 0001:00007c2a       ?Invert3x4@IFXMatrix4x4@@QAEHABV1@@Z 10008c2a f   Rendering:IFXMatrix4x4.obj
 0001:00007c3e       ?IFXMatrix4x4_Invert3x4@@YAHPAMPBM@Z 10008c3e f   Rendering:IFXMatrix4x4.obj
 0001:00007c46       ?IFXMatrix4x4_Invert3x4.@@YAHPAMPBM@Z 10008c46 f   Rendering:IFXMatrix4x4.obj
 0001:00007e60       ?Invert@IFXMatrix4x4@@QAEHABV1@@Z 10008e60 f   Rendering:IFXMatrix4x4.obj
 0001:00007e72       ?CalcDeterminant@IFXMatrix4x4@@QBEMXZ 10008e72 f   Rendering:IFXMatrix4x4.obj
 0001:00008000       ?CalcDeterminant3x3@IFXMatrix4x4@@QBEMXZ 10009000 f   Rendering:IFXMatrix4x4.obj
 0001:00008016       ?CalcDeterminant3x3@IFXMatrix4x4@@SAMMMMMMMMMM@Z 10009016 f   Rendering:IFXMatrix4x4.obj
 0001:00008074       ?CalcTRS@IFXMatrix4x4@@QBEHPAVIFXVector3@@PAVIFXQuaternion@@0@Z 10009074 f   Rendering:IFXMatrix4x4.obj
 0001:00008116       ?MakeIdentity@IFXMatrix4x4@@QAEAAV1@XZ 10009116 f   Rendering:IFXMatrix4x4.obj
 0001:00008126       ?Decompose@IFXMatrix4x4@@QBEHAAVIFXVector3@@AAV1@0@Z 10009126 f   Rendering:IFXMatrix4x4.obj
 0001:000087ee       ?CalcAxisScale@IFXMatrix4x4@@QBEXAAVIFXVector3@@@Z 100097ee f   Rendering:IFXMatrix4x4.obj
 0001:000089e8       ?Transpose@IFXMatrix4x4@@QAEXXZ 100099e8 f   Rendering:IFXMatrix4x4.obj
 0001:000089f2       ?RotateAxis@IFXMatrix4x4@@QAEXABVIFXVector4@@M@Z 100099f2 f   Rendering:IFXMatrix4x4.obj
 0001:00008bd8       ??0IFXString@@QAE@XZ       10009bd8 f   Rendering:IFXString.obj
 0001:00008bea       ??0IFXString@@QAE@PBD@Z    10009bea f   Rendering:IFXString.obj
 0001:00008c7c       ??0IFXString@@QAE@I@Z      10009c7c f   Rendering:IFXString.obj
 0001:00008cbe       ?Clear@IFXString@@QAEHXZ   10009cbe f   Rendering:IFXString.obj
 0001:00008ce0       ?LengthU8@IFXString@@QBEIXZ 10009ce0 f   Rendering:IFXString.obj
 0001:00008cfc       ?GetLengthU8@IFXString@@QAEHPAI@Z 10009cfc f   Rendering:IFXString.obj
 0001:00008d28       ?IsEmpty@IFXString@@QAEHXZ 10009d28 f   Rendering:IFXString.obj
 0001:00008d40       ?Assign@IFXString@@QAEHPBV1@@Z 10009d40 f   Rendering:IFXString.obj
 0001:00008dce       ?Compare@IFXString@@QBEHPBG@Z 10009dce f   Rendering:IFXString.obj
 0001:00008e04       ?CompareNoCase@IFXString@@QBEHPBG@Z 10009e04 f   Rendering:IFXString.obj
 0001:00008e8e       ??1IFXString@@UAE@XZ       10009e8e f   Rendering:IFXString.obj
 0001:00008eb4       ?ForceLowercase@IFXString@@QAEXXZ 10009eb4 f   Rendering:IFXString.obj
 0001:00008f06       ??0IFXString@@QAE@PBV0@@Z  10009f06 f   Rendering:IFXString.obj
 0001:00008f68       ??0IFXString@@QAE@PBG@Z    10009f68 f   Rendering:IFXString.obj
 0001:00008fe6       ?ForceUppercase@IFXString@@QAEXXZ 10009fe6 f   Rendering:IFXString.obj
 0001:00009038       ?ConvertToRawU8@IFXString@@QAEHPAEI@Z 1000a038 f   Rendering:IFXString.obj
 0001:00009094       ?Length@IFXString@@QBEIXZ  1000a094 f   Rendering:IFXString.obj
 0001:000090a6       ?Substring@IFXString@@QBEHPAV1@II@Z 1000a0a6 f   Rendering:IFXString.obj
 0001:00009124       ?Substring@IFXString@@QBEHPAGIII@Z 1000a124 f   Rendering:IFXString.obj
 0001:00009184       ?FindSubstring@IFXString@@QBEHPBGPAI@Z 1000a184 f   Rendering:IFXString.obj
 0001:00009226       ?SetAt@IFXString@@QAEHIPAG@Z 1000a226 f   Rendering:IFXString.obj
 0001:00009268       ?GetAt@IFXString@@QAEHIPAG@Z 1000a268 f   Rendering:IFXString.obj
 0001:000092aa       ?IsDigit@IFXString@@QAEHI@Z 1000a2aa f   Rendering:IFXString.obj
 0001:000092da       ?ToString@IFXString@@QAEHID@Z 1000a2da f   Rendering:IFXString.obj
 0001:00009368       ?Assign@IFXString@@QAEHPBE@Z 1000a368 f   Rendering:IFXString.obj
 0001:000093fe       ?ToValue@IFXString@@QAEHPAID@Z 1000a3fe f   Rendering:IFXString.obj
 0001:00009448       ??HIFXString@@QBE?AV0@ABV0@@Z 1000a448 f   Rendering:IFXString.obj
 0001:0000946a       ??0IFXString@@QAE@ABV0@@Z  1000a46a f   Rendering:IFXString.obj
 0001:000094ba       ?Concatenate@IFXString@@QAEHPBG@Z 1000a4ba f   Rendering:IFXString.obj
 0001:00009564       ?Assign@IFXString@@QAEHPBG@Z 1000a564 f   Rendering:IFXString.obj
 0001:000095f2       ??HIFXString@@QBE?AV0@PBE@Z 1000a5f2 f   Rendering:IFXString.obj
 0001:00009632       ??0IFXString@@QAE@PBE@Z    1000a632 f   Rendering:IFXString.obj
 0001:000096c4       ??HIFXString@@QBE?AV0@PBG@Z 1000a6c4 f   Rendering:IFXString.obj
 0001:000096e2       ?VSPrintf@IFXString@@QAEAAV1@PBGPAD@Z 1000a6e2 f   Rendering:IFXString.obj
 0001:000097d6       ?Match@IFXString@@QAEIPBGI@Z 1000a7d6 f   Rendering:IFXString.obj
 0001:000097fc       ??4IFXQuaternion@@QAEAAV0@ABVIFXMatrix4x4@@@Z 1000a7fc f   Rendering:IFXQuaternion.obj
 0001:00009a60       ?MakeRotation@IFXQuaternion@@QAEXMW4IFXAxisID@@@Z 1000aa60 f   Rendering:IFXQuaternion.obj
 0001:00009ab2       ?MakeRotation@IFXQuaternion@@QAEXMABVIFXVector3@@@Z 1000aab2 f   Rendering:IFXQuaternion.obj
 0001:00009bfc       ?MakeRotation@IFXQuaternion@@QAEXABVIFXVector3@@0@Z 1000abfc f   Rendering:IFXQuaternion.obj
 0001:00009ee2       ?ComputeAngleAxis@IFXQuaternion@@QBEXAAMAAVIFXVector3@@@Z 1000aee2 f   Rendering:IFXQuaternion.obj
 0001:00009fe6       ?Interpolate@IFXQuaternion@@QAEXMABV1@0@Z 1000afe6 f   Rendering:IFXQuaternion.obj
 0001:0000a220       ?ExtractEulerZ@IFXQuaternion@@QAEMXZ 1000b220 f   Rendering:IFXQuaternion.obj
 0001:0000a49a       ?ForcePositiveW@IFXQuaternion@@QAEXXZ 1000b49a f   Rendering:IFXQuaternion.obj
 0001:0000a4cc       _WCMatch                   1000b4cc f   Rendering:wcmatch.obj
 0001:0000a4f4       _WCMatchPos                1000b4f4 f   Rendering:wcmatch.obj
 0001:0000a500       _WCMatchPos.               1000b500 f   Rendering:wcmatch.obj
 0001:0000a598       ?_wc_match@@YAPBGPBG0H@Z   1000b598 f   Rendering:wcmatch.obj
 0001:0000a5a4       ?_wc_match.@@YAPBGPBG0H@Z  1000b5a4 f   Rendering:wcmatch.obj
 0001:0000a700       ?_wc_specialchar@@YAHH@Z   1000b700 f   Rendering:wcmatch.obj
 0001:0000a704       ?_wc_specialchar.@@YAHH@Z  1000b704 f   Rendering:wcmatch.obj
 0001:0000a71c       ?_equal_chars@@YAHHHH@Z    1000b71c f   Rendering:wcmatch.obj
 0001:0000a728       ?_equal_chars.@@YAHHHH@Z   1000b728 f   Rendering:wcmatch.obj
 0001:0000a764       _WCPossible                1000b764 f   Rendering:wcmatch.obj
 0001:0000a770       _WCPossible.               1000b770 f   Rendering:wcmatch.obj
 0001:0000a7de       ?_wc_ci_strchr@@YAPBGPBGGH@Z 1000b7de f   Rendering:wcmatch.obj
 0001:0000a7eb       ?_wc_ci_strchr.@@YAPBGPBGGH@Z 1000b7eb f   Rendering:wcmatch.obj
 0001:0000a844       ??_ECIFXDeviceLightNULL@@UAEPAXI@Z 1000b844 f i IFXRenderingNULL:CIFXDeviceLightNULL.obj
 0001:0000a844       ??_GCIFXDeviceLightNULL@@UAEPAXI@Z 1000b844 f i IFXRenderingNULL:CIFXDeviceLightNULL.obj
 0001:0000a868       ??1CIFXDeviceLightNULL@@UAE@XZ 1000b868 f   IFXRenderingNULL:CIFXDeviceLightNULL.obj
 0001:0000a8e2       ?CIFXDeviceLightNULLFactory@@YIHABUIFXGUID@@PAPAX@Z 1000b8e2 f   IFXRenderingNULL:CIFXDeviceLightNULL.obj
 0001:0000aa34       ?Construct@CIFXDeviceLightNULL@@IAIHXZ 1000ba34 f   IFXRenderingNULL:CIFXDeviceLightNULL.obj
 0001:0000aa4e       ?AddRef@CIFXDeviceLightNULL@@UAIIXZ 1000ba4e f   IFXRenderingNULL:CIFXDeviceLightNULL.obj
 0001:0000aa58       ?Release@CIFXDeviceLightNULL@@UAIIXZ 1000ba58 f   IFXRenderingNULL:CIFXDeviceLightNULL.obj
 0001:0000aa7e       ?QueryInterface@CIFXDeviceLightNULL@@UAIHABUIFXGUID@@PAPAX@Z 1000ba7e f   IFXRenderingNULL:CIFXDeviceLightNULL.obj
 0001:0000acfe       ??0CIFXDeviceLightNULL@@QAE@XZ 1000bcfe f   IFXRenderingNULL:CIFXDeviceLightNULL.obj
 0001:0000ad6e       ?SetHWEnabled@CIFXDeviceLightNULL@@MAIHH@Z 1000bd6e f   IFXRenderingNULL:CIFXDeviceLightNULL.obj
 0001:0000ad74       ?SetHWType@CIFXDeviceLightNULL@@MAIHI@Z 1000bd74 f   IFXRenderingNULL:CIFXDeviceLightNULL.obj
 0001:0000ad7a       ?SetHWAmbient@CIFXDeviceLightNULL@@MAIHABVIFXVector4@@@Z 1000bd7a f   IFXRenderingNULL:CIFXDeviceLightNULL.obj
 0001:0000ad94       ?SetHWDiffuse@CIFXDeviceLightNULL@@MAIHABVIFXVector4@@@Z 1000bd94 f   IFXRenderingNULL:CIFXDeviceLightNULL.obj
 0001:0000adae       ?SetHWSpecular@CIFXDeviceLightNULL@@MAIHABVIFXVector4@@@Z 1000bdae f   IFXRenderingNULL:CIFXDeviceLightNULL.obj
 0001:0000adc8       ?SetHWIntensity@CIFXDeviceLightNULL@@MAIHM@Z 1000bdc8 f   IFXRenderingNULL:CIFXDeviceLightNULL.obj
 0001:0000add4       ?SetHWAttenuation@CIFXDeviceLightNULL@@MAIHABVIFXVector3@@@Z 1000bdd4 f   IFXRenderingNULL:CIFXDeviceLightNULL.obj
 0001:0000ade8       ?SetHWSpotDecay@CIFXDeviceLightNULL@@MAIHH@Z 1000bde8 f   IFXRenderingNULL:CIFXDeviceLightNULL.obj
 0001:0000adf2       ?SetHWSpotInnerAngle@CIFXDeviceLightNULL@@MAIHM@Z 1000bdf2 f   IFXRenderingNULL:CIFXDeviceLightNULL.obj
 0001:0000ae02       ?SetHWSpotOuterAngle@CIFXDeviceLightNULL@@MAIHM@Z 1000be02 f   IFXRenderingNULL:CIFXDeviceLightNULL.obj
 0001:0000ae12       ?SetHWRange@CIFXDeviceLightNULL@@MAIHM@Z 1000be12 f   IFXRenderingNULL:CIFXDeviceLightNULL.obj
 0001:0000ae22       ?SetHWWorldMatrix@CIFXDeviceLightNULL@@MAIHABVIFXMatrix4x4@@@Z 1000be22 f   IFXRenderingNULL:CIFXDeviceLightNULL.obj
 0001:0000ae8a       ?SetHWLight@CIFXDeviceLightNULL@@MAIHXZ 1000be8a f   IFXRenderingNULL:CIFXDeviceLightNULL.obj
 0001:0000ae8e       ?InitData@CIFXDeviceLightNULL@@IAIXXZ 1000be8e f   IFXRenderingNULL:CIFXDeviceLightNULL.obj
 0001:0000ae9e       ?Initialize@CIFXDeviceLightNULL@@QAIHIAAV?$IFXSmartPtr@VCIFXRenderDeviceNULL@@@@@Z 1000be9e f   IFXRenderingNULL:CIFXDeviceLightNULL.obj
 0001:0000aec8       ?AddRef@CIFXDeviceLightNULL@@$4PPPPPPPM@A@AIIXZ 1000bec8 f i IFXRenderingNULL:CIFXDeviceLightNULL.obj
 0001:0000aed4       ?Release@CIFXDeviceLightNULL@@$4PPPPPPPM@A@AIIXZ 1000bed4 f i IFXRenderingNULL:CIFXDeviceLightNULL.obj
 0001:0000aee0       ?QueryInterface@CIFXDeviceLightNULL@@$4PPPPPPPM@A@AIHABUIFXGUID@@PAPAX@Z 1000bee0 f i IFXRenderingNULL:CIFXDeviceLightNULL.obj
 0001:0000aeec       ??_ECIFXDeviceLightNULL@@WJI@AEPAXI@Z 1000beec f i IFXRenderingNULL:CIFXDeviceLightNULL.obj
 0001:0000aef8       ??_GCIFXDeviceTextureNULL@@MAEPAXI@Z 1000bef8 f i IFXRenderingNULL:CIFXDeviceTextureNULL.obj
 0001:0000aef8       ??_ECIFXDeviceTextureNULL@@MAEPAXI@Z 1000bef8 f i IFXRenderingNULL:CIFXDeviceTextureNULL.obj
 0001:0000af1c       ??1CIFXDeviceTextureNULL@@MAE@XZ 1000bf1c f   IFXRenderingNULL:CIFXDeviceTextureNULL.obj
 0001:0000af98       ?CIFXDeviceTextureNULLFactory@@YIHABUIFXGUID@@PAPAX@Z 1000bf98 f   IFXRenderingNULL:CIFXDeviceTextureNULL.obj
 0001:0000b0b4       ?Construct@CIFXDeviceTextureNULL@@IAIHXZ 1000c0b4 f   IFXRenderingNULL:CIFXDeviceTextureNULL.obj
 0001:0000b0ce       ?AddRef@CIFXDeviceTextureNULL@@UAIIXZ 1000c0ce f   IFXRenderingNULL:CIFXDeviceTextureNULL.obj
 0001:0000b0d8       ?Release@CIFXDeviceTextureNULL@@UAIIXZ 1000c0d8 f   IFXRenderingNULL:CIFXDeviceTextureNULL.obj
 0001:0000b0f4       ?QueryInterface@CIFXDeviceTextureNULL@@UAIHABUIFXGUID@@PAPAX@Z 1000c0f4 f   IFXRenderingNULL:CIFXDeviceTextureNULL.obj
 0001:0000b368       ??0CIFXDeviceTextureNULL@@IAE@XZ 1000c368 f   IFXRenderingNULL:CIFXDeviceTextureNULL.obj
 0001:0000b3b8       ?SetHWRenderFormat@CIFXDeviceTextureNULL@@MAIHI@Z 1000c3b8 f   IFXRenderingNULL:CIFXDeviceTextureNULL.obj
 0001:0000b3be       ?SetHWTexture@CIFXDeviceTextureNULL@@MAIHXZ 1000c3be f   IFXRenderingNULL:CIFXDeviceTextureNULL.obj
 0001:0000b3f6       ?Lock@CIFXDeviceTextureNULL@@MAIHIIAAUSTextureOutputInfo@@@Z 1000c3f6 f   IFXRenderingNULL:CIFXDeviceTextureNULL.obj
 0001:0000b43e       ?Unlock@CIFXDeviceTextureNULL@@MAIHIIAAUSTextureOutputInfo@@@Z 1000c43e f   IFXRenderingNULL:CIFXDeviceTextureNULL.obj
 0001:0000b444       ?Create2DTexture@CIFXDeviceTextureNULL@@MAIHXZ 1000c444 f   IFXRenderingNULL:CIFXDeviceTextureNULL.obj
 0001:0000b4be       ?CreateCubeTexture@CIFXDeviceTextureNULL@@MAIHXZ 1000c4be f   IFXRenderingNULL:CIFXDeviceTextureNULL.obj
 0001:0000b4c4       ?InitData@CIFXDeviceTextureNULL@@IAIXXZ 1000c4c4 f   IFXRenderingNULL:CIFXDeviceTextureNULL.obj
 0001:0000b4de       ?Initialize@CIFXDeviceTextureNULL@@QAIHAAV?$IFXSmartPtr@VCIFXRenderDeviceNULL@@@@@Z 1000c4de f   IFXRenderingNULL:CIFXDeviceTextureNULL.obj
 0001:0000b500       ?SetHWEnabled@CIFXDeviceBase@@MAIHH@Z 1000c500 f i IFXRenderingNULL:CIFXDeviceTextureNULL.obj
 0001:0000b508       ?AddRef@CIFXDeviceTextureNULL@@$4PPPPPPPM@A@AIIXZ 1000c508 f i IFXRenderingNULL:CIFXDeviceTextureNULL.obj
 0001:0000b514       ?Release@CIFXDeviceTextureNULL@@$4PPPPPPPM@A@AIIXZ 1000c514 f i IFXRenderingNULL:CIFXDeviceTextureNULL.obj
 0001:0000b520       ?QueryInterface@CIFXDeviceTextureNULL@@$4PPPPPPPM@A@AIHABUIFXGUID@@PAPAX@Z 1000c520 f i IFXRenderingNULL:CIFXDeviceTextureNULL.obj
 0001:0000b52c       ??_ECIFXDeviceTexUnitNULL@@MAEPAXI@Z 1000c52c f i IFXRenderingNULL:CIFXDeviceTexUnitNULL.obj
 0001:0000b52c       ??_GCIFXDeviceTexUnitNULL@@MAEPAXI@Z 1000c52c f i IFXRenderingNULL:CIFXDeviceTexUnitNULL.obj
 0001:0000b550       ??1CIFXDeviceTexUnitNULL@@MAE@XZ 1000c550 f   IFXRenderingNULL:CIFXDeviceTexUnitNULL.obj
 0001:0000b5be       ?CIFXDeviceTexUnitNULLFactory@@YIHABUIFXGUID@@PAPAX@Z 1000c5be f   IFXRenderingNULL:CIFXDeviceTexUnitNULL.obj
 0001:0000b6c2       ??0CIFXDeviceTexUnitNULL@@IAE@XZ 1000c6c2 f   IFXRenderingNULL:CIFXDeviceTexUnitNULL.obj
 0001:0000b804       ?Construct@CIFXDeviceTexUnitNULL@@IAIHXZ 1000c804 f   IFXRenderingNULL:CIFXDeviceTexUnitNULL.obj
 0001:0000b89e       ?AddRef@CIFXDeviceTexUnitNULL@@UAIIXZ 1000c89e f   IFXRenderingNULL:CIFXDeviceTexUnitNULL.obj
 0001:0000b8a8       ?Release@CIFXDeviceTexUnitNULL@@UAIIXZ 1000c8a8 f   IFXRenderingNULL:CIFXDeviceTexUnitNULL.obj
 0001:0000b8ce       ?QueryInterface@CIFXDeviceTexUnitNULL@@UAIHABUIFXGUID@@PAPAX@Z 1000c8ce f   IFXRenderingNULL:CIFXDeviceTexUnitNULL.obj
 0001:0000bb4e       ?SetHWEnabled@CIFXDeviceTexUnitNULL@@MAIHH@Z 1000cb4e f   IFXRenderingNULL:CIFXDeviceTexUnitNULL.obj
 0001:0000bb54       ?SetHWRGBInput0@CIFXDeviceTexUnitNULL@@MAIHI@Z 1000cb54 f   IFXRenderingNULL:CIFXDeviceTexUnitNULL.obj
 0001:0000bb5a       ?SetHWRGBInput1@CIFXDeviceTexUnitNULL@@MAIHI@Z 1000cb5a f   IFXRenderingNULL:CIFXDeviceTexUnitNULL.obj
 0001:0000bb60       ?SetHWRGBInterpolatorSource@CIFXDeviceTexUnitNULL@@MAIHI@Z 1000cb60 f   IFXRenderingNULL:CIFXDeviceTexUnitNULL.obj
 0001:0000bb70       ?SetHWRGBBlendFunc@CIFXDeviceTexUnitNULL@@MAIHI@Z 1000cb70 f   IFXRenderingNULL:CIFXDeviceTexUnitNULL.obj
 0001:0000bb76       ?SetHWAlphaInput0@CIFXDeviceTexUnitNULL@@MAIHI@Z 1000cb76 f   IFXRenderingNULL:CIFXDeviceTexUnitNULL.obj
 0001:0000bb7c       ?SetHWAlphaInput1@CIFXDeviceTexUnitNULL@@MAIHI@Z 1000cb7c f   IFXRenderingNULL:CIFXDeviceTexUnitNULL.obj
 0001:0000bb82       ?SetHWAlphaInterpolatorSource@CIFXDeviceTexUnitNULL@@MAIHI@Z 1000cb82 f   IFXRenderingNULL:CIFXDeviceTexUnitNULL.obj
 0001:0000bb92       ?SetHWAlphaFunc@CIFXDeviceTexUnitNULL@@MAIHI@Z 1000cb92 f   IFXRenderingNULL:CIFXDeviceTexUnitNULL.obj
 0001:0000bb98       ?SetHWTextureId@CIFXDeviceTexUnitNULL@@MAIHI@Z 1000cb98 f   IFXRenderingNULL:CIFXDeviceTexUnitNULL.obj
 0001:0000bb9e       ?SetHWTexCoordGen@CIFXDeviceTexUnitNULL@@MAIHI@Z 1000cb9e f   IFXRenderingNULL:CIFXDeviceTexUnitNULL.obj
 0001:0000bba4       ?SetHWTextureTransform@CIFXDeviceTexUnitNULL@@MAIHABVIFXMatrix4x4@@@Z 1000cba4 f   IFXRenderingNULL:CIFXDeviceTexUnitNULL.obj
 0001:0000bc0c       ?SetHWTexRepeatU@CIFXDeviceTexUnitNULL@@MAIHH@Z 1000cc0c f   IFXRenderingNULL:CIFXDeviceTexUnitNULL.obj
 0001:0000bc12       ?SetHWTexRepeatV@CIFXDeviceTexUnitNULL@@MAIHH@Z 1000cc12 f   IFXRenderingNULL:CIFXDeviceTexUnitNULL.obj
 0001:0000bc18       ?SetHWTexRepeatW@CIFXDeviceTexUnitNULL@@MAIHH@Z 1000cc18 f   IFXRenderingNULL:CIFXDeviceTexUnitNULL.obj
 0001:0000bc1e       ?SetHWTexUnit@CIFXDeviceTexUnitNULL@@MAIHXZ 1000cc1e f   IFXRenderingNULL:CIFXDeviceTexUnitNULL.obj
 0001:0000bc22       ?SetHWTexCoordSet@CIFXDeviceTexUnitNULL@@MAIHI@Z 1000cc22 f   IFXRenderingNULL:CIFXDeviceTexUnitNULL.obj
 0001:0000bc26       ?SetHWMinFilter@CIFXDeviceTexUnitNULL@@IAIHI@Z 1000cc26 f   IFXRenderingNULL:CIFXDeviceTexUnitNULL.obj
 0001:0000bc30       ?SetHWMagFilter@CIFXDeviceTexUnitNULL@@IAIHI@Z 1000cc30 f   IFXRenderingNULL:CIFXDeviceTexUnitNULL.obj
 0001:0000bc3a       ?SetHWMipMode@CIFXDeviceTexUnitNULL@@IAIHI@Z 1000cc3a f   IFXRenderingNULL:CIFXDeviceTexUnitNULL.obj
 0001:0000bc44       ?GetTexture@CIFXDeviceTexUnitNULL@@IAIPAVCIFXDeviceTextureNULL@@I@Z 1000cc44 f   IFXRenderingNULL:CIFXDeviceTexUnitNULL.obj
 0001:0000bc9c       ?InitData@CIFXDeviceTexUnitNULL@@IAIXXZ 1000cc9c f   IFXRenderingNULL:CIFXDeviceTexUnitNULL.obj
 0001:0000bcc2       ?Initialize@CIFXDeviceTexUnitNULL@@QAIHIAAV?$IFXSmartPtr@VCIFXRenderDeviceNULL@@@@H@Z 1000ccc2 f   IFXRenderingNULL:CIFXDeviceTexUnitNULL.obj
 0001:0000bcec       ??1CIFXDeviceTexUnit@@MAE@XZ 1000ccec f i IFXRenderingNULL:CIFXDeviceTexUnitNULL.obj
 0001:0000bd2c       ??_ECIFXDeviceBase@@MAEPAXI@Z 1000cd2c f i IFXRenderingNULL:CIFXDeviceTexUnitNULL.obj
 0001:0000bd2c       ??_GCIFXDeviceBase@@MAEPAXI@Z 1000cd2c f i IFXRenderingNULL:CIFXDeviceTexUnitNULL.obj
 0001:0000bd58       ??_GCIFXDeviceTexUnit@@MAEPAXI@Z 1000cd58 f i IFXRenderingNULL:CIFXDeviceTexUnitNULL.obj
 0001:0000bd58       ??_ECIFXDeviceTexUnit@@MAEPAXI@Z 1000cd58 f i IFXRenderingNULL:CIFXDeviceTexUnitNULL.obj
 0001:0000bdac       ?AddRef@CIFXDeviceTexUnit@@$4PPPPPPPM@A@AIIXZ 1000cdac f i IFXRenderingNULL:CIFXDeviceTexUnitNULL.obj
 0001:0000bdb8       ?Release@CIFXDeviceTexUnit@@$4PPPPPPPM@A@AIIXZ 1000cdb8 f i IFXRenderingNULL:CIFXDeviceTexUnitNULL.obj
 0001:0000bdc4       ?QueryInterface@CIFXDeviceTexUnit@@$4PPPPPPPM@A@AIHABUIFXGUID@@PAPAX@Z 1000cdc4 f i IFXRenderingNULL:CIFXDeviceTexUnitNULL.obj
 0001:0000bdd0       ??_ECIFXDeviceTexUnit@@OIM@AEPAXI@Z 1000cdd0 f i IFXRenderingNULL:CIFXDeviceTexUnitNULL.obj
 0001:0000bddc       ?AddRef@CIFXDeviceTexUnitNULL@@$4PPPPPPPM@A@AIIXZ 1000cddc f i IFXRenderingNULL:CIFXDeviceTexUnitNULL.obj
 0001:0000bde8       ?Release@CIFXDeviceTexUnitNULL@@$4PPPPPPPM@A@AIIXZ 1000cde8 f i IFXRenderingNULL:CIFXDeviceTexUnitNULL.obj
 0001:0000bdf4       ?QueryInterface@CIFXDeviceTexUnitNULL@@$4PPPPPPPM@A@AIHABUIFXGUID@@PAPAX@Z 1000cdf4 f i IFXRenderingNULL:CIFXDeviceTexUnitNULL.obj
 0001:0000be00       ??_ECIFXDeviceTexUnitNULL@@OIM@AEPAXI@Z 1000ce00 f i IFXRenderingNULL:CIFXDeviceTexUnitNULL.obj
 0001:0000be0c       ??_GCIFXRenderNULL@@MAEPAXI@Z 1000ce0c f i IFXRenderingNULL:CIFXRenderNULL.obj
 0001:0000be0c       ??_ECIFXRenderNULL@@MAEPAXI@Z 1000ce0c f i IFXRenderingNULL:CIFXRenderNULL.obj
 0001:0000be4c       ??1CIFXRenderNULL@@MAE@XZ  1000ce4c f   IFXRenderingNULL:CIFXRenderNULL.obj
 0001:0000bf9e       ?CIFXRenderNULLFactory@@YIHABUIFXGUID@@PAPAX@Z 1000cf9e f   IFXRenderingNULL:CIFXRenderNULL.obj
 0001:0000c09c       ??0CIFXRenderNULL@@IAE@XZ  1000d09c f   IFXRenderingNULL:CIFXRenderNULL.obj
 0001:0000c260       ?Construct@CIFXRenderNULL@@IAIHXZ 1000d260 f   IFXRenderingNULL:CIFXRenderNULL.obj
 0001:0000c2aa       ?AddRef@CIFXRenderNULL@@UAIIXZ 1000d2aa f   IFXRenderingNULL:CIFXRenderNULL.obj
 0001:0000c2ba       ?Release@CIFXRenderNULL@@UAIIXZ 1000d2ba f   IFXRenderingNULL:CIFXRenderNULL.obj
 0001:0000c2f2       ?QueryInterface@CIFXRenderNULL@@UAIHABUIFXGUID@@PAPAX@Z 1000d2f2 f   IFXRenderingNULL:CIFXRenderNULL.obj
 0001:0000c586       ?Swap@CIFXRenderNULL@@UAIHXZ 1000d586 f   IFXRenderingNULL:CIFXRenderNULL.obj
 0001:0000c58a       ?CreateTexture@CIFXRenderNULL@@MAIHAAV?$IFXSmartPtr@VCIFXDeviceTexture@@@@@Z 1000d58a f   IFXRenderingNULL:CIFXRenderNULL.obj
 0001:0000c720       ?SetHWAntiAliasingMode@CIFXRenderNULL@@MAIHI@Z 1000d720 f   IFXRenderingNULL:CIFXRenderNULL.obj
 0001:0000c726       ?SetHWDepthStencilFormat@CIFXRenderNULL@@MAIHI@Z 1000d726 f   IFXRenderingNULL:CIFXRenderNULL.obj
 0001:0000c72c       ?MakeHWCurrent@CIFXRenderNULL@@MAIHXZ 1000d72c f   IFXRenderingNULL:CIFXRenderNULL.obj
 0001:0000c730       ?ClearHW@CIFXRenderNULL@@MAIHABVIFXRenderClear@@@Z 1000d730 f   IFXRenderingNULL:CIFXRenderNULL.obj
 0001:0000c73e       ?SetVSyncEnabled@CIFXRenderNULL@@MAIHH@Z 1000d73e f   IFXRenderingNULL:CIFXRenderNULL.obj
 0001:0000c75a       ?SetHWWindow@CIFXRenderNULL@@MAIHH@Z 1000d75a f   IFXRenderingNULL:CIFXRenderNULL.obj
 0001:0000c75e       ?InitData@CIFXRenderNULL@@IAIXXZ 1000d75e f   IFXRenderingNULL:CIFXRenderNULL.obj
 0001:0000c76a       ?Initialize@CIFXRenderNULL@@UAIHI@Z 1000d76a f   IFXRenderingNULL:CIFXRenderNULL.obj
 0001:0000ca34       ?Reset@CIFXRender@@UAIXXZ  1000da34 f i IFXRenderingNULL:CIFXRenderNULL.obj
 0001:0000ca34       ??1IFXRender@@UAE@XZ       1000da34 f i IFXRenderingNULL:CIFXRenderNULL.obj
 0001:0000ca38       ??1?$IFXSmartPtr@VCIFXRenderDeviceNULL@@@@UAE@XZ 1000da38 f i IFXRenderingNULL:CIFXRenderNULL.obj
 0001:0000caa8       ??_GIFXRender@@UAEPAXI@Z   1000daa8 f i IFXRenderingNULL:CIFXRenderNULL.obj
 0001:0000caa8       ??_EIFXRender@@UAEPAXI@Z   1000daa8 f i IFXRenderingNULL:CIFXRenderNULL.obj
 0001:0000cad8       ??_E?$IFXSmartPtr@VCIFXDeviceLightNULL@@@@UAEPAXI@Z 1000dad8 f i IFXRenderingNULL:CIFXRenderNULL.obj
 0001:0000cad8       ??_G?$IFXSmartPtr@VCIFXDeviceLightNULL@@@@UAEPAXI@Z 1000dad8 f i IFXRenderingNULL:CIFXRenderNULL.obj
 0001:0000cb68       ??_E?$IFXSmartPtr@VCIFXDeviceTexUnitNULL@@@@UAEPAXI@Z 1000db68 f i IFXRenderingNULL:CIFXRenderNULL.obj
 0001:0000cb68       ??_G?$IFXSmartPtr@VCIFXDeviceTexUnitNULL@@@@UAEPAXI@Z 1000db68 f i IFXRenderingNULL:CIFXRenderNULL.obj
 0001:0000cbf8       ??_E?$IFXSmartPtr@VCIFXRenderDeviceNULL@@@@UAEPAXI@Z 1000dbf8 f i IFXRenderingNULL:CIFXRenderNULL.obj
 0001:0000cbf8       ??_G?$IFXSmartPtr@VCIFXRenderDeviceNULL@@@@UAEPAXI@Z 1000dbf8 f i IFXRenderingNULL:CIFXRenderNULL.obj
 0001:0000cc84       ??_G?$IFXSmartPtr@VCIFXDeviceTextureNULL@@@@UAEPAXI@Z 1000dc84 f i IFXRenderingNULL:CIFXRenderNULL.obj
 0001:0000cc84       ??_E?$IFXSmartPtr@VCIFXDeviceTextureNULL@@@@UAEPAXI@Z 1000dc84 f i IFXRenderingNULL:CIFXRenderNULL.obj
 0001:0000cd10       ??0?$IFXSmartPtr@VCIFXDeviceLightNULL@@@@QAE@XZ 1000dd10 f i IFXRenderingNULL:CIFXRenderNULL.obj
 0001:0000cd20       ??1?$IFXSmartPtr@VCIFXDeviceLightNULL@@@@UAE@XZ 1000dd20 f i IFXRenderingNULL:CIFXRenderNULL.obj
 0001:0000cd94       ??0?$IFXSmartPtr@VCIFXDeviceTexUnitNULL@@@@QAE@XZ 1000dd94 f i IFXRenderingNULL:CIFXRenderNULL.obj
 0001:0000cda4       ??1?$IFXSmartPtr@VCIFXDeviceTexUnitNULL@@@@UAE@XZ 1000dda4 f i IFXRenderingNULL:CIFXRenderNULL.obj
 0001:0000ce18       ?ReCastTo@?$IFXSmartPtr@VCIFXDeviceTexUnitDX8@@@@UBIHABUIFXGUID@@AAPAX@Z 1000de18 f i IFXRenderingDX8:CIFXRenderDX8.obj
 0001:0000ce18       ?ReCastTo@?$IFXSmartPtr@VCIFXDeviceTexUnit@@@@UBIHABUIFXGUID@@AAPAX@Z 1000de18 f i Rendering:CIFXRenderDevice.obj
 0001:0000ce18       ?ReCastTo@?$IFXSmartPtr@VCIFXDeviceTexUnitDX7@@@@UBIHABUIFXGUID@@AAPAX@Z 1000de18 f i IFXRenderingDX7:CIFXRenderDX7.obj
 0001:0000ce18       ?ReCastTo@?$IFXSmartPtr@VCIFXDeviceTexUnitNULL@@@@UBIHABUIFXGUID@@AAPAX@Z 1000de18 f i IFXRenderingNULL:CIFXRenderNULL.obj
 0001:0000ce18       ?ReCastTo@?$IFXSmartPtr@VCIFXDeviceTexUnitOGL@@@@UBIHABUIFXGUID@@AAPAX@Z 1000de18 f i IFXRenderingOpenGL:CIFXRenderOGL.obj
 0001:0000ce44       ?ReCastTo@?$IFXSmartPtr@VCIFXRenderDeviceDX8@@@@UBIHABUIFXGUID@@AAPAX@Z 1000de44 f i IFXRenderingDX8:CIFXRenderDX8.obj
 0001:0000ce44       ?ReCastTo@?$IFXSmartPtr@VCIFXDeviceTexture@@@@UBIHABUIFXGUID@@AAPAX@Z 1000de44 f i Rendering:CIFXRender.obj
 0001:0000ce44       ?ReCastTo@?$IFXSmartPtr@VCIFXDeviceTextureDX7@@@@UBIHABUIFXGUID@@AAPAX@Z 1000de44 f i IFXRenderingDX7:CIFXRenderDX7.obj
 0001:0000ce44       ?ReCastTo@?$IFXSmartPtr@VCIFXRenderDeviceNULL@@@@UBIHABUIFXGUID@@AAPAX@Z 1000de44 f i IFXRenderingNULL:CIFXRenderNULL.obj
 0001:0000ce44       ?ReCastTo@?$IFXSmartPtr@VCIFXRenderDevice@@@@UBIHABUIFXGUID@@AAPAX@Z 1000de44 f i Rendering:CIFXRender.obj
 0001:0000ce44       ?ReCastTo@?$IFXSmartPtr@VCIFXDeviceTextureDX8@@@@UBIHABUIFXGUID@@AAPAX@Z 1000de44 f i IFXRenderingDX8:CIFXRenderDX8.obj
 0001:0000ce44       ?ReCastTo@?$IFXSmartPtr@VCIFXDeviceTextureOGL@@@@UBIHABUIFXGUID@@AAPAX@Z 1000de44 f i IFXRenderingOpenGL:CIFXRenderOGL.obj
 0001:0000ce44       ?ReCastTo@?$IFXSmartPtr@VIFXRenderDevice@@@@UBIHABUIFXGUID@@AAPAX@Z 1000de44 f i Rendering:CIFXRenderServices.obj
 0001:0000ce44       ?ReCastTo@?$IFXSmartPtr@VCIFXRenderDeviceOGL@@@@UBIHABUIFXGUID@@AAPAX@Z 1000de44 f i IFXRenderingOpenGL:CIFXDeviceTextureOGL.obj
 0001:0000ce44       ?ReCastTo@?$IFXSmartPtr@VCIFXRenderDeviceDX7@@@@UBIHABUIFXGUID@@AAPAX@Z 1000de44 f i IFXRenderingDX7:CIFXRenderDX7.obj
 0001:0000ce44       ?ReCastTo@?$IFXSmartPtr@VIFXDirectX7@@@@UBIHABUIFXGUID@@AAPAX@Z 1000de44 f i IFXRenderingDX7:CIFXRenderDeviceDX7.obj
 0001:0000ce44       ?ReCastTo@?$IFXSmartPtr@VCIFXDeviceTextureNULL@@@@UBIHABUIFXGUID@@AAPAX@Z 1000de44 f i IFXRenderingNULL:CIFXRenderNULL.obj
 0001:0000ce44       ?ReCastTo@?$IFXSmartPtr@VIFXRender@@@@UBIHABUIFXGUID@@AAPAX@Z 1000de44 f i Rendering:CIFXRenderContext.obj
 0001:0000ce44       ?ReCastTo@?$IFXSmartPtr@VCIFXRenderServices@@@@UBIHABUIFXGUID@@AAPAX@Z 1000de44 f i Rendering:CIFXRenderContext.obj
 0001:0000ce44       ?ReCastTo@?$IFXSmartPtr@VIFXRenderServices@@@@UBIHABUIFXGUID@@AAPAX@Z 1000de44 f i IFXRenderingOpenGL:CIFXRenderOGLOS.obj
 0001:0000ce44       ?ReCastTo@?$IFXSmartPtr@VIFXDirectX8@@@@UBIHABUIFXGUID@@AAPAX@Z 1000de44 f i IFXRenderingDX8:CIFXRenderDeviceDX8.obj
 0001:0000ce44       ?ReCastTo@?$IFXSmartPtr@VIFXSimpleHash@@@@UBIHABUIFXGUID@@AAPAX@Z 1000de44 f i Rendering:CIFXRenderDevice.obj
 0001:0000ce6c       ?AddRef@CIFXRenderNULL@@$4PPPPPPPM@A@AIIXZ 1000de6c f i IFXRenderingNULL:CIFXRenderNULL.obj
 0001:0000ce78       ?Release@CIFXRenderNULL@@$4PPPPPPPM@A@AIIXZ 1000de78 f i IFXRenderingNULL:CIFXRenderNULL.obj
 0001:0000ce84       ?QueryInterface@CIFXRenderNULL@@$4PPPPPPPM@A@AIHABUIFXGUID@@PAPAX@Z 1000de84 f i IFXRenderingNULL:CIFXRenderNULL.obj
 0001:0000ce90       ?GetCaps@CIFXRender@@$4PPPPPPPM@JA@AIHAAVIFXRenderCaps@@@Z 1000de90 f i IFXRenderingNULL:CIFXRenderNULL.obj
 0001:0000cea0       ?GetPerformanceData@CIFXRender@@$4PPPPPPPM@JA@AIHIAAI@Z 1000dea0 f i IFXRenderingNULL:CIFXRenderNULL.obj
 0001:0000ceb0       ?ClearPerformanceData@CIFXRender@@$4PPPPPPPM@JA@AIHXZ 1000deb0 f i IFXRenderingNULL:CIFXRenderNULL.obj
 0001:0000cec0       ?GetRenderServices@CIFXRender@@$4PPPPPPPM@JA@AIHAAPAVIFXRenderServices@@@Z 1000dec0 f i IFXRenderingNULL:CIFXRenderNULL.obj
 0001:0000ced0       ?GetRenderServices@CIFXRender@@UAIHAAPAVIFXRenderServices@@@Z 1000ded0 f i IFXRenderingNULL:CIFXRenderNULL.obj
 0001:0000ceec       ?GetColorFormat@CIFXRender@@$4PPPPPPPM@JA@AIIXZ 1000deec f i IFXRenderingNULL:CIFXRenderNULL.obj
 0001:0000cefc       ?Enable@CIFXRender@@$4PPPPPPPM@JA@AIHI@Z 1000defc f i IFXRenderingNULL:CIFXRenderNULL.obj
 0001:0000cf0c       ?Disable@CIFXRender@@$4PPPPPPPM@JA@AIHI@Z 1000df0c f i IFXRenderingNULL:CIFXRenderNULL.obj
 0001:0000cf1c       ?SetBlend@CIFXRender@@$4PPPPPPPM@JA@AIHAAVIFXRenderBlend@@@Z 1000df1c f i IFXRenderingNULL:CIFXRenderNULL.obj
 0001:0000cf2c       ?SetFog@CIFXRender@@$4PPPPPPPM@JA@AIHAAVIFXRenderFog@@@Z 1000df2c f i IFXRenderingNULL:CIFXRenderNULL.obj
 0001:0000cf3c       ?SetLight@CIFXRender@@$4PPPPPPPM@JA@AIHIAAVIFXRenderLight@@@Z 1000df3c f i IFXRenderingNULL:CIFXRenderNULL.obj
 0001:0000cf4c       ?GetGlobalAmbient@CIFXRender@@$4PPPPPPPM@JA@AIHAAVIFXVector4@@@Z 1000df4c f i IFXRenderingNULL:CIFXRenderNULL.obj
 0001:0000cf5c       ?SetGlobalAmbient@CIFXRender@@$4PPPPPPPM@JA@AIHABVIFXVector4@@@Z 1000df5c f i IFXRenderingNULL:CIFXRenderNULL.obj
 0001:0000cf6c       ?SetMaterial@CIFXRender@@$4PPPPPPPM@JA@AIHAAVIFXRenderMaterial@@@Z 1000df6c f i IFXRenderingNULL:CIFXRenderNULL.obj
 0001:0000cf7c       ?SetStencil@CIFXRender@@$4PPPPPPPM@JA@AIHAAVIFXRenderStencil@@@Z 1000df7c f i IFXRenderingNULL:CIFXRenderNULL.obj
 0001:0000cf8c       ?SetTexture@CIFXRender@@$4PPPPPPPM@JA@AIHAAVIFXTextureObject@@@Z 1000df8c f i IFXRenderingNULL:CIFXRenderNULL.obj
 0001:0000cf9c       ?SetTextureUnit@CIFXRender@@$4PPPPPPPM@JA@AIHIAAVIFXRenderTexUnit@@@Z 1000df9c f i IFXRenderingNULL:CIFXRenderNULL.obj
 0001:0000cfac       ?SetConstantColor@CIFXRender@@$4PPPPPPPM@JA@AIHABVIFXVector4@@@Z 1000dfac f i IFXRenderingNULL:CIFXRenderNULL.obj
 0001:0000cfbc       ?SetView@CIFXRender@@$4PPPPPPPM@JA@AIHAAVIFXRenderView@@@Z 1000dfbc f i IFXRenderingNULL:CIFXRenderNULL.obj
 0001:0000cfcc       ?SetWindow@CIFXRender@@$4PPPPPPPM@JA@AIHAAVIFXRenderWindow@@@Z 1000dfcc f i IFXRenderingNULL:CIFXRenderNULL.obj
 0001:0000cfdc       ?GetWindow@CIFXRender@@$4PPPPPPPM@JA@AIHAAVIFXRenderWindow@@@Z 1000dfdc f i IFXRenderingNULL:CIFXRenderNULL.obj
 0001:0000cfec       ?GetNumDevices@CIFXRender@@$4PPPPPPPM@JA@AIHAAVIFXRenderWindow@@AAI@Z 1000dfec f i IFXRenderingNULL:CIFXRenderNULL.obj
 0001:0000cffc       ?GetNumDevices@CIFXRender@@UAIHAAVIFXRenderWindow@@AAI@Z 1000dffc f i IFXRenderingNULL:CIFXRenderNULL.obj
 0001:0000d004       ?Clear@CIFXRender@@$4PPPPPPPM@JA@AIHABVIFXRenderClear@@@Z 1000e004 f i IFXRenderingNULL:CIFXRenderNULL.obj
 0001:0000d014       ?DrawMeshLines@CIFXRender@@$4PPPPPPPM@JA@AIHAAVIFXMesh@@@Z 1000e014 f i IFXRenderingNULL:CIFXRenderNULL.obj
 0001:0000d024       ?DrawMeshPoints@CIFXRender@@$4PPPPPPPM@JA@AIHAAVIFXMesh@@@Z 1000e024 f i IFXRenderingNULL:CIFXRenderNULL.obj
 0001:0000d034       ?DrawMesh@CIFXRender@@$4PPPPPPPM@JA@AIHAAVIFXMesh@@@Z 1000e034 f i IFXRenderingNULL:CIFXRenderNULL.obj
 0001:0000d044       ?DeleteTexture@CIFXRender@@$4PPPPPPPM@JA@AIHI@Z 1000e044 f i IFXRenderingNULL:CIFXRenderNULL.obj
 0001:0000d054       ?SetWorldMatrix@CIFXRender@@$4PPPPPPPM@JA@AIHABVIFXMatrix4x4@@@Z 1000e054 f i IFXRenderingNULL:CIFXRenderNULL.obj
 0001:0000d064       ?SetViewMatrix@CIFXRender@@$4PPPPPPPM@JA@AIHABVIFXMatrix4x4@@@Z 1000e064 f i IFXRenderingNULL:CIFXRenderNULL.obj
 0001:0000d074       ?GetViewMatrix@CIFXRender@@$4PPPPPPPM@JA@AIABVIFXMatrix4x4@@XZ 1000e074 f i IFXRenderingNULL:CIFXRenderNULL.obj
 0001:0000d084       ?SetDepthMode@CIFXRender@@$4PPPPPPPM@JA@AIHI@Z 1000e084 f i IFXRenderingNULL:CIFXRenderNULL.obj
 0001:0000d094       ?SetCullMode@CIFXRender@@$4PPPPPPPM@JA@AIHI@Z 1000e094 f i IFXRenderingNULL:CIFXRenderNULL.obj
 0001:0000d0a4       ?SetLineOffset@CIFXRender@@$4PPPPPPPM@JA@AIHI@Z 1000e0a4 f i IFXRenderingNULL:CIFXRenderNULL.obj
 0001:0000d0b4       ?Swap@CIFXRenderNULL@@$4PPPPPPPM@A@AIHXZ 1000e0b4 f i IFXRenderingNULL:CIFXRenderNULL.obj
 0001:0000d0c0       ?GetTransformMatrix@CIFXRender@@$4PPPPPPPM@JA@AIHAAVIFXMatrix4x4@@@Z 1000e0c0 f i IFXRenderingNULL:CIFXRenderNULL.obj
 0001:0000d0d0       ?SetDevice@CIFXRender@@$4PPPPPPPM@JA@AIHI@Z 1000e0d0 f i IFXRenderingNULL:CIFXRenderNULL.obj
 0001:0000d0d0       ?CalculateNumPasses@CIFXRender@@$4PPPPPPPM@JA@AIIXZ 1000e0d0 f i IFXRenderingNULL:CIFXRenderNULL.obj
 0001:0000d0d0       ?ConfigureRenderPass@CIFXRender@@$4PPPPPPPM@JA@AIHI@Z 1000e0d0 f i IFXRenderingNULL:CIFXRenderNULL.obj
 0001:0000d0d0       ?GetView@CIFXRender@@$4PPPPPPPM@JA@BIABVIFXRenderView@@XZ 1000e0d0 f i IFXRenderingNULL:CIFXRenderNULL.obj
 0001:0000d0d0       ?SetRenderer@CIFXRender@@$4PPPPPPPM@JA@AIHI@Z 1000e0d0 f i IFXRenderingNULL:CIFXRenderNULL.obj
 0001:0000d0d0       ?GetRenderer@CIFXRender@@$4PPPPPPPM@JA@AIIXZ 1000e0d0 f i IFXRenderingNULL:CIFXRenderNULL.obj
 0001:0000d0e0       ?Reset@CIFXRender@@$4PPPPPPPM@JA@AIXXZ 1000e0e0 f i IFXRenderingNULL:CIFXRenderNULL.obj
 0001:0000d0f0       ??_ECIFXRenderNULL@@$2PPPPPPPM@A@AEPAXI@Z 1000e0f0 f i IFXRenderingNULL:CIFXRenderNULL.obj
 0001:0000d0fc       ?MakeCurrent@CIFXRender@@$4PPPPPPPM@JA@AIHXZ 1000e0fc f i IFXRenderingNULL:CIFXRenderNULL.obj
 0001:0000d10c       ??1?$IFXSmartPtr@VCIFXDeviceTextureNULL@@@@UAE@XZ 1000e10c f i IFXRenderingNULL:CIFXRenderNULL.obj
 0001:0000d17c       ?Initialize@CIFXRenderNULL@@$4PPPPPPPM@A@AIHI@Z 1000e17c f i IFXRenderingNULL:CIFXRenderNULL.obj
 0001:0000d188       ?Initialize@CIFXRender@@$4PPPPPPPM@JA@AIHXZ 1000e188 f i IFXRenderingNULL:CIFXRenderNULL.obj
 0001:0000d198       ?Initialize@CIFXRender@@UAIHXZ 1000e198 f i IFXRenderingNULL:CIFXRenderNULL.obj
 0001:0000d1a0       ??_EIFXRenderNULLStackEntry@@QAEPAXI@Z 1000e1a0 f i IFXRenderingNULL:CIFXRenderDeviceNULL.obj
 0001:0000d1a0       ??_GIFXRenderNULLStackEntry@@QAEPAXI@Z 1000e1a0 f i IFXRenderingNULL:CIFXRenderDeviceNULL.obj
 0001:0000d1d0       ??_GCIFXRenderDeviceNULL@@MAEPAXI@Z 1000e1d0 f i IFXRenderingNULL:CIFXRenderDeviceNULL.obj
 0001:0000d1d0       ??_ECIFXRenderDeviceNULL@@MAEPAXI@Z 1000e1d0 f i IFXRenderingNULL:CIFXRenderDeviceNULL.obj
 0001:0000d210       ??1CIFXRenderDeviceNULL@@MAE@XZ 1000e210 f   IFXRenderingNULL:CIFXRenderDeviceNULL.obj
 0001:0000d316       ?CIFXRenderDeviceNULLFactory@@YIHABUIFXGUID@@PAPAX@Z 1000e316 f   IFXRenderingNULL:CIFXRenderDeviceNULL.obj
 0001:0000d526       ?Construct@CIFXRenderDeviceNULL@@IAIHXZ 1000e526 f   IFXRenderingNULL:CIFXRenderDeviceNULL.obj
 0001:0000d75a       ?AddRef@CIFXRenderDeviceNULL@@UAIIXZ 1000e75a f   IFXRenderingNULL:CIFXRenderDeviceNULL.obj
 0001:0000d76a       ?Release@CIFXRenderDeviceNULL@@UAIIXZ 1000e76a f   IFXRenderingNULL:CIFXRenderDeviceNULL.obj
 0001:0000d7a0       ?QueryInterface@CIFXRenderDeviceNULL@@UAIHABUIFXGUID@@PAPAX@Z 1000e7a0 f   IFXRenderingNULL:CIFXRenderDeviceNULL.obj
 0001:0000daea       ?GetSupported@CIFXRenderDeviceNULL@@UAIHIAAH@Z 1000eaea f   IFXRenderingNULL:CIFXRenderDeviceNULL.obj
 0001:0000dafa       ?GetCaps@CIFXRenderDeviceNULL@@UBIHAAVIFXRenderCaps@@@Z 1000eafa f   IFXRenderingNULL:CIFXRenderDeviceNULL.obj
 0001:0000db20       ?DrawMesh@CIFXRenderDeviceNULL@@UAIHAAVIFXMesh@@AAIE@Z 1000eb20 f   IFXRenderingNULL:CIFXRenderDeviceNULL.obj
 0001:0000db26       ?ResetDevice@CIFXRenderDeviceNULL@@QAIHXZ 1000eb26 f   IFXRenderingNULL:CIFXRenderDeviceNULL.obj
 0001:0000db2a       ?RegisterWindow@CIFXRenderDeviceNULL@@QAIHPAVCIFXRenderNULL@@@Z 1000eb2a f   IFXRenderingNULL:CIFXRenderDeviceNULL.obj
 0001:0000dbd6       ?FindStackEntry@CIFXRenderDeviceNULL@@IAIPAVIFXRenderNULLStackEntry@@PAVCIFXRenderNULL@@@Z 1000ebd6 f   IFXRenderingNULL:CIFXRenderDeviceNULL.obj
 0001:0000dbec       ?UnregisterWindow@CIFXRenderDeviceNULL@@QAIHPAVCIFXRenderNULL@@@Z 1000ebec f   IFXRenderingNULL:CIFXRenderDeviceNULL.obj
 0001:0000dbfe       ?RemoveStackEntry@CIFXRenderDeviceNULL@@IAIXPAVCIFXRenderNULL@@@Z 1000ebfe f   IFXRenderingNULL:CIFXRenderDeviceNULL.obj
 0001:0000dc4a       ??0CIFXRenderDeviceNULL@@IAE@XZ 1000ec4a f   IFXRenderingNULL:CIFXRenderDeviceNULL.obj
 0001:0000ddb2       ?SetHWTestRef@CIFXRenderDeviceNULL@@MAIHM@Z 1000edb2 f   IFXRenderingNULL:CIFXRenderDeviceNULL.obj
 0001:0000dde2       ?SetHWBlendFunc@CIFXRenderDeviceNULL@@MAIHI@Z 1000ede2 f   IFXRenderingNULL:CIFXRenderDeviceNULL.obj
 0001:0000de12       ?SetHWTestFunc@CIFXRenderDeviceNULL@@MAIHI@Z 1000ee12 f   IFXRenderingNULL:CIFXRenderDeviceNULL.obj
 0001:0000de32       ?SetHWAlphaTestEnabled@CIFXRenderDeviceNULL@@MAIHH@Z 1000ee32 f   IFXRenderingNULL:CIFXRenderDeviceNULL.obj
 0001:0000de38       ?SetHWBlendEnabled@CIFXRenderDeviceNULL@@MAIHH@Z 1000ee38 f   IFXRenderingNULL:CIFXRenderDeviceNULL.obj
 0001:0000de3e       ?SetHWFogEnabled@CIFXRenderDeviceNULL@@MAIHH@Z 1000ee3e f   IFXRenderingNULL:CIFXRenderDeviceNULL.obj
 0001:0000de44       ?SetHWMode@CIFXRenderDeviceNULL@@MAIHI@Z 1000ee44 f   IFXRenderingNULL:CIFXRenderDeviceNULL.obj
 0001:0000de5e       ?SetHWColor@CIFXRenderDeviceNULL@@MAIHABVIFXVector4@@@Z 1000ee5e f   IFXRenderingNULL:CIFXRenderDeviceNULL.obj
 0001:0000de78       ?SetHWLinearNear@CIFXRenderDeviceNULL@@MAIHM@Z 1000ee78 f   IFXRenderingNULL:CIFXRenderDeviceNULL.obj
 0001:0000de84       ?SetHWFar@CIFXRenderDeviceNULL@@MAIHM@Z 1000ee84 f   IFXRenderingNULL:CIFXRenderDeviceNULL.obj
 0001:0000de90       ?SetHWEmissive@CIFXRenderDeviceNULL@@MAIHABVIFXVector4@@@Z 1000ee90 f   IFXRenderingNULL:CIFXRenderDeviceNULL.obj
 0001:0000deaa       ?SetHWAmbient@CIFXRenderDeviceNULL@@MAIHABVIFXVector4@@@Z 1000eeaa f   IFXRenderingNULL:CIFXRenderDeviceNULL.obj
 0001:0000dec4       ?SetHWDiffuse@CIFXRenderDeviceNULL@@MAIHABVIFXVector4@@@Z 1000eec4 f   IFXRenderingNULL:CIFXRenderDeviceNULL.obj
 0001:0000dede       ?SetHWSpecular@CIFXRenderDeviceNULL@@MAIHABVIFXVector4@@@Z 1000eede f   IFXRenderingNULL:CIFXRenderDeviceNULL.obj
 0001:0000df02       ?SetHWShininess@CIFXRenderDeviceNULL@@MAIHM@Z 1000ef02 f   IFXRenderingNULL:CIFXRenderDeviceNULL.obj
 0001:0000df12       ?SetHWFastSpecular@CIFXRenderDeviceNULL@@MAIHH@Z 1000ef12 f   IFXRenderingNULL:CIFXRenderDeviceNULL.obj
 0001:0000df1c       ?SetHWRenderStyle@CIFXRenderDeviceNULL@@MAIHI@Z 1000ef1c f   IFXRenderingNULL:CIFXRenderDeviceNULL.obj
 0001:0000df36       ?SetHWShadeModel@CIFXRenderDeviceNULL@@MAIHI@Z 1000ef36 f   IFXRenderingNULL:CIFXRenderDeviceNULL.obj
 0001:0000df50       ?SetHWMaterial@CIFXRenderDeviceNULL@@MAIHXZ 1000ef50 f   IFXRenderingNULL:CIFXRenderDeviceNULL.obj
 0001:0000df54       ?SetHWLighting@CIFXRenderDeviceNULL@@MAIHH@Z 1000ef54 f   IFXRenderingNULL:CIFXRenderDeviceNULL.obj
 0001:0000df5e       ?SetHWDepthTest@CIFXRenderDeviceNULL@@MAIHH@Z 1000ef5e f   IFXRenderingNULL:CIFXRenderDeviceNULL.obj
 0001:0000df68       ?SetHWDepthWrite@CIFXRenderDeviceNULL@@MAIHH@Z 1000ef68 f   IFXRenderingNULL:CIFXRenderDeviceNULL.obj
 0001:0000df72       ?SetHWDepthCompare@CIFXRenderDeviceNULL@@MAIHI@Z 1000ef72 f   IFXRenderingNULL:CIFXRenderDeviceNULL.obj
 0001:0000df7c       ?SetHWCull@CIFXRenderDeviceNULL@@MAIHH@Z 1000ef7c f   IFXRenderingNULL:CIFXRenderDeviceNULL.obj
 0001:0000dfc0       ?SetHWCullMode@CIFXRenderDeviceNULL@@MAIHI@Z 1000efc0 f   IFXRenderingNULL:CIFXRenderDeviceNULL.obj
 0001:0000dfca       ?SetHWViewMatrix@CIFXRenderDeviceNULL@@MAIHABVIFXMatrix4x4@@@Z 1000efca f   IFXRenderingNULL:CIFXRenderDeviceNULL.obj
 0001:0000e036       ?SetHWWorldMatrix@CIFXRenderDeviceNULL@@MAIHABVIFXMatrix4x4@@@Z 1000f036 f   IFXRenderingNULL:CIFXRenderDeviceNULL.obj
 0001:0000e0a2       ?SetHWGlobalAmbient@CIFXRenderDeviceNULL@@MAIHABVIFXVector4@@@Z 1000f0a2 f   IFXRenderingNULL:CIFXRenderDeviceNULL.obj
 0001:0000e0c8       ?SetHWConstantColor@CIFXRenderDeviceNULL@@MAIHABVIFXVector4@@@Z 1000f0c8 f   IFXRenderingNULL:CIFXRenderDeviceNULL.obj
 0001:0000e0ee       ?SetHWNormalization@CIFXRenderDeviceNULL@@MAIHH@Z 1000f0ee f   IFXRenderingNULL:CIFXRenderDeviceNULL.obj
 0001:0000e0f8       ?SetHWStencilEnabled@CIFXRenderDeviceNULL@@MAIHH@Z 1000f0f8 f   IFXRenderingNULL:CIFXRenderDeviceNULL.obj
 0001:0000e102       ?SetHWPassOp@CIFXRenderDeviceNULL@@MAIHI@Z 1000f102 f   IFXRenderingNULL:CIFXRenderDeviceNULL.obj
 0001:0000e12c       ?SetHWStencilFunc@CIFXRenderDeviceNULL@@MAIHI@Z 1000f12c f   IFXRenderingNULL:CIFXRenderDeviceNULL.obj
 0001:0000e156       ?SetHWTestMask@CIFXRenderDeviceNULL@@MAIHI@Z 1000f156 f   IFXRenderingNULL:CIFXRenderDeviceNULL.obj
 0001:0000e160       ?SetHWWriteMask@CIFXRenderDeviceNULL@@MAIHI@Z 1000f160 f   IFXRenderingNULL:CIFXRenderDeviceNULL.obj
 0001:0000e16a       ?SetHWStencilRef@CIFXRenderDeviceNULL@@MAIHI@Z 1000f16a f   IFXRenderingNULL:CIFXRenderDeviceNULL.obj
 0001:0000e174       ?SetHWView@CIFXRenderDeviceNULL@@MAIHXZ 1000f174 f   IFXRenderingNULL:CIFXRenderDeviceNULL.obj
 0001:0000e17c       ?CalcProjectionMatrix@CIFXRenderDeviceNULL@@IAIXXZ 1000f17c f   IFXRenderingNULL:CIFXRenderDeviceNULL.obj
 0001:0000e758       ?FillIFXRenderCaps@CIFXRenderDeviceNULL@@IAIXXZ 1000f758 f   IFXRenderingNULL:CIFXRenderDeviceNULL.obj
 0001:0000e7b0       ?SetHWZFailureOp@CIFXRenderDeviceNULL@@MAIHI@Z 1000f7b0 f   IFXRenderingNULL:CIFXRenderDeviceNULL.obj
 0001:0000e7da       ?SetHWFailureOp@CIFXRenderDeviceNULL@@MAIHI@Z 1000f7da f   IFXRenderingNULL:CIFXRenderDeviceNULL.obj
 0001:0000e804       ?InitData@CIFXRenderDeviceNULL@@IAIXXZ 1000f804 f   IFXRenderingNULL:CIFXRenderDeviceNULL.obj
 0001:0000e81a       ?Initialize@CIFXRenderDeviceNULL@@UAIHI@Z 1000f81a f   IFXRenderingNULL:CIFXRenderDeviceNULL.obj
 0001:0000e980       ?AddRef@CIFXRenderDeviceNULL@@$4PPPPPPPM@A@AIIXZ 1000f980 f i IFXRenderingNULL:CIFXRenderDeviceNULL.obj
 0001:0000e98c       ?Release@CIFXRenderDeviceNULL@@$4PPPPPPPM@A@AIIXZ 1000f98c f i IFXRenderingNULL:CIFXRenderDeviceNULL.obj
 0001:0000e998       ?QueryInterface@CIFXRenderDeviceNULL@@$4PPPPPPPM@A@AIHABUIFXGUID@@PAPAX@Z 1000f998 f i IFXRenderingNULL:CIFXRenderDeviceNULL.obj
 0001:0000e9a4       ?GetSupported@CIFXRenderDeviceNULL@@$4PPPPPPPM@A@AIHIAAH@Z 1000f9a4 f i IFXRenderingNULL:CIFXRenderDeviceNULL.obj
 0001:0000e9b0       ?DeleteMesh@CIFXRenderDevice@@$4PPPPPPPM@KA@AIHI@Z 1000f9b0 f i IFXRenderingNULL:CIFXRenderDeviceNULL.obj
 0001:0000e9c0       ?DeleteTexture@CIFXRenderDevice@@$4PPPPPPPM@KA@AIHI@Z 1000f9c0 f i IFXRenderingNULL:CIFXRenderDeviceNULL.obj
 0001:0000e9d0       ?GetCaps@CIFXRenderDeviceNULL@@$4PPPPPPPM@A@BIHAAVIFXRenderCaps@@@Z 1000f9d0 f i IFXRenderingNULL:CIFXRenderDeviceNULL.obj
 0001:0000e9dc       ??_ECIFXRenderDeviceNULL@@$2PPPPPPPM@A@AEPAXI@Z 1000f9dc f i IFXRenderingNULL:CIFXRenderDeviceNULL.obj
 0001:0000e9e8       ?Initialize@CIFXRenderDeviceNULL@@$4PPPPPPPM@A@AIHI@Z 1000f9e8 f i IFXRenderingNULL:CIFXRenderDeviceNULL.obj
 0001:0000e9f4       @IFXOSCheckCPUFeature@4    1000f9f4 f   IFXRenderingOpenGL:IFXOSUtilities.obj
 0001:0000ea38       @IFXOSGetTime@0            1000fa38 f   IFXRenderingOpenGL:IFXOSUtilities.obj
 0001:0000ea84       @IFXOSSleep@4              1000fa84 f   IFXRenderingOpenGL:IFXOSUtilities.obj
 0001:0000ea8c       @IFXOSControlFP@8          1000fa8c f   IFXRenderingOpenGL:IFXOSUtilities.obj
 0001:0000ea98       @IFXOSGetUtf8StrSize@8     1000fa98 f   IFXRenderingOpenGL:IFXOSUtilities.obj
 0001:0000eada       @IFXOSGetWideCharStrSize@8 1000fada f   IFXRenderingOpenGL:IFXOSUtilities.obj
 0001:0000eb1a       @IFXOSConvertWideCharStrToUtf8@12 1000fb1a f   IFXRenderingOpenGL:IFXOSUtilities.obj
 0001:0000eb6a       @IFXOSConvertUtf8StrToWideChar@12 1000fb6a f   IFXRenderingOpenGL:IFXOSUtilities.obj
 0001:0000ebb6       @IFXOSDebugOutput@16       1000fbb6 f   IFXRenderingOpenGL:IFXOSUtilities.obj
 0001:0000ec1a       @IFXSetDefaultLocale@0     1000fc1a f   IFXRenderingOpenGL:IFXOSUtilities.obj
 0001:0000ec36       @IFXOSUninitialize@0       1000fc36 f   IFXRenderingOpenGL:IFXOSUtilities.obj
 0001:0000ec48       @IFXOSInitialize@0         1000fc48 f   IFXRenderingOpenGL:IFXOSUtilities.obj
 0001:0000ece8       @IFXGetSystemDefaultLangID@0 1000fce8 f   IFXRenderingOpenGL:IFXOSUtilities.obj
 0001:0000ecf0       ??_GCIFXOpenGLOS@@MAEPAXI@Z 1000fcf0 f i IFXRenderingOpenGL:CIFXOpenGLOS.obj
 0001:0000ecf0       ??_ECIFXOpenGLOS@@MAEPAXI@Z 1000fcf0 f i IFXRenderingOpenGL:CIFXOpenGLOS.obj
 0001:0000ed84       ??_EIFXOpenGL@@MAEPAXI@Z   1000fd84 f i IFXRenderingOpenGL:CIFXOpenGLOS.obj
 0001:0000ed84       ??_GIFXOpenGL@@MAEPAXI@Z   1000fd84 f i IFXRenderingOpenGL:CIFXOpenGLOS.obj
 0001:0000edb0       ??_EIFXOpenGLOS@@MAEPAXI@Z 1000fdb0 f i IFXRenderingOpenGL:CIFXOpenGLOS.obj
 0001:0000edb0       ??_GIFXOpenGLOS@@MAEPAXI@Z 1000fdb0 f i IFXRenderingOpenGL:CIFXOpenGLOS.obj
 0001:0000edf8       ??_ECIFXOpenGL@@MAEPAXI@Z  1000fdf8 f i IFXRenderingOpenGL:CIFXOpenGLOS.obj
 0001:0000edf8       ??_GCIFXOpenGL@@MAEPAXI@Z  1000fdf8 f i IFXRenderingOpenGL:CIFXOpenGLOS.obj
 0001:0000ee48       ?CIFXOpenGLOSFactory@@YIHABUIFXGUID@@PAPAX@Z 1000fe48 f   IFXRenderingOpenGL:CIFXOpenGLOS.obj
 0001:0000ef66       ??0CIFXOpenGLOS@@IAE@XZ    1000ff66 f   IFXRenderingOpenGL:CIFXOpenGLOS.obj
 0001:0000f05a       ?Construct@CIFXOpenGLOS@@IAIHXZ 1001005a f   IFXRenderingOpenGL:CIFXOpenGLOS.obj
 0001:0000f06e       ?AddRef@CIFXOpenGLOS@@UAIIXZ 1001006e f   IFXRenderingOpenGL:CIFXOpenGLOS.obj
 0001:0000f078       ?Release@CIFXOpenGLOS@@UAIIXZ 10010078 f   IFXRenderingOpenGL:CIFXOpenGLOS.obj
 0001:0000f0ac       ?QueryInterface@CIFXOpenGLOS@@UAIHABUIFXGUID@@PAPAX@Z 100100ac f   IFXRenderingOpenGL:CIFXOpenGLOS.obj
 0001:0000f334       ?LoadOpenGL@CIFXOpenGLOS@@UAIHXZ 10010334 f   IFXRenderingOpenGL:CIFXOpenGLOS.obj
 0001:0000f3c2       ?UnloadOpenGL@CIFXOpenGLOS@@UAIHXZ 100103c2 f   IFXRenderingOpenGL:CIFXOpenGLOS.obj
 0001:0000f3fc       ?LoadOSGL@CIFXOpenGLOS@@UAIHXZ 100103fc f   IFXRenderingOpenGL:CIFXOpenGLOS.obj
 0001:0000f55c       ?LoadExtensions@CIFXOpenGLOS@@UAIHXZ 1001055c f   IFXRenderingOpenGL:CIFXOpenGLOS.obj
 0001:0000f57c       ?GetOpenGLFunc@CIFXOpenGLOS@@MAIP6GHXZPAD@Z 1001057c f   IFXRenderingOpenGL:CIFXOpenGLOS.obj
 0001:0000f586       ?GetOGLExtensionFunc@CIFXOpenGLOS@@MAIP6GHXZPAD@Z 10010586 f   IFXRenderingOpenGL:CIFXOpenGLOS.obj
 0001:0000f594       ?LoadExtensions@CIFXOpenGL@@$4PPPPPPPM@A@AIHXZ 10010594 f i IFXRenderingOpenGL:CIFXOpenGLOS.obj
 0001:0000f5a0       ??_ECIFXOpenGL@@$2PPPPPPPM@A@AEPAXI@Z 100105a0 f i IFXRenderingOpenGL:CIFXOpenGLOS.obj
 0001:0000f5ac       ?AddRef@CIFXOpenGLOS@@$4PPPPPPPM@A@AIIXZ 100105ac f i IFXRenderingOpenGL:CIFXOpenGLOS.obj
 0001:0000f5b8       ?Release@CIFXOpenGLOS@@$4PPPPPPPM@A@AIIXZ 100105b8 f i IFXRenderingOpenGL:CIFXOpenGLOS.obj
 0001:0000f5c4       ?QueryInterface@CIFXOpenGLOS@@$4PPPPPPPM@A@AIHABUIFXGUID@@PAPAX@Z 100105c4 f i IFXRenderingOpenGL:CIFXOpenGLOS.obj
 0001:0000f5d0       ?LoadOpenGL@CIFXOpenGLOS@@$4PPPPPPPM@A@AIHXZ 100105d0 f i IFXRenderingOpenGL:CIFXOpenGLOS.obj
 0001:0000f5dc       ?UnloadOpenGL@CIFXOpenGLOS@@$4PPPPPPPM@A@AIHXZ 100105dc f i IFXRenderingOpenGL:CIFXOpenGLOS.obj
 0001:0000f5e8       ?LoadOSGL@CIFXOpenGLOS@@$4PPPPPPPM@A@AIHXZ 100105e8 f i IFXRenderingOpenGL:CIFXOpenGLOS.obj
 0001:0000f5f4       ?LoadExtensions@CIFXOpenGLOS@@$4PPPPPPPM@A@AIHXZ 100105f4 f i IFXRenderingOpenGL:CIFXOpenGLOS.obj
 0001:0000f600       ?GetOpenGLFunc@CIFXOpenGLOS@@$2PPPPPPPM@A@AIP6GHXZPAD@Z 10010600 f i IFXRenderingOpenGL:CIFXOpenGLOS.obj
 0001:0000f60c       ??_ECIFXOpenGLOS@@$2PPPPPPPM@A@AEPAXI@Z 1001060c f i IFXRenderingOpenGL:CIFXOpenGLOS.obj
 0001:0000f618       ??_ECIFXDeviceLightOGL@@UAEPAXI@Z 10010618 f i IFXRenderingOpenGL:CIFXDeviceLightOGL.obj
 0001:0000f618       ??_GCIFXDeviceLightOGL@@UAEPAXI@Z 10010618 f i IFXRenderingOpenGL:CIFXDeviceLightOGL.obj
 0001:0000f63c       ??1CIFXDeviceLightOGL@@UAE@XZ 1001063c f   IFXRenderingOpenGL:CIFXDeviceLightOGL.obj
 0001:0000f6e0       ?CIFXDeviceLightOGLFactory@@YIHABUIFXGUID@@PAPAX@Z 100106e0 f   IFXRenderingOpenGL:CIFXDeviceLightOGL.obj
 0001:0000f834       ?Construct@CIFXDeviceLightOGL@@IAIHXZ 10010834 f   IFXRenderingOpenGL:CIFXDeviceLightOGL.obj
 0001:0000f84e       ?AddRef@CIFXDeviceLightOGL@@UAIIXZ 1001084e f   IFXRenderingOpenGL:CIFXDeviceLightOGL.obj
 0001:0000f858       ?Release@CIFXDeviceLightOGL@@UAIIXZ 10010858 f   IFXRenderingOpenGL:CIFXDeviceLightOGL.obj
 0001:0000f87e       ?QueryInterface@CIFXDeviceLightOGL@@UAIHABUIFXGUID@@PAPAX@Z 1001087e f   IFXRenderingOpenGL:CIFXDeviceLightOGL.obj
 0001:0000fb1a       ??0CIFXDeviceLightOGL@@QAE@XZ 10010b1a f   IFXRenderingOpenGL:CIFXDeviceLightOGL.obj
 0001:0000fb8c       ?SetHWType@CIFXDeviceLightOGL@@MAIHI@Z 10010b8c f   IFXRenderingOpenGL:CIFXDeviceLightOGL.obj
 0001:0000fbe8       ?SetHWAmbient@CIFXDeviceLightOGL@@MAIHABVIFXVector4@@@Z 10010be8 f   IFXRenderingOpenGL:CIFXDeviceLightOGL.obj
 0001:0000fc4e       ?SetHWDiffuse@CIFXDeviceLightOGL@@MAIHABVIFXVector4@@@Z 10010c4e f   IFXRenderingOpenGL:CIFXDeviceLightOGL.obj
 0001:0000fcb4       ?SetHWSpecular@CIFXDeviceLightOGL@@MAIHABVIFXVector4@@@Z 10010cb4 f   IFXRenderingOpenGL:CIFXDeviceLightOGL.obj
 0001:0000fd1a       ?SetHWIntensity@CIFXDeviceLightOGL@@MAIHM@Z 10010d1a f   IFXRenderingOpenGL:CIFXDeviceLightOGL.obj
 0001:0000fd4c       ?SetHWAttenuation@CIFXDeviceLightOGL@@MAIHABVIFXVector3@@@Z 10010d4c f   IFXRenderingOpenGL:CIFXDeviceLightOGL.obj
 0001:0000fdb0       ?SetHWSpotDecay@CIFXDeviceLightOGL@@MAIHH@Z 10010db0 f   IFXRenderingOpenGL:CIFXDeviceLightOGL.obj
 0001:0000fe72       ?SetHWSpotInnerAngle@CIFXDeviceLightOGL@@MAIHM@Z 10010e72 f   IFXRenderingOpenGL:CIFXDeviceLightOGL.obj
 0001:0000fe82       ?SetHWSpotOuterAngle@CIFXDeviceLightOGL@@MAIHM@Z 10010e82 f   IFXRenderingOpenGL:CIFXDeviceLightOGL.obj
 0001:0000fec4       ?SetHWRange@CIFXDeviceLightOGL@@MAIHM@Z 10010ec4 f   IFXRenderingOpenGL:CIFXDeviceLightOGL.obj
 0001:0000fed4       ?SetHWWorldMatrix@CIFXDeviceLightOGL@@MAIHABVIFXMatrix4x4@@@Z 10010ed4 f   IFXRenderingOpenGL:CIFXDeviceLightOGL.obj
 0001:00010028       ?SetHWEnabled@CIFXDeviceLightOGL@@MAIHH@Z 10011028 f   IFXRenderingOpenGL:CIFXDeviceLightOGL.obj
 0001:0001004c       ?SetHWLight@CIFXDeviceLightOGL@@MAIHXZ 1001104c f   IFXRenderingOpenGL:CIFXDeviceLightOGL.obj
 0001:00010050       ?InitData@CIFXDeviceLightOGL@@IAIXXZ 10011050 f   IFXRenderingOpenGL:CIFXDeviceLightOGL.obj
 0001:00010098       ?Initialize@CIFXDeviceLightOGL@@QAIHIPAVIFXOpenGL@@@Z 10011098 f   IFXRenderingOpenGL:CIFXDeviceLightOGL.obj
 0001:0001010c       ?AddRef@CIFXDeviceLightOGL@@$4PPPPPPPM@A@AIIXZ 1001110c f i IFXRenderingOpenGL:CIFXDeviceLightOGL.obj
 0001:00010118       ?Release@CIFXDeviceLightOGL@@$4PPPPPPPM@A@AIIXZ 10011118 f i IFXRenderingOpenGL:CIFXDeviceLightOGL.obj
 0001:00010124       ?QueryInterface@CIFXDeviceLightOGL@@$4PPPPPPPM@A@AIHABUIFXGUID@@PAPAX@Z 10011124 f i IFXRenderingOpenGL:CIFXDeviceLightOGL.obj
 0001:00010130       ??_ECIFXDeviceLightOGL@@WJI@AEPAXI@Z 10011130 f i IFXRenderingOpenGL:CIFXDeviceLightOGL.obj
 0001:0001013c       ??_GCIFXDeviceTextureOGL@@MAEPAXI@Z 1001113c f i IFXRenderingOpenGL:CIFXDeviceTextureOGL.obj
 0001:0001013c       ??_ECIFXDeviceTextureOGL@@MAEPAXI@Z 1001113c f i IFXRenderingOpenGL:CIFXDeviceTextureOGL.obj
 0001:00010160       ??1CIFXDeviceTextureOGL@@MAE@XZ 10011160 f   IFXRenderingOpenGL:CIFXDeviceTextureOGL.obj
 0001:00010246       ?CIFXDeviceTextureOGLFactory@@YIHABUIFXGUID@@PAPAX@Z 10011246 f   IFXRenderingOpenGL:CIFXDeviceTextureOGL.obj
 0001:0001036c       ?Construct@CIFXDeviceTextureOGL@@IAIHXZ 1001136c f   IFXRenderingOpenGL:CIFXDeviceTextureOGL.obj
 0001:00010386       ?AddRef@CIFXDeviceTextureOGL@@UAIIXZ 10011386 f   IFXRenderingOpenGL:CIFXDeviceTextureOGL.obj
 0001:00010390       ?Release@CIFXDeviceTextureOGL@@UAIIXZ 10011390 f   IFXRenderingOpenGL:CIFXDeviceTextureOGL.obj
 0001:000103ac       ?QueryInterface@CIFXDeviceTextureOGL@@UAIHABUIFXGUID@@PAPAX@Z 100113ac f   IFXRenderingOpenGL:CIFXDeviceTextureOGL.obj
 0001:00010620       ?DeleteSurfaceCache@CIFXDeviceTextureOGL@@SIXXZ 10011620 f   IFXRenderingOpenGL:CIFXDeviceTextureOGL.obj
 0001:00010646       ??0CIFXDeviceTextureOGL@@IAE@XZ 10011646 f   IFXRenderingOpenGL:CIFXDeviceTextureOGL.obj
 0001:0001069e       ?SetHWType@CIFXDeviceTextureOGL@@MAIHI@Z 1001169e f   IFXRenderingOpenGL:CIFXDeviceTextureOGL.obj
 0001:000106b6       ?GetGLTextureType@CIFXDeviceTextureOGL@@IAIIIPAI@Z 100116b6 f   IFXRenderingOpenGL:CIFXDeviceTextureOGL.obj
 0001:0001075c       ?SetHWRenderFormat@CIFXDeviceTextureOGL@@MAIHI@Z 1001175c f   IFXRenderingOpenGL:CIFXDeviceTextureOGL.obj
 0001:00010762       ?SetHWWidth@CIFXDeviceTextureOGL@@MAIHI@Z 10011762 f   IFXRenderingOpenGL:CIFXDeviceTextureOGL.obj
 0001:00010768       ?SetHWHeight@CIFXDeviceTextureOGL@@MAIHI@Z 10011768 f   IFXRenderingOpenGL:CIFXDeviceTextureOGL.obj
 0001:0001076e       ?SetHWDepth@CIFXDeviceTextureOGL@@MAIHI@Z 1001176e f   IFXRenderingOpenGL:CIFXDeviceTextureOGL.obj
 0001:00010774       ?SetHWMaxMipLevel@CIFXDeviceTextureOGL@@MAIHI@Z 10011774 f   IFXRenderingOpenGL:CIFXDeviceTextureOGL.obj
 0001:000107c6       ?SetHWMinFilter@CIFXDeviceTextureOGL@@MAIHI@Z 100117c6 f   IFXRenderingOpenGL:CIFXDeviceTextureOGL.obj
 0001:00010928       ?SetHWMagFilter@CIFXDeviceTextureOGL@@MAIHI@Z 10011928 f   IFXRenderingOpenGL:CIFXDeviceTextureOGL.obj
 0001:0001099e       ?SetHWMipMode@CIFXDeviceTextureOGL@@MAIHI@Z 1001199e f   IFXRenderingOpenGL:CIFXDeviceTextureOGL.obj
 0001:000109aa       ?SetHWDynamic@CIFXDeviceTextureOGL@@MAIHH@Z 100119aa f   IFXRenderingOpenGL:CIFXDeviceTextureOGL.obj
 0001:000109b0       ?SetHWTexture@CIFXDeviceTextureOGL@@MAIHXZ 100119b0 f   IFXRenderingOpenGL:CIFXDeviceTextureOGL.obj
 0001:000109b4       ?Lock@CIFXDeviceTextureOGL@@MAIHIIAAUSTextureOutputInfo@@@Z 100119b4 f   IFXRenderingOpenGL:CIFXDeviceTextureOGL.obj
 0001:00010a88       ?Unlock@CIFXDeviceTextureOGL@@MAIHIIAAUSTextureOutputInfo@@@Z 10011a88 f   IFXRenderingOpenGL:CIFXDeviceTextureOGL.obj
 0001:00010db0       ?InitData@CIFXDeviceTextureOGL@@IAIXXZ 10011db0 f   IFXRenderingOpenGL:CIFXDeviceTextureOGL.obj
 0001:00010dc8       ?Initialize@CIFXDeviceTextureOGL@@QAIHPAVIFXOpenGL@@AAVCIFXRenderDeviceOGL@@@Z 10011dc8 f   IFXRenderingOpenGL:CIFXDeviceTextureOGL.obj
 0001:00010e70       ??1?$IFXSmartPtr@VCIFXRenderDeviceOGL@@@@UAE@XZ 10011e70 f i IFXRenderingOpenGL:CIFXDeviceTextureOGL.obj
 0001:00010ee0       ??_G?$IFXSmartPtr@VCIFXRenderDeviceOGL@@@@UAEPAXI@Z 10011ee0 f i IFXRenderingOpenGL:CIFXDeviceTextureOGL.obj
 0001:00010ee0       ??_E?$IFXSmartPtr@VCIFXRenderDeviceOGL@@@@UAEPAXI@Z 10011ee0 f i IFXRenderingOpenGL:CIFXDeviceTextureOGL.obj
 0001:00010f6c       ?AddRef@CIFXDeviceTextureOGL@@$4PPPPPPPM@A@AIIXZ 10011f6c f i IFXRenderingOpenGL:CIFXDeviceTextureOGL.obj
 0001:00010f78       ?Release@CIFXDeviceTextureOGL@@$4PPPPPPPM@A@AIIXZ 10011f78 f i IFXRenderingOpenGL:CIFXDeviceTextureOGL.obj
 0001:00010f84       ?QueryInterface@CIFXDeviceTextureOGL@@$4PPPPPPPM@A@AIHABUIFXGUID@@PAPAX@Z 10011f84 f i IFXRenderingOpenGL:CIFXDeviceTextureOGL.obj
 0001:00010f90       ??_GCIFXDeviceTexUnitOGL@@MAEPAXI@Z 10011f90 f i IFXRenderingOpenGL:CIFXDeviceTexUnitOGL.obj
 0001:00010f90       ??_ECIFXDeviceTexUnitOGL@@MAEPAXI@Z 10011f90 f i IFXRenderingOpenGL:CIFXDeviceTexUnitOGL.obj
 0001:00010fb4       ??1CIFXDeviceTexUnitOGL@@MAE@XZ 10011fb4 f   IFXRenderingOpenGL:CIFXDeviceTexUnitOGL.obj
 0001:00011098       ?CIFXDeviceTexUnitOGLFactory@@YIHABUIFXGUID@@PAPAX@Z 10012098 f   IFXRenderingOpenGL:CIFXDeviceTexUnitOGL.obj
 0001:0001119c       ??0CIFXDeviceTexUnitOGL@@IAE@XZ 1001219c f   IFXRenderingOpenGL:CIFXDeviceTexUnitOGL.obj
 0001:000112d8       ?Construct@CIFXDeviceTexUnitOGL@@IAIHXZ 100122d8 f   IFXRenderingOpenGL:CIFXDeviceTexUnitOGL.obj
 0001:0001136c       ?AddRef@CIFXDeviceTexUnitOGL@@UAIIXZ 1001236c f   IFXRenderingOpenGL:CIFXDeviceTexUnitOGL.obj
 0001:00011376       ?Release@CIFXDeviceTexUnitOGL@@UAIIXZ 10012376 f   IFXRenderingOpenGL:CIFXDeviceTexUnitOGL.obj
 0001:0001139c       ?QueryInterface@CIFXDeviceTexUnitOGL@@UAIHABUIFXGUID@@PAPAX@Z 1001239c f   IFXRenderingOpenGL:CIFXDeviceTexUnitOGL.obj
 0001:0001161c       ?SetHWTexCoordGen@CIFXDeviceTexUnitOGL@@UAIHI@Z 1001261c f   IFXRenderingOpenGL:CIFXDeviceTexUnitOGL.obj
 0001:000121e6       ?SetHWEnabled@CIFXDeviceTexUnitOGL@@MAIHH@Z 100131e6 f   IFXRenderingOpenGL:CIFXDeviceTexUnitOGL.obj
 0001:00012258       ?SetHWRGBInput0@CIFXDeviceTexUnitOGL@@MAIHI@Z 10013258 f   IFXRenderingOpenGL:CIFXDeviceTexUnitOGL.obj
 0001:000122be       ?GetGLInput@CIFXDeviceTexUnitOGL@@IAIIIAAI@Z 100132be f   IFXRenderingOpenGL:CIFXDeviceTexUnitOGL.obj
 0001:0001233e       ?SetHWRGBInput1@CIFXDeviceTexUnitOGL@@MAIHI@Z 1001333e f   IFXRenderingOpenGL:CIFXDeviceTexUnitOGL.obj
 0001:000123a4       ?SetHWRGBInterpolatorSource@CIFXDeviceTexUnitOGL@@MAIHI@Z 100133a4 f   IFXRenderingOpenGL:CIFXDeviceTexUnitOGL.obj
 0001:0001240c       ?SetHWRGBBlendFunc@CIFXDeviceTexUnitOGL@@MAIHI@Z 1001340c f   IFXRenderingOpenGL:CIFXDeviceTexUnitOGL.obj
 0001:00012474       ?GetGLFunc@CIFXDeviceTexUnitOGL@@IAIIIAAM@Z 10013474 f   IFXRenderingOpenGL:CIFXDeviceTexUnitOGL.obj
 0001:000124dc       ?SetHWAlphaInput0@CIFXDeviceTexUnitOGL@@MAIHI@Z 100134dc f   IFXRenderingOpenGL:CIFXDeviceTexUnitOGL.obj
 0001:00012544       ?SetHWAlphaInput1@CIFXDeviceTexUnitOGL@@MAIHI@Z 10013544 f   IFXRenderingOpenGL:CIFXDeviceTexUnitOGL.obj
 0001:000125ac       ?SetHWAlphaInterpolatorSource@CIFXDeviceTexUnitOGL@@MAIHI@Z 100135ac f   IFXRenderingOpenGL:CIFXDeviceTexUnitOGL.obj
 0001:00012614       ?SetHWAlphaFunc@CIFXDeviceTexUnitOGL@@MAIHI@Z 10013614 f   IFXRenderingOpenGL:CIFXDeviceTexUnitOGL.obj
 0001:0001267c       ?SetHWTextureId@CIFXDeviceTexUnitOGL@@MAIHI@Z 1001367c f   IFXRenderingOpenGL:CIFXDeviceTexUnitOGL.obj
 0001:0001282e       ?SetHWTexRepeatU@CIFXDeviceTexUnitOGL@@MAIHH@Z 1001382e f   IFXRenderingOpenGL:CIFXDeviceTexUnitOGL.obj
 0001:0001287c       ?SetHWTexRepeatV@CIFXDeviceTexUnitOGL@@MAIHH@Z 1001387c f   IFXRenderingOpenGL:CIFXDeviceTexUnitOGL.obj
 0001:000128ca       ?SetHWTexRepeatW@CIFXDeviceTexUnitOGL@@MAIHH@Z 100138ca f   IFXRenderingOpenGL:CIFXDeviceTexUnitOGL.obj
 0001:00012918       ?SetHWTextureTransform@CIFXDeviceTexUnitOGL@@MAIHABVIFXMatrix4x4@@@Z 10013918 f   IFXRenderingOpenGL:CIFXDeviceTexUnitOGL.obj
 0001:000129dc       ?SetHWTexUnit@CIFXDeviceTexUnitOGL@@MAIHXZ 100139dc f   IFXRenderingOpenGL:CIFXDeviceTexUnitOGL.obj
 0001:000129e0       ?InitData@CIFXDeviceTexUnitOGL@@IAIXXZ 100139e0 f   IFXRenderingOpenGL:CIFXDeviceTexUnitOGL.obj
 0001:00012a06       ?Initialize@CIFXDeviceTexUnitOGL@@QAIHIABV?$IFXSmartPtr@VCIFXRenderDeviceOGL@@@@PAVIFXOpenGL@@@Z 10013a06 f   IFXRenderingOpenGL:CIFXDeviceTexUnitOGL.obj
 0001:00012ab8       ?AddRef@CIFXDeviceTexUnitOGL@@$4PPPPPPPM@A@AIIXZ 10013ab8 f i IFXRenderingOpenGL:CIFXDeviceTexUnitOGL.obj
 0001:00012ac4       ?Release@CIFXDeviceTexUnitOGL@@$4PPPPPPPM@A@AIIXZ 10013ac4 f i IFXRenderingOpenGL:CIFXDeviceTexUnitOGL.obj
 0001:00012ad0       ?QueryInterface@CIFXDeviceTexUnitOGL@@$4PPPPPPPM@A@AIHABUIFXGUID@@PAPAX@Z 10013ad0 f i IFXRenderingOpenGL:CIFXDeviceTexUnitOGL.obj
 0001:00012adc       ??_ECIFXDeviceTexUnitOGL@@OIM@AEPAXI@Z 10013adc f i IFXRenderingOpenGL:CIFXDeviceTexUnitOGL.obj
 0001:00012ae8       ??_GCIFXRenderOGL@@MAEPAXI@Z 10013ae8 f i IFXRenderingOpenGL:CIFXRenderOGL.obj
 0001:00012ae8       ??_ECIFXRenderOGL@@MAEPAXI@Z 10013ae8 f i IFXRenderingOpenGL:CIFXRenderOGL.obj
 0001:00012b28       ??1CIFXRenderOGL@@MAE@XZ   10013b28 f   IFXRenderingOpenGL:CIFXRenderOGL.obj
 0001:00012cc0       ?CIFXRenderOGLFactory@@YIHABUIFXGUID@@PAPAX@Z 10013cc0 f   IFXRenderingOpenGL:CIFXRenderOGL.obj
 0001:00012dbe       ??0CIFXRenderOGL@@IAE@XZ   10013dbe f   IFXRenderingOpenGL:CIFXRenderOGL.obj
 0001:00012fae       ?Construct@CIFXRenderOGL@@IAIHXZ 10013fae f   IFXRenderingOpenGL:CIFXRenderOGL.obj
 0001:00012ffc       ?AddRef@CIFXRenderOGL@@UAIIXZ 10013ffc f   IFXRenderingOpenGL:CIFXRenderOGL.obj
 0001:0001300c       ?Release@CIFXRenderOGL@@UAIIXZ 1001400c f   IFXRenderingOpenGL:CIFXRenderOGL.obj
 0001:00013044       ?QueryInterface@CIFXRenderOGL@@UAIHABUIFXGUID@@PAPAX@Z 10014044 f   IFXRenderingOpenGL:CIFXRenderOGL.obj
 0001:000132d8       ?Enable@CIFXRenderOGL@@UAIHI@Z 100142d8 f   IFXRenderingOpenGL:CIFXRenderOGL.obj
 0001:00013308       ?Disable@CIFXRenderOGL@@UAIHI@Z 10014308 f   IFXRenderingOpenGL:CIFXRenderOGL.obj
 0001:00013338       ?DeleteTexture@CIFXRenderOGL@@UAIHI@Z 10014338 f   IFXRenderingOpenGL:CIFXRenderOGL.obj
 0001:00013340       ?SetDepthMode@CIFXRenderOGL@@UAIHI@Z 10014340 f   IFXRenderingOpenGL:CIFXRenderOGL.obj
 0001:000133a8       ?Swap@CIFXRenderOGL@@UAIHXZ 100143a8 f   IFXRenderingOpenGL:CIFXRenderOGL.obj
 0001:000133b4       ?GetTextureState@CIFXRenderOGL@@QAIHIAAI@Z 100143b4 f   IFXRenderingOpenGL:CIFXRenderOGL.obj
 0001:000133ba       ?CreateTexture@CIFXRenderOGL@@MAIHAAV?$IFXSmartPtr@VCIFXDeviceTexture@@@@@Z 100143ba f   IFXRenderingOpenGL:CIFXRenderOGL.obj
 0001:00013544       ?SetHWWindow@CIFXRenderOGL@@MAIHH@Z 10014544 f   IFXRenderingOpenGL:CIFXRenderOGL.obj
 0001:00013562       ?InitData@CIFXRenderOGL@@IAIXXZ 10014562 f   IFXRenderingOpenGL:CIFXRenderOGL.obj
 0001:00013592       ?Initialize@CIFXRenderOGL@@UAIHI@Z 10014592 f   IFXRenderingOpenGL:CIFXRenderOGL.obj
 0001:00013898       ??1IFXOGLData@@QAE@XZ      10014898 f i IFXRenderingOpenGL:CIFXRenderOGL.obj
 0001:000138e4       ??_E?$IFXSmartPtr@VCIFXDeviceLightOGL@@@@UAEPAXI@Z 100148e4 f i IFXRenderingOpenGL:CIFXRenderOGL.obj
 0001:000138e4       ??_G?$IFXSmartPtr@VCIFXDeviceLightOGL@@@@UAEPAXI@Z 100148e4 f i IFXRenderingOpenGL:CIFXRenderOGL.obj
 0001:00013974       ??_E?$IFXSmartPtr@VCIFXDeviceTexUnitOGL@@@@UAEPAXI@Z 10014974 f i IFXRenderingOpenGL:CIFXRenderOGL.obj
 0001:00013974       ??_G?$IFXSmartPtr@VCIFXDeviceTexUnitOGL@@@@UAEPAXI@Z 10014974 f i IFXRenderingOpenGL:CIFXRenderOGL.obj
 0001:00013a04       ??_E?$IFXSmartPtr@VCIFXDeviceTextureOGL@@@@UAEPAXI@Z 10014a04 f i IFXRenderingOpenGL:CIFXRenderOGL.obj
 0001:00013a04       ??_G?$IFXSmartPtr@VCIFXDeviceTextureOGL@@@@UAEPAXI@Z 10014a04 f i IFXRenderingOpenGL:CIFXRenderOGL.obj
 0001:00013a90       ??0?$IFXSmartPtr@VCIFXDeviceLightOGL@@@@QAE@XZ 10014a90 f i IFXRenderingOpenGL:CIFXRenderOGL.obj
 0001:00013aa0       ??1?$IFXSmartPtr@VCIFXDeviceLightOGL@@@@UAE@XZ 10014aa0 f i IFXRenderingOpenGL:CIFXRenderOGL.obj
 0001:00013b14       ??0?$IFXSmartPtr@VCIFXDeviceTexUnitOGL@@@@QAE@XZ 10014b14 f i IFXRenderingOpenGL:CIFXRenderOGL.obj
 0001:00013b24       ??1?$IFXSmartPtr@VCIFXDeviceTexUnitOGL@@@@UAE@XZ 10014b24 f i IFXRenderingOpenGL:CIFXRenderOGL.obj
 0001:00013b98       ?SetHWDTS@CIFXRenderOGL@@MAIHH@Z 10014b98 f i IFXRenderingOpenGL:CIFXRenderOGL.obj
 0001:00013ba0       ?ClearHW@CIFXRenderOGL@@MAIHABVIFXRenderClear@@@Z 10014ba0 f i IFXRenderingOpenGL:CIFXRenderOGL.obj
 0001:00013ba8       ?MakeHWCurrent@CIFXRenderOGL@@MAIHXZ 10014ba8 f i IFXRenderingOpenGL:CIFXRenderOGL.obj
 0001:00013bb0       ?AddRef@CIFXRenderOGL@@$4PPPPPPPM@A@AIIXZ 10014bb0 f i IFXRenderingOpenGL:CIFXRenderOGL.obj
 0001:00013bbc       ?Release@CIFXRenderOGL@@$4PPPPPPPM@A@AIIXZ 10014bbc f i IFXRenderingOpenGL:CIFXRenderOGL.obj
 0001:00013bc8       ?QueryInterface@CIFXRenderOGL@@$4PPPPPPPM@A@AIHABUIFXGUID@@PAPAX@Z 10014bc8 f i IFXRenderingOpenGL:CIFXRenderOGL.obj
 0001:00013bd4       ?GetCaps@CIFXRender@@$4PPPPPPPM@OE@AIHAAVIFXRenderCaps@@@Z 10014bd4 f i IFXRenderingOpenGL:CIFXRenderOGL.obj
 0001:00013be4       ?GetPerformanceData@CIFXRender@@$4PPPPPPPM@OE@AIHIAAI@Z 10014be4 f i IFXRenderingOpenGL:CIFXRenderOGL.obj
 0001:00013bf4       ?ClearPerformanceData@CIFXRender@@$4PPPPPPPM@OE@AIHXZ 10014bf4 f i IFXRenderingOpenGL:CIFXRenderOGL.obj
 0001:00013c04       ?GetRenderServices@CIFXRender@@$4PPPPPPPM@OE@AIHAAPAVIFXRenderServices@@@Z 10014c04 f i IFXRenderingOpenGL:CIFXRenderOGL.obj
 0001:00013c14       ?GetColorFormat@CIFXRender@@$4PPPPPPPM@OE@AIIXZ 10014c14 f i IFXRenderingOpenGL:CIFXRenderOGL.obj
 0001:00013c24       ?Enable@CIFXRenderOGL@@$4PPPPPPPM@A@AIHI@Z 10014c24 f i IFXRenderingOpenGL:CIFXRenderOGL.obj
 0001:00013c30       ?Disable@CIFXRenderOGL@@$4PPPPPPPM@A@AIHI@Z 10014c30 f i IFXRenderingOpenGL:CIFXRenderOGL.obj
 0001:00013c3c       ?SetBlend@CIFXRender@@$4PPPPPPPM@OE@AIHAAVIFXRenderBlend@@@Z 10014c3c f i IFXRenderingOpenGL:CIFXRenderOGL.obj
 0001:00013c4c       ?SetFog@CIFXRender@@$4PPPPPPPM@OE@AIHAAVIFXRenderFog@@@Z 10014c4c f i IFXRenderingOpenGL:CIFXRenderOGL.obj
 0001:00013c5c       ?SetLight@CIFXRender@@$4PPPPPPPM@OE@AIHIAAVIFXRenderLight@@@Z 10014c5c f i IFXRenderingOpenGL:CIFXRenderOGL.obj
 0001:00013c6c       ?GetGlobalAmbient@CIFXRender@@$4PPPPPPPM@OE@AIHAAVIFXVector4@@@Z 10014c6c f i IFXRenderingOpenGL:CIFXRenderOGL.obj
 0001:00013c7c       ?SetGlobalAmbient@CIFXRender@@$4PPPPPPPM@OE@AIHABVIFXVector4@@@Z 10014c7c f i IFXRenderingOpenGL:CIFXRenderOGL.obj
 0001:00013c8c       ?SetMaterial@CIFXRender@@$4PPPPPPPM@OE@AIHAAVIFXRenderMaterial@@@Z 10014c8c f i IFXRenderingOpenGL:CIFXRenderOGL.obj
 0001:00013c9c       ?SetStencil@CIFXRender@@$4PPPPPPPM@OE@AIHAAVIFXRenderStencil@@@Z 10014c9c f i IFXRenderingOpenGL:CIFXRenderOGL.obj
 0001:00013cac       ?SetTexture@CIFXRender@@$4PPPPPPPM@OE@AIHAAVIFXTextureObject@@@Z 10014cac f i IFXRenderingOpenGL:CIFXRenderOGL.obj
 0001:00013cbc       ?SetTextureUnit@CIFXRender@@$4PPPPPPPM@OE@AIHIAAVIFXRenderTexUnit@@@Z 10014cbc f i IFXRenderingOpenGL:CIFXRenderOGL.obj
 0001:00013ccc       ?SetConstantColor@CIFXRender@@$4PPPPPPPM@OE@AIHABVIFXVector4@@@Z 10014ccc f i IFXRenderingOpenGL:CIFXRenderOGL.obj
 0001:00013cdc       ?SetView@CIFXRender@@$4PPPPPPPM@OE@AIHAAVIFXRenderView@@@Z 10014cdc f i IFXRenderingOpenGL:CIFXRenderOGL.obj
 0001:00013cec       ?SetWindow@CIFXRender@@$4PPPPPPPM@OE@AIHAAVIFXRenderWindow@@@Z 10014cec f i IFXRenderingOpenGL:CIFXRenderOGL.obj
 0001:00013cfc       ?GetWindow@CIFXRender@@$4PPPPPPPM@OE@AIHAAVIFXRenderWindow@@@Z 10014cfc f i IFXRenderingOpenGL:CIFXRenderOGL.obj
 0001:00013d0c       ?GetNumDevices@CIFXRender@@$4PPPPPPPM@OE@AIHAAVIFXRenderWindow@@AAI@Z 10014d0c f i IFXRenderingOpenGL:CIFXRenderOGL.obj
 0001:00013d1c       ?Clear@CIFXRender@@$4PPPPPPPM@OE@AIHABVIFXRenderClear@@@Z 10014d1c f i IFXRenderingOpenGL:CIFXRenderOGL.obj
 0001:00013d2c       ?DrawMeshLines@CIFXRender@@$4PPPPPPPM@OE@AIHAAVIFXMesh@@@Z 10014d2c f i IFXRenderingOpenGL:CIFXRenderOGL.obj
 0001:00013d3c       ?DrawMeshPoints@CIFXRender@@$4PPPPPPPM@OE@AIHAAVIFXMesh@@@Z 10014d3c f i IFXRenderingOpenGL:CIFXRenderOGL.obj
 0001:00013d4c       ?DrawMesh@CIFXRender@@$4PPPPPPPM@OE@AIHAAVIFXMesh@@@Z 10014d4c f i IFXRenderingOpenGL:CIFXRenderOGL.obj
 0001:00013d5c       ?DeleteTexture@CIFXRenderOGL@@$4PPPPPPPM@A@AIHI@Z 10014d5c f i IFXRenderingOpenGL:CIFXRenderOGL.obj
 0001:00013d68       ?SetWorldMatrix@CIFXRender@@$4PPPPPPPM@OE@AIHABVIFXMatrix4x4@@@Z 10014d68 f i IFXRenderingOpenGL:CIFXRenderOGL.obj
 0001:00013d78       ?SetViewMatrix@CIFXRender@@$4PPPPPPPM@OE@AIHABVIFXMatrix4x4@@@Z 10014d78 f i IFXRenderingOpenGL:CIFXRenderOGL.obj
 0001:00013d88       ?GetViewMatrix@CIFXRender@@$4PPPPPPPM@OE@AIABVIFXMatrix4x4@@XZ 10014d88 f i IFXRenderingOpenGL:CIFXRenderOGL.obj
 0001:00013d98       ?SetDepthMode@CIFXRenderOGL@@$4PPPPPPPM@A@AIHI@Z 10014d98 f i IFXRenderingOpenGL:CIFXRenderOGL.obj
 0001:00013da4       ?SetCullMode@CIFXRender@@$4PPPPPPPM@OE@AIHI@Z 10014da4 f i IFXRenderingOpenGL:CIFXRenderOGL.obj
 0001:00013db4       ?SetLineOffset@CIFXRender@@$4PPPPPPPM@OE@AIHI@Z 10014db4 f i IFXRenderingOpenGL:CIFXRenderOGL.obj
 0001:00013dc4       ?Swap@CIFXRenderOGL@@$4PPPPPPPM@A@AIHXZ 10014dc4 f i IFXRenderingOpenGL:CIFXRenderOGL.obj
 0001:00013dd0       ?GetTransformMatrix@CIFXRender@@$4PPPPPPPM@OE@AIHAAVIFXMatrix4x4@@@Z 10014dd0 f i IFXRenderingOpenGL:CIFXRenderOGL.obj
 0001:00013de0       ?GetRenderer@CIFXRender@@$4PPPPPPPM@OE@AIIXZ 10014de0 f i IFXRenderingOpenGL:CIFXRenderOGL.obj
 0001:00013de0       ?ConfigureRenderPass@CIFXRender@@$4PPPPPPPM@OE@AIHI@Z 10014de0 f i IFXRenderingOpenGL:CIFXRenderOGL.obj
 0001:00013de0       ?SetDevice@CIFXRender@@$4PPPPPPPM@OE@AIHI@Z 10014de0 f i IFXRenderingOpenGL:CIFXRenderOGL.obj
 0001:00013de0       ?GetView@CIFXRender@@$4PPPPPPPM@OE@BIABVIFXRenderView@@XZ 10014de0 f i IFXRenderingOpenGL:CIFXRenderOGL.obj
 0001:00013de0       ?CalculateNumPasses@CIFXRender@@$4PPPPPPPM@OE@AIIXZ 10014de0 f i IFXRenderingOpenGL:CIFXRenderOGL.obj
 0001:00013de0       ?SetRenderer@CIFXRender@@$4PPPPPPPM@OE@AIHI@Z 10014de0 f i IFXRenderingOpenGL:CIFXRenderOGL.obj
 0001:00013df0       ?Reset@CIFXRender@@$4PPPPPPPM@OE@AIXXZ 10014df0 f i IFXRenderingOpenGL:CIFXRenderOGL.obj
 0001:00013e00       ??_ECIFXRenderOGL@@$2PPPPPPPM@A@AEPAXI@Z 10014e00 f i IFXRenderingOpenGL:CIFXRenderOGL.obj
 0001:00013e0c       ?MakeCurrent@CIFXRender@@$4PPPPPPPM@OE@AIHXZ 10014e0c f i IFXRenderingOpenGL:CIFXRenderOGL.obj
 0001:00013e1c       ??1?$IFXSmartPtr@VCIFXDeviceTextureOGL@@@@UAE@XZ 10014e1c f i IFXRenderingOpenGL:CIFXRenderOGL.obj
 0001:00013e8c       ?Initialize@CIFXRenderOGL@@$4PPPPPPPM@A@AIHI@Z 10014e8c f i IFXRenderingOpenGL:CIFXRenderOGL.obj
 0001:00013e98       ?Initialize@CIFXRender@@$4PPPPPPPM@OE@AIHXZ 10014e98 f i IFXRenderingOpenGL:CIFXRenderOGL.obj
 0001:00013ea8       ??_GCIFXRenderDeviceOGL@@MAEPAXI@Z 10014ea8 f i IFXRenderingOpenGL:CIFXRenderDeviceOGL.obj
 0001:00013ea8       ??_ECIFXRenderDeviceOGL@@MAEPAXI@Z 10014ea8 f i IFXRenderingOpenGL:CIFXRenderDeviceOGL.obj
 0001:00013ee8       ??1CIFXRenderDeviceOGL@@MAE@XZ 10014ee8 f   IFXRenderingOpenGL:CIFXRenderDeviceOGL.obj
 0001:0001405e       ?CIFXRenderDeviceOGLFactory@@YIHABUIFXGUID@@PAPAX@Z 1001505e f   IFXRenderingOpenGL:CIFXRenderDeviceOGL.obj
 0001:00014158       ??0CIFXRenderDeviceOGL@@IAE@XZ 10015158 f   IFXRenderingOpenGL:CIFXRenderDeviceOGL.obj
 0001:000142e4       ?Construct@CIFXRenderDeviceOGL@@IAIHXZ 100152e4 f   IFXRenderingOpenGL:CIFXRenderDeviceOGL.obj
 0001:00014578       ?AddRef@CIFXRenderDeviceOGL@@UAIIXZ 10015578 f   IFXRenderingOpenGL:CIFXRenderDeviceOGL.obj
 0001:00014588       ?Release@CIFXRenderDeviceOGL@@UAIIXZ 10015588 f   IFXRenderingOpenGL:CIFXRenderDeviceOGL.obj
 0001:000145be       ?QueryInterface@CIFXRenderDeviceOGL@@UAIHABUIFXGUID@@PAPAX@Z 100155be f   IFXRenderingOpenGL:CIFXRenderDeviceOGL.obj
 0001:00014908       ?GetCaps@CIFXRenderDeviceOGL@@UBIHAAVIFXRenderCaps@@@Z 10015908 f   IFXRenderingOpenGL:CIFXRenderDeviceOGL.obj
 0001:00014922       ?DrawMesh@CIFXRenderDeviceOGL@@UAIHAAVIFXMesh@@AAIE@Z 10015922 f   IFXRenderingOpenGL:CIFXRenderDeviceOGL.obj
 0001:00014fe6       ?SetActiveTexUnit@CIFXRenderDeviceOGL@@QAIXI@Z 10015fe6 f   IFXRenderingOpenGL:CIFXRenderDeviceOGL.obj
 0001:00015028       ?GetCurrent@CIFXRenderDeviceOGL@@UBIPAXXZ 10016028 f   IFXRenderingOpenGL:CIFXRenderDeviceOGL.obj
 0001:0001502c       ?SetHWBlendEnabled@CIFXRenderDeviceOGL@@MAIHH@Z 1001602c f   IFXRenderingOpenGL:CIFXRenderDeviceOGL.obj
 0001:0001505c       ?SetHWBlendFunc@CIFXRenderDeviceOGL@@MAIHI@Z 1001605c f   IFXRenderingOpenGL:CIFXRenderDeviceOGL.obj
 0001:00015190       ?SetHWTestRef@CIFXRenderDeviceOGL@@MAIHM@Z 10016190 f   IFXRenderingOpenGL:CIFXRenderDeviceOGL.obj
 0001:000151cc       ?SetHWTestFunc@CIFXRenderDeviceOGL@@MAIHI@Z 100161cc f   IFXRenderingOpenGL:CIFXRenderDeviceOGL.obj
 0001:000152aa       ?SetHWAlphaTestEnabled@CIFXRenderDeviceOGL@@MAIHH@Z 100162aa f   IFXRenderingOpenGL:CIFXRenderDeviceOGL.obj
 0001:000152da       ?SetHWFogEnabled@CIFXRenderDeviceOGL@@MAIHH@Z 100162da f   IFXRenderingOpenGL:CIFXRenderDeviceOGL.obj
 0001:00015302       ?SetHWMode@CIFXRenderDeviceOGL@@MAIHI@Z 10016302 f   IFXRenderingOpenGL:CIFXRenderDeviceOGL.obj
 0001:00015346       ?SetHWColor@CIFXRenderDeviceOGL@@MAIHABVIFXVector4@@@Z 10016346 f   IFXRenderingOpenGL:CIFXRenderDeviceOGL.obj
 0001:00015372       ?SetHWLinearNear@CIFXRenderDeviceOGL@@MAIHM@Z 10016372 f   IFXRenderingOpenGL:CIFXRenderDeviceOGL.obj
 0001:00015390       ?SetHWFar@CIFXRenderDeviceOGL@@MAIHM@Z 10016390 f   IFXRenderingOpenGL:CIFXRenderDeviceOGL.obj
 0001:000153de       ?SetHWEmissive@CIFXRenderDeviceOGL@@MAIHABVIFXVector4@@@Z 100163de f   IFXRenderingOpenGL:CIFXRenderDeviceOGL.obj
 0001:00015422       ?SetHWAmbient@CIFXRenderDeviceOGL@@MAIHABVIFXVector4@@@Z 10016422 f   IFXRenderingOpenGL:CIFXRenderDeviceOGL.obj
 0001:00015454       ?SetHWDiffuse@CIFXRenderDeviceOGL@@MAIHABVIFXVector4@@@Z 10016454 f   IFXRenderingOpenGL:CIFXRenderDeviceOGL.obj
 0001:00015486       ?SetHWSpecular@CIFXRenderDeviceOGL@@MAIHABVIFXVector4@@@Z 10016486 f   IFXRenderingOpenGL:CIFXRenderDeviceOGL.obj
 0001:00015528       ?SetHWShininess@CIFXRenderDeviceOGL@@MAIHM@Z 10016528 f   IFXRenderingOpenGL:CIFXRenderDeviceOGL.obj
 0001:00015612       ?SetHWFastSpecular@CIFXRenderDeviceOGL@@MAIHH@Z 10016612 f   IFXRenderingOpenGL:CIFXRenderDeviceOGL.obj
 0001:00015660       ?SetHWRenderStyle@CIFXRenderDeviceOGL@@MAIHI@Z 10016660 f   IFXRenderingOpenGL:CIFXRenderDeviceOGL.obj
 0001:00015712       ?SetHWShadeModel@CIFXRenderDeviceOGL@@MAIHI@Z 10016712 f   IFXRenderingOpenGL:CIFXRenderDeviceOGL.obj
 0001:00015758       ?SetHWMaterial@CIFXRenderDeviceOGL@@MAIHXZ 10016758 f   IFXRenderingOpenGL:CIFXRenderDeviceOGL.obj
 0001:0001575c       ?SetHWLighting@CIFXRenderDeviceOGL@@MAIHH@Z 1001675c f   IFXRenderingOpenGL:CIFXRenderDeviceOGL.obj
 0001:00015788       ?SetHWDepthTest@CIFXRenderDeviceOGL@@MAIHH@Z 10016788 f   IFXRenderingOpenGL:CIFXRenderDeviceOGL.obj
 0001:000157b4       ?SetHWDepthWrite@CIFXRenderDeviceOGL@@MAIHH@Z 100167b4 f   IFXRenderingOpenGL:CIFXRenderDeviceOGL.obj
 0001:000157dc       ?SetHWDepthCompare@CIFXRenderDeviceOGL@@MAIHI@Z 100167dc f   IFXRenderingOpenGL:CIFXRenderDeviceOGL.obj
 0001:000157fa       ?GetDepthFunc@CIFXRenderDeviceOGL@@IAIII@Z 100167fa f   IFXRenderingOpenGL:CIFXRenderDeviceOGL.obj
 0001:0001584c       ?SetHWCull@CIFXRenderDeviceOGL@@MAIHH@Z 1001684c f   IFXRenderingOpenGL:CIFXRenderDeviceOGL.obj
 0001:00015878       ?SetHWCullMode@CIFXRenderDeviceOGL@@MAIHI@Z 10016878 f   IFXRenderingOpenGL:CIFXRenderDeviceOGL.obj
 0001:000158a8       ?SetHWLineOffset@CIFXRenderDeviceOGL@@MAIHI@Z 100168a8 f   IFXRenderingOpenGL:CIFXRenderDeviceOGL.obj
 0001:00015926       ?SetHWViewMatrix@CIFXRenderDeviceOGL@@MAIHABVIFXMatrix4x4@@@Z 10016926 f   IFXRenderingOpenGL:CIFXRenderDeviceOGL.obj
 0001:00015a0c       ?SetHWWorldMatrix@CIFXRenderDeviceOGL@@MAIHABVIFXMatrix4x4@@@Z 10016a0c f   IFXRenderingOpenGL:CIFXRenderDeviceOGL.obj
 0001:00015ae8       ?SetHWGlobalAmbient@CIFXRenderDeviceOGL@@MAIHABVIFXVector4@@@Z 10016ae8 f   IFXRenderingOpenGL:CIFXRenderDeviceOGL.obj
 0001:00015b28       ?SetHWConstantColor@CIFXRenderDeviceOGL@@MAIHABVIFXVector4@@@Z 10016b28 f   IFXRenderingOpenGL:CIFXRenderDeviceOGL.obj
 0001:00015bae       ?SetHWNormalization@CIFXRenderDeviceOGL@@MAIHH@Z 10016bae f   IFXRenderingOpenGL:CIFXRenderDeviceOGL.obj
 0001:00015bda       ?SetHWStencilEnabled@CIFXRenderDeviceOGL@@MAIHH@Z 10016bda f   IFXRenderingOpenGL:CIFXRenderDeviceOGL.obj
 0001:00015c0e       ?SetHWStencil@CIFXRenderDeviceOGL@@MAIHXZ 10016c0e f   IFXRenderingOpenGL:CIFXRenderDeviceOGL.obj
 0001:00015c8c       ?GetGLStencilOp@CIFXRenderDeviceOGL@@IAIII@Z 10016c8c f   IFXRenderingOpenGL:CIFXRenderDeviceOGL.obj
 0001:00015cd6       ?GetGLStencilFunc@CIFXRenderDeviceOGL@@IAIII@Z 10016cd6 f   IFXRenderingOpenGL:CIFXRenderDeviceOGL.obj
 0001:00015d28       ?SetHWView@CIFXRenderDeviceOGL@@MAIHXZ 10016d28 f   IFXRenderingOpenGL:CIFXRenderDeviceOGL.obj
 0001:00015de6       ?CalcProjectionMatrix@CIFXRenderDeviceOGL@@IAIXXZ 10016de6 f   IFXRenderingOpenGL:CIFXRenderDeviceOGL.obj
 0001:000161b6       ?FillIFXRenderCaps@CIFXRenderDeviceOGL@@IAIXXZ 100171b6 f   IFXRenderingOpenGL:CIFXRenderDeviceOGL.obj
 0001:00016248       ?InitializeOS@CIFXRenderDeviceOGL@@IAIHXZ 10017248 f   IFXRenderingOpenGL:CIFXRenderDeviceOGL.obj
 0001:000162a0       ?InitContext@CIFXRenderDeviceOGL@@IAIHXZ 100172a0 f   IFXRenderingOpenGL:CIFXRenderDeviceOGL.obj
 0001:000162da       ?InitData@CIFXRenderDeviceOGL@@IAIXXZ 100172da f   IFXRenderingOpenGL:CIFXRenderDeviceOGL.obj
 0001:00016340       ?Initialize@CIFXRenderDeviceOGL@@UAIHI@Z 10017340 f   IFXRenderingOpenGL:CIFXRenderDeviceOGL.obj
 0001:000165cc       ?GetNumHWTexUnits@CIFXRenderDeviceOGL@@UAIIXZ 100175cc f i IFXRenderingOpenGL:CIFXRenderDeviceOGL.obj
 0001:000165d4       ?SetHWPassOp@CIFXRenderDeviceOGL@@MAIHI@Z 100175d4 f i IFXRenderingOpenGL:CIFXRenderDeviceOGL.obj
 0001:00016600       ?SetHWStencilFunc@CIFXRenderDeviceOGL@@MAIHI@Z 10017600 f i IFXRenderingOpenGL:CIFXRenderDeviceOGL.obj
 0001:0001662c       ?SetHWTestMask@CIFXRenderDeviceOGL@@MAIHI@Z 1001762c f i IFXRenderingOpenGL:CIFXRenderDeviceOGL.obj
 0001:00016638       ?SetHWWriteMask@CIFXRenderDeviceOGL@@MAIHI@Z 10017638 f i IFXRenderingOpenGL:CIFXRenderDeviceOGL.obj
 0001:00016644       ?SetHWStencilRef@CIFXRenderDeviceOGL@@MAIHI@Z 10017644 f i IFXRenderingOpenGL:CIFXRenderDeviceOGL.obj
 0001:00016650       ?AddRef@CIFXRenderDeviceOGL@@$4PPPPPPPM@A@AIIXZ 10017650 f i IFXRenderingOpenGL:CIFXRenderDeviceOGL.obj
 0001:0001665c       ?Release@CIFXRenderDeviceOGL@@$4PPPPPPPM@A@AIIXZ 1001765c f i IFXRenderingOpenGL:CIFXRenderDeviceOGL.obj
 0001:00016668       ?QueryInterface@CIFXRenderDeviceOGL@@$4PPPPPPPM@A@AIHABUIFXGUID@@PAPAX@Z 10017668 f i IFXRenderingOpenGL:CIFXRenderDeviceOGL.obj
 0001:00016674       ?GetSupported@CIFXRenderDeviceOGL@@$4PPPPPPPM@A@AIHIAAH@Z 10017674 f i IFXRenderingOpenGL:CIFXRenderDeviceOGL.obj
 0001:00016680       ?DeleteMesh@CIFXRenderDevice@@$4PPPPPPPM@BEE@AIHI@Z 10017680 f i IFXRenderingOpenGL:CIFXRenderDeviceOGL.obj
 0001:00016690       ?DeleteTexture@CIFXRenderDevice@@$4PPPPPPPM@BEE@AIHI@Z 10017690 f i IFXRenderingOpenGL:CIFXRenderDeviceOGL.obj
 0001:000166a0       ?GetCaps@CIFXRenderDeviceOGL@@$4PPPPPPPM@A@BIHAAVIFXRenderCaps@@@Z 100176a0 f i IFXRenderingOpenGL:CIFXRenderDeviceOGL.obj
 0001:000166ac       ??_ECIFXRenderDeviceOGL@@$2PPPPPPPM@A@AEPAXI@Z 100176ac f i IFXRenderingOpenGL:CIFXRenderDeviceOGL.obj
 0001:000166b8       ?Initialize@CIFXRenderDeviceOGL@@$4PPPPPPPM@A@AIHI@Z 100176b8 f i IFXRenderingOpenGL:CIFXRenderDeviceOGL.obj
 0001:000166c4       ?SetHWZFailureOp@CIFXRenderDeviceOGL@@MAIHI@Z 100176c4 f i IFXRenderingOpenGL:CIFXRenderDeviceOGL.obj
 0001:000166f0       ?SetHWFailureOp@CIFXRenderDeviceOGL@@MAIHI@Z 100176f0 f i IFXRenderingOpenGL:CIFXRenderDeviceOGL.obj
 0001:0001671c       ??_GIFXRenderWindow@@UAEPAXI@Z 1001771c f i IFXRenderingOpenGL:IFXOSRenderWindow.obj
 0001:0001671c       ??_EIFXRenderWindow@@UAEPAXI@Z 1001771c f i IFXRenderingOpenGL:IFXOSRenderWindow.obj
 0001:00016738       ??0IFXRenderWindow@@QAE@XZ 10017738 f   IFXRenderingOpenGL:IFXOSRenderWindow.obj
 0001:0001674e       ??1IFXRenderWindow@@UAE@XZ 1001774e f   IFXRenderingOpenGL:IFXOSRenderWindow.obj
 0001:00016756       ?SetAntiAliasingMode@IFXRenderWindow@@QAIHI@Z 10017756 f   IFXRenderingOpenGL:IFXOSRenderWindow.obj
 0001:00016782       ?SetAntiAliasingEnabled@IFXRenderWindow@@QAIHI@Z 10017782 f   IFXRenderingOpenGL:IFXOSRenderWindow.obj
 0001:000167a8       ?SetDTS@IFXRenderWindow@@QAIHH@Z 100177a8 f   IFXRenderingOpenGL:IFXOSRenderWindow.obj
 0001:000167ae       ?SetTransparent@IFXRenderWindow@@QAIHH@Z 100177ae f   IFXRenderingOpenGL:IFXOSRenderWindow.obj
 0001:000167b4       ?SetWindowSize@IFXRenderWindow@@QAIHABV?$IFXRectT@H@@@Z 100177b4 f   IFXRenderingOpenGL:IFXOSRenderWindow.obj
 0001:000167e2       ?SetWindowPtr@IFXRenderWindow@@QAIHPAX@Z 100177e2 f   IFXRenderingOpenGL:IFXOSRenderWindow.obj
 0001:000167ee       ?GetAntiAliasingEnabled@IFXRenderWindow@@QBIIXZ 100177ee f   IFXRenderingOpenGL:IFXOSRenderWindow.obj
 0001:000167f2       ?GetAntiAliasingMode@IFXRenderWindow@@QBIIXZ 100177f2 f   IFXRenderingOpenGL:IFXOSRenderWindow.obj
 0001:000167f6       ?GetDTS@IFXRenderWindow@@QBIHXZ 100177f6 f   IFXRenderingOpenGL:IFXOSRenderWindow.obj
 0001:000167fa       ?GetTransparent@IFXRenderWindow@@QBIHXZ 100177fa f   IFXRenderingOpenGL:IFXOSRenderWindow.obj
 0001:000167fe       ?GetWindowSize@IFXRenderWindow@@QBIABV?$IFXRectT@H@@XZ 100177fe f   IFXRenderingOpenGL:IFXOSRenderWindow.obj
 0001:00016804       ?GetWindowPtr@IFXRenderWindow@@QBIPAXXZ 10017804 f   IFXRenderingOpenGL:IFXOSRenderWindow.obj
 0001:00016808       ?GetWindowSizeVC@IFXRenderWindow@@QBIXAAV?$IFXRectT@H@@@Z 10017808 f   IFXRenderingOpenGL:IFXOSRenderWindow.obj
 0001:00016910       ?SetDirtyWindow@IFXRenderWindow@@QAIHAAV1@@Z 10017910 f   IFXRenderingOpenGL:IFXOSRenderWindow.obj
 0001:00016992       ?InitData@IFXRenderWindow@@QAIXXZ 10017992 f   IFXRenderingOpenGL:IFXOSRenderWindow.obj
 0001:00016b82       ?IFXGetMonitorInfo@@YAHPAXPAUtagMONITORINFOEXW@@@Z 10017b82 f   IFXRenderingOpenGL:IFXOSRender.obj
 0001:00016b8a       ?IFXGetMonitorInfo.@@YAHPAXPAUtagMONITORINFOEXW@@@Z 10017b8a f   IFXRenderingOpenGL:IFXOSRender.obj
 0001:00016bc8       @IFXGetNumMonitors@0       10017bc8 f   IFXRenderingOpenGL:IFXOSRender.obj
 0001:00016bd2       @IFXGetColorBufferDepth@0  10017bd2 f   IFXRenderingOpenGL:IFXOSRender.obj
 0001:00016bf8       @IFXClientToScreen@12      10017bf8 f   IFXRenderingOpenGL:IFXOSRender.obj
 0001:00016c2e       @IFXGetClientRect@8        10017c2e f   IFXRenderingOpenGL:IFXOSRender.obj
 0001:00016c64       @IFXEnumDisplayDevices@20  10017c64 f   IFXRenderingOpenGL:IFXOSRender.obj
 0001:00016cbc       @IFXEnumDisplayMonitors@24 10017cbc f   IFXRenderingOpenGL:IFXOSRender.obj
 0001:00016d32       @IFXUseRenderWindowClassWin@0 10017d32 f   IFXRenderingOpenGL:IFXOSRender.obj
 0001:00016dda       @IFXUnuseRenderWindowClassWin@0 10017dda f   IFXRenderingOpenGL:IFXOSRender.obj
 0001:00016e18       ?IFXWinMsgProc@@YGJPAUHWND__@@IIJ@Z 10017e18 f   IFXRenderingOpenGL:IFXOSRender.obj
 0001:00016f08       ?LoadExtensions@CIFXOpenGL@@UAIHXZ 10017f08 f   IFXRenderingOpenGL:CIFXOpenGL.obj
 0001:00017392       ?Construct@CIFXOpenGL@@IAIHXZ 10018392 f   IFXRenderingOpenGL:CIFXOpenGL.obj
 0001:00017396       ?GetOGLExtensionFunc@CIFXOpenGL@@MAIP6GHXZPAD@Z 10018396 f   IFXRenderingOpenGL:CIFXOpenGL.obj
 0001:000173a0       ?ClearOpenGLFuncs@IFXOpenGL@@IAIXXZ 100183a0 f   IFXRenderingOpenGL:IFXOpenGL.obj
 0001:0001762e       ?GetOpenGLFuncs@IFXOpenGL@@IAIXXZ 1001862e f   IFXRenderingOpenGL:IFXOpenGL.obj
 0001:00017dd0       @IFXLoadCoreLibrary@0      10018dd0 f   IFXRenderingOpenGL:IFXOSLoader.obj
 0001:00017ddc       @IFXLoadLibrary@4          10018ddc f   IFXRenderingOpenGL:IFXOSLoader.obj
 0001:00017de4       @IFXLoadOpenGLLibrary@0    10018de4 f   IFXRenderingOpenGL:IFXOSLoader.obj
 0001:00017df0       @IFXOSGetCoreLibraryPath@4 10018df0 f   IFXRenderingOpenGL:IFXOSLoader.obj
 0001:00017f02       @IFXGetAddress@8           10018f02 f   IFXRenderingOpenGL:IFXOSLoader.obj
 0001:00017f0c       @IFXReleaseLibrary@4       10018f0c f   IFXRenderingOpenGL:IFXOSLoader.obj
 0001:00017f20       @IFXOSFileOpen@8           10018f20 f   IFXRenderingOpenGL:IFXOSLoader.obj
 0001:00017f2c       ??_G?$IFXSmartPtr@VIFXRenderServices@@@@UAEPAXI@Z 10018f2c f i IFXRenderingOpenGL:CIFXRenderOGLOS.obj
 0001:00017f2c       ??_E?$IFXSmartPtr@VIFXRenderServices@@@@UAEPAXI@Z 10018f2c f i IFXRenderingOpenGL:CIFXRenderOGLOS.obj
 0001:00017fb8       ?GetSupported@CIFXRenderDeviceOGL@@UAIHIAAH@Z 10018fb8 f   IFXRenderingOpenGL:CIFXRenderOGLOS.obj
 0001:000182e4       ?CreateTestWnd@@YAPAUHWND__@@XZ 100192e4 f   IFXRenderingOpenGL:CIFXRenderOGLOS.obj
 0001:0001831e       ?DestroyTestWnd@@YAXPAUHWND__@@@Z 1001931e f   IFXRenderingOpenGL:CIFXRenderOGLOS.obj
 0001:00018322       ?DestroyTestWnd.@@YAXPAUHWND__@@@Z 10019322 f   IFXRenderingOpenGL:CIFXRenderOGLOS.obj
 0001:00018334       ?DestroyOS@CIFXRenderDeviceOGL@@IAIHXZ 10019334 f   IFXRenderingOpenGL:CIFXRenderOGLOS.obj
 0001:000183c6       ?SetHWDTSOS@CIFXRenderOGL@@IAIHH@Z 100193c6 f   IFXRenderingOpenGL:CIFXRenderOGLOS.obj
 0001:0001844a       ?ClearOS@CIFXRenderOGL@@IAIHABVIFXRenderClear@@@Z 1001944a f   IFXRenderingOpenGL:CIFXRenderOGLOS.obj
 0001:000188d2       ?SwapOS@CIFXRenderOGL@@IAIHXZ 100198d2 f   IFXRenderingOpenGL:CIFXRenderOGLOS.obj
 0001:000189e0       ?SetHWWindowOS@CIFXRenderOGL@@IAIHH@Z 100199e0 f   IFXRenderingOpenGL:CIFXRenderOGLOS.obj
 0001:00018d3c       ?DestroyOS@CIFXRenderOGL@@IAIHXZ 10019d3c f   IFXRenderingOpenGL:CIFXRenderOGLOS.obj
 0001:00018dac       ?MakeDeviceCurrent@CIFXRenderDeviceOGL@@QAIHXZ 10019dac f   IFXRenderingOpenGL:CIFXRenderOGLOS.obj
 0001:00018e1c       ?MakeCurrentOS@CIFXRenderOGL@@IAIHXZ 10019e1c f   IFXRenderingOpenGL:CIFXRenderOGLOS.obj
 0001:00018e8c       ?SetVSyncEnabledOS@CIFXRenderOGL@@IAIHH@Z 10019e8c f   IFXRenderingOpenGL:CIFXRenderOGLOS.obj
 0001:00018eaa       ?ResizeBufferOS@CIFXRenderOGL@@IAIHXZ 10019eaa f   IFXRenderingOpenGL:CIFXRenderOGLOS.obj
 0001:00018eae       ?InitializeOS@CIFXRenderOGL@@IAIHXZ 10019eae f   IFXRenderingOpenGL:CIFXRenderOGLOS.obj
 0001:00019004       ?InitWindowOS@CIFXRenderDeviceOGL@@IAIHXZ 1001a004 f   IFXRenderingOpenGL:CIFXRenderOGLOS.obj
 0001:00019084       ?InitContextOS@CIFXRenderDeviceOGL@@IAIHXZ 1001a084 f   IFXRenderingOpenGL:CIFXRenderOGLOS.obj
 0001:00019178       ?InitOpenGL@@YAHPAUHDC__@@AAPAUHGLRC__@@PAVIFXOpenGLOS@@@Z 1001a178 f   IFXRenderingOpenGL:CIFXRenderOGLOS.obj
 0001:0001923c       ??1?$IFXSmartPtr@VIFXRenderServices@@@@UAE@XZ 1001a23c f i IFXRenderingOpenGL:CIFXRenderOGLOS.obj
 0001:000192ac       ??_GCIFXDeviceLightDX7@@UAEPAXI@Z 1001a2ac f i IFXRenderingDX7:CIFXDeviceLightDX7.obj
 0001:000192ac       ??_ECIFXDeviceLightDX7@@UAEPAXI@Z 1001a2ac f i IFXRenderingDX7:CIFXDeviceLightDX7.obj
 0001:000192d0       ??1CIFXDeviceLightDX7@@UAE@XZ 1001a2d0 f   IFXRenderingDX7:CIFXDeviceLightDX7.obj
 0001:0001934a       ?CIFXDeviceLightDX7Factory@@YIHABUIFXGUID@@PAPAX@Z 1001a34a f   IFXRenderingDX7:CIFXDeviceLightDX7.obj
 0001:0001949e       ?Construct@CIFXDeviceLightDX7@@IAIHXZ 1001a49e f   IFXRenderingDX7:CIFXDeviceLightDX7.obj
 0001:000194b8       ?AddRef@CIFXDeviceLightDX7@@UAIIXZ 1001a4b8 f   IFXRenderingDX7:CIFXDeviceLightDX7.obj
 0001:000194c2       ?Release@CIFXDeviceLightDX7@@UAIIXZ 1001a4c2 f   IFXRenderingDX7:CIFXDeviceLightDX7.obj
 0001:000194e8       ?QueryInterface@CIFXDeviceLightDX7@@UAIHABUIFXGUID@@PAPAX@Z 1001a4e8 f   IFXRenderingDX7:CIFXDeviceLightDX7.obj
 0001:00019784       ??0CIFXDeviceLightDX7@@QAE@XZ 1001a784 f   IFXRenderingDX7:CIFXDeviceLightDX7.obj
 0001:000197f6       ?SetHWEnabled@CIFXDeviceLightDX7@@MAIHH@Z 1001a7f6 f   IFXRenderingDX7:CIFXDeviceLightDX7.obj
 0001:0001982a       ?SetHWType@CIFXDeviceLightDX7@@MAIHI@Z 1001a82a f   IFXRenderingDX7:CIFXDeviceLightDX7.obj
 0001:00019878       ?SetHWAmbient@CIFXDeviceLightDX7@@MAIHABVIFXVector4@@@Z 1001a878 f   IFXRenderingDX7:CIFXDeviceLightDX7.obj
 0001:000198dc       ?SetHWDiffuse@CIFXDeviceLightDX7@@MAIHABVIFXVector4@@@Z 1001a8dc f   IFXRenderingDX7:CIFXDeviceLightDX7.obj
 0001:00019940       ?SetHWSpecular@CIFXDeviceLightDX7@@MAIHABVIFXVector4@@@Z 1001a940 f   IFXRenderingDX7:CIFXDeviceLightDX7.obj
 0001:000199a4       ?SetHWIntensity@CIFXDeviceLightDX7@@MAIHM@Z 1001a9a4 f   IFXRenderingDX7:CIFXDeviceLightDX7.obj
 0001:000199d6       ?SetHWAttenuation@CIFXDeviceLightDX7@@MAIHABVIFXVector3@@@Z 1001a9d6 f   IFXRenderingDX7:CIFXDeviceLightDX7.obj
 0001:000199fe       ?SetHWSpotDecay@CIFXDeviceLightDX7@@MAIHH@Z 1001a9fe f   IFXRenderingDX7:CIFXDeviceLightDX7.obj
 0001:00019a20       ?SetHWSpotInnerAngle@CIFXDeviceLightDX7@@MAIHM@Z 1001aa20 f   IFXRenderingDX7:CIFXDeviceLightDX7.obj
 0001:00019a4c       ?SetHWSpotOuterAngle@CIFXDeviceLightDX7@@MAIHM@Z 1001aa4c f   IFXRenderingDX7:CIFXDeviceLightDX7.obj
 0001:00019a8a       ?SetHWRange@CIFXDeviceLightDX7@@MAIHM@Z 1001aa8a f   IFXRenderingDX7:CIFXDeviceLightDX7.obj
 0001:00019aa0       ?SetHWWorldMatrix@CIFXDeviceLightDX7@@MAIHABVIFXMatrix4x4@@@Z 1001aaa0 f   IFXRenderingDX7:CIFXDeviceLightDX7.obj
 0001:00019bd4       ?SetHWLight@CIFXDeviceLightDX7@@MAIHXZ 1001abd4 f   IFXRenderingDX7:CIFXDeviceLightDX7.obj
 0001:00019c0c       ?InitData@CIFXDeviceLightDX7@@IAIXXZ 1001ac0c f   IFXRenderingDX7:CIFXDeviceLightDX7.obj
 0001:00019ca2       ?Initialize@CIFXDeviceLightDX7@@QAIHIAAV?$IFXSmartPtr@VCIFXRenderDeviceDX7@@@@@Z 1001aca2 f   IFXRenderingDX7:CIFXDeviceLightDX7.obj
 0001:00019ccc       ?AddRef@CIFXDeviceLightDX7@@$4PPPPPPPM@A@AIIXZ 1001accc f i IFXRenderingDX7:CIFXDeviceLightDX7.obj
 0001:00019cd8       ?Release@CIFXDeviceLightDX7@@$4PPPPPPPM@A@AIIXZ 1001acd8 f i IFXRenderingDX7:CIFXDeviceLightDX7.obj
 0001:00019ce4       ?QueryInterface@CIFXDeviceLightDX7@@$4PPPPPPPM@A@AIHABUIFXGUID@@PAPAX@Z 1001ace4 f i IFXRenderingDX7:CIFXDeviceLightDX7.obj
 0001:00019cf0       ??_ECIFXDeviceLightDX7@@WJI@AEPAXI@Z 1001acf0 f i IFXRenderingDX7:CIFXDeviceLightDX7.obj
 0001:00019cfc       ??_GCIFXDeviceTextureDX7@@MAEPAXI@Z 1001acfc f i IFXRenderingDX7:CIFXDeviceTextureDX7.obj
 0001:00019cfc       ??_ECIFXDeviceTextureDX7@@MAEPAXI@Z 1001acfc f i IFXRenderingDX7:CIFXDeviceTextureDX7.obj
 0001:00019d20       ??1CIFXDeviceTextureDX7@@MAE@XZ 1001ad20 f   IFXRenderingDX7:CIFXDeviceTextureDX7.obj
 0001:00019da4       ?CIFXDeviceTextureDX7Factory@@YIHABUIFXGUID@@PAPAX@Z 1001ada4 f   IFXRenderingDX7:CIFXDeviceTextureDX7.obj
 0001:00019eca       ?Construct@CIFXDeviceTextureDX7@@IAIHXZ 1001aeca f   IFXRenderingDX7:CIFXDeviceTextureDX7.obj
 0001:00019ee4       ?AddRef@CIFXDeviceTextureDX7@@UAIIXZ 1001aee4 f   IFXRenderingDX7:CIFXDeviceTextureDX7.obj
 0001:00019ef4       ?Release@CIFXDeviceTextureDX7@@UAIIXZ 1001aef4 f   IFXRenderingDX7:CIFXDeviceTextureDX7.obj
 0001:00019f14       ?QueryInterface@CIFXDeviceTextureDX7@@UAIHABUIFXGUID@@PAPAX@Z 1001af14 f   IFXRenderingDX7:CIFXDeviceTextureDX7.obj
 0001:0001a196       ??0CIFXDeviceTextureDX7@@IAE@XZ 1001b196 f   IFXRenderingDX7:CIFXDeviceTextureDX7.obj
 0001:0001a1ec       ?SetHWRenderFormat@CIFXDeviceTextureDX7@@MAIHI@Z 1001b1ec f   IFXRenderingDX7:CIFXDeviceTextureDX7.obj
 0001:0001a244       ?SetHWTexture@CIFXDeviceTextureDX7@@MAIHXZ 1001b244 f   IFXRenderingDX7:CIFXDeviceTextureDX7.obj
 0001:0001a25c       ?Lock@CIFXDeviceTextureDX7@@MAIHIIAAUSTextureOutputInfo@@@Z 1001b25c f   IFXRenderingDX7:CIFXDeviceTextureDX7.obj
 0001:0001a3ba       ?GetTextureSurface@CIFXDeviceTextureDX7@@IAEPAUIDirectDrawSurface7@@II@Z 1001b3ba f   IFXRenderingDX7:CIFXDeviceTextureDX7.obj
 0001:0001a488       ?Unlock@CIFXDeviceTextureDX7@@MAIHIIAAUSTextureOutputInfo@@@Z 1001b488 f   IFXRenderingDX7:CIFXDeviceTextureDX7.obj
 0001:0001a4d6       ?CreateD3DTexture@CIFXDeviceTextureDX7@@MAIHXZ 1001b4d6 f   IFXRenderingDX7:CIFXDeviceTextureDX7.obj
 0001:0001a69c       ?GetD3DTexFormat@CIFXDeviceTextureDX7@@MAI?AU_DDPIXELFORMAT@@I@Z 1001b69c f   IFXRenderingDX7:CIFXDeviceTextureDX7.obj
 0001:0001a82a       ?GetIFXTexFormat@CIFXDeviceTextureDX7@@MAIIAAU_DDPIXELFORMAT@@@Z 1001b82a f   IFXRenderingDX7:CIFXDeviceTextureDX7.obj
 0001:0001a87a       ?GetD3DCubeMapFace@CIFXDeviceTextureDX7@@MAIKI@Z 1001b87a f   IFXRenderingDX7:CIFXDeviceTextureDX7.obj
 0001:0001a8d2       ?InitData@CIFXDeviceTextureDX7@@IAIXXZ 1001b8d2 f   IFXRenderingDX7:CIFXDeviceTextureDX7.obj
 0001:0001a986       ?Initialize@CIFXDeviceTextureDX7@@QAIHAAV?$IFXSmartPtr@VCIFXRenderDeviceDX7@@@@@Z 1001b986 f   IFXRenderingDX7:CIFXDeviceTextureDX7.obj
 0001:0001a9a8       ?AddRef@CIFXDeviceTextureDX7@@$4PPPPPPPM@A@AIIXZ 1001b9a8 f i IFXRenderingDX7:CIFXDeviceTextureDX7.obj
 0001:0001a9b4       ?Release@CIFXDeviceTextureDX7@@$4PPPPPPPM@A@AIIXZ 1001b9b4 f i IFXRenderingDX7:CIFXDeviceTextureDX7.obj
 0001:0001a9c0       ?QueryInterface@CIFXDeviceTextureDX7@@$4PPPPPPPM@A@AIHABUIFXGUID@@PAPAX@Z 1001b9c0 f i IFXRenderingDX7:CIFXDeviceTextureDX7.obj
 0001:0001a9cc       ??_ECIFXDeviceTexUnitDX7@@MAEPAXI@Z 1001b9cc f i IFXRenderingDX7:CIFXDeviceTexUnitDX7.obj
 0001:0001a9cc       ??_GCIFXDeviceTexUnitDX7@@MAEPAXI@Z 1001b9cc f i IFXRenderingDX7:CIFXDeviceTexUnitDX7.obj
 0001:0001a9f0       ??1CIFXDeviceTexUnitDX7@@MAE@XZ 1001b9f0 f   IFXRenderingDX7:CIFXDeviceTexUnitDX7.obj
 0001:0001aa5e       ?CIFXDeviceTexUnitDX7Factory@@YIHABUIFXGUID@@PAPAX@Z 1001ba5e f   IFXRenderingDX7:CIFXDeviceTexUnitDX7.obj
 0001:0001ab62       ??0CIFXDeviceTexUnitDX7@@IAE@XZ 1001bb62 f   IFXRenderingDX7:CIFXDeviceTexUnitDX7.obj
 0001:0001aca2       ?Construct@CIFXDeviceTexUnitDX7@@IAIHXZ 1001bca2 f   IFXRenderingDX7:CIFXDeviceTexUnitDX7.obj
 0001:0001ad36       ?AddRef@CIFXDeviceTexUnitDX7@@UAIIXZ 1001bd36 f   IFXRenderingDX7:CIFXDeviceTexUnitDX7.obj
 0001:0001ad46       ?Release@CIFXDeviceTexUnitDX7@@UAIIXZ 1001bd46 f   IFXRenderingDX7:CIFXDeviceTexUnitDX7.obj
 0001:0001ad6c       ?QueryInterface@CIFXDeviceTexUnitDX7@@UAIHABUIFXGUID@@PAPAX@Z 1001bd6c f   IFXRenderingDX7:CIFXDeviceTexUnitDX7.obj
 0001:0001b008       ?SetHWTexCoordGen@CIFXDeviceTexUnitDX7@@UAIHI@Z 1001c008 f   IFXRenderingDX7:CIFXDeviceTexUnitDX7.obj
 0001:0001b618       ?SetHWEnabled@CIFXDeviceTexUnitDX7@@MAIHH@Z 1001c618 f   IFXRenderingDX7:CIFXDeviceTexUnitDX7.obj
 0001:0001b646       ?SetHWRGBInput0@CIFXDeviceTexUnitDX7@@MAIHI@Z 1001c646 f   IFXRenderingDX7:CIFXDeviceTexUnitDX7.obj
 0001:0001b690       ?GetTexUnitInput@CIFXDeviceTexUnitDX7@@IBIII@Z 1001c690 f   IFXRenderingDX7:CIFXDeviceTexUnitDX7.obj
 0001:0001b6e6       ?SetHWRGBInput1@CIFXDeviceTexUnitDX7@@MAIHI@Z 1001c6e6 f   IFXRenderingDX7:CIFXDeviceTexUnitDX7.obj
 0001:0001b730       ?SetHWRGBInterpolatorSource@CIFXDeviceTexUnitDX7@@MAIHI@Z 1001c730 f   IFXRenderingDX7:CIFXDeviceTexUnitDX7.obj
 0001:0001b756       ?SetHWRGBBlendFunc@CIFXDeviceTexUnitDX7@@MAIHI@Z 1001c756 f   IFXRenderingDX7:CIFXDeviceTexUnitDX7.obj
 0001:0001b7be       ?GetTexUnitFunc@CIFXDeviceTexUnitDX7@@IBIIII@Z 1001c7be f   IFXRenderingDX7:CIFXDeviceTexUnitDX7.obj
 0001:0001b86a       ?SetHWAlphaInput0@CIFXDeviceTexUnitDX7@@MAIHI@Z 1001c86a f   IFXRenderingDX7:CIFXDeviceTexUnitDX7.obj
 0001:0001b8b4       ?SetHWAlphaInput1@CIFXDeviceTexUnitDX7@@MAIHI@Z 1001c8b4 f   IFXRenderingDX7:CIFXDeviceTexUnitDX7.obj
 0001:0001b8fe       ?SetHWAlphaInterpolatorSource@CIFXDeviceTexUnitDX7@@MAIHI@Z 1001c8fe f   IFXRenderingDX7:CIFXDeviceTexUnitDX7.obj
 0001:0001b924       ?SetHWAlphaFunc@CIFXDeviceTexUnitDX7@@MAIHI@Z 1001c924 f   IFXRenderingDX7:CIFXDeviceTexUnitDX7.obj
 0001:0001b98c       ?SetHWTextureId@CIFXDeviceTexUnitDX7@@MAIHI@Z 1001c98c f   IFXRenderingDX7:CIFXDeviceTexUnitDX7.obj
 0001:0001ba78       ?GetTexture@CIFXDeviceTexUnitDX7@@IAIPAVCIFXDeviceTextureDX7@@I@Z 1001ca78 f   IFXRenderingDX7:CIFXDeviceTexUnitDX7.obj
 0001:0001bad0       ?SetHWTextureTransform@CIFXDeviceTexUnitDX7@@MAIHABVIFXMatrix4x4@@@Z 1001cad0 f   IFXRenderingDX7:CIFXDeviceTexUnitDX7.obj
 0001:0001bd18       ?SetHWTexCoordSet@CIFXDeviceTexUnitDX7@@MAIHI@Z 1001cd18 f   IFXRenderingDX7:CIFXDeviceTexUnitDX7.obj
 0001:0001bd62       ?SetHWTexRepeatU@CIFXDeviceTexUnitDX7@@MAIHH@Z 1001cd62 f   IFXRenderingDX7:CIFXDeviceTexUnitDX7.obj
 0001:0001bdbe       ?SetHWTexRepeatV@CIFXDeviceTexUnitDX7@@MAIHH@Z 1001cdbe f   IFXRenderingDX7:CIFXDeviceTexUnitDX7.obj
 0001:0001be1a       ?SetHWTexRepeatW@CIFXDeviceTexUnitDX7@@MAIHH@Z 1001ce1a f   IFXRenderingDX7:CIFXDeviceTexUnitDX7.obj
 0001:0001be20       ?SetHWTexUnit@CIFXDeviceTexUnitDX7@@MAIHXZ 1001ce20 f   IFXRenderingDX7:CIFXDeviceTexUnitDX7.obj
 0001:0001bf3a       ?SetHWMipMode@CIFXDeviceTexUnitDX7@@IAIHI@Z 1001cf3a f   IFXRenderingDX7:CIFXDeviceTexUnitDX7.obj
 0001:0001bfac       ?GetD3DFilterMode@CIFXDeviceTexUnitDX7@@IAIKI@Z 1001cfac f   IFXRenderingDX7:CIFXDeviceTexUnitDX7.obj
 0001:0001bfce       ?SetHWMinFilter@CIFXDeviceTexUnitDX7@@IAIHI@Z 1001cfce f   IFXRenderingDX7:CIFXDeviceTexUnitDX7.obj
 0001:0001c01c       ?SetHWMagFilter@CIFXDeviceTexUnitDX7@@IAIHI@Z 1001d01c f   IFXRenderingDX7:CIFXDeviceTexUnitDX7.obj
 0001:0001c06a       ?InitData@CIFXDeviceTexUnitDX7@@IAIXXZ 1001d06a f   IFXRenderingDX7:CIFXDeviceTexUnitDX7.obj
 0001:0001c0ba       ?Initialize@CIFXDeviceTexUnitDX7@@QAIHIAAV?$IFXSmartPtr@VCIFXRenderDeviceDX7@@@@H@Z 1001d0ba f   IFXRenderingDX7:CIFXDeviceTexUnitDX7.obj
 0001:0001c100       ?AddRef@CIFXDeviceTexUnitDX7@@$4PPPPPPPM@A@AIIXZ 1001d100 f i IFXRenderingDX7:CIFXDeviceTexUnitDX7.obj
 0001:0001c10c       ?Release@CIFXDeviceTexUnitDX7@@$4PPPPPPPM@A@AIIXZ 1001d10c f i IFXRenderingDX7:CIFXDeviceTexUnitDX7.obj
 0001:0001c118       ?QueryInterface@CIFXDeviceTexUnitDX7@@$4PPPPPPPM@A@AIHABUIFXGUID@@PAPAX@Z 1001d118 f i IFXRenderingDX7:CIFXDeviceTexUnitDX7.obj
 0001:0001c124       ??_ECIFXDeviceTexUnitDX7@@OIM@AEPAXI@Z 1001d124 f i IFXRenderingDX7:CIFXDeviceTexUnitDX7.obj
 0001:0001c130       ??_ECIFXDirectX7@@MAEPAXI@Z 1001d130 f i IFXRenderingDX7:CIFXDirectX7.obj
 0001:0001c130       ??_GCIFXDirectX7@@MAEPAXI@Z 1001d130 f i IFXRenderingDX7:CIFXDirectX7.obj
 0001:0001c16c       ??1CIFXDirectX7@@MAE@XZ    1001d16c f   IFXRenderingDX7:CIFXDirectX7.obj
 0001:0001c204       ?CIFXDirectX7Factory@@YIHABUIFXGUID@@PAPAX@Z 1001d204 f   IFXRenderingDX7:CIFXDirectX7.obj
 0001:0001c34e       ?Construct@CIFXDirectX7@@IAIHXZ 1001d34e f   IFXRenderingDX7:CIFXDirectX7.obj
 0001:0001c36e       ?AddRef@CIFXDirectX7@@UAIIXZ 1001d36e f   IFXRenderingDX7:CIFXDirectX7.obj
 0001:0001c378       ?Release@CIFXDirectX7@@UAIIXZ 1001d378 f   IFXRenderingDX7:CIFXDirectX7.obj
 0001:0001c3aa       ?QueryInterface@CIFXDirectX7@@UAIHABUIFXGUID@@PAPAX@Z 1001d3aa f   IFXRenderingDX7:CIFXDirectX7.obj
 0001:0001c56c       ?LoadDX7@CIFXDirectX7@@UAIHXZ 1001d56c f   IFXRenderingDX7:CIFXDirectX7.obj
 0001:0001c60a       ??0CIFXDirectX7@@IAE@XZ    1001d60a f   IFXRenderingDX7:CIFXDirectX7.obj
 0001:0001c67e       ?GetSingleton@CIFXDirectX7@@KIPAV1@XZ 1001d67e f   IFXRenderingDX7:CIFXDirectX7.obj
 0001:0001c684       ??1IFXDirectX7@@MAE@XZ     1001d684 f i IFXRenderingDX7:CIFXDirectX7.obj
 0001:0001c69c       ??_EIFXDirectX7@@MAEPAXI@Z 1001d69c f i IFXRenderingDX7:CIFXDirectX7.obj
 0001:0001c69c       ??_GIFXDirectX7@@MAEPAXI@Z 1001d69c f i IFXRenderingDX7:CIFXDirectX7.obj
 0001:0001c6c8       ?AddRef@CIFXDirectX7@@$4PPPPPPPM@A@AIIXZ 1001d6c8 f i IFXRenderingDX7:CIFXDirectX7.obj
 0001:0001c6d4       ?Release@CIFXDirectX7@@$4PPPPPPPM@A@AIIXZ 1001d6d4 f i IFXRenderingDX7:CIFXDirectX7.obj
 0001:0001c6e0       ?QueryInterface@CIFXDirectX7@@$4PPPPPPPM@A@AIHABUIFXGUID@@PAPAX@Z 1001d6e0 f i IFXRenderingDX7:CIFXDirectX7.obj
 0001:0001c6ec       ?LoadDX7@CIFXDirectX7@@$4PPPPPPPM@A@AIHXZ 1001d6ec f i IFXRenderingDX7:CIFXDirectX7.obj
 0001:0001c6f8       ??_ECIFXDirectX7@@$2PPPPPPPM@A@AEPAXI@Z 1001d6f8 f i IFXRenderingDX7:CIFXDirectX7.obj
 0001:0001c704       ??_GCIFXRenderDX7@@MAEPAXI@Z 1001d704 f i IFXRenderingDX7:CIFXRenderDX7.obj
 0001:0001c704       ??_ECIFXRenderDX7@@MAEPAXI@Z 1001d704 f i IFXRenderingDX7:CIFXRenderDX7.obj
 0001:0001c744       ??1CIFXRenderDX7@@MAE@XZ   1001d744 f   IFXRenderingDX7:CIFXRenderDX7.obj
 0001:0001c8ea       ?ReleaseVidMem@CIFXRenderDX7@@QAIHXZ 1001d8ea f   IFXRenderingDX7:CIFXRenderDX7.obj
 0001:0001c940       ?CIFXRenderDX7Factory@@YIHABUIFXGUID@@PAPAX@Z 1001d940 f   IFXRenderingDX7:CIFXRenderDX7.obj
 0001:0001ca3e       ??0CIFXRenderDX7@@IAE@XZ   1001da3e f   IFXRenderingDX7:CIFXRenderDX7.obj
 0001:0001cc0e       ?Construct@CIFXRenderDX7@@IAIHXZ 1001dc0e f   IFXRenderingDX7:CIFXRenderDX7.obj
 0001:0001cc5c       ?AddRef@CIFXRenderDX7@@UAIIXZ 1001dc5c f   IFXRenderingDX7:CIFXRenderDX7.obj
 0001:0001cc6c       ?Release@CIFXRenderDX7@@UAIIXZ 1001dc6c f   IFXRenderingDX7:CIFXRenderDX7.obj
 0001:0001cca4       ?QueryInterface@CIFXRenderDX7@@UAIHABUIFXGUID@@PAPAX@Z 1001dca4 f   IFXRenderingDX7:CIFXRenderDX7.obj
 0001:0001cf38       ?Swap@CIFXRenderDX7@@UAIHXZ 1001df38 f   IFXRenderingDX7:CIFXRenderDX7.obj
 0001:0001d10c       ?SwapAA@CIFXRenderDX7@@IAIJAAUtagRECT@@0@Z 1001e10c f   IFXRenderingDX7:CIFXRenderDX7.obj
 0001:0001d318       ?GetIFXRenderFormat@CIFXRenderDX7@@IAIIU_DDPIXELFORMAT@@@Z 1001e318 f   IFXRenderingDX7:CIFXRenderDX7.obj
 0001:0001d354       ?CreateTexture@CIFXRenderDX7@@MAIHAAV?$IFXSmartPtr@VCIFXDeviceTexture@@@@@Z 1001e354 f   IFXRenderingDX7:CIFXRenderDX7.obj
 0001:0001d4ea       ?MakeHWCurrent@CIFXRenderDX7@@MAIHXZ 1001e4ea f   IFXRenderingDX7:CIFXRenderDX7.obj
 0001:0001d570       ?ClearHW@CIFXRenderDX7@@MAIHABVIFXRenderClear@@@Z 1001e570 f   IFXRenderingDX7:CIFXRenderDX7.obj
 0001:0001d9fc       ?SetHWWindow@CIFXRenderDX7@@MAIHH@Z 1001e9fc f   IFXRenderingDX7:CIFXRenderDX7.obj
 0001:0001da54       ?SetNonDTSWindow@CIFXRenderDX7@@IAIHH@Z 1001ea54 f   IFXRenderingDX7:CIFXRenderDX7.obj
 0001:0001db08       ?CreateBackBuffer@CIFXRenderDX7@@IAIHXZ 1001eb08 f   IFXRenderingDX7:CIFXRenderDX7.obj
 0001:0001dec4       ?SetDTSWindow@CIFXRenderDX7@@IAIHH@Z 1001eec4 f   IFXRenderingDX7:CIFXRenderDX7.obj
 0001:0001dfc2       ?MoveDTSWindow@CIFXRenderDX7@@IAIHABV?$IFXRectT@H@@@Z 1001efc2 f   IFXRenderingDX7:CIFXRenderDX7.obj
 0001:0001e04c       ?SetHWAntiAliasingMode@CIFXRenderDX7@@MAIHI@Z 1001f04c f   IFXRenderingDX7:CIFXRenderDX7.obj
 0001:0001e0da       ?InitData@CIFXRenderDX7@@IAIXXZ 1001f0da f   IFXRenderingDX7:CIFXRenderDX7.obj
 0001:0001e10c       ?Initialize@CIFXRenderDX7@@UAIHI@Z 1001f10c f   IFXRenderingDX7:CIFXRenderDX7.obj
 0001:0001e3f0       ??1?$IFXSmartPtr@VCIFXRenderDeviceDX7@@@@UAE@XZ 1001f3f0 f i IFXRenderingDX7:CIFXRenderDX7.obj
 0001:0001e460       ??_G?$IFXSmartPtr@VCIFXDeviceLightDX7@@@@UAEPAXI@Z 1001f460 f i IFXRenderingDX7:CIFXRenderDX7.obj
 0001:0001e460       ??_E?$IFXSmartPtr@VCIFXDeviceLightDX7@@@@UAEPAXI@Z 1001f460 f i IFXRenderingDX7:CIFXRenderDX7.obj
 0001:0001e4f0       ??_E?$IFXSmartPtr@VCIFXDeviceTexUnitDX7@@@@UAEPAXI@Z 1001f4f0 f i IFXRenderingDX7:CIFXRenderDX7.obj
 0001:0001e4f0       ??_G?$IFXSmartPtr@VCIFXDeviceTexUnitDX7@@@@UAEPAXI@Z 1001f4f0 f i IFXRenderingDX7:CIFXRenderDX7.obj
 0001:0001e580       ??_G?$IFXSmartPtr@VCIFXRenderDeviceDX7@@@@UAEPAXI@Z 1001f580 f i IFXRenderingDX7:CIFXRenderDX7.obj
 0001:0001e580       ??_E?$IFXSmartPtr@VCIFXRenderDeviceDX7@@@@UAEPAXI@Z 1001f580 f i IFXRenderingDX7:CIFXRenderDX7.obj
 0001:0001e60c       ??_E?$IFXSmartPtr@VCIFXDeviceTextureDX7@@@@UAEPAXI@Z 1001f60c f i IFXRenderingDX7:CIFXRenderDX7.obj
 0001:0001e60c       ??_G?$IFXSmartPtr@VCIFXDeviceTextureDX7@@@@UAEPAXI@Z 1001f60c f i IFXRenderingDX7:CIFXRenderDX7.obj
 0001:0001e698       ??0?$IFXSmartPtr@VCIFXDeviceLightDX7@@@@QAE@XZ 1001f698 f i IFXRenderingDX7:CIFXRenderDX7.obj
 0001:0001e6a8       ??1?$IFXSmartPtr@VCIFXDeviceLightDX7@@@@UAE@XZ 1001f6a8 f i IFXRenderingDX7:CIFXRenderDX7.obj
 0001:0001e71c       ?ReCastTo@?$IFXSmartPtr@VCIFXDeviceLightDX8@@@@UBIHABUIFXGUID@@AAPAX@Z 1001f71c f i IFXRenderingDX8:CIFXRenderDX8.obj
 0001:0001e71c       ?ReCastTo@?$IFXSmartPtr@VCIFXDeviceLightNULL@@@@UBIHABUIFXGUID@@AAPAX@Z 1001f71c f i IFXRenderingNULL:CIFXRenderNULL.obj
 0001:0001e71c       ?ReCastTo@?$IFXSmartPtr@VCIFXDeviceLight@@@@UBIHABUIFXGUID@@AAPAX@Z 1001f71c f i Rendering:CIFXRenderDevice.obj
 0001:0001e71c       ?ReCastTo@?$IFXSmartPtr@VCIFXDeviceLightOGL@@@@UBIHABUIFXGUID@@AAPAX@Z 1001f71c f i IFXRenderingOpenGL:CIFXRenderOGL.obj
 0001:0001e71c       ?ReCastTo@?$IFXSmartPtr@VCIFXDeviceLightDX7@@@@UBIHABUIFXGUID@@AAPAX@Z 1001f71c f i IFXRenderingDX7:CIFXRenderDX7.obj
 0001:0001e748       ??0?$IFXSmartPtr@VCIFXDeviceTexUnitDX7@@@@QAE@XZ 1001f748 f i IFXRenderingDX7:CIFXRenderDX7.obj
 0001:0001e758       ??1?$IFXSmartPtr@VCIFXDeviceTexUnitDX7@@@@UAE@XZ 1001f758 f i IFXRenderingDX7:CIFXRenderDX7.obj
 0001:0001e7cc       ?SetVSyncEnabled@CIFXRenderDX7@@MAIHH@Z 1001f7cc f i IFXRenderingDX7:CIFXRenderDX7.obj
 0001:0001e7d8       ?AddRef@CIFXRenderDX7@@$4PPPPPPPM@A@AIIXZ 1001f7d8 f i IFXRenderingDX7:CIFXRenderDX7.obj
 0001:0001e7e4       ?Release@CIFXRenderDX7@@$4PPPPPPPM@A@AIIXZ 1001f7e4 f i IFXRenderingDX7:CIFXRenderDX7.obj
 0001:0001e7f0       ?QueryInterface@CIFXRenderDX7@@$4PPPPPPPM@A@AIHABUIFXGUID@@PAPAX@Z 1001f7f0 f i IFXRenderingDX7:CIFXRenderDX7.obj
 0001:0001e7fc       ?GetCaps@CIFXRender@@$4PPPPPPPM@KI@AIHAAVIFXRenderCaps@@@Z 1001f7fc f i IFXRenderingDX7:CIFXRenderDX7.obj
 0001:0001e80c       ?GetPerformanceData@CIFXRender@@$4PPPPPPPM@KI@AIHIAAI@Z 1001f80c f i IFXRenderingDX7:CIFXRenderDX7.obj
 0001:0001e81c       ?ClearPerformanceData@CIFXRender@@$4PPPPPPPM@KI@AIHXZ 1001f81c f i IFXRenderingDX7:CIFXRenderDX7.obj
 0001:0001e82c       ?GetRenderServices@CIFXRender@@$4PPPPPPPM@KI@AIHAAPAVIFXRenderServices@@@Z 1001f82c f i IFXRenderingDX7:CIFXRenderDX7.obj
 0001:0001e83c       ?GetColorFormat@CIFXRender@@$4PPPPPPPM@KI@AIIXZ 1001f83c f i IFXRenderingDX7:CIFXRenderDX7.obj
 0001:0001e84c       ?Enable@CIFXRender@@$4PPPPPPPM@KI@AIHI@Z 1001f84c f i IFXRenderingDX7:CIFXRenderDX7.obj
 0001:0001e85c       ?Disable@CIFXRender@@$4PPPPPPPM@KI@AIHI@Z 1001f85c f i IFXRenderingDX7:CIFXRenderDX7.obj
 0001:0001e86c       ?SetBlend@CIFXRender@@$4PPPPPPPM@KI@AIHAAVIFXRenderBlend@@@Z 1001f86c f i IFXRenderingDX7:CIFXRenderDX7.obj
 0001:0001e87c       ?SetFog@CIFXRender@@$4PPPPPPPM@KI@AIHAAVIFXRenderFog@@@Z 1001f87c f i IFXRenderingDX7:CIFXRenderDX7.obj
 0001:0001e88c       ?SetLight@CIFXRender@@$4PPPPPPPM@KI@AIHIAAVIFXRenderLight@@@Z 1001f88c f i IFXRenderingDX7:CIFXRenderDX7.obj
 0001:0001e89c       ?GetGlobalAmbient@CIFXRender@@$4PPPPPPPM@KI@AIHAAVIFXVector4@@@Z 1001f89c f i IFXRenderingDX7:CIFXRenderDX7.obj
 0001:0001e8ac       ?SetGlobalAmbient@CIFXRender@@$4PPPPPPPM@KI@AIHABVIFXVector4@@@Z 1001f8ac f i IFXRenderingDX7:CIFXRenderDX7.obj
 0001:0001e8bc       ?SetMaterial@CIFXRender@@$4PPPPPPPM@KI@AIHAAVIFXRenderMaterial@@@Z 1001f8bc f i IFXRenderingDX7:CIFXRenderDX7.obj
 0001:0001e8cc       ?SetStencil@CIFXRender@@$4PPPPPPPM@KI@AIHAAVIFXRenderStencil@@@Z 1001f8cc f i IFXRenderingDX7:CIFXRenderDX7.obj
 0001:0001e8dc       ?SetTexture@CIFXRender@@$4PPPPPPPM@KI@AIHAAVIFXTextureObject@@@Z 1001f8dc f i IFXRenderingDX7:CIFXRenderDX7.obj
 0001:0001e8ec       ?SetTextureUnit@CIFXRender@@$4PPPPPPPM@KI@AIHIAAVIFXRenderTexUnit@@@Z 1001f8ec f i IFXRenderingDX7:CIFXRenderDX7.obj
 0001:0001e8fc       ?SetConstantColor@CIFXRender@@$4PPPPPPPM@KI@AIHABVIFXVector4@@@Z 1001f8fc f i IFXRenderingDX7:CIFXRenderDX7.obj
 0001:0001e90c       ?SetView@CIFXRender@@$4PPPPPPPM@KI@AIHAAVIFXRenderView@@@Z 1001f90c f i IFXRenderingDX7:CIFXRenderDX7.obj
 0001:0001e91c       ?SetWindow@CIFXRender@@$4PPPPPPPM@KI@AIHAAVIFXRenderWindow@@@Z 1001f91c f i IFXRenderingDX7:CIFXRenderDX7.obj
 0001:0001e92c       ?GetWindow@CIFXRender@@$4PPPPPPPM@KI@AIHAAVIFXRenderWindow@@@Z 1001f92c f i IFXRenderingDX7:CIFXRenderDX7.obj
 0001:0001e93c       ?GetNumDevices@CIFXRender@@$4PPPPPPPM@KI@AIHAAVIFXRenderWindow@@AAI@Z 1001f93c f i IFXRenderingDX7:CIFXRenderDX7.obj
 0001:0001e94c       ?Clear@CIFXRender@@$4PPPPPPPM@KI@AIHABVIFXRenderClear@@@Z 1001f94c f i IFXRenderingDX7:CIFXRenderDX7.obj
 0001:0001e95c       ?DrawMeshLines@CIFXRender@@$4PPPPPPPM@KI@AIHAAVIFXMesh@@@Z 1001f95c f i IFXRenderingDX7:CIFXRenderDX7.obj
 0001:0001e96c       ?DrawMeshPoints@CIFXRender@@$4PPPPPPPM@KI@AIHAAVIFXMesh@@@Z 1001f96c f i IFXRenderingDX7:CIFXRenderDX7.obj
 0001:0001e97c       ?DrawMesh@CIFXRender@@$4PPPPPPPM@KI@AIHAAVIFXMesh@@@Z 1001f97c f i IFXRenderingDX7:CIFXRenderDX7.obj
 0001:0001e98c       ?DeleteTexture@CIFXRender@@$4PPPPPPPM@KI@AIHI@Z 1001f98c f i IFXRenderingDX7:CIFXRenderDX7.obj
 0001:0001e99c       ?SetWorldMatrix@CIFXRender@@$4PPPPPPPM@KI@AIHABVIFXMatrix4x4@@@Z 1001f99c f i IFXRenderingDX7:CIFXRenderDX7.obj
 0001:0001e9ac       ?SetViewMatrix@CIFXRender@@$4PPPPPPPM@KI@AIHABVIFXMatrix4x4@@@Z 1001f9ac f i IFXRenderingDX7:CIFXRenderDX7.obj
 0001:0001e9bc       ?GetViewMatrix@CIFXRender@@$4PPPPPPPM@KI@AIABVIFXMatrix4x4@@XZ 1001f9bc f i IFXRenderingDX7:CIFXRenderDX7.obj
 0001:0001e9cc       ?SetRenderer@CIFXRender@@$4PPPPPPPM@KI@AIHI@Z 1001f9cc f i IFXRenderingDX7:CIFXRenderDX7.obj
 0001:0001e9cc       ?SetDevice@CIFXRender@@$4PPPPPPPM@KI@AIHI@Z 1001f9cc f i IFXRenderingDX7:CIFXRenderDX7.obj
 0001:0001e9cc       ?GetView@CIFXRender@@$4PPPPPPPM@KI@BIABVIFXRenderView@@XZ 1001f9cc f i IFXRenderingDX7:CIFXRenderDX7.obj
 0001:0001e9cc       ?ConfigureRenderPass@CIFXRender@@$4PPPPPPPM@KI@AIHI@Z 1001f9cc f i IFXRenderingDX7:CIFXRenderDX7.obj
 0001:0001e9cc       ?GetRenderer@CIFXRender@@$4PPPPPPPM@KI@AIIXZ 1001f9cc f i IFXRenderingDX7:CIFXRenderDX7.obj
 0001:0001e9cc       ?CalculateNumPasses@CIFXRender@@$4PPPPPPPM@KI@AIIXZ 1001f9cc f i IFXRenderingDX7:CIFXRenderDX7.obj
 0001:0001e9dc       ?SetDepthMode@CIFXRender@@$4PPPPPPPM@KI@AIHI@Z 1001f9dc f i IFXRenderingDX7:CIFXRenderDX7.obj
 0001:0001e9ec       ?SetCullMode@CIFXRender@@$4PPPPPPPM@KI@AIHI@Z 1001f9ec f i IFXRenderingDX7:CIFXRenderDX7.obj
 0001:0001e9fc       ?SetLineOffset@CIFXRender@@$4PPPPPPPM@KI@AIHI@Z 1001f9fc f i IFXRenderingDX7:CIFXRenderDX7.obj
 0001:0001ea0c       ?Swap@CIFXRenderDX7@@$4PPPPPPPM@A@AIHXZ 1001fa0c f i IFXRenderingDX7:CIFXRenderDX7.obj
 0001:0001ea18       ?GetTransformMatrix@CIFXRender@@$4PPPPPPPM@KI@AIHAAVIFXMatrix4x4@@@Z 1001fa18 f i IFXRenderingDX7:CIFXRenderDX7.obj
 0001:0001ea28       ?Reset@CIFXRender@@$4PPPPPPPM@KI@AIXXZ 1001fa28 f i IFXRenderingDX7:CIFXRenderDX7.obj
 0001:0001ea38       ??_ECIFXRenderDX7@@$2PPPPPPPM@A@AEPAXI@Z 1001fa38 f i IFXRenderingDX7:CIFXRenderDX7.obj
 0001:0001ea44       ?MakeCurrent@CIFXRender@@$4PPPPPPPM@KI@AIHXZ 1001fa44 f i IFXRenderingDX7:CIFXRenderDX7.obj
 0001:0001ea54       ??1?$IFXSmartPtr@VCIFXDeviceTextureDX7@@@@UAE@XZ 1001fa54 f i IFXRenderingDX7:CIFXRenderDX7.obj
 0001:0001eac4       ?Initialize@CIFXRenderDX7@@$4PPPPPPPM@A@AIHI@Z 1001fac4 f i IFXRenderingDX7:CIFXRenderDX7.obj
 0001:0001ead0       ?Initialize@CIFXRender@@$4PPPPPPPM@KI@AIHXZ 1001fad0 f i IFXRenderingDX7:CIFXRenderDX7.obj
 0001:0001eae0       ??_EIFXRenderDX7StackEntry@@QAEPAXI@Z 1001fae0 f i IFXRenderingDX7:CIFXRenderDeviceDX7.obj
 0001:0001eae0       ??_GIFXRenderDX7StackEntry@@QAEPAXI@Z 1001fae0 f i IFXRenderingDX7:CIFXRenderDeviceDX7.obj
 0001:0001eb10       ??_ECIFXRenderDeviceDX7@@MAEPAXI@Z 1001fb10 f i IFXRenderingDX7:CIFXRenderDeviceDX7.obj
 0001:0001eb10       ??_GCIFXRenderDeviceDX7@@MAEPAXI@Z 1001fb10 f i IFXRenderingDX7:CIFXRenderDeviceDX7.obj
 0001:0001eb50       ??1CIFXRenderDeviceDX7@@MAE@XZ 1001fb50 f   IFXRenderingDX7:CIFXRenderDeviceDX7.obj
 0001:0001ed40       ?ReleaseD3D@CIFXRenderDeviceDX7@@IAIHXZ 1001fd40 f   IFXRenderingDX7:CIFXRenderDeviceDX7.obj
 0001:0001f03c       ?CIFXRenderDeviceDX7Factory@@YIHABUIFXGUID@@PAPAX@Z 1002003c f   IFXRenderingDX7:CIFXRenderDeviceDX7.obj
 0001:0001f136       ??0CIFXRenderDeviceDX7@@IAE@XZ 10020136 f   IFXRenderingDX7:CIFXRenderDeviceDX7.obj
 0001:0001f2c4       ?Construct@CIFXRenderDeviceDX7@@IAIHXZ 100202c4 f   IFXRenderingDX7:CIFXRenderDeviceDX7.obj
 0001:0001f5ce       ?AddRef@CIFXRenderDeviceDX7@@UAIIXZ 100205ce f   IFXRenderingDX7:CIFXRenderDeviceDX7.obj
 0001:0001f5de       ?Release@CIFXRenderDeviceDX7@@UAIIXZ 100205de f   IFXRenderingDX7:CIFXRenderDeviceDX7.obj
 0001:0001f614       ?QueryInterface@CIFXRenderDeviceDX7@@UAIHABUIFXGUID@@PAPAX@Z 10020614 f   IFXRenderingDX7:CIFXRenderDeviceDX7.obj
 0001:0001f95e       ?GetSupported@CIFXRenderDeviceDX7@@UAIHIAAH@Z 1002095e f   IFXRenderingDX7:CIFXRenderDeviceDX7.obj
 0001:0001fafa       ?DeleteStaticVB@CIFXRenderDeviceDX7@@IAIHI@Z 10020afa f   IFXRenderingDX7:CIFXRenderDeviceDX7.obj
 0001:0001fb82       ?GetCaps@CIFXRenderDeviceDX7@@UBIHAAVIFXRenderCaps@@@Z 10020b82 f   IFXRenderingDX7:CIFXRenderDeviceDX7.obj
 0001:0001fba8       ?GetDXCaps@CIFXRenderDeviceDX7@@QBIHAAU_D3DDeviceDesc7@@@Z 10020ba8 f   IFXRenderingDX7:CIFXRenderDeviceDX7.obj
 0001:0001fbcc       ?DrawMesh@CIFXRenderDeviceDX7@@UAIHAAVIFXMesh@@AAIE@Z 10020bcc f   IFXRenderingDX7:CIFXRenderDeviceDX7.obj
 0001:0001fe8e       ?DrawSmallMesh@CIFXRenderDeviceDX7@@IAIHAAVIFXMesh@@AAVIFXInterleavedData@@AAIE@Z 10020e8e f   IFXRenderingDX7:CIFXRenderDeviceDX7.obj
 0001:0001ffa6       ?BuildFVF@CIFXRenderDeviceDX7@@IAIKTIFXVertexAttributes@@@Z 10020fa6 f   IFXRenderingDX7:CIFXRenderDeviceDX7.obj
 0001:00020118       ?GetVertexBuffer@CIFXRenderDeviceDX7@@IAIHKIAAPAUIFXDX7VB@@@Z 10021118 f   IFXRenderingDX7:CIFXRenderDeviceDX7.obj
 0001:000202f4       ?CopyVerticesToBuffer@CIFXRenderDeviceDX7@@IAIHAAVIFXInterleavedData@@AAUIFXDX7VB@@AAIIIE@Z 100212f4 f   IFXRenderingDX7:CIFXRenderDeviceDX7.obj
 0001:000204d4       ?RenderSmallMesh@CIFXRenderDeviceDX7@@IAIHAAVIFXMesh@@PAUIDirect3DVertexBuffer7@@IAAIE@Z 100214d4 f   IFXRenderingDX7:CIFXRenderDeviceDX7.obj
 0001:000206ba       ?DrawBigMesh@CIFXRenderDeviceDX7@@IAIHAAVIFXMesh@@AAIE@Z 100216ba f   IFXRenderingDX7:CIFXRenderDeviceDX7.obj
 0001:000211a6       ?SetTexStageStateDebug@CIFXRenderDeviceDX7@@QAIHPADIIW4_D3DTEXTURESTAGESTATETYPE@@K@Z 100221a6 f   IFXRenderingDX7:CIFXRenderDeviceDX7.obj
 0001:000211d2       ?SetRenderStateDebug@CIFXRenderDeviceDX7@@QAIHPADIW4_D3DRENDERSTATETYPE@@K@Z 100221d2 f   IFXRenderingDX7:CIFXRenderDeviceDX7.obj
 0001:000211f8       ?ResetDevice@CIFXRenderDeviceDX7@@QAIHXZ 100221f8 f   IFXRenderingDX7:CIFXRenderDeviceDX7.obj
 0001:0002124a       ?RegisterWindow@CIFXRenderDeviceDX7@@QAIHPAVCIFXRenderDX7@@@Z 1002224a f   IFXRenderingDX7:CIFXRenderDeviceDX7.obj
 0001:000212f6       ?FindStackEntry@CIFXRenderDeviceDX7@@IAIPAVIFXRenderDX7StackEntry@@PAVCIFXRenderDX7@@@Z 100222f6 f   IFXRenderingDX7:CIFXRenderDeviceDX7.obj
 0001:0002130c       ?UnregisterWindow@CIFXRenderDeviceDX7@@QAIHPAVCIFXRenderDX7@@@Z 1002230c f   IFXRenderingDX7:CIFXRenderDeviceDX7.obj
 0001:0002131e       ?RemoveStackEntry@CIFXRenderDeviceDX7@@IAIXPAVCIFXRenderDX7@@@Z 1002231e f   IFXRenderingDX7:CIFXRenderDeviceDX7.obj
 0001:0002136a       ?DrawStaticSmallMesh@CIFXRenderDeviceDX7@@IAIHAAVIFXMesh@@AAVIFXInterleavedData@@AAIE@Z 1002236a f   IFXRenderingDX7:CIFXRenderDeviceDX7.obj
 0001:00021434       ?GetStaticVertexBuffer@CIFXRenderDeviceDX7@@IAIHKIIIAAPAUIFXDX7StaticVB@@@Z 10022434 f   IFXRenderingDX7:CIFXRenderDeviceDX7.obj
 0001:000215f0       ?CopyVerticesToStaticBuffer@CIFXRenderDeviceDX7@@IAIHAAVIFXInterleavedData@@IAAUIFXDX7StaticVB@@@Z 100225f0 f   IFXRenderingDX7:CIFXRenderDeviceDX7.obj
 0001:000216b6       ?TryDepthFormat@CIFXRenderDeviceDX7@@IAIHI@Z 100226b6 f   IFXRenderingDX7:CIFXRenderDeviceDX7.obj
 0001:0002181e       ?SetHWTestRef@CIFXRenderDeviceDX7@@MAIHM@Z 1002281e f   IFXRenderingDX7:CIFXRenderDeviceDX7.obj
 0001:0002189c       ?SetHWBlendFunc@CIFXRenderDeviceDX7@@MAIHI@Z 1002289c f   IFXRenderingDX7:CIFXRenderDeviceDX7.obj
 0001:000219f4       ?SetHWTestFunc@CIFXRenderDeviceDX7@@MAIHI@Z 100229f4 f   IFXRenderingDX7:CIFXRenderDeviceDX7.obj
 0001:00021ae2       ?SetHWAlphaTestEnabled@CIFXRenderDeviceDX7@@MAIHH@Z 10022ae2 f   IFXRenderingDX7:CIFXRenderDeviceDX7.obj
 0001:00021b0c       ?SetHWBlendEnabled@CIFXRenderDeviceDX7@@MAIHH@Z 10022b0c f   IFXRenderingDX7:CIFXRenderDeviceDX7.obj
 0001:00021b36       ?SetHWFogEnabled@CIFXRenderDeviceDX7@@MAIHH@Z 10022b36 f   IFXRenderingDX7:CIFXRenderDeviceDX7.obj
 0001:00021b60       ?SetHWMode@CIFXRenderDeviceDX7@@MAIHI@Z 10022b60 f   IFXRenderingDX7:CIFXRenderDeviceDX7.obj
 0001:00021bce       ?SetHWColor@CIFXRenderDeviceDX7@@MAIHABVIFXVector4@@@Z 10022bce f   IFXRenderingDX7:CIFXRenderDeviceDX7.obj
 0001:00021d20       ?SetHWLinearNear@CIFXRenderDeviceDX7@@MAIHM@Z 10022d20 f   IFXRenderingDX7:CIFXRenderDeviceDX7.obj
 0001:00021d50       ?SetHWFar@CIFXRenderDeviceDX7@@MAIHM@Z 10022d50 f   IFXRenderingDX7:CIFXRenderDeviceDX7.obj
 0001:00021dbc       ?SetHWEmissive@CIFXRenderDeviceDX7@@MAIHABVIFXVector4@@@Z 10022dbc f   IFXRenderingDX7:CIFXRenderDeviceDX7.obj
 0001:00021e1c       ?SetHWAmbient@CIFXRenderDeviceDX7@@MAIHABVIFXVector4@@@Z 10022e1c f   IFXRenderingDX7:CIFXRenderDeviceDX7.obj
 0001:00021e5a       ?SetHWDiffuse@CIFXRenderDeviceDX7@@MAIHABVIFXVector4@@@Z 10022e5a f   IFXRenderingDX7:CIFXRenderDeviceDX7.obj
 0001:00021e98       ?SetHWSpecular@CIFXRenderDeviceDX7@@MAIHABVIFXVector4@@@Z 10022e98 f   IFXRenderingDX7:CIFXRenderDeviceDX7.obj
 0001:00021f54       ?SetHWShininess@CIFXRenderDeviceDX7@@MAIHM@Z 10022f54 f   IFXRenderingDX7:CIFXRenderDeviceDX7.obj
 0001:00022004       ?SetHWFastSpecular@CIFXRenderDeviceDX7@@MAIHH@Z 10023004 f   IFXRenderingDX7:CIFXRenderDeviceDX7.obj
 0001:00022070       ?SetHWRenderStyle@CIFXRenderDeviceDX7@@MAIHI@Z 10023070 f   IFXRenderingDX7:CIFXRenderDeviceDX7.obj
 0001:000220d4       ?SetHWShadeModel@CIFXRenderDeviceDX7@@MAIHI@Z 100230d4 f   IFXRenderingDX7:CIFXRenderDeviceDX7.obj
 0001:0002212a       ?SetHWMaterial@CIFXRenderDeviceDX7@@MAIHXZ 1002312a f   IFXRenderingDX7:CIFXRenderDeviceDX7.obj
 0001:0002216a       ?SetHWLighting@CIFXRenderDeviceDX7@@MAIHH@Z 1002316a f   IFXRenderingDX7:CIFXRenderDeviceDX7.obj
 0001:00022174       ?SetHWDepthTest@CIFXRenderDeviceDX7@@MAIHH@Z 10023174 f   IFXRenderingDX7:CIFXRenderDeviceDX7.obj
 0001:000221c0       ?SetHWDepthWrite@CIFXRenderDeviceDX7@@MAIHH@Z 100231c0 f   IFXRenderingDX7:CIFXRenderDeviceDX7.obj
 0001:000221e8       ?SetHWDepthCompare@CIFXRenderDeviceDX7@@MAIHI@Z 100231e8 f   IFXRenderingDX7:CIFXRenderDeviceDX7.obj
 0001:00022220       ?GetD3DCompare@CIFXRenderDeviceDX7@@QAIII@Z 10023220 f   IFXRenderingDX7:CIFXRenderDeviceDX7.obj
 0001:00022272       ?SetHWCull@CIFXRenderDeviceDX7@@MAIHH@Z 10023272 f   IFXRenderingDX7:CIFXRenderDeviceDX7.obj
 0001:000222b6       ?SetHWCullMode@CIFXRenderDeviceDX7@@MAIHI@Z 100232b6 f   IFXRenderingDX7:CIFXRenderDeviceDX7.obj
 0001:00022310       ?SetHWViewMatrix@CIFXRenderDeviceDX7@@MAIHABVIFXMatrix4x4@@@Z 10023310 f   IFXRenderingDX7:CIFXRenderDeviceDX7.obj
 0001:00022436       ?SetHWWorldMatrix@CIFXRenderDeviceDX7@@MAIHABVIFXMatrix4x4@@@Z 10023436 f   IFXRenderingDX7:CIFXRenderDeviceDX7.obj
 0001:00022518       ?SetHWGlobalAmbient@CIFXRenderDeviceDX7@@MAIHABVIFXVector4@@@Z 10023518 f   IFXRenderingDX7:CIFXRenderDeviceDX7.obj
 0001:00022686       ?SetHWConstantColor@CIFXRenderDeviceDX7@@MAIHABVIFXVector4@@@Z 10023686 f   IFXRenderingDX7:CIFXRenderDeviceDX7.obj
 0001:000227f0       ?SetHWNormalization@CIFXRenderDeviceDX7@@MAIHH@Z 100237f0 f   IFXRenderingDX7:CIFXRenderDeviceDX7.obj
 0001:00022820       ?SetHWStencilEnabled@CIFXRenderDeviceDX7@@MAIHH@Z 10023820 f   IFXRenderingDX7:CIFXRenderDeviceDX7.obj
 0001:0002284c       ?SetHWPassOp@CIFXRenderDeviceDX7@@MAIHI@Z 1002384c f   IFXRenderingDX7:CIFXRenderDeviceDX7.obj
 0001:000228ac       ?GetStencilOp@CIFXRenderDeviceDX7@@IAIII@Z 100238ac f   IFXRenderingDX7:CIFXRenderDeviceDX7.obj
 0001:000228f8       ?SetHWStencilFunc@CIFXRenderDeviceDX7@@MAIHI@Z 100238f8 f   IFXRenderingDX7:CIFXRenderDeviceDX7.obj
 0001:00022958       ?SetHWTestMask@CIFXRenderDeviceDX7@@MAIHI@Z 10023958 f   IFXRenderingDX7:CIFXRenderDeviceDX7.obj
 0001:0002298a       ?SetHWWriteMask@CIFXRenderDeviceDX7@@MAIHI@Z 1002398a f   IFXRenderingDX7:CIFXRenderDeviceDX7.obj
 0001:000229bc       ?SetHWStencilRef@CIFXRenderDeviceDX7@@MAIHI@Z 100239bc f   IFXRenderingDX7:CIFXRenderDeviceDX7.obj
 0001:000229ee       ?SetHWView@CIFXRenderDeviceDX7@@MAIHXZ 100239ee f   IFXRenderingDX7:CIFXRenderDeviceDX7.obj
 0001:00022ab6       ?CalcProjectionMatrix@CIFXRenderDeviceDX7@@IAIXXZ 10023ab6 f   IFXRenderingDX7:CIFXRenderDeviceDX7.obj
 0001:00022e6e       ?CreateD3D@CIFXRenderDeviceDX7@@IAIHXZ 10023e6e f   IFXRenderingDX7:CIFXRenderDeviceDX7.obj
 0001:00023408       ?FillIFXRenderCaps@CIFXRenderDeviceDX7@@IAIXXZ 10024408 f   IFXRenderingDX7:CIFXRenderDeviceDX7.obj
 0001:0002389e       ?GetDepthFormat@CIFXRenderDeviceDX7@@QAIXIAAU_DDPIXELFORMAT@@@Z 1002489e f   IFXRenderingDX7:CIFXRenderDeviceDX7.obj
 0001:00023946       ?SetHWZFailureOp@CIFXRenderDeviceDX7@@MAIHI@Z 10024946 f   IFXRenderingDX7:CIFXRenderDeviceDX7.obj
 0001:000239a6       ?SetHWFailureOp@CIFXRenderDeviceDX7@@MAIHI@Z 100249a6 f   IFXRenderingDX7:CIFXRenderDeviceDX7.obj
 0001:00023a06       ?InitData@CIFXRenderDeviceDX7@@IAIXXZ 10024a06 f   IFXRenderingDX7:CIFXRenderDeviceDX7.obj
 0001:00023b38       ?Initialize@CIFXRenderDeviceDX7@@UAIHI@Z 10024b38 f   IFXRenderingDX7:CIFXRenderDeviceDX7.obj
 0001:00023cf0       ??1?$IFXSmartPtr@VIFXDirectX7@@@@UAE@XZ 10024cf0 f i IFXRenderingDX7:CIFXRenderDeviceDX7.obj
 0001:00023d60       ??_GIFXDX8StaticVB@@QAEPAXI@Z 10024d60 f i IFXRenderingDX8:CIFXRenderDeviceDX8.obj
 0001:00023d60       ??_EIFXDX7VB@@QAEPAXI@Z    10024d60 f i IFXRenderingDX7:CIFXRenderDeviceDX7.obj
 0001:00023d60       ??_EIFXDX8StaticVB@@QAEPAXI@Z 10024d60 f i IFXRenderingDX8:CIFXRenderDeviceDX8.obj
 0001:00023d60       ??_EIFXDX8VB@@QAEPAXI@Z    10024d60 f i IFXRenderingDX8:CIFXRenderDeviceDX8.obj
 0001:00023d60       ??_GIFXDX7VB@@QAEPAXI@Z    10024d60 f i IFXRenderingDX7:CIFXRenderDeviceDX7.obj
 0001:00023d60       ??_EIFXDX7StaticVB@@QAEPAXI@Z 10024d60 f i IFXRenderingDX7:CIFXRenderDeviceDX7.obj
 0001:00023d60       ??_GIFXDX8VB@@QAEPAXI@Z    10024d60 f i IFXRenderingDX8:CIFXRenderDeviceDX8.obj
 0001:00023d60       ??_GIFXDX7StaticVB@@QAEPAXI@Z 10024d60 f i IFXRenderingDX7:CIFXRenderDeviceDX7.obj
 0001:00023d94       ??_G?$IFXSmartPtr@VIFXDirectX7@@@@UAEPAXI@Z 10024d94 f i IFXRenderingDX7:CIFXRenderDeviceDX7.obj
 0001:00023d94       ??_E?$IFXSmartPtr@VIFXDirectX7@@@@UAEPAXI@Z 10024d94 f i IFXRenderingDX7:CIFXRenderDeviceDX7.obj
 0001:00023e20       ?GetNumHWTexUnits@CIFXRenderDeviceDX7@@UAIIXZ 10024e20 f i IFXRenderingDX7:CIFXRenderDeviceDX7.obj
 0001:00023e28       ?AddRef@CIFXRenderDeviceDX7@@$4PPPPPPPM@A@AIIXZ 10024e28 f i IFXRenderingDX7:CIFXRenderDeviceDX7.obj
 0001:00023e34       ?Release@CIFXRenderDeviceDX7@@$4PPPPPPPM@A@AIIXZ 10024e34 f i IFXRenderingDX7:CIFXRenderDeviceDX7.obj
 0001:00023e40       ?QueryInterface@CIFXRenderDeviceDX7@@$4PPPPPPPM@A@AIHABUIFXGUID@@PAPAX@Z 10024e40 f i IFXRenderingDX7:CIFXRenderDeviceDX7.obj
 0001:00023e4c       ?GetSupported@CIFXRenderDeviceDX7@@$4PPPPPPPM@A@AIHIAAH@Z 10024e4c f i IFXRenderingDX7:CIFXRenderDeviceDX7.obj
 0001:00023e58       ?DeleteMesh@CIFXRenderDeviceDX7@@$4PPPPPPPM@A@AIHI@Z 10024e58 f i IFXRenderingDX7:CIFXRenderDeviceDX7.obj
 0001:00023e64       ?DeleteMesh@CIFXRenderDeviceDX7@@UAIHI@Z 10024e64 f i IFXRenderingDX7:CIFXRenderDeviceDX7.obj
 0001:00023e70       ?DeleteTexture@CIFXRenderDevice@@$4PPPPPPPM@CIE@AIHI@Z 10024e70 f i IFXRenderingDX7:CIFXRenderDeviceDX7.obj
 0001:00023e80       ?GetCaps@CIFXRenderDeviceDX7@@$4PPPPPPPM@A@BIHAAVIFXRenderCaps@@@Z 10024e80 f i IFXRenderingDX7:CIFXRenderDeviceDX7.obj
 0001:00023e8c       ??_ECIFXRenderDeviceDX7@@$2PPPPPPPM@A@AEPAXI@Z 10024e8c f i IFXRenderingDX7:CIFXRenderDeviceDX7.obj
 0001:00023e98       ?Initialize@CIFXRenderDeviceDX7@@$4PPPPPPPM@A@AIHI@Z 10024e98 f i IFXRenderingDX7:CIFXRenderDeviceDX7.obj
 0001:00023ea4       ??_GCIFXDeviceLightDX8@@UAEPAXI@Z 10024ea4 f i IFXRenderingDX8:CIFXDeviceLightDX8.obj
 0001:00023ea4       ??_ECIFXDeviceLightDX8@@UAEPAXI@Z 10024ea4 f i IFXRenderingDX8:CIFXDeviceLightDX8.obj
 0001:00023ec8       ??1CIFXDeviceLightDX8@@UAE@XZ 10024ec8 f   IFXRenderingDX8:CIFXDeviceLightDX8.obj
 0001:00023f42       ?CIFXDeviceLightDX8Factory@@YIHABUIFXGUID@@PAPAX@Z 10024f42 f   IFXRenderingDX8:CIFXDeviceLightDX8.obj
 0001:00024096       ?Construct@CIFXDeviceLightDX8@@IAIHXZ 10025096 f   IFXRenderingDX8:CIFXDeviceLightDX8.obj
 0001:000240b0       ?AddRef@CIFXDeviceLightDX8@@UAIIXZ 100250b0 f   IFXRenderingDX8:CIFXDeviceLightDX8.obj
 0001:000240ba       ?Release@CIFXDeviceLightDX8@@UAIIXZ 100250ba f   IFXRenderingDX8:CIFXDeviceLightDX8.obj
 0001:000240e0       ?QueryInterface@CIFXDeviceLightDX8@@UAIHABUIFXGUID@@PAPAX@Z 100250e0 f   IFXRenderingDX8:CIFXDeviceLightDX8.obj
 0001:0002437c       ??0CIFXDeviceLightDX8@@QAE@XZ 1002537c f   IFXRenderingDX8:CIFXDeviceLightDX8.obj
 0001:000243ee       ?SetHWEnabled@CIFXDeviceLightDX8@@MAIHH@Z 100253ee f   IFXRenderingDX8:CIFXDeviceLightDX8.obj
 0001:00024426       ?SetHWType@CIFXDeviceLightDX8@@MAIHI@Z 10025426 f   IFXRenderingDX8:CIFXDeviceLightDX8.obj
 0001:00024474       ?SetHWAmbient@CIFXDeviceLightDX8@@MAIHABVIFXVector4@@@Z 10025474 f   IFXRenderingDX8:CIFXDeviceLightDX8.obj
 0001:000244d8       ?SetHWDiffuse@CIFXDeviceLightDX8@@MAIHABVIFXVector4@@@Z 100254d8 f   IFXRenderingDX8:CIFXDeviceLightDX8.obj
 0001:0002453c       ?SetHWSpecular@CIFXDeviceLightDX8@@MAIHABVIFXVector4@@@Z 1002553c f   IFXRenderingDX8:CIFXDeviceLightDX8.obj
 0001:000245a0       ?SetHWIntensity@CIFXDeviceLightDX8@@MAIHM@Z 100255a0 f   IFXRenderingDX8:CIFXDeviceLightDX8.obj
 0001:000245d2       ?SetHWAttenuation@CIFXDeviceLightDX8@@MAIHABVIFXVector3@@@Z 100255d2 f   IFXRenderingDX8:CIFXDeviceLightDX8.obj
 0001:000245fa       ?SetHWSpotDecay@CIFXDeviceLightDX8@@MAIHH@Z 100255fa f   IFXRenderingDX8:CIFXDeviceLightDX8.obj
 0001:0002461c       ?SetHWSpotInnerAngle@CIFXDeviceLightDX8@@MAIHM@Z 1002561c f   IFXRenderingDX8:CIFXDeviceLightDX8.obj
 0001:00024648       ?SetHWSpotOuterAngle@CIFXDeviceLightDX8@@MAIHM@Z 10025648 f   IFXRenderingDX8:CIFXDeviceLightDX8.obj
 0001:00024686       ?SetHWRange@CIFXDeviceLightDX8@@MAIHM@Z 10025686 f   IFXRenderingDX8:CIFXDeviceLightDX8.obj
 0001:0002469c       ?SetHWWorldMatrix@CIFXDeviceLightDX8@@MAIHABVIFXMatrix4x4@@@Z 1002569c f   IFXRenderingDX8:CIFXDeviceLightDX8.obj
 0001:000247d0       ?SetHWLight@CIFXDeviceLightDX8@@MAIHXZ 100257d0 f   IFXRenderingDX8:CIFXDeviceLightDX8.obj
 0001:0002480a       ?InitData@CIFXDeviceLightDX8@@IAIXXZ 1002580a f   IFXRenderingDX8:CIFXDeviceLightDX8.obj
 0001:00024890       ?Initialize@CIFXDeviceLightDX8@@QAIHIAAV?$IFXSmartPtr@VCIFXRenderDeviceDX8@@@@@Z 10025890 f   IFXRenderingDX8:CIFXDeviceLightDX8.obj
 0001:000248b8       ?AddRef@CIFXDeviceLightDX8@@$4PPPPPPPM@A@AIIXZ 100258b8 f i IFXRenderingDX8:CIFXDeviceLightDX8.obj
 0001:000248c4       ?Release@CIFXDeviceLightDX8@@$4PPPPPPPM@A@AIIXZ 100258c4 f i IFXRenderingDX8:CIFXDeviceLightDX8.obj
 0001:000248d0       ?QueryInterface@CIFXDeviceLightDX8@@$4PPPPPPPM@A@AIHABUIFXGUID@@PAPAX@Z 100258d0 f i IFXRenderingDX8:CIFXDeviceLightDX8.obj
 0001:000248dc       ??_ECIFXDeviceLightDX8@@WJI@AEPAXI@Z 100258dc f i IFXRenderingDX8:CIFXDeviceLightDX8.obj
 0001:000248e8       ??_GCIFXDeviceTextureDX8@@MAEPAXI@Z 100258e8 f i IFXRenderingDX8:CIFXDeviceTextureDX8.obj
 0001:000248e8       ??_ECIFXDeviceTextureDX8@@MAEPAXI@Z 100258e8 f i IFXRenderingDX8:CIFXDeviceTextureDX8.obj
 0001:0002490c       ??1CIFXDeviceTextureDX8@@MAE@XZ 1002590c f   IFXRenderingDX8:CIFXDeviceTextureDX8.obj
 0001:00024988       ?CIFXDeviceTextureDX8Factory@@YIHABUIFXGUID@@PAPAX@Z 10025988 f   IFXRenderingDX8:CIFXDeviceTextureDX8.obj
 0001:00024aa4       ?Construct@CIFXDeviceTextureDX8@@IAIHXZ 10025aa4 f   IFXRenderingDX8:CIFXDeviceTextureDX8.obj
 0001:00024abe       ?AddRef@CIFXDeviceTextureDX8@@UAIIXZ 10025abe f   IFXRenderingDX8:CIFXDeviceTextureDX8.obj
 0001:00024ac8       ?Release@CIFXDeviceTextureDX8@@UAIIXZ 10025ac8 f   IFXRenderingDX8:CIFXDeviceTextureDX8.obj
 0001:00024ae4       ?QueryInterface@CIFXDeviceTextureDX8@@UAIHABUIFXGUID@@PAPAX@Z 10025ae4 f   IFXRenderingDX8:CIFXDeviceTextureDX8.obj
 0001:00024d58       ??0CIFXDeviceTextureDX8@@IAE@XZ 10025d58 f   IFXRenderingDX8:CIFXDeviceTextureDX8.obj
 0001:00024da8       ?SetHWRenderFormat@CIFXDeviceTextureDX8@@MAIHI@Z 10025da8 f   IFXRenderingDX8:CIFXDeviceTextureDX8.obj
 0001:00024dbe       ?SetHWTexture@CIFXDeviceTextureDX8@@MAIHXZ 10025dbe f   IFXRenderingDX8:CIFXDeviceTextureDX8.obj
 0001:00024df6       ?Lock@CIFXDeviceTextureDX8@@MAIHIIAAUSTextureOutputInfo@@@Z 10025df6 f   IFXRenderingDX8:CIFXDeviceTextureDX8.obj
 0001:00024ef6       ?GetTextureSurface@CIFXDeviceTextureDX8@@IAIPAUIDirect3DSurface8@@II@Z 10025ef6 f   IFXRenderingDX8:CIFXDeviceTextureDX8.obj
 0001:00024fae       ?Unlock@CIFXDeviceTextureDX8@@MAIHIIAAUSTextureOutputInfo@@@Z 10025fae f   IFXRenderingDX8:CIFXDeviceTextureDX8.obj
 0001:00024fea       ?Create2DTexture@CIFXDeviceTextureDX8@@MAIHXZ 10025fea f   IFXRenderingDX8:CIFXDeviceTextureDX8.obj
 0001:00025086       ?CreateCubeTexture@CIFXDeviceTextureDX8@@MAIHXZ 10026086 f   IFXRenderingDX8:CIFXDeviceTextureDX8.obj
 0001:00025120       ?GetD3DTexFormat@CIFXDeviceTextureDX8@@MAI?AW4_D3DFORMAT@@I@Z 10026120 f   IFXRenderingDX8:CIFXDeviceTextureDX8.obj
 0001:000251ac       ?GetIFXTexFormat@CIFXDeviceTextureDX8@@MAIIW4_D3DFORMAT@@@Z 100261ac f   IFXRenderingDX8:CIFXDeviceTextureDX8.obj
 0001:00025238       ?GetD3DCubeMapFace@CIFXDeviceTextureDX8@@MAI?AW4_D3DCUBEMAP_FACES@@I@Z 10026238 f   IFXRenderingDX8:CIFXDeviceTextureDX8.obj
 0001:0002528a       ?InitData@CIFXDeviceTextureDX8@@IAIXXZ 1002628a f   IFXRenderingDX8:CIFXDeviceTextureDX8.obj
 0001:000252a8       ?Initialize@CIFXDeviceTextureDX8@@QAIHAAV?$IFXSmartPtr@VCIFXRenderDeviceDX8@@@@@Z 100262a8 f   IFXRenderingDX8:CIFXDeviceTextureDX8.obj
 0001:000252c8       ?AddRef@CIFXDeviceTextureDX8@@$4PPPPPPPM@A@AIIXZ 100262c8 f i IFXRenderingDX8:CIFXDeviceTextureDX8.obj
 0001:000252d4       ?Release@CIFXDeviceTextureDX8@@$4PPPPPPPM@A@AIIXZ 100262d4 f i IFXRenderingDX8:CIFXDeviceTextureDX8.obj
 0001:000252e0       ?QueryInterface@CIFXDeviceTextureDX8@@$4PPPPPPPM@A@AIHABUIFXGUID@@PAPAX@Z 100262e0 f i IFXRenderingDX8:CIFXDeviceTextureDX8.obj
 0001:000252ec       ??_GCIFXDeviceTexUnitDX8@@MAEPAXI@Z 100262ec f i IFXRenderingDX8:CIFXDeviceTexUnitDX8.obj
 0001:000252ec       ??_ECIFXDeviceTexUnitDX8@@MAEPAXI@Z 100262ec f i IFXRenderingDX8:CIFXDeviceTexUnitDX8.obj
 0001:00025310       ??1CIFXDeviceTexUnitDX8@@MAE@XZ 10026310 f   IFXRenderingDX8:CIFXDeviceTexUnitDX8.obj
 0001:0002537e       ?CIFXDeviceTexUnitDX8Factory@@YIHABUIFXGUID@@PAPAX@Z 1002637e f   IFXRenderingDX8:CIFXDeviceTexUnitDX8.obj
 0001:00025482       ??0CIFXDeviceTexUnitDX8@@IAE@XZ 10026482 f   IFXRenderingDX8:CIFXDeviceTexUnitDX8.obj
 0001:000255c2       ?Construct@CIFXDeviceTexUnitDX8@@IAIHXZ 100265c2 f   IFXRenderingDX8:CIFXDeviceTexUnitDX8.obj
 0001:00025664       ?AddRef@CIFXDeviceTexUnitDX8@@UAIIXZ 10026664 f   IFXRenderingDX8:CIFXDeviceTexUnitDX8.obj
 0001:00025674       ?Release@CIFXDeviceTexUnitDX8@@UAIIXZ 10026674 f   IFXRenderingDX8:CIFXDeviceTexUnitDX8.obj
 0001:0002569a       ?QueryInterface@CIFXDeviceTexUnitDX8@@UAIHABUIFXGUID@@PAPAX@Z 1002669a f   IFXRenderingDX8:CIFXDeviceTexUnitDX8.obj
 0001:00025936       ?SetHWTexCoordGen@CIFXDeviceTexUnitDX8@@UAIHI@Z 10026936 f   IFXRenderingDX8:CIFXDeviceTexUnitDX8.obj
 0001:00025f46       ?SetHWEnabled@CIFXDeviceTexUnitDX8@@MAIHH@Z 10026f46 f   IFXRenderingDX8:CIFXDeviceTexUnitDX8.obj
 0001:00025f74       ?SetHWRGBInput0@CIFXDeviceTexUnitDX8@@MAIHI@Z 10026f74 f   IFXRenderingDX8:CIFXDeviceTexUnitDX8.obj
 0001:00025fbe       ?GetTexUnitInput@CIFXDeviceTexUnitDX8@@IBIII@Z 10026fbe f   IFXRenderingDX8:CIFXDeviceTexUnitDX8.obj
 0001:00026014       ?SetHWRGBInput1@CIFXDeviceTexUnitDX8@@MAIHI@Z 10027014 f   IFXRenderingDX8:CIFXDeviceTexUnitDX8.obj
 0001:0002605e       ?SetHWRGBInterpolatorSource@CIFXDeviceTexUnitDX8@@MAIHI@Z 1002705e f   IFXRenderingDX8:CIFXDeviceTexUnitDX8.obj
 0001:00026084       ?SetHWRGBBlendFunc@CIFXDeviceTexUnitDX8@@MAIHI@Z 10027084 f   IFXRenderingDX8:CIFXDeviceTexUnitDX8.obj
 0001:000260ec       ?GetTexUnitFunc@CIFXDeviceTexUnitDX8@@IBIIII@Z 100270ec f   IFXRenderingDX8:CIFXDeviceTexUnitDX8.obj
 0001:00026198       ?SetHWAlphaInput0@CIFXDeviceTexUnitDX8@@MAIHI@Z 10027198 f   IFXRenderingDX8:CIFXDeviceTexUnitDX8.obj
 0001:000261e2       ?SetHWAlphaInput1@CIFXDeviceTexUnitDX8@@MAIHI@Z 100271e2 f   IFXRenderingDX8:CIFXDeviceTexUnitDX8.obj
 0001:0002622c       ?SetHWAlphaInterpolatorSource@CIFXDeviceTexUnitDX8@@MAIHI@Z 1002722c f   IFXRenderingDX8:CIFXDeviceTexUnitDX8.obj
 0001:00026252       ?SetHWAlphaFunc@CIFXDeviceTexUnitDX8@@MAIHI@Z 10027252 f   IFXRenderingDX8:CIFXDeviceTexUnitDX8.obj
 0001:000262ba       ?SetHWTextureId@CIFXDeviceTexUnitDX8@@MAIHI@Z 100272ba f   IFXRenderingDX8:CIFXDeviceTexUnitDX8.obj
 0001:000263a6       ?GetTexture@CIFXDeviceTexUnitDX8@@IAIPAVCIFXDeviceTextureDX8@@I@Z 100273a6 f   IFXRenderingDX8:CIFXDeviceTexUnitDX8.obj
 0001:000263fe       ?SetHWTextureTransform@CIFXDeviceTexUnitDX8@@MAIHABVIFXMatrix4x4@@@Z 100273fe f   IFXRenderingDX8:CIFXDeviceTexUnitDX8.obj
 0001:00026648       ?SetHWTexRepeatU@CIFXDeviceTexUnitDX8@@MAIHH@Z 10027648 f   IFXRenderingDX8:CIFXDeviceTexUnitDX8.obj
 0001:000266a4       ?SetHWTexRepeatV@CIFXDeviceTexUnitDX8@@MAIHH@Z 100276a4 f   IFXRenderingDX8:CIFXDeviceTexUnitDX8.obj
 0001:00026700       ?SetHWTexRepeatW@CIFXDeviceTexUnitDX8@@MAIHH@Z 10027700 f   IFXRenderingDX8:CIFXDeviceTexUnitDX8.obj
 0001:0002675c       ?SetHWTexUnit@CIFXDeviceTexUnitDX8@@MAIHXZ 1002775c f   IFXRenderingDX8:CIFXDeviceTexUnitDX8.obj
 0001:00026876       ?SetHWMipMode@CIFXDeviceTexUnitDX8@@IAIHI@Z 10027876 f   IFXRenderingDX8:CIFXDeviceTexUnitDX8.obj
 0001:000268e0       ?GetD3DFilterMode@CIFXDeviceTexUnitDX8@@IAIKI@Z 100278e0 f   IFXRenderingDX8:CIFXDeviceTexUnitDX8.obj
 0001:00026900       ?SetHWMinFilter@CIFXDeviceTexUnitDX8@@IAIHI@Z 10027900 f   IFXRenderingDX8:CIFXDeviceTexUnitDX8.obj
 0001:0002694e       ?SetHWMagFilter@CIFXDeviceTexUnitDX8@@IAIHI@Z 1002794e f   IFXRenderingDX8:CIFXDeviceTexUnitDX8.obj
 0001:0002699c       ?SetHWTexCoordSet@CIFXDeviceTexUnitDX8@@MAIHI@Z 1002799c f   IFXRenderingDX8:CIFXDeviceTexUnitDX8.obj
 0001:000269e6       ?InitData@CIFXDeviceTexUnitDX8@@QAIXXZ 100279e6 f   IFXRenderingDX8:CIFXDeviceTexUnitDX8.obj
 0001:00026a2c       ?Initialize@CIFXDeviceTexUnitDX8@@QAIHIAAV?$IFXSmartPtr@VCIFXRenderDeviceDX8@@@@H@Z 10027a2c f   IFXRenderingDX8:CIFXDeviceTexUnitDX8.obj
 0001:00026a74       ?AddRef@CIFXDeviceTexUnitDX8@@$4PPPPPPPM@A@AIIXZ 10027a74 f i IFXRenderingDX8:CIFXDeviceTexUnitDX8.obj
 0001:00026a80       ?Release@CIFXDeviceTexUnitDX8@@$4PPPPPPPM@A@AIIXZ 10027a80 f i IFXRenderingDX8:CIFXDeviceTexUnitDX8.obj
 0001:00026a8c       ?QueryInterface@CIFXDeviceTexUnitDX8@@$4PPPPPPPM@A@AIHABUIFXGUID@@PAPAX@Z 10027a8c f i IFXRenderingDX8:CIFXDeviceTexUnitDX8.obj
 0001:00026a98       ??_ECIFXDeviceTexUnitDX8@@OIM@AEPAXI@Z 10027a98 f i IFXRenderingDX8:CIFXDeviceTexUnitDX8.obj
 0001:00026aa4       ??_GCIFXDirectX8@@MAEPAXI@Z 10027aa4 f i IFXRenderingDX8:CIFXDirectX8.obj
 0001:00026aa4       ??_ECIFXDirectX8@@MAEPAXI@Z 10027aa4 f i IFXRenderingDX8:CIFXDirectX8.obj
 0001:00026ae0       ??1CIFXDirectX8@@MAE@XZ    10027ae0 f   IFXRenderingDX8:CIFXDirectX8.obj
 0001:00026b68       ?CIFXDirectX8Factory@@YIHABUIFXGUID@@PAPAX@Z 10027b68 f   IFXRenderingDX8:CIFXDirectX8.obj
 0001:00026cb0       ?Construct@CIFXDirectX8@@IAIHXZ 10027cb0 f   IFXRenderingDX8:CIFXDirectX8.obj
 0001:00026cc8       ?AddRef@CIFXDirectX8@@UAIIXZ 10027cc8 f   IFXRenderingDX8:CIFXDirectX8.obj
 0001:00026cd2       ?Release@CIFXDirectX8@@UAIIXZ 10027cd2 f   IFXRenderingDX8:CIFXDirectX8.obj
 0001:00026d04       ?QueryInterface@CIFXDirectX8@@UAIHABUIFXGUID@@PAPAX@Z 10027d04 f   IFXRenderingDX8:CIFXDirectX8.obj
 0001:00026ec6       ?LoadDX8@CIFXDirectX8@@UAIHXZ 10027ec6 f   IFXRenderingDX8:CIFXDirectX8.obj
 0001:00026f26       ??0CIFXDirectX8@@IAE@XZ    10027f26 f   IFXRenderingDX8:CIFXDirectX8.obj
 0001:00026f98       ?GetSingleton@CIFXDirectX8@@KIPAV1@XZ 10027f98 f   IFXRenderingDX8:CIFXDirectX8.obj
 0001:00026fa0       ??1IFXDirectX8@@MAE@XZ     10027fa0 f i IFXRenderingDX8:CIFXDirectX8.obj
 0001:00026fb8       ??_EIFXDirectX8@@MAEPAXI@Z 10027fb8 f i IFXRenderingDX8:CIFXDirectX8.obj
 0001:00026fb8       ??_GIFXDirectX8@@MAEPAXI@Z 10027fb8 f i IFXRenderingDX8:CIFXDirectX8.obj
 0001:00026fe4       ?AddRef@CIFXDirectX8@@$4PPPPPPPM@A@AIIXZ 10027fe4 f i IFXRenderingDX8:CIFXDirectX8.obj
 0001:00026ff0       ?Release@CIFXDirectX8@@$4PPPPPPPM@A@AIIXZ 10027ff0 f i IFXRenderingDX8:CIFXDirectX8.obj
 0001:00026ffc       ?QueryInterface@CIFXDirectX8@@$4PPPPPPPM@A@AIHABUIFXGUID@@PAPAX@Z 10027ffc f i IFXRenderingDX8:CIFXDirectX8.obj
 0001:00027008       ?LoadDX8@CIFXDirectX8@@$4PPPPPPPM@A@AIHXZ 10028008 f i IFXRenderingDX8:CIFXDirectX8.obj
 0001:00027014       ??_ECIFXDirectX8@@$2PPPPPPPM@A@AEPAXI@Z 10028014 f i IFXRenderingDX8:CIFXDirectX8.obj
 0001:00027020       ??_ECIFXRenderDX8@@MAEPAXI@Z 10028020 f i IFXRenderingDX8:CIFXRenderDX8.obj
 0001:00027020       ??_GCIFXRenderDX8@@MAEPAXI@Z 10028020 f i IFXRenderingDX8:CIFXRenderDX8.obj
 0001:00027060       ??1CIFXRenderDX8@@MAE@XZ   10028060 f   IFXRenderingDX8:CIFXRenderDX8.obj
 0001:000271e4       ?ReleaseVidMem@CIFXRenderDX8@@QAIHXZ 100281e4 f   IFXRenderingDX8:CIFXRenderDX8.obj
 0001:00027254       ?CIFXRenderDX8Factory@@YIHABUIFXGUID@@PAPAX@Z 10028254 f   IFXRenderingDX8:CIFXRenderDX8.obj
 0001:00027352       ??0CIFXRenderDX8@@IAE@XZ   10028352 f   IFXRenderingDX8:CIFXRenderDX8.obj
 0001:00027522       ?Construct@CIFXRenderDX8@@IAIHXZ 10028522 f   IFXRenderingDX8:CIFXRenderDX8.obj
 0001:00027570       ?AddRef@CIFXRenderDX8@@UAIIXZ 10028570 f   IFXRenderingDX8:CIFXRenderDX8.obj
 0001:00027580       ?Release@CIFXRenderDX8@@UAIIXZ 10028580 f   IFXRenderingDX8:CIFXRenderDX8.obj
 0001:000275b8       ?QueryInterface@CIFXRenderDX8@@UAIHABUIFXGUID@@PAPAX@Z 100285b8 f   IFXRenderingDX8:CIFXRenderDX8.obj
 0001:0002784c       ?Swap@CIFXRenderDX8@@UAIHXZ 1002884c f   IFXRenderingDX8:CIFXRenderDX8.obj
 0001:000279f0       ?CreateTexture@CIFXRenderDX8@@MAIHAAV?$IFXSmartPtr@VCIFXDeviceTexture@@@@@Z 100289f0 f   IFXRenderingDX8:CIFXRenderDX8.obj
 0001:00027b86       ?SetHWAntiAliasingMode@CIFXRenderDX8@@MAIHI@Z 10028b86 f   IFXRenderingDX8:CIFXRenderDX8.obj
 0001:00027c72       ?SetHWDepthStencilFormat@CIFXRenderDX8@@MAIHI@Z 10028c72 f   IFXRenderingDX8:CIFXRenderDX8.obj
 0001:00027c78       ?GetIFXRenderFormat@CIFXRenderDX8@@IAIIW4_D3DFORMAT@@@Z 10028c78 f   IFXRenderingDX8:CIFXRenderDX8.obj
 0001:00027cc0       ?MakeHWCurrent@CIFXRenderDX8@@MAIHXZ 10028cc0 f   IFXRenderingDX8:CIFXRenderDX8.obj
 0001:00027dae       ?ClearHW@CIFXRenderDX8@@MAIHABVIFXRenderClear@@@Z 10028dae f   IFXRenderingDX8:CIFXRenderDX8.obj
 0001:000280b2       ?SetVSyncEnabled@CIFXRenderDX8@@MAIHH@Z 100290b2 f   IFXRenderingDX8:CIFXRenderDX8.obj
 0001:000280ce       ?SetHWWindow@CIFXRenderDX8@@MAIHH@Z 100290ce f   IFXRenderingDX8:CIFXRenderDX8.obj
 0001:00028126       ?SetNonDTSWindow@CIFXRenderDX8@@IAIHH@Z 10029126 f   IFXRenderingDX8:CIFXRenderDX8.obj
 0001:000282da       ?CreateDepthBuffer@CIFXRenderDX8@@IAIHPAUIDirect3DSurface8@@@Z 100292da f   IFXRenderingDX8:CIFXRenderDX8.obj
 0001:00028416       ?GetDepthFormat@CIFXRenderDX8@@IAI?AW4_D3DFORMAT@@I@Z 10029416 f   IFXRenderingDX8:CIFXRenderDX8.obj
 0001:00028446       ?SetDTSWindow@CIFXRenderDX8@@IAIHH@Z 10029446 f   IFXRenderingDX8:CIFXRenderDX8.obj
 0001:000286b2       ?MoveDTSWindow@CIFXRenderDX8@@IAIHABV?$IFXRectT@H@@@Z 100296b2 f   IFXRenderingDX8:CIFXRenderDX8.obj
 0001:0002872e       ?InitData@CIFXRenderDX8@@IAIXXZ 1002972e f   IFXRenderingDX8:CIFXRenderDX8.obj
 0001:00028760       ?Initialize@CIFXRenderDX8@@UAIHI@Z 10029760 f   IFXRenderingDX8:CIFXRenderDX8.obj
 0001:00028a2c       ??1?$IFXSmartPtr@VCIFXRenderDeviceDX8@@@@UAE@XZ 10029a2c f i IFXRenderingDX8:CIFXRenderDX8.obj
 0001:00028a9c       ??_G?$IFXSmartPtr@VCIFXDeviceLightDX8@@@@UAEPAXI@Z 10029a9c f i IFXRenderingDX8:CIFXRenderDX8.obj
 0001:00028a9c       ??_E?$IFXSmartPtr@VCIFXDeviceLightDX8@@@@UAEPAXI@Z 10029a9c f i IFXRenderingDX8:CIFXRenderDX8.obj
 0001:00028b2c       ??_E?$IFXSmartPtr@VCIFXDeviceTexUnitDX8@@@@UAEPAXI@Z 10029b2c f i IFXRenderingDX8:CIFXRenderDX8.obj
 0001:00028b2c       ??_G?$IFXSmartPtr@VCIFXDeviceTexUnitDX8@@@@UAEPAXI@Z 10029b2c f i IFXRenderingDX8:CIFXRenderDX8.obj
 0001:00028bbc       ??_G?$IFXSmartPtr@VCIFXRenderDeviceDX8@@@@UAEPAXI@Z 10029bbc f i IFXRenderingDX8:CIFXRenderDX8.obj
 0001:00028bbc       ??_E?$IFXSmartPtr@VCIFXRenderDeviceDX8@@@@UAEPAXI@Z 10029bbc f i IFXRenderingDX8:CIFXRenderDX8.obj
 0001:00028c48       ??_E?$IFXSmartPtr@VCIFXDeviceTextureDX8@@@@UAEPAXI@Z 10029c48 f i IFXRenderingDX8:CIFXRenderDX8.obj
 0001:00028c48       ??_G?$IFXSmartPtr@VCIFXDeviceTextureDX8@@@@UAEPAXI@Z 10029c48 f i IFXRenderingDX8:CIFXRenderDX8.obj
 0001:00028cd4       ??0?$IFXSmartPtr@VCIFXDeviceLightDX8@@@@QAE@XZ 10029cd4 f i IFXRenderingDX8:CIFXRenderDX8.obj
 0001:00028ce4       ??1?$IFXSmartPtr@VCIFXDeviceLightDX8@@@@UAE@XZ 10029ce4 f i IFXRenderingDX8:CIFXRenderDX8.obj
 0001:00028d58       ??0?$IFXSmartPtr@VCIFXDeviceTexUnitDX8@@@@QAE@XZ 10029d58 f i IFXRenderingDX8:CIFXRenderDX8.obj
 0001:00028d68       ??1?$IFXSmartPtr@VCIFXDeviceTexUnitDX8@@@@UAE@XZ 10029d68 f i IFXRenderingDX8:CIFXRenderDX8.obj
 0001:00028ddc       ?AddRef@CIFXRenderDX8@@$4PPPPPPPM@A@AIIXZ 10029ddc f i IFXRenderingDX8:CIFXRenderDX8.obj
 0001:00028de8       ?Release@CIFXRenderDX8@@$4PPPPPPPM@A@AIIXZ 10029de8 f i IFXRenderingDX8:CIFXRenderDX8.obj
 0001:00028df4       ?QueryInterface@CIFXRenderDX8@@$4PPPPPPPM@A@AIHABUIFXGUID@@PAPAX@Z 10029df4 f i IFXRenderingDX8:CIFXRenderDX8.obj
 0001:00028e00       ?GetRenderer@CIFXRender@@$4PPPPPPPM@KM@AIIXZ 10029e00 f i IFXRenderingDX8:CIFXRenderDX8.obj
 0001:00028e00       ?ConfigureRenderPass@CIFXRender@@$4PPPPPPPM@KM@AIHI@Z 10029e00 f i IFXRenderingDX8:CIFXRenderDX8.obj
 0001:00028e00       ?SetDevice@CIFXRender@@$4PPPPPPPM@KM@AIHI@Z 10029e00 f i IFXRenderingDX8:CIFXRenderDX8.obj
 0001:00028e00       ?GetView@CIFXRender@@$4PPPPPPPM@KM@BIABVIFXRenderView@@XZ 10029e00 f i IFXRenderingDX8:CIFXRenderDX8.obj
 0001:00028e00       ?CalculateNumPasses@CIFXRender@@$4PPPPPPPM@KM@AIIXZ 10029e00 f i IFXRenderingDX8:CIFXRenderDX8.obj
 0001:00028e00       ?SetRenderer@CIFXRender@@$4PPPPPPPM@KM@AIHI@Z 10029e00 f i IFXRenderingDX8:CIFXRenderDX8.obj
 0001:00028e10       ?GetCaps@CIFXRender@@$4PPPPPPPM@KM@AIHAAVIFXRenderCaps@@@Z 10029e10 f i IFXRenderingDX8:CIFXRenderDX8.obj
 0001:00028e20       ?GetPerformanceData@CIFXRender@@$4PPPPPPPM@KM@AIHIAAI@Z 10029e20 f i IFXRenderingDX8:CIFXRenderDX8.obj
 0001:00028e30       ?ClearPerformanceData@CIFXRender@@$4PPPPPPPM@KM@AIHXZ 10029e30 f i IFXRenderingDX8:CIFXRenderDX8.obj
 0001:00028e40       ?GetRenderServices@CIFXRender@@$4PPPPPPPM@KM@AIHAAPAVIFXRenderServices@@@Z 10029e40 f i IFXRenderingDX8:CIFXRenderDX8.obj
 0001:00028e50       ?GetColorFormat@CIFXRender@@$4PPPPPPPM@KM@AIIXZ 10029e50 f i IFXRenderingDX8:CIFXRenderDX8.obj
 0001:00028e60       ?Enable@CIFXRender@@$4PPPPPPPM@KM@AIHI@Z 10029e60 f i IFXRenderingDX8:CIFXRenderDX8.obj
 0001:00028e70       ?Disable@CIFXRender@@$4PPPPPPPM@KM@AIHI@Z 10029e70 f i IFXRenderingDX8:CIFXRenderDX8.obj
 0001:00028e80       ?SetBlend@CIFXRender@@$4PPPPPPPM@KM@AIHAAVIFXRenderBlend@@@Z 10029e80 f i IFXRenderingDX8:CIFXRenderDX8.obj
 0001:00028e90       ?SetFog@CIFXRender@@$4PPPPPPPM@KM@AIHAAVIFXRenderFog@@@Z 10029e90 f i IFXRenderingDX8:CIFXRenderDX8.obj
 0001:00028ea0       ?SetLight@CIFXRender@@$4PPPPPPPM@KM@AIHIAAVIFXRenderLight@@@Z 10029ea0 f i IFXRenderingDX8:CIFXRenderDX8.obj
 0001:00028eb0       ?GetGlobalAmbient@CIFXRender@@$4PPPPPPPM@KM@AIHAAVIFXVector4@@@Z 10029eb0 f i IFXRenderingDX8:CIFXRenderDX8.obj
 0001:00028ec0       ?SetGlobalAmbient@CIFXRender@@$4PPPPPPPM@KM@AIHABVIFXVector4@@@Z 10029ec0 f i IFXRenderingDX8:CIFXRenderDX8.obj
 0001:00028ed0       ?SetMaterial@CIFXRender@@$4PPPPPPPM@KM@AIHAAVIFXRenderMaterial@@@Z 10029ed0 f i IFXRenderingDX8:CIFXRenderDX8.obj
 0001:00028ee0       ?SetStencil@CIFXRender@@$4PPPPPPPM@KM@AIHAAVIFXRenderStencil@@@Z 10029ee0 f i IFXRenderingDX8:CIFXRenderDX8.obj
 0001:00028ef0       ?SetTexture@CIFXRender@@$4PPPPPPPM@KM@AIHAAVIFXTextureObject@@@Z 10029ef0 f i IFXRenderingDX8:CIFXRenderDX8.obj
 0001:00028f00       ?SetTextureUnit@CIFXRender@@$4PPPPPPPM@KM@AIHIAAVIFXRenderTexUnit@@@Z 10029f00 f i IFXRenderingDX8:CIFXRenderDX8.obj
 0001:00028f10       ?SetConstantColor@CIFXRender@@$4PPPPPPPM@KM@AIHABVIFXVector4@@@Z 10029f10 f i IFXRenderingDX8:CIFXRenderDX8.obj
 0001:00028f20       ?SetView@CIFXRender@@$4PPPPPPPM@KM@AIHAAVIFXRenderView@@@Z 10029f20 f i IFXRenderingDX8:CIFXRenderDX8.obj
 0001:00028f30       ?SetWindow@CIFXRender@@$4PPPPPPPM@KM@AIHAAVIFXRenderWindow@@@Z 10029f30 f i IFXRenderingDX8:CIFXRenderDX8.obj
 0001:00028f40       ?GetWindow@CIFXRender@@$4PPPPPPPM@KM@AIHAAVIFXRenderWindow@@@Z 10029f40 f i IFXRenderingDX8:CIFXRenderDX8.obj
 0001:00028f50       ?GetNumDevices@CIFXRender@@$4PPPPPPPM@KM@AIHAAVIFXRenderWindow@@AAI@Z 10029f50 f i IFXRenderingDX8:CIFXRenderDX8.obj
 0001:00028f60       ?Clear@CIFXRender@@$4PPPPPPPM@KM@AIHABVIFXRenderClear@@@Z 10029f60 f i IFXRenderingDX8:CIFXRenderDX8.obj
 0001:00028f70       ?DrawMeshLines@CIFXRender@@$4PPPPPPPM@KM@AIHAAVIFXMesh@@@Z 10029f70 f i IFXRenderingDX8:CIFXRenderDX8.obj
 0001:00028f80       ?DrawMeshPoints@CIFXRender@@$4PPPPPPPM@KM@AIHAAVIFXMesh@@@Z 10029f80 f i IFXRenderingDX8:CIFXRenderDX8.obj
 0001:00028f90       ?DrawMesh@CIFXRender@@$4PPPPPPPM@KM@AIHAAVIFXMesh@@@Z 10029f90 f i IFXRenderingDX8:CIFXRenderDX8.obj
 0001:00028fa0       ?DeleteTexture@CIFXRender@@$4PPPPPPPM@KM@AIHI@Z 10029fa0 f i IFXRenderingDX8:CIFXRenderDX8.obj
 0001:00028fb0       ?SetWorldMatrix@CIFXRender@@$4PPPPPPPM@KM@AIHABVIFXMatrix4x4@@@Z 10029fb0 f i IFXRenderingDX8:CIFXRenderDX8.obj
 0001:00028fc0       ?SetViewMatrix@CIFXRender@@$4PPPPPPPM@KM@AIHABVIFXMatrix4x4@@@Z 10029fc0 f i IFXRenderingDX8:CIFXRenderDX8.obj
 0001:00028fd0       ?GetViewMatrix@CIFXRender@@$4PPPPPPPM@KM@AIABVIFXMatrix4x4@@XZ 10029fd0 f i IFXRenderingDX8:CIFXRenderDX8.obj
 0001:00028fe0       ?SetDepthMode@CIFXRender@@$4PPPPPPPM@KM@AIHI@Z 10029fe0 f i IFXRenderingDX8:CIFXRenderDX8.obj
 0001:00028ff0       ?SetCullMode@CIFXRender@@$4PPPPPPPM@KM@AIHI@Z 10029ff0 f i IFXRenderingDX8:CIFXRenderDX8.obj
 0001:00029000       ?SetLineOffset@CIFXRender@@$4PPPPPPPM@KM@AIHI@Z 1002a000 f i IFXRenderingDX8:CIFXRenderDX8.obj
 0001:00029010       ?GetView@CIFXRender@@UBIABVIFXRenderView@@XZ 1002a010 f i IFXRenderingNULL:CIFXRenderNULL.obj
 0001:00029010       ?SetHWView@CIFXRenderDevice@@MAIHXZ 1002a010 f i Rendering:CIFXRenderDevice.obj
 0001:00029010       ?SetHWStencil@CIFXRenderDevice@@MAIHXZ 1002a010 f i Rendering:CIFXRenderDevice.obj
 0001:00029010       ?SetRenderer@CIFXRender@@UAIHI@Z 1002a010 f i IFXRenderingNULL:CIFXRenderNULL.obj
 0001:00029010       ?ConfigureRenderPass@CIFXRender@@UAIHI@Z 1002a010 f i IFXRenderingNULL:CIFXRenderNULL.obj
 0001:00029010       ?GetFrustumPlaneNormals@CIFXRenderDX7@@UAIHPAVIFXVector3@@@Z 1002a010 f i IFXRenderingDX7:CIFXRenderDX7.obj
 0001:00029010       ?SetDevice@CIFXRender@@UAIHI@Z 1002a010 f i IFXRenderingNULL:CIFXRenderNULL.obj
 0001:00029010       ?GetRenderer@CIFXRender@@UAIIXZ 1002a010 f i IFXRenderingNULL:CIFXRenderNULL.obj
 0001:00029010       ?GetFrustumPlaneNormals@CIFXRenderDX8@@UAIHPAVIFXVector3@@@Z 1002a010 f i IFXRenderingDX8:CIFXRenderDX8.obj
 0001:00029010       ?SetHWFog@CIFXRenderDevice@@MAIHXZ 1002a010 f i Rendering:CIFXRenderDevice.obj
 0001:00029010       ?GetFrustumPlaneNormals@CIFXRenderNULL@@UAIHPAVIFXVector3@@@Z 1002a010 f i IFXRenderingNULL:CIFXRenderNULL.obj
 0001:00029010       ?GetFrustumPlaneNormals@CIFXRenderOGL@@UAIHPAVIFXVector3@@@Z 1002a010 f i IFXRenderingOpenGL:CIFXRenderOGL.obj
 0001:00029010       ?CalculateNumPasses@CIFXRender@@UAIIXZ 1002a010 f i IFXRenderingNULL:CIFXRenderNULL.obj
 0001:00029010       ?SetHWMaterial@CIFXRenderDevice@@MAIHXZ 1002a010 f i Rendering:CIFXRenderDevice.obj
 0001:00029010       ?SetHWBlend@CIFXRenderDevice@@MAIHXZ 1002a010 f i Rendering:CIFXRenderDevice.obj
 0001:00029010       ?GetCaps@CIFXRenderDevice@@UBIHAAVIFXRenderCaps@@@Z 1002a010 f i Rendering:CIFXRenderDevice.obj
 0001:00029014       ?Swap@CIFXRenderDX8@@$4PPPPPPPM@A@AIHXZ 1002a014 f i IFXRenderingDX8:CIFXRenderDX8.obj
 0001:00029020       ?GetTransformMatrix@CIFXRender@@$4PPPPPPPM@KM@AIHAAVIFXMatrix4x4@@@Z 1002a020 f i IFXRenderingDX8:CIFXRenderDX8.obj
 0001:00029030       ?Reset@CIFXRender@@$4PPPPPPPM@KM@AIXXZ 1002a030 f i IFXRenderingDX8:CIFXRenderDX8.obj
 0001:00029040       ??_ECIFXRenderDX8@@$2PPPPPPPM@A@AEPAXI@Z 1002a040 f i IFXRenderingDX8:CIFXRenderDX8.obj
 0001:0002904c       ?MakeCurrent@CIFXRender@@$4PPPPPPPM@KM@AIHXZ 1002a04c f i IFXRenderingDX8:CIFXRenderDX8.obj
 0001:0002905c       ??1?$IFXSmartPtr@VCIFXDeviceTextureDX8@@@@UAE@XZ 1002a05c f i IFXRenderingDX8:CIFXRenderDX8.obj
 0001:000290cc       ?Initialize@CIFXRenderDX8@@$4PPPPPPPM@A@AIHI@Z 1002a0cc f i IFXRenderingDX8:CIFXRenderDX8.obj
 0001:000290d8       ?Initialize@CIFXRender@@$4PPPPPPPM@KM@AIHXZ 1002a0d8 f i IFXRenderingDX8:CIFXRenderDX8.obj
 0001:000290e8       ??_EIFXRenderDX8StackEntry@@QAEPAXI@Z 1002a0e8 f i IFXRenderingDX8:CIFXRenderDeviceDX8.obj
 0001:000290e8       ??_GIFXRenderDX8StackEntry@@QAEPAXI@Z 1002a0e8 f i IFXRenderingDX8:CIFXRenderDeviceDX8.obj
 0001:00029118       ??_ECIFXRenderDeviceDX8@@MAEPAXI@Z 1002a118 f i IFXRenderingDX8:CIFXRenderDeviceDX8.obj
 0001:00029118       ??_GCIFXRenderDeviceDX8@@MAEPAXI@Z 1002a118 f i IFXRenderingDX8:CIFXRenderDeviceDX8.obj
 0001:00029158       ??1CIFXRenderDeviceDX8@@MAE@XZ 1002a158 f   IFXRenderingDX8:CIFXRenderDeviceDX8.obj
 0001:000293be       ?ReleaseVidMem@CIFXRenderDeviceDX8@@QAIHXZ 1002a3be f   IFXRenderingDX8:CIFXRenderDeviceDX8.obj
 0001:000295c2       ?CIFXRenderDeviceDX8Factory@@YIHABUIFXGUID@@PAPAX@Z 1002a5c2 f   IFXRenderingDX8:CIFXRenderDeviceDX8.obj
 0001:000296bc       ??0CIFXRenderDeviceDX8@@IAE@XZ 1002a6bc f   IFXRenderingDX8:CIFXRenderDeviceDX8.obj
 0001:0002987e       ?Construct@CIFXRenderDeviceDX8@@IAIHXZ 1002a87e f   IFXRenderingDX8:CIFXRenderDeviceDX8.obj
 0001:00029ab8       ?AddRef@CIFXRenderDeviceDX8@@UAIIXZ 1002aab8 f   IFXRenderingDX8:CIFXRenderDeviceDX8.obj
 0001:00029ac8       ?Release@CIFXRenderDeviceDX8@@UAIIXZ 1002aac8 f   IFXRenderingDX8:CIFXRenderDeviceDX8.obj
 0001:00029afe       ?QueryInterface@CIFXRenderDeviceDX8@@UAIHABUIFXGUID@@PAPAX@Z 1002aafe f   IFXRenderingDX8:CIFXRenderDeviceDX8.obj
 0001:00029e48       ?GetSupported@CIFXRenderDeviceDX8@@UAIHIAAH@Z 1002ae48 f   IFXRenderingDX8:CIFXRenderDeviceDX8.obj
 0001:00029f44       ?DeleteStaticVB@CIFXRenderDeviceDX8@@IAIHI@Z 1002af44 f   IFXRenderingDX8:CIFXRenderDeviceDX8.obj
 0001:00029fcc       ?GetCaps@CIFXRenderDeviceDX8@@UBIHAAVIFXRenderCaps@@@Z 1002afcc f   IFXRenderingDX8:CIFXRenderDeviceDX8.obj
 0001:00029ff2       ?GetDXCaps@CIFXRenderDeviceDX8@@QBIHAAU_D3DCAPS8@@@Z 1002aff2 f   IFXRenderingDX8:CIFXRenderDeviceDX8.obj
 0001:0002a016       ?DrawMesh@CIFXRenderDeviceDX8@@UAIHAAVIFXMesh@@AAIE@Z 1002b016 f   IFXRenderingDX8:CIFXRenderDeviceDX8.obj
 0001:0002a2ca       ?DrawSmallMesh@CIFXRenderDeviceDX8@@IAIHAAVIFXMesh@@AAVIFXInterleavedData@@AAIE@Z 1002b2ca f   IFXRenderingDX8:CIFXRenderDeviceDX8.obj
 0001:0002a4dc       ?BuildFVF@CIFXRenderDeviceDX8@@IAIKTIFXVertexAttributes@@@Z 1002b4dc f   IFXRenderingDX8:CIFXRenderDeviceDX8.obj
 0001:0002a64e       ?GetVertexBuffer@CIFXRenderDeviceDX8@@IAIHKIAAPAUIFXDX8VB@@@Z 1002b64e f   IFXRenderingDX8:CIFXRenderDeviceDX8.obj
 0001:0002a7ea       ?SetStreamSource@CIFXRenderDeviceDX8@@IAIHPAUIDirect3DVertexBuffer8@@I@Z 1002b7ea f   IFXRenderingDX8:CIFXRenderDeviceDX8.obj
 0001:0002a824       ?SetFVF@CIFXRenderDeviceDX8@@IAIHI@Z 1002b824 f   IFXRenderingDX8:CIFXRenderDeviceDX8.obj
 0001:0002a852       ?RenderSmallMesh@CIFXRenderDeviceDX8@@IAIHAAVIFXMesh@@IAAIE@Z 1002b852 f   IFXRenderingDX8:CIFXRenderDeviceDX8.obj
 0001:0002aa52       ?CopyIndicesToBuffer@CIFXRenderDeviceDX8@@IAIHAAVIFXInterleavedData@@AAIIIE@Z 1002ba52 f   IFXRenderingDX8:CIFXRenderDeviceDX8.obj
 0001:0002ac34       ?SetIndices@CIFXRenderDeviceDX8@@IAIHPAUIDirect3DIndexBuffer8@@I@Z 1002bc34 f   IFXRenderingDX8:CIFXRenderDeviceDX8.obj
 0001:0002ac80       ?DrawBigMesh@CIFXRenderDeviceDX8@@IAIHAAVIFXMesh@@AAIE@Z 1002bc80 f   IFXRenderingDX8:CIFXRenderDeviceDX8.obj
 0001:0002b6e0       ?SetTexStageStateDebug@CIFXRenderDeviceDX8@@QAIHPADIIW4_D3DTEXTURESTAGESTATETYPE@@K@Z 1002c6e0 f   IFXRenderingDX8:CIFXRenderDeviceDX8.obj
 0001:0002b70c       ?SetRenderStateDebug@CIFXRenderDeviceDX8@@QAIHPADIW4_D3DRENDERSTATETYPE@@K@Z 1002c70c f   IFXRenderingDX8:CIFXRenderDeviceDX8.obj
 0001:0002b734       ?ResetDevice@CIFXRenderDeviceDX8@@QAIHXZ 1002c734 f   IFXRenderingDX8:CIFXRenderDeviceDX8.obj
 0001:0002b840       ?RegisterWindow@CIFXRenderDeviceDX8@@QAIHPAVCIFXRenderDX8@@@Z 1002c840 f   IFXRenderingDX8:CIFXRenderDeviceDX8.obj
 0001:0002b8ec       ?FindStackEntry@CIFXRenderDeviceDX8@@IAIPAVIFXRenderDX8StackEntry@@PAVCIFXRenderDX8@@@Z 1002c8ec f   IFXRenderingDX8:CIFXRenderDeviceDX8.obj
 0001:0002b902       ?UnregisterWindow@CIFXRenderDeviceDX8@@QAIHPAVCIFXRenderDX8@@@Z 1002c902 f   IFXRenderingDX8:CIFXRenderDeviceDX8.obj
 0001:0002b914       ?RemoveStackEntry@CIFXRenderDeviceDX8@@IAIXPAVCIFXRenderDX8@@@Z 1002c914 f   IFXRenderingDX8:CIFXRenderDeviceDX8.obj
 0001:0002b960       ?CopyVerticesToBuffer@CIFXRenderDeviceDX8@@IAIHAAVIFXInterleavedData@@AAUIFXDX8VB@@AAIII@Z 1002c960 f   IFXRenderingDX8:CIFXRenderDeviceDX8.obj
 0001:0002ba9e       ?DrawStaticSmallMesh@CIFXRenderDeviceDX8@@IAIHAAVIFXMesh@@AAVIFXInterleavedData@@AAIE@Z 1002ca9e f   IFXRenderingDX8:CIFXRenderDeviceDX8.obj
 0001:0002bd6a       ?GetStaticVertexBuffer@CIFXRenderDeviceDX8@@IAIHKIIIAAPAUIFXDX8StaticVB@@@Z 1002cd6a f   IFXRenderingDX8:CIFXRenderDeviceDX8.obj
 0001:0002bf04       ?CopyVerticesToStaticBuffer@CIFXRenderDeviceDX8@@IAIHAAVIFXInterleavedData@@IAAUIFXDX8StaticVB@@@Z 1002cf04 f   IFXRenderingDX8:CIFXRenderDeviceDX8.obj
 0001:0002bfca       ?SetHWTestRef@CIFXRenderDeviceDX8@@MAIHM@Z 1002cfca f   IFXRenderingDX8:CIFXRenderDeviceDX8.obj
 0001:0002c04c       ?SetHWBlendFunc@CIFXRenderDeviceDX8@@MAIHI@Z 1002d04c f   IFXRenderingDX8:CIFXRenderDeviceDX8.obj
 0001:0002c1aa       ?SetHWTestFunc@CIFXRenderDeviceDX8@@MAIHI@Z 1002d1aa f   IFXRenderingDX8:CIFXRenderDeviceDX8.obj
 0001:0002c29a       ?SetHWAlphaTestEnabled@CIFXRenderDeviceDX8@@MAIHH@Z 1002d29a f   IFXRenderingDX8:CIFXRenderDeviceDX8.obj
 0001:0002c2c6       ?SetHWBlendEnabled@CIFXRenderDeviceDX8@@MAIHH@Z 1002d2c6 f   IFXRenderingDX8:CIFXRenderDeviceDX8.obj
 0001:0002c2f2       ?SetHWFogEnabled@CIFXRenderDeviceDX8@@MAIHH@Z 1002d2f2 f   IFXRenderingDX8:CIFXRenderDeviceDX8.obj
 0001:0002c31e       ?SetHWMode@CIFXRenderDeviceDX8@@MAIHI@Z 1002d31e f   IFXRenderingDX8:CIFXRenderDeviceDX8.obj
 0001:0002c38e       ?SetHWColor@CIFXRenderDeviceDX8@@MAIHABVIFXVector4@@@Z 1002d38e f   IFXRenderingDX8:CIFXRenderDeviceDX8.obj
 0001:0002c4e4       ?SetHWLinearNear@CIFXRenderDeviceDX8@@MAIHM@Z 1002d4e4 f   IFXRenderingDX8:CIFXRenderDeviceDX8.obj
 0001:0002c516       ?SetHWFar@CIFXRenderDeviceDX8@@MAIHM@Z 1002d516 f   IFXRenderingDX8:CIFXRenderDeviceDX8.obj
 0001:0002c588       ?SetHWEmissive@CIFXRenderDeviceDX8@@MAIHABVIFXVector4@@@Z 1002d588 f   IFXRenderingDX8:CIFXRenderDeviceDX8.obj
 0001:0002c5e8       ?SetHWAmbient@CIFXRenderDeviceDX8@@MAIHABVIFXVector4@@@Z 1002d5e8 f   IFXRenderingDX8:CIFXRenderDeviceDX8.obj
 0001:0002c626       ?SetHWDiffuse@CIFXRenderDeviceDX8@@MAIHABVIFXVector4@@@Z 1002d626 f   IFXRenderingDX8:CIFXRenderDeviceDX8.obj
 0001:0002c686       ?SetHWSpecular@CIFXRenderDeviceDX8@@MAIHABVIFXVector4@@@Z 1002d686 f   IFXRenderingDX8:CIFXRenderDeviceDX8.obj
 0001:0002c748       ?SetHWShininess@CIFXRenderDeviceDX8@@MAIHM@Z 1002d748 f   IFXRenderingDX8:CIFXRenderDeviceDX8.obj
 0001:0002c7fe       ?SetHWFastSpecular@CIFXRenderDeviceDX8@@MAIHH@Z 1002d7fe f   IFXRenderingDX8:CIFXRenderDeviceDX8.obj
 0001:0002c870       ?SetHWRenderStyle@CIFXRenderDeviceDX8@@MAIHI@Z 1002d870 f   IFXRenderingDX8:CIFXRenderDeviceDX8.obj
 0001:0002c908       ?SetHWShadeModel@CIFXRenderDeviceDX8@@MAIHI@Z 1002d908 f   IFXRenderingDX8:CIFXRenderDeviceDX8.obj
 0001:0002c960       ?SetHWMaterial@CIFXRenderDeviceDX8@@MAIHXZ 1002d960 f   IFXRenderingDX8:CIFXRenderDeviceDX8.obj
 0001:0002c9a6       ?SetHWLighting@CIFXRenderDeviceDX8@@MAIHH@Z 1002d9a6 f   IFXRenderingDX8:CIFXRenderDeviceDX8.obj
 0001:0002c9b0       ?SetHWDepthTest@CIFXRenderDeviceDX8@@MAIHH@Z 1002d9b0 f   IFXRenderingDX8:CIFXRenderDeviceDX8.obj
 0001:0002ca02       ?SetHWDepthWrite@CIFXRenderDeviceDX8@@MAIHH@Z 1002da02 f   IFXRenderingDX8:CIFXRenderDeviceDX8.obj
 0001:0002ca2e       ?SetHWDepthCompare@CIFXRenderDeviceDX8@@MAIHI@Z 1002da2e f   IFXRenderingDX8:CIFXRenderDeviceDX8.obj
 0001:0002ca68       ?GetD3DCompare@CIFXRenderDeviceDX8@@QAIII@Z 1002da68 f   IFXRenderingDX8:CIFXRenderDeviceDX8.obj
 0001:0002caba       ?SetHWCull@CIFXRenderDeviceDX8@@MAIHH@Z 1002daba f   IFXRenderingDX8:CIFXRenderDeviceDX8.obj
 0001:0002cafe       ?SetHWCullMode@CIFXRenderDeviceDX8@@MAIHI@Z 1002dafe f   IFXRenderingDX8:CIFXRenderDeviceDX8.obj
 0001:0002cb5c       ?SetHWViewMatrix@CIFXRenderDeviceDX8@@MAIHABVIFXMatrix4x4@@@Z 1002db5c f   IFXRenderingDX8:CIFXRenderDeviceDX8.obj
 0001:0002cc86       ?SetHWWorldMatrix@CIFXRenderDeviceDX8@@MAIHABVIFXMatrix4x4@@@Z 1002dc86 f   IFXRenderingDX8:CIFXRenderDeviceDX8.obj
 0001:0002cd6e       ?SetHWGlobalAmbient@CIFXRenderDeviceDX8@@MAIHABVIFXVector4@@@Z 1002dd6e f   IFXRenderingDX8:CIFXRenderDeviceDX8.obj
 0001:0002cede       ?SetHWConstantColor@CIFXRenderDeviceDX8@@MAIHABVIFXVector4@@@Z 1002dede f   IFXRenderingDX8:CIFXRenderDeviceDX8.obj
 0001:0002d04c       ?SetHWNormalization@CIFXRenderDeviceDX8@@MAIHH@Z 1002e04c f   IFXRenderingDX8:CIFXRenderDeviceDX8.obj
 0001:0002d07e       ?SetHWStencilEnabled@CIFXRenderDeviceDX8@@MAIHH@Z 1002e07e f   IFXRenderingDX8:CIFXRenderDeviceDX8.obj
 0001:0002d0ae       ?SetHWPassOp@CIFXRenderDeviceDX8@@MAIHI@Z 1002e0ae f   IFXRenderingDX8:CIFXRenderDeviceDX8.obj
 0001:0002d110       ?GetStencilOp@CIFXRenderDeviceDX8@@IAIII@Z 1002e110 f   IFXRenderingDX8:CIFXRenderDeviceDX8.obj
 0001:0002d15c       ?SetHWStencilFunc@CIFXRenderDeviceDX8@@MAIHI@Z 1002e15c f   IFXRenderingDX8:CIFXRenderDeviceDX8.obj
 0001:0002d1be       ?SetHWTestMask@CIFXRenderDeviceDX8@@MAIHI@Z 1002e1be f   IFXRenderingDX8:CIFXRenderDeviceDX8.obj
 0001:0002d1f2       ?SetHWWriteMask@CIFXRenderDeviceDX8@@MAIHI@Z 1002e1f2 f   IFXRenderingDX8:CIFXRenderDeviceDX8.obj
 0001:0002d226       ?SetHWStencilRef@CIFXRenderDeviceDX8@@MAIHI@Z 1002e226 f   IFXRenderingDX8:CIFXRenderDeviceDX8.obj
 0001:0002d25a       ?SetHWView@CIFXRenderDeviceDX8@@MAIHXZ 1002e25a f   IFXRenderingDX8:CIFXRenderDeviceDX8.obj
 0001:0002d2ec       ?CalcProjectionMatrix@CIFXRenderDeviceDX8@@IAIXXZ 1002e2ec f   IFXRenderingDX8:CIFXRenderDeviceDX8.obj
 0001:0002d6a4       ?FillIFXRenderCaps@CIFXRenderDeviceDX8@@IAIXXZ 1002e6a4 f   IFXRenderingDX8:CIFXRenderDeviceDX8.obj
 0001:0002da84       ?SetHWZFailureOp@CIFXRenderDeviceDX8@@MAIHI@Z 1002ea84 f   IFXRenderingDX8:CIFXRenderDeviceDX8.obj
 0001:0002dae6       ?SetHWFailureOp@CIFXRenderDeviceDX8@@MAIHI@Z 1002eae6 f   IFXRenderingDX8:CIFXRenderDeviceDX8.obj
 0001:0002db48       ?InitData@CIFXRenderDeviceDX8@@IAIXXZ 1002eb48 f   IFXRenderingDX8:CIFXRenderDeviceDX8.obj
 0001:0002dc6a       ?InitVidMem@CIFXRenderDeviceDX8@@QAIHXZ 1002ec6a f   IFXRenderingDX8:CIFXRenderDeviceDX8.obj
 0001:0002dfc8       ?Initialize@CIFXRenderDeviceDX8@@UAIHI@Z 1002efc8 f   IFXRenderingDX8:CIFXRenderDeviceDX8.obj
 0001:0002e350       ??1?$IFXSmartPtr@VIFXDirectX8@@@@UAE@XZ 1002f350 f i IFXRenderingDX8:CIFXRenderDeviceDX8.obj
 0001:0002e3c0       ??_G?$IFXSmartPtr@VIFXDirectX8@@@@UAEPAXI@Z 1002f3c0 f i IFXRenderingDX8:CIFXRenderDeviceDX8.obj
 0001:0002e3c0       ??_E?$IFXSmartPtr@VIFXDirectX8@@@@UAEPAXI@Z 1002f3c0 f i IFXRenderingDX8:CIFXRenderDeviceDX8.obj
 0001:0002e44c       ?GetNumHWTexUnits@CIFXRenderDeviceDX8@@UAIIXZ 1002f44c f i IFXRenderingDX8:CIFXRenderDeviceDX8.obj
 0001:0002e454       ?AddRef@CIFXRenderDeviceDX8@@$4PPPPPPPM@A@AIIXZ 1002f454 f i IFXRenderingDX8:CIFXRenderDeviceDX8.obj
 0001:0002e460       ?Release@CIFXRenderDeviceDX8@@$4PPPPPPPM@A@AIIXZ 1002f460 f i IFXRenderingDX8:CIFXRenderDeviceDX8.obj
 0001:0002e46c       ?QueryInterface@CIFXRenderDeviceDX8@@$4PPPPPPPM@A@AIHABUIFXGUID@@PAPAX@Z 1002f46c f i IFXRenderingDX8:CIFXRenderDeviceDX8.obj
 0001:0002e478       ?GetSupported@CIFXRenderDeviceDX8@@$4PPPPPPPM@A@AIHIAAH@Z 1002f478 f i IFXRenderingDX8:CIFXRenderDeviceDX8.obj
 0001:0002e484       ?DeleteMesh@CIFXRenderDeviceDX8@@$4PPPPPPPM@A@AIHI@Z 1002f484 f i IFXRenderingDX8:CIFXRenderDeviceDX8.obj
 0001:0002e490       ?DeleteMesh@CIFXRenderDeviceDX8@@UAIHI@Z 1002f490 f i IFXRenderingDX8:CIFXRenderDeviceDX8.obj
 0001:0002e49c       ?DeleteTexture@CIFXRenderDevice@@$4PPPPPPPM@CHE@AIHI@Z 1002f49c f i IFXRenderingDX8:CIFXRenderDeviceDX8.obj
 0001:0002e4ac       ?GetCaps@CIFXRenderDeviceDX8@@$4PPPPPPPM@A@BIHAAVIFXRenderCaps@@@Z 1002f4ac f i IFXRenderingDX8:CIFXRenderDeviceDX8.obj
 0001:0002e4b8       ??_ECIFXRenderDeviceDX8@@$2PPPPPPPM@A@AEPAXI@Z 1002f4b8 f i IFXRenderingDX8:CIFXRenderDeviceDX8.obj
 0001:0002e4c4       ?Initialize@CIFXRenderDeviceDX8@@$4PPPPPPPM@A@AIHI@Z 1002f4c4 f i IFXRenderingDX8:CIFXRenderDeviceDX8.obj
 0001:0002e4d0       ??_ECOctreeNode@@UAEPAXI@Z 1002f4d0 f i Culling:CIFXOctreeCollection.obj
 0001:0002e4d0       ??_GCOctreeNode@@UAEPAXI@Z 1002f4d0 f i Culling:CIFXOctreeCollection.obj
 0001:0002e6e0       ??_F?$CArrayList@UIFXSpatialInstance@@@@QAEXXZ 1002f6e0 f i Culling:CIFXOctreeCollection.obj
 0001:0002e6f4       ??_ECIFXOctreeCollection@@MAEPAXI@Z 1002f6f4 f i Culling:CIFXOctreeCollection.obj
 0001:0002e6f4       ??_GCIFXOctreeCollection@@MAEPAXI@Z 1002f6f4 f i Culling:CIFXOctreeCollection.obj
 0001:0002e718       ??1CIFXOctreeCollection@@MAE@XZ 1002f718 f   Culling:CIFXOctreeCollection.obj
 0001:0002e732       ?CleanUp@CIFXOctreeCollection@@IAEXXZ 1002f732 f   Culling:CIFXOctreeCollection.obj
 0001:0002e762       ?CIFXOctreeCollection_Factory@@YIHABUIFXGUID@@PAPAX@Z 1002f762 f   Culling:CIFXOctreeCollection.obj
 0001:0002e878       ?AddRef@CIFXOctreeCollection@@UAIIXZ 1002f878 f   Culling:CIFXOctreeCollection.obj
 0001:0002e882       ?Release@CIFXOctreeCollection@@UAIIXZ 1002f882 f   Culling:CIFXOctreeCollection.obj
 0001:0002e8a0       ?QueryInterface@CIFXOctreeCollection@@UAIHABUIFXGUID@@PAPAX@Z 1002f8a0 f   Culling:CIFXOctreeCollection.obj
 0001:0002eb14       ?FitsInBox@CIFXOctreeCollection@@IBEHPAVIFXSpatial@@IABVIFXVector4@@@Z 1002fb14 f   Culling:CIFXOctreeCollection.obj
 0001:0002ec5a       ?ResursivelyAddSpatialsToList@CIFXOctreeCollection@@IAEXPAVCOctreeNode@@AAPAPAVIFXSpatial@@AAI2W5eType@3@@Z 1002fc5a f   Culling:CIFXOctreeCollection.obj
 0001:0002ec5e       ?TraverseNodes@CIFXOctreeCollection@@QAEXPAVCOctreeNode@@P6AX0@Z@Z 1002fc5e f   Culling:CIFXOctreeCollection.obj
 0001:0002ecde       ?TraverseNodes@CIFXOctreeCollection@@QAEXPAVCOctreeNode@@P6AX0@Z1@Z 1002fcde f   Culling:CIFXOctreeCollection.obj
 0001:0002ed7c       ?AddSpatials@CIFXOctreeCollection@@UAIHPAPAVIFXSpatial@@IW5eType@2@@Z 1002fd7c f   Culling:CIFXOctreeCollection.obj
 0001:0002f0a4       ?Insert@CIFXOctreeCollection@@QAEIPAVCOctreeNode@@PAVIFXSpatial@@I@Z 100300a4 f   Culling:CIFXOctreeCollection.obj
 0001:0002f30a       ?InsertRecursivelyIntoBestFitOctreeNode@CIFXOctreeCollection@@IAEIPAVCOctreeNode@@PAVIFXSpatial@@I@Z 1003030a f   Culling:CIFXOctreeCollection.obj
 0001:0002f7ea       ?FitsInBox@CIFXOctreeCollection@@IBEHABVIFXVector4@@MMMM@Z 100307ea f   Culling:CIFXOctreeCollection.obj
 0001:0002f8e6       ?FitsInBox@CIFXOctreeCollection@@IBEHABVIFXVector4@@0@Z 100308e6 f   Culling:CIFXOctreeCollection.obj
 0001:0002f9f4       ?RemoveSpatials@CIFXOctreeCollection@@UAIHPAPAVIFXSpatial@@IW5eType@2@@Z 100309f4 f   Culling:CIFXOctreeCollection.obj
 0001:0002fc72       ?GetSpatials@CIFXOctreeCollection@@UAIHAAPAPAVIFXSpatial@@AAIW5eType@2@@Z 10030c72 f   Culling:CIFXOctreeCollection.obj
 0001:0002fc7a       ?InCorporateSpatialBound@CIFXOctreeCollection@@IAEHPAPAVIFXSpatial@@IAAVIFXVector4@@@Z 10030c7a f   Culling:CIFXOctreeCollection.obj
 0001:0002fdac       ?InitializeCollection@CIFXOctreeCollection@@UAIHPAVIFXCollection@@@Z 10030dac f   Culling:CIFXOctreeCollection.obj
 0001:0002fea8       ?InitializeCollection@CIFXOctreeCollection@@UAIHPAPAVIFXSpatial@@IW5eType@2@@Z 10030ea8 f   Culling:CIFXOctreeCollection.obj
 0001:0002ff06       ?Initialize@CIFXOctreeCollection@@QAEHVIFXVector4@@MI@Z 10030f06 f   Culling:CIFXOctreeCollection.obj
 0001:0003013c       ?GetCollectionCID@CIFXOctreeCuller@@UBIABUIFXGUID@@XZ 1003113c f i Culling:CIFXOctreeCuller.obj
 0001:0003013c       ?GetCID@CIFXOctreeCollection@@UAEABUIFXGUID@@XZ 1003113c f i Culling:CIFXOctreeCollection.obj
 0001:00030144       ?Update@COctreeNode@@UAIHPAVIFXSubject@@IABUIFXGUID@@@Z 10031144 f i Culling:CIFXOctreeCollection.obj
 0001:00030974       ??1?$IFXAutoRelease@VIFXNode@@@@QAE@XZ 10031974 f i Culling:CIFXOctreeCollection.obj
 0001:00030974       ??1?$IFXAutoRelease@VIFXModifier@@@@QAE@XZ 10031974 f i Rendering:CIFXDeviceTexture.obj
 0001:00030974       ??1?$IFXAutoRelease@VIFXSubject@@@@QAE@XZ 10031974 f i Culling:CIFXOctreeCollection.obj
 0001:00030974       ??1?$IFXAutoRelease@VIFXModifierChain@@@@QAE@XZ 10031974 f i Rendering:CIFXDeviceTexture.obj
 0001:00030974       ??1?$IFXAutoRelease@VIFXSpatial@@@@QAE@XZ 10031974 f i Culling:CIFXOctreeCollection.obj
 0001:00030974       ??1?$IFXAutoRelease@VIFXModifierDataPacket@@@@QAE@XZ 10031974 f i Rendering:CIFXDeviceTexture.obj
 0001:00030998       ??1?$CArrayList@UIFXSpatialInstance@@@@QAE@XZ 10031998 f i Culling:CIFXOctreeCollection.obj
 0001:000309b8       ?AddRef@CIFXOctreeCollection@@$4PPPPPPPM@A@AIIXZ 100319b8 f i Culling:CIFXOctreeCollection.obj
 0001:000309c4       ?Release@CIFXOctreeCollection@@$4PPPPPPPM@A@AIIXZ 100319c4 f i Culling:CIFXOctreeCollection.obj
 0001:000309d0       ?QueryInterface@CIFXOctreeCollection@@$4PPPPPPPM@A@AIHABUIFXGUID@@PAPAX@Z 100319d0 f i Culling:CIFXOctreeCollection.obj
 0001:000309dc       ?AddRef@COctreeNode@@$4PPPPPPPM@A@AIIXZ 100319dc f i Culling:CIFXOctreeCollection.obj
 0001:000309e8       ?AddRef@COctreeNode@@UAIIXZ 100319e8 f i Culling:CIFXOctreeCollection.obj
 0001:000309f4       ?Release@COctreeNode@@$4PPPPPPPM@A@AIIXZ 100319f4 f i Culling:CIFXOctreeCollection.obj
 0001:00030a00       ?Release@COctreeNode@@UAIIXZ 10031a00 f i Culling:CIFXOctreeCollection.obj
 0001:00030a20       ?QueryInterface@COctreeNode@@$4PPPPPPPM@A@AIHABUIFXGUID@@PAPAX@Z 10031a20 f i Culling:CIFXOctreeCollection.obj
 0001:00030a2c       ?QueryInterface@COctreeNode@@UAIHABUIFXGUID@@PAPAX@Z 10031a2c f i Culling:CIFXOctreeCollection.obj
 0001:00030b10       ??_ECIFXSceneGraphCuller@@EAEPAXI@Z 10031b10 f i Culling:CIFXScenegraphCuller.obj
 0001:00030b10       ??_GCIFXSceneGraphCuller@@EAEPAXI@Z 10031b10 f i Culling:CIFXScenegraphCuller.obj
 0001:00030b34       ??1CIFXSceneGraphCuller@@EAE@XZ 10031b34 f   Culling:CIFXScenegraphCuller.obj
 0001:00030b94       ?CIFXSceneGraphCuller_Factory@@YIHABUIFXGUID@@PAPAX@Z 10031b94 f   Culling:CIFXScenegraphCuller.obj
 0001:00030cc0       ?AddRef@CIFXSceneGraphCuller@@UAIIXZ 10031cc0 f   Culling:CIFXScenegraphCuller.obj
 0001:00030cca       ?Release@CIFXSceneGraphCuller@@UAIIXZ 10031cca f   Culling:CIFXScenegraphCuller.obj
 0001:00030ce6       ?QueryInterface@CIFXSceneGraphCuller@@UAIHABUIFXGUID@@PAPAX@Z 10031ce6 f   Culling:CIFXScenegraphCuller.obj
 0001:00030eac       ?QueryForSpatialSet@CIFXSceneGraphCuller@@UAIHPBVIFXFrustum@@AAPAV?$CArrayList@UIFXSpatialInstance@@@@1AAM2@Z 10031eac f   Culling:CIFXScenegraphCuller.obj
 0001:00032080       ?SetCollection@CIFXSceneGraphCuller@@UAIHPAVIFXCollection@@@Z 10033080 f   Culling:CIFXScenegraphCuller.obj
 0001:000320b6       ?GetCollection@CIFXSceneGraphCuller@@UBIHAAPAVIFXCollection@@@Z 100330b6 f   Culling:CIFXScenegraphCuller.obj
 0001:000320d4       ??0CIFXSceneGraphCuller@@AAE@XZ 100330d4 f   Culling:CIFXScenegraphCuller.obj
 0001:0003214c       ?AddRef@CIFXSceneGraphCuller@@$4PPPPPPPM@A@AIIXZ 1003314c f i Culling:CIFXScenegraphCuller.obj
 0001:00032158       ?Release@CIFXSceneGraphCuller@@$4PPPPPPPM@A@AIIXZ 10033158 f i Culling:CIFXScenegraphCuller.obj
 0001:00032164       ?QueryInterface@CIFXSceneGraphCuller@@$4PPPPPPPM@A@AIHABUIFXGUID@@PAPAX@Z 10033164 f i Culling:CIFXScenegraphCuller.obj
 0001:00032170       ?QueryForSpatialSet@CIFXSceneGraphCuller@@$4PPPPPPPM@A@AIHPBVIFXFrustum@@AAPAV?$CArrayList@UIFXSpatialInstance@@@@1AAM2@Z 10033170 f i Culling:CIFXScenegraphCuller.obj
 0001:0003217c       ?GetCollectionCID@CIFXSceneGraphCuller@@$4PPPPPPPM@A@BIABUIFXGUID@@XZ 1003317c f i Culling:CIFXScenegraphCuller.obj
 0001:00032188       ?GetCollectionCID@CIFXSceneGraphCuller@@UBIABUIFXGUID@@XZ 10033188 f i Culling:CIFXScenegraphCuller.obj
 0001:00032190       ?SetCollection@CIFXSceneGraphCuller@@$4PPPPPPPM@A@AIHPAVIFXCollection@@@Z 10033190 f i Culling:CIFXScenegraphCuller.obj
 0001:0003219c       ?GetCollection@CIFXSceneGraphCuller@@$4PPPPPPPM@A@BIHAAPAVIFXCollection@@@Z 1003319c f i Culling:CIFXScenegraphCuller.obj
 0001:000321a8       ??_GCIFXOctreeCuller@@EAEPAXI@Z 100331a8 f i Culling:CIFXOctreeCuller.obj
 0001:000321a8       ??_ECIFXOctreeCuller@@EAEPAXI@Z 100331a8 f i Culling:CIFXOctreeCuller.obj
 0001:000321cc       ??1CIFXOctreeCuller@@EAE@XZ 100331cc f   Culling:CIFXOctreeCuller.obj
 0001:000322b2       ?CIFXOctreeCuller_Factory@@YIHABUIFXGUID@@PAPAX@Z 100332b2 f   Culling:CIFXOctreeCuller.obj
 0001:000323e2       ?AddRef@CIFXOctreeCuller@@UAIIXZ 100333e2 f   Culling:CIFXOctreeCuller.obj
 0001:000323ec       ?Release@CIFXOctreeCuller@@UAIIXZ 100333ec f   Culling:CIFXOctreeCuller.obj
 0001:0003240a       ?QueryInterface@CIFXOctreeCuller@@UAIHABUIFXGUID@@PAPAX@Z 1003340a f   Culling:CIFXOctreeCuller.obj
 0001:000325ca       ?QueryForSpatialSet@CIFXOctreeCuller@@UAIHPBVIFXFrustum@@AAPAV?$CArrayList@UIFXSpatialInstance@@@@1AAM2@Z 100335ca f   Culling:CIFXOctreeCuller.obj
 0001:0003275a       ?CullNode@CIFXOctreeCuller@@AAEXPBVCOctreeNode@@PBVIFXRay@@IW4Visibility@@@Z 1003375a f   Culling:CIFXOctreeCuller.obj
 0001:000330a0       ?DoLightAssociations@CIFXOctreeCuller@@AAEXPAV?$CArrayList@UIFXSpatialInstance@@@@IIII@Z 100340a0 f   Culling:CIFXOctreeCuller.obj
 0001:00033636       ?SetCollection@CIFXOctreeCuller@@UAIHPAVIFXCollection@@@Z 10034636 f   Culling:CIFXOctreeCuller.obj
 0001:0003369a       ?GetCollection@CIFXOctreeCuller@@UBIHAAPAVIFXCollection@@@Z 1003469a f   Culling:CIFXOctreeCuller.obj
 0001:000336b4       ?Initialize@CIFXOctreeCuller@@QAEXXZ 100346b4 f   Culling:CIFXOctreeCuller.obj
 0001:00033800       ?AddRef@CIFXOctreeCuller@@$4PPPPPPPM@A@AIIXZ 10034800 f i Culling:CIFXOctreeCuller.obj
 0001:0003380c       ?Release@CIFXOctreeCuller@@$4PPPPPPPM@A@AIIXZ 1003480c f i Culling:CIFXOctreeCuller.obj
 0001:00033818       ?QueryInterface@CIFXOctreeCuller@@$4PPPPPPPM@A@AIHABUIFXGUID@@PAPAX@Z 10034818 f i Culling:CIFXOctreeCuller.obj
 0001:00033824       @IFXCreateComponent@12     10034824 f   IFXCore:IFXCore.dll
 0001:0003382a       @IFXDeallocate@4           1003482a f   IFXCore:IFXCore.dll
 0001:00033830       @IFXAllocate@4             10034830 f   IFXCore:IFXCore.dll
 0001:00033836       @IFXReallocate@8           10034836 f   IFXCore:IFXCore.dll
 0001:0003383c       _tan                       1003483c f   libmmt:tan_stub.omu
 0001:00033864       _sqrt                      10034864 f   libmmt:sqrt_stub.omu
 0001:0003388c       _cos                       1003488c f   libmmt:cos_stub.omu
 0001:000338b4       _sin                       100348b4 f   libmmt:sin_stub.omu
 0001:000338dc       _acos                      100348dc f   libmmt:acos_stub.omu
 0001:00033904       _atan2                     10034904 f   libmmt:atan2_stub.omu
 0001:0003392c       _log10                     1003492c f   libmmt:log10_stub.omu
 0001:00033954       _tan.J                     10034954 f   libmmt:tan_wmt.omu
 0001:00033bdc       _tan.A                     10034bdc f   libmmt:tan_gen.omu
 0001:0003425c       _sqrt.J                    1003525c f   libmmt:sqrt_wmt.omu
 0001:000342dc       _sqrt.A                    100352dc f   libmmt:sqrt_gen.omu
 0001:00034358       _cos.J                     10035358 f   libmmt:cos_wmt.omu
 0001:00034524       _cos.A                     10035524 f   libmmt:cos_gen.omu
 0001:000349dc       _sin.J                     100359dc f   libmmt:sin_wmt.omu
 0001:00034bc0       _sin.A                     10035bc0 f   libmmt:sin_gen.omu
 0001:000350d4       _acos.J                    100360d4 f   libmmt:acos_wmt.omu
 0001:000355f0       _acos.A                    100365f0 f   libmmt:acos_gen.omu
 0001:00035a28       _atan2.J                   10036a28 f   libmmt:atan2_wmt.omu
 0001:00036024       _atan2.A                   10037024 f   libmmt:atan2_gen.omu
 0001:000360b0       _log10.J                   100370b0 f   libmmt:log10_wmt.omu
 0001:00036368       _log10.A                   10037368 f   libmmt:log10_gen.omu
 0001:000367c8       ___libm_tancot_huge        100377c8 f   libmmt:libm_tancot_huge.omu
 0001:00036e78       ___libm_reduce_pi04l       10037e78 f   libmmt:libm_reduce_pi04l.omu
 0001:00037264       ___libm_error_support      10038264 f   libmmt:libm_error.omu
 0001:0003e098       ___libm_sincos_huge        1003f098 f   libmmt:libm_sincos_huge.omu
 0001:0003e5b8       _matherrl                  1003f5b8 f   libmmt:matherrl.omu
 0001:0003e5b8       _matherrf                  1003f5b8 f   libmmt:matherrf.omu
 0001:0003e5b8       _matherr                   1003f5b8 f   libmmt:matherr.omu
 0001:0003e5b8       ?GetNumHWTexUnits@CIFXRenderDevice@@UAIIXZ 1003f5b8 f   Rendering:CIFXRenderDevice.obj
 0001:0003e5c0       __CRT_INIT@12              1003f5c0 f   LIBCMT:dllcrt0.obj
 0001:0003e741       __DllMainCRTStartup@12     1003f741 f   LIBCMT:dllcrt0.obj
 0001:0003e825       __amsg_exit                1003f825 f   LIBCMT:dllcrt0.obj
 0001:0003e858       __fpclear                  1003f858 f   LIBCMT:fpinit.obj
 0001:0003e859       __cfltcvt_init             1003f859 f   LIBCMT:fpinit.obj
 0001:0003e891       __fpmath                   1003f891 f   LIBCMT:fpinit.obj
 0001:0003e8b0       __global_unwind2           1003f8b0 f   LIBCMT:exsup.obj
 0001:0003e8f2       __local_unwind2            1003f8f2 f   LIBCMT:exsup.obj
 0001:0003e94a       __NLG_Return2              1003f94a     LIBCMT:exsup.obj
 0001:0003e95a       __abnormal_termination     1003f95a f   LIBCMT:exsup.obj
 0001:0003e97d       __NLG_Notify1              1003f97d f   LIBCMT:exsup.obj
 0001:0003e986       __NLG_Notify               1003f986 f   LIBCMT:exsup.obj
 0001:0003e999       __NLG_Dispatch             1003f999     LIBCMT:exsup.obj
 0001:0003e99e       ?__ArrayUnwind@@YGXPAXIHP6EX0@Z@Z 1003f99e f   LIBCMT:ehvecdtr.obj
 0001:0003e9fc       ??_M@YGXPAXIHP6EX0@Z@Z     1003f9fc f   LIBCMT:ehvecdtr.obj
 0001:0003ea5c       ?_JumpToContinuation@@YGXPAXPAUEHRegistrationNode@@@Z 1003fa5c f   LIBCMT:trnsctrl.obj
 0001:0003ea8c       ?_CallMemberFunction0@@YGXPAX0@Z 1003fa8c f   LIBCMT:trnsctrl.obj
 0001:0003ea8c       ?_CallMemberFunction1@@YGXPAX00@Z 1003fa8c f   LIBCMT:trnsctrl.obj
 0001:0003ea8c       ?_CallMemberFunction2@@YGXPAX00H@Z 1003fa8c f   LIBCMT:trnsctrl.obj
 0001:0003ea93       ?_UnwindNestedFrames@@YGXPAUEHRegistrationNode@@PAUEHExceptionRecord@@@Z 1003fa93 f   LIBCMT:trnsctrl.obj
 0001:0003eae5       ___CxxFrameHandler         1003fae5 f   LIBCMT:trnsctrl.obj
 0001:0003eb56       ?_CallSETranslator@@YAHPAUEHExceptionRecord@@PAUEHRegistrationNode@@PAX2PBU_s_FuncInfo@@H1@Z 1003fb56 f   LIBCMT:trnsctrl.obj
 0001:0003eccf       ?_GetRangeOfTrysToCheck@@YAPBU_s_TryBlockMapEntry@@PBU_s_FuncInfo@@HHPAI1@Z 1003fccf f   LIBCMT:trnsctrl.obj
 0001:0003ed49       ?_CreateFrameInfo@@YAPAUFrameInfo@@PAU1@PAX@Z 1003fd49 f   LIBCMT:trnsctrl.obj
 0001:0003ed71       ?IsExceptionObjectToBeDestroyed@@YAHPAX@Z 1003fd71 f   LIBCMT:trnsctrl.obj
 0001:0003ed92       ?_FindAndUnlinkFrame@@YAXPAUFrameInfo@@@Z 1003fd92 f   LIBCMT:trnsctrl.obj
 0001:0003edde       ?_CallCatchBlock2@@YAPAXPAUEHRegistrationNode@@PBU_s_FuncInfo@@PAXHK@Z 1003fdde f   LIBCMT:trnsctrl.obj
 0001:0003ee37       ??_L@YGXPAXIHP6EX0@Z1@Z    1003fe37 f   LIBCMT:ehvecctr.obj
 0001:0003ee99       __purecall                 1003fe99 f   LIBCMT:purevirt.obj
 0001:0003eead       _wcscat                    1003fead f   LIBCMT:wcscat.obj
 0001:0003eed7       _wcscpy                    1003fed7 f   LIBCMT:wcscat.obj
 0001:0003eef3       _wcscmp                    1003fef3 f   LIBCMT:wcscmp.obj
 0001:0003ef25       ___towlower_mt             1003ff25 f   LIBCMT:towlower.obj
 0001:0003ef86       _towlower                  1003ff86 f   LIBCMT:towlower.obj
 0001:0003efd1       _wcslen                    1003ffd1 f   LIBCMT:wcslen.obj
 0001:0003efe7       ___towupper_mt             1003ffe7 f   LIBCMT:towupper.obj
 0001:0003f048       _towupper                  10040048 f   LIBCMT:towupper.obj
 0001:0003f08b       _wcsncpy                   1004008b f   LIBCMT:wcsncpy.obj
 0001:0003f0c8       _wcsncmp                   100400c8 f   LIBCMT:wcsncmp.obj
 0001:0003f0fd       _iswdigit                  100400fd f   LIBCMT:_wctype.obj
 0001:0003f2ea       _wcstol                    100402ea f   LIBCMT:wcstol.obj
 0001:0003f301       ?vswprintf@@YAHPA_WIPB_WPAD@Z 10040301 f   LIBCMT:vswprinn.obj
 0001:0003f370       ?vswprintf@@YAHPAGIPBGPAD@Z 10040370 f   LIBCMT:vswprinn.obj
 0001:0003f375       ??1type_info@@UAE@XZ       10040375 f   LIBCMT:typinfo.obj
 0001:0003f3bb       ??_Etype_info@@UAEPAXI@Z   100403bb f i LIBCMT:typinfo.obj
 0001:0003f3bb       ??_Gtype_info@@UAEPAXI@Z   100403bb f i LIBCMT:typinfo.obj
 0001:0003f3d7       ___toupper_mt              100403d7 f   LIBCMT:toupper.obj
 0001:0003f4a0       _toupper                   100404a0 f   LIBCMT:toupper.obj
 0001:0003f4c2       _wcschr                    100404c2 f   LIBCMT:wcschr.obj
 0001:0003f4f0       __allmul                   100404f0 f   LIBCMT:llmul.obj
 0001:0003f530       __alldiv                   10040530 f   LIBCMT:lldiv.obj
 0001:0003f6fa       __control87                100406fa f   LIBCMT:ieee87.obj
 0001:0003f72c       __controlfp                1004072c f   LIBCMT:ieee87.obj
 0001:0003f742       _swprintf                  10040742 f   LIBCMT:swprintf.obj
 0001:0003f7b1       ___crtExitProcess          100407b1 f   LIBCMT:crt0dat.obj
 0001:0003f7e1       __lockexit                 100407e1 f   LIBCMT:crt0dat.obj
 0001:0003f7ea       __unlockexit               100407ea f   LIBCMT:crt0dat.obj
 0001:0003f80b       __cinit                    1004080b f   LIBCMT:crt0dat.obj
 0001:0003f938       _exit                      10040938 f   LIBCMT:crt0dat.obj
 0001:0003f949       __exit                     10040949 f   LIBCMT:crt0dat.obj
 0001:0003f95a       __cexit                    1004095a f   LIBCMT:crt0dat.obj
 0001:0003f969       ___freetlocinfo            10040969 f   LIBCMT:setlocal.obj
 0001:0003fafa       ___init_dummy              10040afa f   LIBCMT:setlocal.obj
 0001:0003fafa       ___init_collate            10040afa f   LIBCMT:initcoll.obj
 0001:0003fafd       __strcats                  10040afd f   LIBCMT:setlocal.obj
 0001:0003fb21       ___lc_strtolc              10040b21 f   LIBCMT:setlocal.obj
 0001:0003fbfd       ___lc_lctostr              10040bfd f   LIBCMT:setlocal.obj
 0001:0003fc4b       ___updatetlocinfo          10040c4b f   LIBCMT:setlocal.obj
 0001:0003fd45       __expandlocale             10040d45 f   LIBCMT:setlocal.obj
 0001:00040309       _setlocale                 10041309 f   LIBCMT:setlocal.obj
 0001:00040463       _strtok                    10041463 f   LIBCMT:strtok.obj
 0001:00040518       _sscanf                    10041518 f   LIBCMT:sscanf.obj
 0001:0004054c       __wfsopen                  1004154c f   LIBCMT:wfopen.obj
 0001:000405a8       __wfopen                   100415a8 f   LIBCMT:wfopen.obj
 0001:000405bb       ___initstdio               100415bb f   LIBCMT:_file.obj
 0001:00040664       ___endstdio                10041664 f   LIBCMT:_file.obj
 0001:00040678       __lock_file                10041678 f   LIBCMT:_file.obj
 0001:000406a7       __lock_file2               100416a7 f   LIBCMT:_file.obj
 0001:000406ca       __unlock_file              100416ca f   LIBCMT:_file.obj
 0001:000406f9       __unlock_file2             100416f9 f   LIBCMT:_file.obj
 0001:0004071c       __errno                    1004171c f   LIBCMT:dosmap.obj
 0001:00040725       ___doserrno                10041725 f   LIBCMT:dosmap.obj
 0001:0004072e       __dosmaperr                1004172e f   LIBCMT:dosmap.obj
 0001:000407a1       _fputs                     100417a1 f   LIBCMT:fputs.obj
 0001:00040812       ___crtTlsAlloc@4           10041812 f   LIBCMT:tidtable.obj
 0001:0004081b       __mtterm                   1004181b f   LIBCMT:tidtable.obj
 0001:00040838       __initptd                  10041838 f   LIBCMT:tidtable.obj
 0001:0004084b       __getptd                   1004184b f   LIBCMT:tidtable.obj
 0001:000408bc       __freefls@4                100418bc f   LIBCMT:tidtable.obj
 0001:00040a03       __freeptd                  10041a03 f   LIBCMT:tidtable.obj
 0001:00040a32       __mtinit                   10041a32 f   LIBCMT:tidtable.obj
 0001:00040b21       _free                      10041b21 f   LIBCMT:free.obj
 0001:00040b92       _calloc                    10041b92 f   LIBCMT:calloc.obj
 0001:00040c4d       __ioinit                   10041c4d f   LIBCMT:ioinit.obj
 0001:00040e4b       __ioterm                   10041e4b f   LIBCMT:ioinit.obj
 0001:00040e97       __setenvp                  10041e97 f   LIBCMT:stdenvp.obj
 0001:000410ca       __setargv                  100420ca f   LIBCMT:stdargv.obj
 0001:0004116c       ___crtGetEnvironmentStringsA 1004216c f   LIBCMT:a_env.obj
 0001:0004128e       __RTC_Initialize           1004228e f   LIBCMT:initsect.obj
 0001:000412d2       __RTC_Terminate            100422d2 f   LIBCMT:initsect.obj
 0001:00041316       ___heap_select             10042316 f   LIBCMT:heapinit.obj
 0001:00041330       __heap_init                10042330 f   LIBCMT:heapinit.obj
 0001:00041381       __heap_term                10042381 f   LIBCMT:heapinit.obj
 0001:00041400       __alloca_probe             10042400     LIBCMT:chkstk.obj
 0001:00041400       __chkstk                   10042400 f   LIBCMT:chkstk.obj
 0001:0004143d       __XcptFilter               1004243d f   LIBCMT:winxfltr.obj
 0001:000415a1       ___CppXcptFilter           100425a1 f   LIBCMT:winxfltr.obj
 0001:000415bc       __SEH_prolog               100425bc f   LIBCMT:sehprolg.obj
 0001:000415f7       __SEH_epilog               100425f7 f   LIBCMT:sehprolg.obj
 0001:00041610       __except_handler3          10042610 f   LIBCMT:exsup3.obj
 0001:000416f6       __seh_longjmp_unwind@4     100426f6 f   LIBCMT:exsup3.obj
 0001:00041711       __NMSG_WRITE               10042711 f   LIBCMT:crt0msg.obj
 0001:00041888       __FF_MSGBANNER             10042888 f   LIBCMT:crt0msg.obj
 0001:000418c1       __forcdecpt                100428c1 f   LIBCMT:cvt.obj
 0001:000418fd       __cropzeros                100428fd f   LIBCMT:cvt.obj
 0001:00041948       __positive                 10042948 f   LIBCMT:cvt.obj
 0001:00041962       __fassign                  10042962 f   LIBCMT:cvt.obj
 0001:00041a6b       __cftoe                    10042a6b f   LIBCMT:cvt.obj
 0001:00041b73       __cftof                    10042b73 f   LIBCMT:cvt.obj
 0001:00041bd5       __cftog                    10042bd5 f   LIBCMT:cvt.obj
 0001:00041c6f       __cfltcvt                  10042c6f f   LIBCMT:cvt.obj
 0001:00041cc0       __setdefaultprecision      10042cc0 f   LIBCMT:fp8.obj
 0001:00041cd2       __ms_p5_test_fdiv          10042cd2 f   LIBCMT:testfdiv.obj
 0001:00041d12       __ms_p5_mp_test_fdiv       10042d12 f   LIBCMT:testfdiv.obj
 0001:00041d3b       ?terminate@@YAXXZ          10042d3b f   LIBCMT:hooks.obj
 0001:00041d70       ?_inconsistency@@YAXXZ     10042d70 f   LIBCMT:hooks.obj
 0001:00041e0a       ___FrameUnwindToState      10042e0a f   LIBCMT:frame.obj
 0001:00041ed8       ___DestructExceptionObject 10042ed8 f   LIBCMT:frame.obj
 0001:000425a5       ___InternalCxxFrameHandler 100435a5 f   LIBCMT:frame.obj
 0001:00042650       __CallSettingFrame@12      10043650 f   LIBCMT:lowhelpr.obj
 0001:00042677       __NLG_Return               10043677     LIBCMT:lowhelpr.obj
 0001:0004269c       ___crtLCMapStringW         1004369c f   LIBCMT:w_map.obj
 0001:000428f5       ___iswctype_mt             100438f5 f   LIBCMT:iswctype.obj
 0001:0004294c       _iswctype                  1004394c f   LIBCMT:iswctype.obj
 0001:0004299e       __wchartodigit             1004399e f   LIBCMT:wchtodig.obj
 0001:00042b14       __flsbuf                   10043b14 f   LIBCMT:_flsbuf.obj
 0001:00042cb4       __woutput                  10043cb4 f   LIBCMT:woutput.obj
 0001:000434e4       __mtinitlocks              100444e4 f   LIBCMT:mlock.obj
 0001:0004352d       __mtdeletelocks            1004452d f   LIBCMT:mlock.obj
 0001:00043582       __unlock                   10044582 f   LIBCMT:mlock.obj
 0001:00043597       __mtinitlocknum            10044597 f   LIBCMT:mlock.obj
 0001:00043637       __lock                     10044637 f   LIBCMT:mlock.obj
 0001:00043670       _strcmp                    10044670 f   LIBCMT:strcmp.obj
 0001:000436f8       ___crtLCMapStringA         100446f8 f   LIBCMT:a_map.obj
 0001:00043ab4       ___isctype_mt              10044ab4 f   LIBCMT:isctype.obj
 0001:00043b59       _raise                     10044b59 f   LIBCMT:winsig.obj
 0001:00043d52       ___onexitinit              10044d52 f   LIBCMT:onexit.obj
 0001:00043d7a       __onexit                   10044d7a f   LIBCMT:onexit.obj
 0001:00043db2       _atexit                    10044db2 f   LIBCMT:onexit.obj
 0001:0004412b       ___free_lc_time            1004512b f   LIBCMT:inittime.obj
 0001:000442bb       ___init_time               100452bb f   LIBCMT:inittime.obj
 0001:0004431a       ___free_lconv_num          1004531a f   LIBCMT:initnum.obj
 0001:00044379       ___init_numeric            10045379 f   LIBCMT:initnum.obj
 0001:00044546       ___free_lconv_mon          10045546 f   LIBCMT:initmon.obj
 0001:0004461f       ___init_monetary           1004561f f   LIBCMT:initmon.obj
 0001:0004485e       ___init_ctype              1004585e f   LIBCMT:initctyp.obj
 0001:00044a50       _strcpy                    10045a50 f   LIBCMT:strcat.obj
 0001:00044a60       _strcat                    10045a60 f   LIBCMT:strcat.obj
 0001:00044b50       _strcspn                   10045b50 f   LIBCMT:strcspn.obj
 0001:00044ba0       _strncpy                   10045ba0 f   LIBCMT:strncpy.obj
 0001:00044cd0       _memset                    10045cd0 f   LIBCMT:memset.obj
 0001:00044d30       __heap_alloc               10045d30 f   LIBCMT:malloc.obj
 0001:00044dab       __nh_malloc                10045dab f   LIBCMT:malloc.obj
 0001:00044dd7       _malloc                    10045dd7 f   LIBCMT:malloc.obj
 0001:00044df0       _memcpy                    10045df0 f   LIBCMT:memcpy.obj
 0001:0004586c       ___get_qualified_locale    1004686c f   LIBCMT:getqloc.obj
 0001:00045a30       _strlen                    10046a30 f   LIBCMT:strlen.obj
 0001:00045aec       @__security_check_cookie@4 10046aec f   LIBCMT:secchk.obj
 0001:00045b00       _memcmp                    10046b00 f   LIBCMT:memcmp.obj
 0001:00045bb8       ___crtGetStringTypeA       10046bb8 f   LIBCMT:a_str.obj
 0001:00045d80       _strncmp                   10046d80 f   LIBCMT:strncmp.obj
 0001:00045dc0       _strpbrk                   10046dc0 f   LIBCMT:strpbrk.obj
 0001:00045e16       __input                    10046e16 f   LIBCMT:input.obj
 0001:00046b92       __wopenfile                10047b92 f   LIBCMT:_wopen.obj
 0001:00046d01       __getstream                10047d01 f   LIBCMT:stream.obj
 0001:00046e23       __fcloseall                10047e23 f   LIBCMT:closeall.obj
 0001:00046ebe       __flush                    10047ebe f   LIBCMT:fflush.obj
 0001:00046f1b       __fflush_lk                10047f1b f   LIBCMT:fflush.obj
 0001:0004701e       __flushall                 1004801e f   LIBCMT:fflush.obj
 0001:00047027       __stbuf                    10048027 f   LIBCMT:_sftbuf.obj
 0001:000470af       __ftbuf                    100480af f   LIBCMT:_sftbuf.obj
 0001:000470d9       __fwrite_lk                100480d9 f   LIBCMT:fwrite.obj
 0001:00047554       __setmbcp                  10048554 f   LIBCMT:mbctype.obj
 0001:000476a4       ___initmbctable            100486a4 f   LIBCMT:mbctype.obj
 0001:000476c2       ___sbh_heap_init           100486c2 f   LIBCMT:sbheap.obj
 0001:0004770a       ___sbh_find_block          1004870a f   LIBCMT:sbheap.obj
 0001:00047735       ___sbh_free_block          10048735 f   LIBCMT:sbheap.obj
 0001:00047a4d       ___sbh_alloc_new_region    10048a4d f   LIBCMT:sbheap.obj
 0001:00047b04       ___sbh_alloc_new_group     10048b04 f   LIBCMT:sbheap.obj
 0001:00047c0a       ___sbh_resize_block        10048c0a f   LIBCMT:sbheap.obj
 0001:00047ee9       ___sbh_alloc_block         10048ee9 f   LIBCMT:sbheap.obj
 0001:000481e5       __callnewh                 100491e5 f   LIBCMT:handler.obj
 0001:00048210       ___crtInitCritSecAndSpinCount 10049210 f   LIBCMT:initcrit.obj
 0001:0004829b       __ValidateEH3RN            1004929b f   LIBCMT:eh3valid.obj
 0001:000484c4       ___crtMessageBoxA          100494c4 f   LIBCMT:crtmbox.obj
 0001:000485bd       _isdigit                   100495bd f   LIBCMT:_ctype.obj
 0001:000485f7       _isxdigit                  100495f7 f   LIBCMT:_ctype.obj
 0001:00048636       _isspace                   10049636 f   LIBCMT:_ctype.obj
 0001:00048670       ___tolower_mt              10049670 f   LIBCMT:tolower.obj
 0001:00048738       _tolower                   10049738 f   LIBCMT:tolower.obj
 0001:0004875a       __ZeroTail                 1004975a f   LIBCMT:intrncvt.obj
 0001:0004878c       __IncMan                   1004978c f   LIBCMT:intrncvt.obj
 0001:000487d9       __RoundMan                 100497d9 f   LIBCMT:intrncvt.obj
 0001:0004884b       __CopyMan                  1004984b f   LIBCMT:intrncvt.obj
 0001:00048866       __IsZeroMan                10049866 f   LIBCMT:intrncvt.obj
 0001:0004887f       __ShrMan                   1004987f f   LIBCMT:intrncvt.obj
 0001:000488fa       __ld12cvt                  100498fa f   LIBCMT:intrncvt.obj
 0001:00048a52       __ld12tod                  10049a52 f   LIBCMT:intrncvt.obj
 0001:00048a68       __ld12tof                  10049a68 f   LIBCMT:intrncvt.obj
 0001:00048a7e       __atodbl                   10049a7e f   LIBCMT:intrncvt.obj
 0001:00048abb       __atoflt                   10049abb f   LIBCMT:intrncvt.obj
 0001:00048b00       _memmove                   10049b00 f   LIBCMT:memmove.obj
 0001:00048e3d       __fptostr                  10049e3d f   LIBCMT:_fptostr.obj
 0001:00048eb4       ___dtold                   10049eb4 f   LIBCMT:cfout.obj
 0001:00048f6e       __fltout2                  10049f6e f   LIBCMT:cfout.obj
 0001:00048fda       __fptrap                   10049fda f   LIBCMT:crt0fp.obj
 0001:00048fe3       _abort                     10049fe3 f   LIBCMT:abort.obj
 0001:00048ffb       ?__CxxUnhandledExceptionFilter@@YGJPAU_EXCEPTION_POINTERS@@@Z 10049ffb f   LIBCMT:unhandld.obj
 0001:00049049       ?__CxxSetUnhandledExceptionFilter@@YAHXZ 1004a049 f   LIBCMT:unhandld.obj
 0001:0004905c       ?__CxxRestoreUnhandledExceptionFilter@@YAXXZ 1004a05c f   LIBCMT:unhandld.obj
 0001:00049069       ?_ValidateRead@@YAHPBXI@Z  1004a069 f   LIBCMT:validate.obj
 0001:00049085       ?_ValidateWrite@@YAHPAXI@Z 1004a085 f   LIBCMT:validate.obj
 0001:000490a1       ?_ValidateExecute@@YAHP6GHXZ@Z 1004a0a1 f   LIBCMT:validate.obj
 0001:000490b9       __resetstkoflw             1004a0b9 f   LIBCMT:resetstk.obj
 0001:0004919c       ___ansicp                  1004a19c f   LIBCMT:convrtcp.obj
 0001:000491df       ___convertcp               1004a1df f   LIBCMT:convrtcp.obj
 0001:000493a8       ___crtGetStringTypeW       1004a3a8 f   LIBCMT:w_str.obj
 0001:000495cd       __lseek_lk                 1004a5cd f   LIBCMT:lseek.obj
 0001:00049641       __lseek                    1004a641 f   LIBCMT:lseek.obj
 0001:000496ec       __write_lk                 1004a6ec f   LIBCMT:write.obj
 0001:000498ba       __write                    1004a8ba f   LIBCMT:write.obj
 0001:00049965       __getbuf                   1004a965 f   LIBCMT:_getbuf.obj
 0001:000499a9       __isatty                   1004a9a9 f   LIBCMT:isatty.obj
 0001:000499d3       __putwc_lk                 1004a9d3 f   LIBCMT:fputwc.obj
 0001:00049b37       __output                   1004ab37 f   LIBCMT:output.obj
 0001:0004a331       ___mbtowc_mt               1004b331 f   LIBCMT:mbtowc.obj
 0001:0004a3f1       _mbtowc                    1004b3f1 f   LIBCMT:mbtowc.obj
 0001:0004a420       __aulldvrm                 1004b420 f   LIBCMT:ulldvrm.obj
 0001:0004a4b5       _realloc                   1004b4b5 f   LIBCMT:realloc.obj
 0001:0004a662       __msize                    1004b662 f   LIBCMT:msize.obj
 0001:0004a6e0       ___ascii_stricmp           1004b6e0 f   LIBCMT:_stricmp.obj
 0001:0004a72e       ___getlocaleinfo           1004b72e f   LIBCMT:inithelp.obj
 0001:0004a855       __stricmp                  1004b855 f   LIBCMT:stricmp.obj
 0001:0004a8be       _atol                      1004b8be f   LIBCMT:atox.obj
 0001:0004a946       __strnicmp                 1004b946 f   LIBCMT:strnicmp.obj
 0001:0004aa03       __itoa                     1004ba03 f   LIBCMT:xtoa.obj
 0001:0004aa2d       ___security_init_cookie    1004ba2d f   LIBCMT:seccinit.obj
 0001:0004aa93       ___security_error_handler  1004ba93 f   LIBCMT:secfail.obj
 0001:0004abdb       __filbuf                   1004bbdb f   LIBCMT:_filbuf.obj
 0001:0004acbc       __ungetc_lk                1004bcbc f   LIBCMT:ungetc.obj
 0001:0004b010       __wsopen                   1004c010 f   LIBCMT:wopen.obj
 0001:0004b065       __fclose_lk                1004c065 f   LIBCMT:fclose.obj
 0001:0004b0b1       _fclose                    1004c0b1 f   LIBCMT:fclose.obj
 0001:0004b102       __commit                   1004c102 f   LIBCMT:commit.obj
 0001:0004b1be       ___addl                    1004c1be f   LIBCMT:mantold.obj
 0001:0004b1df       ___add_12                  1004c1df f   LIBCMT:mantold.obj
 0001:0004b23d       ___shl_12                  1004c23d f   LIBCMT:mantold.obj
 0001:0004b26b       ___shr_12                  1004c26b f   LIBCMT:mantold.obj
 0001:0004b298       ___mtold12                 1004c298 f   LIBCMT:mantold.obj
 0001:0004b376       ___strgtold12              1004c376 f   LIBCMT:strgtold.obj
 0001:0004b7aa       _$I10_OUTPUT               1004c7aa f   LIBCMT:x10fout.obj
 0001:0004ba38       __set_osfhnd               1004ca38 f   LIBCMT:osfinfo.obj
 0001:0004bab4       __free_osfhnd              1004cab4 f   LIBCMT:osfinfo.obj
 0001:0004bb33       __get_osfhandle            1004cb33 f   LIBCMT:osfinfo.obj
 0001:0004bb74       __lock_fhandle             1004cb74 f   LIBCMT:osfinfo.obj
 0001:0004bc14       __unlock_fhandle           1004cc14 f   LIBCMT:osfinfo.obj
 0001:0004bc36       __alloc_osfhnd             1004cc36 f   LIBCMT:osfinfo.obj
 0001:0004bdb2       __lseeki64_lk              1004cdb2 f   LIBCMT:lseeki64.obj
 0001:0004be35       __flswbuf                  1004ce35 f   LIBCMT:_flswbuf.obj
 0001:0004bf5d       ___wctomb_mt               1004cf5d f   LIBCMT:wctomb.obj
 0001:0004bfbd       _wctomb                    1004cfbd f   LIBCMT:wctomb.obj
 0001:0004bfe4       ___crtGetLocaleInfoW       1004cfe4 f   LIBCMT:w_loc.obj
 0001:0004c114       ___crtGetLocaleInfoA       1004d114 f   LIBCMT:a_loc.obj
 0001:0004c260       ___ascii_strnicmp          1004d260 f   LIBCMT:_strnicm.obj
 0001:0004c2c1       __read_lk                  1004d2c1 f   LIBCMT:read.obj
 0001:0004c49c       __read                     1004d49c f   LIBCMT:read.obj
 0001:0004c547       __close_lk                 1004d547 f   LIBCMT:close.obj
 0001:0004c5ca       __close                    1004d5ca f   LIBCMT:close.obj
 0001:0004c665       __chsize_lk                1004d665 f   LIBCMT:chsize.obj
 0001:0004c7a6       __freebuf                  1004d7a6 f   LIBCMT:_freebuf.obj
 0001:0004c7d1       ___ld12mul                 1004d7d1 f   LIBCMT:tenpow.obj
 0001:0004ca03       ___multtenpow12            1004da03 f   LIBCMT:tenpow.obj
 0001:0004ca89       __setmode_lk               1004da89 f   LIBCMT:setmode.obj
 0001:0004cb10       _strchr                    1004db10 f   LIBCMT:strchr.obj
 0001:0004cb16       ___from_strstr_to_strchr   1004db16     LIBCMT:strchr.obj
 0001:0004cbd0       __intel_fast_memcpy.A      1004dbd0 f   libirc:fastmemcpy.obj
 0001:0004cbe8       __intel_fast_memcpy        1004dbe8 f   libirc:fastmemcpy.obj
 0001:0004cc20       __intel_fast_memcpy.H      1004dc20 f   libirc:fastmemcpy.obj
 0001:0004cc20       __intel_fast_memcpy.J      1004dc20 f   libirc:fastmemcpy.obj
 0001:0004cc28       __intel_fast_memset.A      1004dc28 f   libirc:fastmemset.obj
 0001:0004cc40       __intel_fast_memset        1004dc40 f   libirc:fastmemset.obj
 0001:0004cc78       __intel_fast_memset.J      1004dc78 f   libirc:fastmemset.obj
 0001:0004cc78       __intel_fast_memset.H      1004dc78 f   libirc:fastmemset.obj
 0001:0004cc80       ___intel_cpu_indicator_init 1004dc80 f   libirc:cpu_disp.obj
 0001:0004cdf0       ___intel_new_memcpy        1004ddf0 f   libirc:fast_memcpy.obj
 0001:0004e070       ___intel_new_memset        1004f070 f   libirc:fast_memset.obj
 0001:0004eaf0       _init_mem_ops_method       1004faf0 f   libirc:fast_mem_ops.obj
 0001:0004ece8       _RtlUnwind@16              1004fce8 f   kernel32:KERNEL32.dll
 0001:0004ecf0       ??_ECIFXDeviceLight@@MAEPAXI@Z 1004fcf0 f i Rendering:CIFXDeviceLight.obj
 0001:0004ecf0       ??_GCIFXDeviceLight@@MAEPAXI@Z 1004fcf0 f i Rendering:CIFXDeviceLight.obj
 0001:0004ed14       ??1CIFXDeviceLight@@MAE@XZ 1004fd14 f   Rendering:CIFXDeviceLight.obj
 0001:0004ed54       ?AddRef@CIFXDeviceLight@@UAIIXZ 1004fd54 f   Rendering:CIFXDeviceLight.obj
 0001:0004ed5e       ?Release@CIFXDeviceLight@@UAIIXZ 1004fd5e f   Rendering:CIFXDeviceLight.obj
 0001:0004ed84       ?QueryInterface@CIFXDeviceLight@@UAIHABUIFXGUID@@PAPAX@Z 1004fd84 f   Rendering:CIFXDeviceLight.obj
 0001:0004ef4c       ?SetLight@CIFXDeviceLight@@UAIHAAVIFXRenderLight@@@Z 1004ff4c f   Rendering:CIFXDeviceLight.obj
 0001:0004f2d8       ?SetViewMatrix@CIFXDeviceLight@@SIXABVIFXMatrix4x4@@@Z 100502d8 f   Rendering:CIFXDeviceLight.obj
 0001:0004f358       ??0CIFXDeviceLight@@IAE@XZ 10050358 f   Rendering:CIFXDeviceLight.obj
 0001:0004f45e       ?SetHWType@CIFXDeviceLight@@MAIHI@Z 1005045e f   Rendering:CIFXDeviceLight.obj
 0001:0004f464       ?SetHWAmbient@CIFXDeviceLight@@MAIHABVIFXVector4@@@Z 10050464 f   Rendering:CIFXDeviceLight.obj
 0001:0004f47e       ?SetHWDiffuse@CIFXDeviceLight@@MAIHABVIFXVector4@@@Z 1005047e f   Rendering:CIFXDeviceLight.obj
 0001:0004f498       ?SetHWSpecular@CIFXDeviceLight@@MAIHABVIFXVector4@@@Z 10050498 f   Rendering:CIFXDeviceLight.obj
 0001:0004f4b2       ?SetHWIntensity@CIFXDeviceLight@@MAIHM@Z 100504b2 f   Rendering:CIFXDeviceLight.obj
 0001:0004f4be       ?SetHWAttenuation@CIFXDeviceLight@@MAIHABVIFXVector3@@@Z 100504be f   Rendering:CIFXDeviceLight.obj
 0001:0004f4d2       ?SetHWSpotDecay@CIFXDeviceLight@@MAIHH@Z 100504d2 f   Rendering:CIFXDeviceLight.obj
 0001:0004f4dc       ?SetHWSpotInnerAngle@CIFXDeviceLight@@MAIHM@Z 100504dc f   Rendering:CIFXDeviceLight.obj
 0001:0004f4ec       ?SetHWSpotOuterAngle@CIFXDeviceLight@@MAIHM@Z 100504ec f   Rendering:CIFXDeviceLight.obj
 0001:0004f4fc       ?SetHWRange@CIFXDeviceLight@@MAIHM@Z 100504fc f   Rendering:CIFXDeviceLight.obj
 0001:0004f50c       ?SetHWWorldMatrix@CIFXDeviceLight@@MAIHABVIFXMatrix4x4@@@Z 1005050c f   Rendering:CIFXDeviceLight.obj
 0001:0004f570       ?SetHWLight@CIFXDeviceLight@@MAIHXZ 10050570 f   Rendering:CIFXDeviceLight.obj
 0001:0004f574       ?Construct@CIFXDeviceLight@@IAIHXZ 10050574 f   Rendering:CIFXDeviceLight.obj
 0001:0004f646       ?SetDefaults@CIFXDeviceLight@@IAIHXZ 10050646 f   Rendering:CIFXDeviceLight.obj
 0001:0004f708       ?InitData@CIFXDeviceLight@@QAIXXZ 10050708 f   Rendering:CIFXDeviceLight.obj
 0001:0004f714       ??_GIFXRenderLight@@UAEPAXI@Z 10050714 f i Rendering:CIFXDeviceLight.obj
 0001:0004f714       ??_EIFXRenderLight@@UAEPAXI@Z 10050714 f i Rendering:CIFXDeviceLight.obj
 0001:0004f730       ?AddRef@CIFXDeviceLight@@$4PPPPPPPM@A@AIIXZ 10050730 f i Rendering:CIFXDeviceLight.obj
 0001:0004f73c       ?Release@CIFXDeviceLight@@$4PPPPPPPM@A@AIIXZ 1005073c f i Rendering:CIFXDeviceLight.obj
 0001:0004f748       ?QueryInterface@CIFXDeviceLight@@$4PPPPPPPM@A@AIHABUIFXGUID@@PAPAX@Z 10050748 f i Rendering:CIFXDeviceLight.obj
 0001:0004f754       ??_ECIFXDeviceLight@@OJI@AEPAXI@Z 10050754 f i Rendering:CIFXDeviceLight.obj
 0001:0004f760       ??_ECIFXDeviceTexture@@MAEPAXI@Z 10050760 f i Rendering:CIFXDeviceTexture.obj
 0001:0004f760       ??_GCIFXDeviceTexture@@MAEPAXI@Z 10050760 f i Rendering:CIFXDeviceTexture.obj
 0001:0004f784       ??1CIFXDeviceTexture@@MAE@XZ 10050784 f   Rendering:CIFXDeviceTexture.obj
 0001:0004f7a8       ?AddRef@CIFXDeviceTexture@@UAIIXZ 100507a8 f   Rendering:CIFXDeviceTexture.obj
 0001:0004f7b2       ?Release@CIFXDeviceTexture@@UAIIXZ 100507b2 f   Rendering:CIFXDeviceTexture.obj
 0001:0004f7ce       ?QueryInterface@CIFXDeviceTexture@@UAIHABUIFXGUID@@PAPAX@Z 100507ce f   Rendering:CIFXDeviceTexture.obj
 0001:0004f98e       ?SetTexture@CIFXDeviceTexture@@UAIHAAVIFXTextureObject@@@Z 1005098e f   Rendering:CIFXDeviceTexture.obj
 0001:00050250       ?GetMaxRenderMipLevel@CIFXDeviceTexture@@IBIIXZ 10051250 f   Rendering:CIFXDeviceTexture.obj
 0001:0005028c       ?GetCompatibleRenderFormat@CIFXDeviceTexture@@IAIII@Z 1005128c f   Rendering:CIFXDeviceTexture.obj
 0001:000503a0       ??0CIFXDeviceTexture@@IAE@XZ 100513a0 f   Rendering:CIFXDeviceTexture.obj
 0001:00050410       ?SetHWType@CIFXDeviceTexture@@MAIHI@Z 10051410 f   Rendering:CIFXDeviceTexture.obj
 0001:00050416       ?SetHWRenderFormat@CIFXDeviceTexture@@MAIHI@Z 10051416 f   Rendering:CIFXDeviceTexture.obj
 0001:0005041c       ?SetHWWidth@CIFXDeviceTexture@@MAIHI@Z 1005141c f   Rendering:CIFXDeviceTexture.obj
 0001:00050422       ?SetHWHeight@CIFXDeviceTexture@@MAIHI@Z 10051422 f   Rendering:CIFXDeviceTexture.obj
 0001:00050428       ?SetHWDepth@CIFXDeviceTexture@@MAIHI@Z 10051428 f   Rendering:CIFXDeviceTexture.obj
 0001:0005042e       ?SetHWMaxMipLevel@CIFXDeviceTexture@@MAIHI@Z 1005142e f   Rendering:CIFXDeviceTexture.obj
 0001:00050434       ?SetHWMinFilter@CIFXDeviceTexture@@MAIHI@Z 10051434 f   Rendering:CIFXDeviceTexture.obj
 0001:0005043a       ?SetHWMagFilter@CIFXDeviceTexture@@MAIHI@Z 1005143a f   Rendering:CIFXDeviceTexture.obj
 0001:00050440       ?SetHWMipMode@CIFXDeviceTexture@@MAIHI@Z 10051440 f   Rendering:CIFXDeviceTexture.obj
 0001:00050446       ?SetHWDynamic@CIFXDeviceTexture@@MAIHH@Z 10051446 f   Rendering:CIFXDeviceTexture.obj
 0001:0005044c       ?SetHWTexture@CIFXDeviceTexture@@MAIHXZ 1005144c f   Rendering:CIFXDeviceTexture.obj
 0001:00050450       ?Construct@CIFXDeviceTexture@@IAIHXZ 10051450 f   Rendering:CIFXDeviceTexture.obj
 0001:00050468       ?InitData@CIFXDeviceTexture@@IAIXXZ 10051468 f   Rendering:CIFXDeviceTexture.obj
 0001:000504a4       ?SetDefaults@CIFXDeviceTexture@@IAIHXZ 100514a4 f   Rendering:CIFXDeviceTexture.obj
 0001:00050538       ?AddRef@CIFXDeviceTexture@@$4PPPPPPPM@A@AIIXZ 10051538 f i Rendering:CIFXDeviceTexture.obj
 0001:00050544       ?Release@CIFXDeviceTexture@@$4PPPPPPPM@A@AIIXZ 10051544 f i Rendering:CIFXDeviceTexture.obj
 0001:00050550       ?QueryInterface@CIFXDeviceTexture@@$4PPPPPPPM@A@AIHABUIFXGUID@@PAPAX@Z 10051550 f i Rendering:CIFXDeviceTexture.obj
 0001:0005055c       ??1?$IFXAutoRelease@VIFXTextureImageTools@@@@QAE@XZ 1005155c f i Rendering:CIFXDeviceTexture.obj
 0001:00050578       ??_GCIFXRender@@MAEPAXI@Z  10051578 f i Rendering:CIFXRender.obj
 0001:00050578       ??_ECIFXRender@@MAEPAXI@Z  10051578 f i Rendering:CIFXRender.obj
 0001:000505b8       ??1CIFXRender@@MAE@XZ      100515b8 f   Rendering:CIFXRender.obj
 0001:00050778       ?AddRef@CIFXRender@@UAIIXZ 10051778 f   Rendering:CIFXRender.obj
 0001:00050788       ?Release@CIFXRender@@UAIIXZ 10051788 f   Rendering:CIFXRender.obj
 0001:000507ba       ?QueryInterface@CIFXRender@@UAIHABUIFXGUID@@PAPAX@Z 100517ba f   Rendering:CIFXRender.obj
 0001:00050996       ?GetCaps@CIFXRender@@UAIHAAVIFXRenderCaps@@@Z 10051996 f   Rendering:CIFXRender.obj
 0001:000509c0       ?GetPerformanceData@CIFXRender@@UAIHIAAI@Z 100519c0 f   Rendering:CIFXRender.obj
 0001:00050a14       ?ClearPerformanceData@CIFXRender@@UAIHXZ 10051a14 f   Rendering:CIFXRender.obj
 0001:00050a26       ?GetColorFormat@CIFXRender@@UAIIXZ 10051a26 f   Rendering:CIFXRender.obj
 0001:00050a2a       ?Enable@CIFXRender@@UAIHI@Z 10051a2a f   Rendering:CIFXRender.obj
 0001:00050bd6       ?Disable@CIFXRender@@UAIHI@Z 10051bd6 f   Rendering:CIFXRender.obj
 0001:00050d42       ?SetBlend@CIFXRender@@UAIHAAVIFXRenderBlend@@@Z 10051d42 f   Rendering:CIFXRender.obj
 0001:00050d5c       ?SetFog@CIFXRender@@UAIHAAVIFXRenderFog@@@Z 10051d5c f   Rendering:CIFXRender.obj
 0001:00050d76       ?SetLight@CIFXRender@@UAIHIAAVIFXRenderLight@@@Z 10051d76 f   Rendering:CIFXRender.obj
 0001:00050dbc       ?GetGlobalAmbient@CIFXRender@@UAIHAAVIFXVector4@@@Z 10051dbc f   Rendering:CIFXRender.obj
 0001:00050dea       ?SetGlobalAmbient@CIFXRender@@UAIHABVIFXVector4@@@Z 10051dea f   Rendering:CIFXRender.obj
 0001:00050e3e       ?SetMaterial@CIFXRender@@UAIHAAVIFXRenderMaterial@@@Z 10051e3e f   Rendering:CIFXRender.obj
 0001:00050e58       ?SetStencil@CIFXRender@@UAIHAAVIFXRenderStencil@@@Z 10051e58 f   Rendering:CIFXRender.obj
 0001:00050e72       ?SetTexture@CIFXRender@@UAIHAAVIFXTextureObject@@@Z 10051e72 f   Rendering:CIFXRender.obj
 0001:000510bc       ?SetTextureUnit@CIFXRender@@UAIHIAAVIFXRenderTexUnit@@@Z 100520bc f   Rendering:CIFXRender.obj
 0001:00051102       ?SetConstantColor@CIFXRender@@UAIHABVIFXVector4@@@Z 10052102 f   Rendering:CIFXRender.obj
 0001:0005115e       ?SetView@CIFXRender@@UAIHAAVIFXRenderView@@@Z 1005215e f   Rendering:CIFXRender.obj
 0001:00051178       ?SetWindow@CIFXRender@@UAIHAAVIFXRenderWindow@@@Z 10052178 f   Rendering:CIFXRender.obj
 0001:000512de       ?GetCompatibleAAMode@CIFXRender@@IAIIII@Z 100522de f   Rendering:CIFXRender.obj
 0001:000513d4       ?GetCompatibleDepthMode@CIFXRender@@IAIII@Z 100523d4 f   Rendering:CIFXRender.obj
 0001:00051432       ?GetWindow@CIFXRender@@UAIHAAVIFXRenderWindow@@@Z 10052432 f   Rendering:CIFXRender.obj
 0001:00051490       ?Clear@CIFXRender@@UAIHABVIFXRenderClear@@@Z 10052490 f   Rendering:CIFXRender.obj
 0001:000514d8       ?DrawMeshLines@CIFXRender@@UAIHAAVIFXMesh@@@Z 100524d8 f   Rendering:CIFXRender.obj
 0001:0005158e       ?DrawMeshPoints@CIFXRender@@UAIHAAVIFXMesh@@@Z 1005258e f   Rendering:CIFXRender.obj
 0001:00051644       ?DrawMesh@CIFXRender@@UAIHAAVIFXMesh@@@Z 10052644 f   Rendering:CIFXRender.obj
 0001:0005171c       ?DeleteTexture@CIFXRender@@UAIHI@Z 1005271c f   Rendering:CIFXRender.obj
 0001:0005173a       ?SetWorldMatrix@CIFXRender@@UAIHABVIFXMatrix4x4@@@Z 1005273a f   Rendering:CIFXRender.obj
 0001:000517ea       ?SetViewMatrix@CIFXRender@@UAIHABVIFXMatrix4x4@@@Z 100527ea f   Rendering:CIFXRender.obj
 0001:0005189a       ?GetViewMatrix@CIFXRender@@UAIABVIFXMatrix4x4@@XZ 1005289a f   Rendering:CIFXRender.obj
 0001:000518a6       ?SetDepthMode@CIFXRender@@UAIHI@Z 100528a6 f   Rendering:CIFXRender.obj
 0001:000518c4       ?SetCullMode@CIFXRender@@UAIHI@Z 100528c4 f   Rendering:CIFXRender.obj
 0001:000518f2       ?SetLineOffset@CIFXRender@@UAIHI@Z 100528f2 f   Rendering:CIFXRender.obj
 0001:0005190c       ?GetTransformMatrix@CIFXRender@@UAIHAAVIFXMatrix4x4@@@Z 1005290c f   Rendering:CIFXRender.obj
 0001:00051922       ?MakeCurrent@CIFXRender@@UAIHXZ 10052922 f   Rendering:CIFXRender.obj
 0001:00051a2e       ?GetEnabled@CIFXRender@@UAIHIAAH@Z 10052a2e f   Rendering:CIFXRender.obj
 0001:00051b46       ??0CIFXRender@@IAE@XZ      10052b46 f   Rendering:CIFXRender.obj
 0001:00051d3a       ?Construct@CIFXRender@@IAIHXZ 10052d3a f   Rendering:CIFXRender.obj
 0001:00051d42       ?SetVSyncEnabled@CIFXRender@@MAIHH@Z 10052d42 f   Rendering:CIFXRender.obj
 0001:00051d4c       ?SetHWAntiAliasingMode@CIFXRender@@MAIHI@Z 10052d4c f   Rendering:CIFXRender.obj
 0001:00051d52       ?SetHWDTS@CIFXRender@@MAIHH@Z 10052d52 f   Rendering:CIFXRender.obj
 0001:00051d5e       ?SetHWDepthStencilFormat@CIFXRender@@MAIHI@Z 10052d5e f   Rendering:CIFXRender.obj
 0001:00051d64       ?SetHWTransparent@CIFXRender@@MAIHH@Z 10052d64 f   Rendering:CIFXRender.obj
 0001:00051d70       ?SetHWWindowSize@CIFXRender@@MAIHABV?$IFXRectT@H@@@Z 10052d70 f   Rendering:CIFXRender.obj
 0001:00051d7c       ?SetHWDeviceNum@CIFXRender@@MAIHI@Z 10052d7c f   Rendering:CIFXRender.obj
 0001:00051d86       ?SetHWWindowPtr@CIFXRender@@MAIHPAX@Z 10052d86 f   Rendering:CIFXRender.obj
 0001:00051d92       ?CalcVisibleWindow@CIFXRender@@IAIXXZ 10052d92 f   Rendering:CIFXRender.obj
 0001:00051e10       ?SizeBackBuffer@CIFXRender@@IAIHABV?$IFXRectT@H@@@Z 10052e10 f   Rendering:CIFXRender.obj
 0001:00051f0e       ?CopyImageData@CIFXRender@@IAIHPAE0IIIIIH@Z 10052f0e f   Rendering:CIFXRender.obj
 0001:00051fcc       ?InitData@CIFXRender@@IAIXXZ 10052fcc f   Rendering:CIFXRender.obj
 0001:0005210c       ?Initialize@CIFXRender@@UAIHI@Z 1005310c f   Rendering:CIFXRender.obj
 0001:00052400       ??1?$IFXSmartPtr@VCIFXRenderDevice@@@@UAE@XZ 10053400 f i Rendering:CIFXRender.obj
 0001:00052470       ??_G?$IFXSmartPtr@VCIFXRenderDevice@@@@UAEPAXI@Z 10053470 f i Rendering:CIFXRender.obj
 0001:00052470       ??_E?$IFXSmartPtr@VCIFXRenderDevice@@@@UAEPAXI@Z 10053470 f i Rendering:CIFXRender.obj
 0001:000524fc       ??_G?$IFXSmartPtr@VIFXUnknown@@@@UAEPAXI@Z 100534fc f i Rendering:CIFXRender.obj
 0001:000524fc       ??_E?$IFXSmartPtr@VIFXUnknown@@@@UAEPAXI@Z 100534fc f i Rendering:CIFXRender.obj
 0001:00052578       ??_E?$IFXSmartPtr@VCIFXDeviceTexture@@@@UAEPAXI@Z 10053578 f i Rendering:CIFXRender.obj
 0001:00052578       ??_G?$IFXSmartPtr@VCIFXDeviceTexture@@@@UAEPAXI@Z 10053578 f i Rendering:CIFXRender.obj
 0001:00052604       ?ReCastTo@?$IFXSmartPtr@VIFXUnknown@@@@UBIHABUIFXGUID@@AAPAX@Z 10053604 f i Rendering:CIFXRender.obj
 0001:00052620       ?AddRef@CIFXRender@@$4PPPPPPPM@A@AIIXZ 10053620 f i Rendering:CIFXRender.obj
 0001:0005262c       ?Release@CIFXRender@@$4PPPPPPPM@A@AIIXZ 1005362c f i Rendering:CIFXRender.obj
 0001:00052638       ?QueryInterface@CIFXRender@@$4PPPPPPPM@A@AIHABUIFXGUID@@PAPAX@Z 10053638 f i Rendering:CIFXRender.obj
 0001:00052644       ?GetCaps@CIFXRender@@$4PPPPPPPM@A@AIHAAVIFXRenderCaps@@@Z 10053644 f i Rendering:CIFXRender.obj
 0001:00052650       ?GetPerformanceData@CIFXRender@@$4PPPPPPPM@A@AIHIAAI@Z 10053650 f i Rendering:CIFXRender.obj
 0001:0005265c       ?ClearPerformanceData@CIFXRender@@$4PPPPPPPM@A@AIHXZ 1005365c f i Rendering:CIFXRender.obj
 0001:00052668       ?GetRenderServices@CIFXRender@@$4PPPPPPPM@A@AIHAAPAVIFXRenderServices@@@Z 10053668 f i Rendering:CIFXRender.obj
 0001:00052674       ?GetColorFormat@CIFXRender@@$4PPPPPPPM@A@AIIXZ 10053674 f i Rendering:CIFXRender.obj
 0001:00052680       ?Enable@CIFXRender@@$4PPPPPPPM@A@AIHI@Z 10053680 f i Rendering:CIFXRender.obj
 0001:0005268c       ?Disable@CIFXRender@@$4PPPPPPPM@A@AIHI@Z 1005368c f i Rendering:CIFXRender.obj
 0001:00052698       ?SetBlend@CIFXRender@@$4PPPPPPPM@A@AIHAAVIFXRenderBlend@@@Z 10053698 f i Rendering:CIFXRender.obj
 0001:000526a4       ?SetFog@CIFXRender@@$4PPPPPPPM@A@AIHAAVIFXRenderFog@@@Z 100536a4 f i Rendering:CIFXRender.obj
 0001:000526b0       ?SetLight@CIFXRender@@$4PPPPPPPM@A@AIHIAAVIFXRenderLight@@@Z 100536b0 f i Rendering:CIFXRender.obj
 0001:000526bc       ?GetGlobalAmbient@CIFXRender@@$4PPPPPPPM@A@AIHAAVIFXVector4@@@Z 100536bc f i Rendering:CIFXRender.obj
 0001:000526c8       ?SetGlobalAmbient@CIFXRender@@$4PPPPPPPM@A@AIHABVIFXVector4@@@Z 100536c8 f i Rendering:CIFXRender.obj
 0001:000526d4       ?SetMaterial@CIFXRender@@$4PPPPPPPM@A@AIHAAVIFXRenderMaterial@@@Z 100536d4 f i Rendering:CIFXRender.obj
 0001:000526e0       ?SetStencil@CIFXRender@@$4PPPPPPPM@A@AIHAAVIFXRenderStencil@@@Z 100536e0 f i Rendering:CIFXRender.obj
 0001:000526ec       ?SetTexture@CIFXRender@@$4PPPPPPPM@A@AIHAAVIFXTextureObject@@@Z 100536ec f i Rendering:CIFXRender.obj
 0001:000526f8       ??1?$IFXSmartPtr@VIFXUnknown@@@@UAE@XZ 100536f8 f i Rendering:CIFXRender.obj
 0001:00052758       ??1?$IFXSmartPtr@VCIFXDeviceTexture@@@@UAE@XZ 10053758 f i Rendering:CIFXRender.obj
 0001:000527c8       ?SetTextureUnit@CIFXRender@@$4PPPPPPPM@A@AIHIAAVIFXRenderTexUnit@@@Z 100537c8 f i Rendering:CIFXRender.obj
 0001:000527d4       ?SetConstantColor@CIFXRender@@$4PPPPPPPM@A@AIHABVIFXVector4@@@Z 100537d4 f i Rendering:CIFXRender.obj
 0001:000527e0       ?SetView@CIFXRender@@$4PPPPPPPM@A@AIHAAVIFXRenderView@@@Z 100537e0 f i Rendering:CIFXRender.obj
 0001:000527ec       ?SetWindow@CIFXRender@@$4PPPPPPPM@A@AIHAAVIFXRenderWindow@@@Z 100537ec f i Rendering:CIFXRender.obj
 0001:000527f8       ?GetWindow@CIFXRender@@$4PPPPPPPM@A@AIHAAVIFXRenderWindow@@@Z 100537f8 f i Rendering:CIFXRender.obj
 0001:00052804       ?GetNumDevices@CIFXRender@@$4PPPPPPPM@A@AIHAAVIFXRenderWindow@@AAI@Z 10053804 f i Rendering:CIFXRender.obj
 0001:00052810       ?Clear@CIFXRender@@$4PPPPPPPM@A@AIHABVIFXRenderClear@@@Z 10053810 f i Rendering:CIFXRender.obj
 0001:0005281c       ?DrawMeshLines@CIFXRender@@$4PPPPPPPM@A@AIHAAVIFXMesh@@@Z 1005381c f i Rendering:CIFXRender.obj
 0001:00052828       ?DrawMeshPoints@CIFXRender@@$4PPPPPPPM@A@AIHAAVIFXMesh@@@Z 10053828 f i Rendering:CIFXRender.obj
 0001:00052834       ?DrawMesh@CIFXRender@@$4PPPPPPPM@A@AIHAAVIFXMesh@@@Z 10053834 f i Rendering:CIFXRender.obj
 0001:00052840       ?DeleteTexture@CIFXRender@@$4PPPPPPPM@A@AIHI@Z 10053840 f i Rendering:CIFXRender.obj
 0001:0005284c       ?SetWorldMatrix@CIFXRender@@$4PPPPPPPM@A@AIHABVIFXMatrix4x4@@@Z 1005384c f i Rendering:CIFXRender.obj
 0001:00052858       ?SetViewMatrix@CIFXRender@@$4PPPPPPPM@A@AIHABVIFXMatrix4x4@@@Z 10053858 f i Rendering:CIFXRender.obj
 0001:00052864       ?GetViewMatrix@CIFXRender@@$4PPPPPPPM@A@AIABVIFXMatrix4x4@@XZ 10053864 f i Rendering:CIFXRender.obj
 0001:00052870       ?SetDepthMode@CIFXRender@@$4PPPPPPPM@A@AIHI@Z 10053870 f i Rendering:CIFXRender.obj
 0001:0005287c       ?SetCullMode@CIFXRender@@$4PPPPPPPM@A@AIHI@Z 1005387c f i Rendering:CIFXRender.obj
 0001:00052888       ?SetLineOffset@CIFXRender@@$4PPPPPPPM@A@AIHI@Z 10053888 f i Rendering:CIFXRender.obj
 0001:00052894       ?GetTransformMatrix@CIFXRender@@$4PPPPPPPM@A@AIHAAVIFXMatrix4x4@@@Z 10053894 f i Rendering:CIFXRender.obj
 0001:000528a0       ?GetCaps@CIFXRenderDevice@@$4PPPPPPPM@A@BIHAAVIFXRenderCaps@@@Z 100538a0 f i Rendering:CIFXRenderDevice.obj
 0001:000528a0       ?GetFrustumPlaneNormals@CIFXRenderOGL@@$4PPPPPPPM@A@AIHPAVIFXVector3@@@Z 100538a0 f i IFXRenderingOpenGL:CIFXRenderOGL.obj
 0001:000528a0       ?GetView@CIFXRender@@$4PPPPPPPM@A@BIABVIFXRenderView@@XZ 100538a0 f i Rendering:CIFXRender.obj
 0001:000528a0       ?GetFrustumPlaneNormals@CIFXRenderDX7@@$4PPPPPPPM@A@AIHPAVIFXVector3@@@Z 100538a0 f i IFXRenderingDX7:CIFXRenderDX7.obj
 0001:000528a0       ?GetFrustumPlaneNormals@CIFXRenderNULL@@$4PPPPPPPM@A@AIHPAVIFXVector3@@@Z 100538a0 f i IFXRenderingNULL:CIFXRenderNULL.obj
 0001:000528a0       ?GetRenderer@CIFXRender@@$4PPPPPPPM@A@AIIXZ 100538a0 f i Rendering:CIFXRender.obj
 0001:000528a0       ?CalculateNumPasses@CIFXRender@@$4PPPPPPPM@A@AIIXZ 100538a0 f i Rendering:CIFXRender.obj
 0001:000528a0       ?SetDevice@CIFXRender@@$4PPPPPPPM@A@AIHI@Z 100538a0 f i Rendering:CIFXRender.obj
 0001:000528a0       ?ConfigureRenderPass@CIFXRender@@$4PPPPPPPM@A@AIHI@Z 100538a0 f i Rendering:CIFXRender.obj
 0001:000528a0       ?SetRenderer@CIFXRender@@$4PPPPPPPM@A@AIHI@Z 100538a0 f i Rendering:CIFXRender.obj
 0001:000528a0       ?GetFrustumPlaneNormals@CIFXRenderDX8@@$4PPPPPPPM@A@AIHPAVIFXVector3@@@Z 100538a0 f i IFXRenderingDX8:CIFXRenderDX8.obj
 0001:000528ac       ?Reset@CIFXRender@@$4PPPPPPPM@A@AIXXZ 100538ac f i Rendering:CIFXRender.obj
 0001:000528b8       ??_ECIFXRender@@$2PPPPPPPM@A@AEPAXI@Z 100538b8 f i Rendering:CIFXRender.obj
 0001:000528c4       ?MakeCurrent@CIFXRender@@$4PPPPPPPM@A@AIHXZ 100538c4 f i Rendering:CIFXRender.obj
 0001:000528d0       ?Initialize@CIFXRender@@$4PPPPPPPM@A@AIHI@Z 100538d0 f i Rendering:CIFXRender.obj
 0001:000528dc       ?Initialize@CIFXRender@@$4PPPPPPPM@A@AIHXZ 100538dc f i Rendering:CIFXRender.obj
 0001:000528e8       ?IFXAAFilterImage@@YAHPAE0IIIII@Z 100538e8 f   Rendering:IFXAAFilter.obj
 0001:00052b8c       ?IncorporateSphere@IFXVector4@@QAEXABV1@@Z 10053b8c f   Rendering:IFXVector4.obj
 0001:00052d8e       ?IncorporateSphere@IFXVector4@@QAEXPBV1@@Z 10053d8e f   Rendering:IFXVector4.obj
 0001:00052f90       ?Out@IFXVector4@@QBE?AVIFXString@@H@Z 10053f90 f   Rendering:IFXVector4.obj
 0001:00053170       _sprintf                   10054170 f   LIBCMT:sprintf.obj
 0002:00000000       __VInfreq_??1CIFXRenderDevice@@MAE@XZ 10055000     Rendering:CIFXRenderDevice.obj
 0002:000000ea       __VInfreq_??0CIFXRenderDevice@@IAE@XZ 100550ea     Rendering:CIFXRenderDevice.obj
 0002:00000258       __VInfreq_??1CIFXRenderContext@@MAE@XZ 10055258     Rendering:CIFXRenderContext.obj
 0002:0000034a       __VInfreq_?CIFXRenderContextFactory@@YIHABUIFXGUID@@PAPAX@Z 1005534a     Rendering:CIFXRenderContext.obj
 0002:0000036c       __VInfreq_??0CIFXRenderContext@@IAE@XZ 1005536c     Rendering:CIFXRenderContext.obj
 0002:0000044a       __VInfreq_?Construct@CIFXRenderContext@@IAIHXZ 1005544a     Rendering:CIFXRenderContext.obj
 0002:000004f4       __VInfreq_?CIFXRenderServicesFactory@@YIHABUIFXGUID@@PAPAX@Z 100554f4     Rendering:CIFXRenderServices.obj
 0002:00000516       __VInfreq_?GetNumDevices@CIFXRenderServices@@UAIIXZ 10055516     Rendering:CIFXRenderServices.obj
 0002:00000568       __VInfreq_?RegisterRenderContext@CIFXRenderServices@@QAIHPAVIFXRenderContext@@@Z 10055568     Rendering:CIFXRenderServices.obj
 0002:0000058a       __VInfreq_?RegisterRenderer@CIFXRenderServices@@UAIHIABUIFXGUID@@0@Z 1005558a     Rendering:CIFXRenderServices.obj
 0002:0000062c       __VInfreq_??1CIFXDeviceLightNULL@@UAE@XZ 1005562c     IFXRenderingNULL:CIFXDeviceLightNULL.obj
 0002:00000646       __VInfreq_?CIFXDeviceLightNULLFactory@@YIHABUIFXGUID@@PAPAX@Z 10055646     IFXRenderingNULL:CIFXDeviceLightNULL.obj
 0002:00000668       __VInfreq_??1CIFXDeviceTextureNULL@@MAE@XZ 10055668     IFXRenderingNULL:CIFXDeviceTextureNULL.obj
 0002:00000682       __VInfreq_?CIFXDeviceTextureNULLFactory@@YIHABUIFXGUID@@PAPAX@Z 10055682     IFXRenderingNULL:CIFXDeviceTextureNULL.obj
 0002:000006a4       __VInfreq_?CIFXDeviceTexUnitNULLFactory@@YIHABUIFXGUID@@PAPAX@Z 100556a4     IFXRenderingNULL:CIFXDeviceTexUnitNULL.obj
 0002:000006c8       __VInfreq_??1CIFXRenderNULL@@MAE@XZ 100556c8     IFXRenderingNULL:CIFXRenderNULL.obj
 0002:0000077c       __VInfreq_?CIFXRenderNULLFactory@@YIHABUIFXGUID@@PAPAX@Z 1005577c     IFXRenderingNULL:CIFXRenderNULL.obj
 0002:0000079e       __VInfreq_??0CIFXRenderNULL@@IAE@XZ 1005579e     IFXRenderingNULL:CIFXRenderNULL.obj
 0002:00000828       __VInfreq_?CreateTexture@CIFXRenderNULL@@MAIHAAV?$IFXSmartPtr@VCIFXDeviceTexture@@@@@Z 10055828     IFXRenderingNULL:CIFXRenderNULL.obj
 0002:00000930       __VInfreq_??1CIFXRenderDeviceNULL@@MAE@XZ 10055930     IFXRenderingNULL:CIFXRenderDeviceNULL.obj
 0002:000009aa       __VInfreq_?CIFXRenderDeviceNULLFactory@@YIHABUIFXGUID@@PAPAX@Z 100559aa     IFXRenderingNULL:CIFXRenderDeviceNULL.obj
 0002:00000a28       __VInfreq_?RegisterWindow@CIFXRenderDeviceNULL@@QAIHPAVCIFXRenderNULL@@@Z 10055a28     IFXRenderingNULL:CIFXRenderDeviceNULL.obj
 0002:00000a4a       __VInfreq_??0CIFXRenderDeviceNULL@@IAE@XZ 10055a4a     IFXRenderingNULL:CIFXRenderDeviceNULL.obj
 0002:00000ab0       __VInfreq_?Initialize@CIFXRenderDeviceNULL@@UAIHI@Z 10055ab0     IFXRenderingNULL:CIFXRenderDeviceNULL.obj
 0002:00000ad8       __VInfreq_?CIFXOpenGLOSFactory@@YIHABUIFXGUID@@PAPAX@Z 10055ad8     IFXRenderingOpenGL:CIFXOpenGLOS.obj
 0002:00000afc       __VInfreq_??1CIFXDeviceLightOGL@@UAE@XZ 10055afc     IFXRenderingOpenGL:CIFXDeviceLightOGL.obj
 0002:00000b16       __VInfreq_?CIFXDeviceLightOGLFactory@@YIHABUIFXGUID@@PAPAX@Z 10055b16     IFXRenderingOpenGL:CIFXDeviceLightOGL.obj
 0002:00000b38       __VInfreq_??1CIFXDeviceTextureOGL@@MAE@XZ 10055b38     IFXRenderingOpenGL:CIFXDeviceTextureOGL.obj
 0002:00000b72       __VInfreq_?CIFXDeviceTextureOGLFactory@@YIHABUIFXGUID@@PAPAX@Z 10055b72     IFXRenderingOpenGL:CIFXDeviceTextureOGL.obj
 0002:00000bcc       __VInfreq_??1CIFXDeviceTexUnitOGL@@MAE@XZ 10055bcc     IFXRenderingOpenGL:CIFXDeviceTexUnitOGL.obj
 0002:00000be6       __VInfreq_?CIFXDeviceTexUnitOGLFactory@@YIHABUIFXGUID@@PAPAX@Z 10055be6     IFXRenderingOpenGL:CIFXDeviceTexUnitOGL.obj
 0002:00000c08       __VInfreq_??1CIFXRenderOGL@@MAE@XZ 10055c08     IFXRenderingOpenGL:CIFXRenderOGL.obj
 0002:00000ce0       __VInfreq_?CIFXRenderOGLFactory@@YIHABUIFXGUID@@PAPAX@Z 10055ce0     IFXRenderingOpenGL:CIFXRenderOGL.obj
 0002:00000d02       __VInfreq_??0CIFXRenderOGL@@IAE@XZ 10055d02     IFXRenderingOpenGL:CIFXRenderOGL.obj
 0002:00000da0       __VInfreq_?CreateTexture@CIFXRenderOGL@@MAIHAAV?$IFXSmartPtr@VCIFXDeviceTexture@@@@@Z 10055da0     IFXRenderingOpenGL:CIFXRenderOGL.obj
 0002:00000e8c       __VInfreq_??1CIFXRenderDeviceOGL@@MAE@XZ 10055e8c     IFXRenderingOpenGL:CIFXRenderDeviceOGL.obj
 0002:00000f2a       __VInfreq_?CIFXRenderDeviceOGLFactory@@YIHABUIFXGUID@@PAPAX@Z 10055f2a     IFXRenderingOpenGL:CIFXRenderDeviceOGL.obj
 0002:00000f4c       __VInfreq_??0CIFXRenderDeviceOGL@@IAE@XZ 10055f4c     IFXRenderingOpenGL:CIFXRenderDeviceOGL.obj
 0002:00000fc8       __VInfreq_?Initialize@CIFXRenderDeviceOGL@@UAIHI@Z 10055fc8     IFXRenderingOpenGL:CIFXRenderDeviceOGL.obj
 0002:00001014       __VInfreq_@IFXOSGetCoreLibraryPath@4 10056014     IFXRenderingOpenGL:IFXOSLoader.obj
 0002:0000103c       __VInfreq_?GetSupported@CIFXRenderDeviceOGL@@UAIHIAAH@Z 1005603c     IFXRenderingOpenGL:CIFXRenderOGLOS.obj
 0002:00001064       __VInfreq_?InitializeOS@CIFXRenderOGL@@IAIHXZ 10056064     IFXRenderingOpenGL:CIFXRenderOGLOS.obj
 0002:000010c4       __VInfreq_??1CIFXDeviceLightDX7@@UAE@XZ 100560c4     IFXRenderingDX7:CIFXDeviceLightDX7.obj
 0002:000010de       __VInfreq_?CIFXDeviceLightDX7Factory@@YIHABUIFXGUID@@PAPAX@Z 100560de     IFXRenderingDX7:CIFXDeviceLightDX7.obj
 0002:00001100       __VInfreq_??1CIFXDeviceTextureDX7@@MAE@XZ 10056100     IFXRenderingDX7:CIFXDeviceTextureDX7.obj
 0002:0000111a       __VInfreq_?CIFXDeviceTextureDX7Factory@@YIHABUIFXGUID@@PAPAX@Z 1005611a     IFXRenderingDX7:CIFXDeviceTextureDX7.obj
 0002:0000113c       __VInfreq_?CIFXDeviceTexUnitDX7Factory@@YIHABUIFXGUID@@PAPAX@Z 1005613c     IFXRenderingDX7:CIFXDeviceTexUnitDX7.obj
 0002:00001160       __VInfreq_??1CIFXDirectX7@@MAE@XZ 10056160     IFXRenderingDX7:CIFXDirectX7.obj
 0002:0000117c       __VInfreq_?CIFXDirectX7Factory@@YIHABUIFXGUID@@PAPAX@Z 1005617c     IFXRenderingDX7:CIFXDirectX7.obj
 0002:000011a0       __VInfreq_??1CIFXRenderDX7@@MAE@XZ 100561a0     IFXRenderingDX7:CIFXRenderDX7.obj
 0002:00001254       __VInfreq_?CIFXRenderDX7Factory@@YIHABUIFXGUID@@PAPAX@Z 10056254     IFXRenderingDX7:CIFXRenderDX7.obj
 0002:00001276       __VInfreq_??0CIFXRenderDX7@@IAE@XZ 10056276     IFXRenderingDX7:CIFXRenderDX7.obj
 0002:00001300       __VInfreq_?CreateTexture@CIFXRenderDX7@@MAIHAAV?$IFXSmartPtr@VCIFXDeviceTexture@@@@@Z 10056300     IFXRenderingDX7:CIFXRenderDX7.obj
 0002:00001408       __VInfreq_??1CIFXRenderDeviceDX7@@MAE@XZ 10056408     IFXRenderingDX7:CIFXRenderDeviceDX7.obj
 0002:000014ee       __VInfreq_?CIFXRenderDeviceDX7Factory@@YIHABUIFXGUID@@PAPAX@Z 100564ee     IFXRenderingDX7:CIFXRenderDeviceDX7.obj
 0002:00001510       __VInfreq_??0CIFXRenderDeviceDX7@@IAE@XZ 10056510     IFXRenderingDX7:CIFXRenderDeviceDX7.obj
 0002:00001576       __VInfreq_?GetVertexBuffer@CIFXRenderDeviceDX7@@IAIHKIAAPAUIFXDX7VB@@@Z 10056576     IFXRenderingDX7:CIFXRenderDeviceDX7.obj
 0002:00001598       __VInfreq_?RegisterWindow@CIFXRenderDeviceDX7@@QAIHPAVCIFXRenderDX7@@@Z 10056598     IFXRenderingDX7:CIFXRenderDeviceDX7.obj
 0002:000015ba       __VInfreq_?GetStaticVertexBuffer@CIFXRenderDeviceDX7@@IAIHKIIIAAPAUIFXDX7StaticVB@@@Z 100565ba     IFXRenderingDX7:CIFXRenderDeviceDX7.obj
 0002:000015dc       __VInfreq_?Initialize@CIFXRenderDeviceDX7@@UAIHI@Z 100565dc     IFXRenderingDX7:CIFXRenderDeviceDX7.obj
 0002:0000163c       __VInfreq_??1CIFXDeviceLightDX8@@UAE@XZ 1005663c     IFXRenderingDX8:CIFXDeviceLightDX8.obj
 0002:00001656       __VInfreq_?CIFXDeviceLightDX8Factory@@YIHABUIFXGUID@@PAPAX@Z 10056656     IFXRenderingDX8:CIFXDeviceLightDX8.obj
 0002:00001678       __VInfreq_??1CIFXDeviceTextureDX8@@MAE@XZ 10056678     IFXRenderingDX8:CIFXDeviceTextureDX8.obj
 0002:00001692       __VInfreq_?CIFXDeviceTextureDX8Factory@@YIHABUIFXGUID@@PAPAX@Z 10056692     IFXRenderingDX8:CIFXDeviceTextureDX8.obj
 0002:000016b4       __VInfreq_?CIFXDeviceTexUnitDX8Factory@@YIHABUIFXGUID@@PAPAX@Z 100566b4     IFXRenderingDX8:CIFXDeviceTexUnitDX8.obj
 0002:000016d8       __VInfreq_??1CIFXDirectX8@@MAE@XZ 100566d8     IFXRenderingDX8:CIFXDirectX8.obj
 0002:000016f4       __VInfreq_?CIFXDirectX8Factory@@YIHABUIFXGUID@@PAPAX@Z 100566f4     IFXRenderingDX8:CIFXDirectX8.obj
 0002:00001718       __VInfreq_??1CIFXRenderDX8@@MAE@XZ 10056718     IFXRenderingDX8:CIFXRenderDX8.obj
 0002:000017cc       __VInfreq_?CIFXRenderDX8Factory@@YIHABUIFXGUID@@PAPAX@Z 100567cc     IFXRenderingDX8:CIFXRenderDX8.obj
 0002:000017ee       __VInfreq_??0CIFXRenderDX8@@IAE@XZ 100567ee     IFXRenderingDX8:CIFXRenderDX8.obj
 0002:00001878       __VInfreq_?CreateTexture@CIFXRenderDX8@@MAIHAAV?$IFXSmartPtr@VCIFXDeviceTexture@@@@@Z 10056878     IFXRenderingDX8:CIFXRenderDX8.obj
 0002:000018a0       __VInfreq_?SetHWAntiAliasingMode@CIFXRenderDX8@@MAIHI@Z 100568a0     IFXRenderingDX8:CIFXRenderDX8.obj
 0002:0000198c       __VInfreq_??1CIFXRenderDeviceDX8@@MAE@XZ 1005698c     IFXRenderingDX8:CIFXRenderDeviceDX8.obj
 0002:00001a72       __VInfreq_?CIFXRenderDeviceDX8Factory@@YIHABUIFXGUID@@PAPAX@Z 10056a72     IFXRenderingDX8:CIFXRenderDeviceDX8.obj
 0002:00001a94       __VInfreq_??0CIFXRenderDeviceDX8@@IAE@XZ 10056a94     IFXRenderingDX8:CIFXRenderDeviceDX8.obj
 0002:00001b3a       __VInfreq_?GetVertexBuffer@CIFXRenderDeviceDX8@@IAIHKIAAPAUIFXDX8VB@@@Z 10056b3a     IFXRenderingDX8:CIFXRenderDeviceDX8.obj
 0002:00001b5c       __VInfreq_?RegisterWindow@CIFXRenderDeviceDX8@@QAIHPAVCIFXRenderDX8@@@Z 10056b5c     IFXRenderingDX8:CIFXRenderDeviceDX8.obj
 0002:00001b7e       __VInfreq_?GetStaticVertexBuffer@CIFXRenderDeviceDX8@@IAIHKIIIAAPAUIFXDX8StaticVB@@@Z 10056b7e     IFXRenderingDX8:CIFXRenderDeviceDX8.obj
 0002:00001ba0       __VInfreq_?Initialize@CIFXRenderDeviceDX8@@UAIHI@Z 10056ba0     IFXRenderingDX8:CIFXRenderDeviceDX8.obj
 0002:00001c00       __VInfreq_?CIFXOctreeCollection_Factory@@YIHABUIFXGUID@@PAPAX@Z 10056c00     Culling:CIFXOctreeCollection.obj
 0002:00001c22       __VInfreq_?AddSpatials@CIFXOctreeCollection@@UAIHPAPAVIFXSpatial@@IW5eType@2@@Z 10056c22     Culling:CIFXOctreeCollection.obj
 0002:00001c44       __VInfreq_?InsertRecursivelyIntoBestFitOctreeNode@CIFXOctreeCollection@@IAEIPAVCOctreeNode@@PAVIFXSpatial@@I@Z 10056c44     Culling:CIFXOctreeCollection.obj
 0002:00001c82       __VInfreq_?RemoveSpatials@CIFXOctreeCollection@@UAIHPAPAVIFXSpatial@@IW5eType@2@@Z 10056c82     Culling:CIFXOctreeCollection.obj
 0002:00001c9c       __VInfreq_?InCorporateSpatialBound@CIFXOctreeCollection@@IAEHPAPAVIFXSpatial@@IAAVIFXVector4@@@Z 10056c9c     Culling:CIFXOctreeCollection.obj
 0002:00001cb6       __VInfreq_?Initialize@CIFXOctreeCollection@@QAEHVIFXVector4@@MI@Z 10056cb6     Culling:CIFXOctreeCollection.obj
 0002:00001d38       __VInfreq_?CIFXSceneGraphCuller_Factory@@YIHABUIFXGUID@@PAPAX@Z 10056d38     Culling:CIFXScenegraphCuller.obj
 0002:00001d5a       __VInfreq_?QueryForSpatialSet@CIFXSceneGraphCuller@@UAIHPBVIFXFrustum@@AAPAV?$CArrayList@UIFXSpatialInstance@@@@1AAM2@Z 10056d5a     Culling:CIFXScenegraphCuller.obj
 0002:00001de4       __VInfreq_?CIFXOctreeCuller_Factory@@YIHABUIFXGUID@@PAPAX@Z 10056de4     Culling:CIFXOctreeCuller.obj
 0002:00001e06       __VInfreq_?Initialize@CIFXOctreeCuller@@QAEXXZ 10056e06     Culling:CIFXOctreeCuller.obj
 0002:00001e70       __VInfreq_?SetTexture@CIFXDeviceTexture@@UAIHAAVIFXTextureObject@@@Z 10056e70     Rendering:CIFXDeviceTexture.obj
 0002:00001ef8       __VInfreq_??1CIFXRender@@MAE@XZ 10056ef8     Rendering:CIFXRender.obj
 0002:00001fc6       __VInfreq_?SetTexture@CIFXRender@@UAIHAAVIFXTextureObject@@@Z 10056fc6     Rendering:CIFXRender.obj
 0002:0000200c       __VInfreq_??0CIFXRender@@IAE@XZ 1005700c     Rendering:CIFXRender.obj
 0002:000020b6       __VInfreq_?InitData@CIFXRender@@IAIXXZ 100570b6     Rendering:CIFXRender.obj
 0002:000020de       __VInfreq_?Initialize@CIFXRender@@UAIHI@Z 100570de     Rendering:CIFXRender.obj
 0002:000021b0       __VInfreq_?Out@IFXVector4@@QBE?AVIFXString@@H@Z 100571b0     Rendering:IFXVector4.obj
 0003:00000000       __imp__GetDeviceCaps@8     10058000     gdi32:GDI32.dll
 0003:00000004       __imp__GetObjectW@12       10058004     gdi32:GDI32.dll
 0003:00000008       __imp__ChoosePixelFormat@8 10058008     gdi32:GDI32.dll
 0003:0000000c       __imp__SetPixelFormat@12   1005800c     gdi32:GDI32.dll
 0003:00000010       __imp__BitBlt@36           10058010     gdi32:GDI32.dll
 0003:00000014       __imp__StretchBlt@44       10058014     gdi32:GDI32.dll
 0003:00000018       __imp__GetCurrentObject@8  10058018     gdi32:GDI32.dll
 0003:0000001c       \177GDI32_NULL_THUNK_DATA  1005801c     gdi32:GDI32.dll
 0003:00000020       __imp_@IFXCreateComponent@12 10058020     IFXCore:IFXCore.dll
 0003:00000024       __imp_@IFXAllocate@4       10058024     IFXCore:IFXCore.dll
 0003:00000028       __imp_@IFXReallocate@8     10058028     IFXCore:IFXCore.dll
 0003:0000002c       __imp_@IFXDeallocate@4     1005802c     IFXCore:IFXCore.dll
 0003:00000030       \177IFXCore_NULL_THUNK_DATA 10058030     IFXCore:IFXCore.dll
 0003:00000034       __imp__GetModuleHandleW@4  10058034     kernel32:KERNEL32.dll
 0003:00000038       __imp__LoadLibraryW@4      10058038     kernel32:KERNEL32.dll
 0003:0000003c       __imp__GetModuleFileNameW@12 1005803c     kernel32:KERNEL32.dll
 0003:00000040       __imp__GetProcAddress@8    10058040     kernel32:KERNEL32.dll
 0003:00000044       __imp__FreeLibrary@4       10058044     kernel32:KERNEL32.dll
 0003:00000048       __imp__GetCurrentThreadId@0 10058048     kernel32:KERNEL32.dll
 0003:0000004c       __imp__GetCommandLineA@0   1005804c     kernel32:KERNEL32.dll
 0003:00000050       __imp__GetVersionExA@4     10058050     kernel32:KERNEL32.dll
 0003:00000054       __imp__RtlUnwind@16        10058054     kernel32:KERNEL32.dll
 0003:00000058       __imp__ExitProcess@4       10058058     kernel32:KERNEL32.dll
 0003:0000005c       __imp__GetModuleHandleA@4  1005805c     kernel32:KERNEL32.dll
 0003:00000060       __imp__TerminateProcess@8  10058060     kernel32:KERNEL32.dll
 0003:00000064       __imp__GetCurrentProcess@0 10058064     kernel32:KERNEL32.dll
 0003:00000068       __imp__EnterCriticalSection@4 10058068     kernel32:KERNEL32.dll
 0003:0000006c       __imp__LeaveCriticalSection@4 1005806c     kernel32:KERNEL32.dll
 0003:00000070       __imp__TlsAlloc@0          10058070     kernel32:KERNEL32.dll
 0003:00000074       __imp__SetLastError@4      10058074     kernel32:KERNEL32.dll
 0003:00000078       __imp__GetLastError@0      10058078     kernel32:KERNEL32.dll
 0003:0000007c       __imp__TlsFree@4           1005807c     kernel32:KERNEL32.dll
 0003:00000080       __imp__TlsSetValue@8       10058080     kernel32:KERNEL32.dll
 0003:00000084       __imp__TlsGetValue@4       10058084     kernel32:KERNEL32.dll
 0003:00000088       __imp__HeapFree@12         10058088     kernel32:KERNEL32.dll
 0003:0000008c       __imp__HeapAlloc@12        1005808c     kernel32:KERNEL32.dll
 0003:00000090       __imp__SetHandleCount@4    10058090     kernel32:KERNEL32.dll
 0003:00000094       __imp__GetStdHandle@4      10058094     kernel32:KERNEL32.dll
 0003:00000098       __imp__GetFileType@4       10058098     kernel32:KERNEL32.dll
 0003:0000009c       __imp__GetStartupInfoA@4   1005809c     kernel32:KERNEL32.dll
 0003:000000a0       __imp__DeleteCriticalSection@4 100580a0     kernel32:KERNEL32.dll
 0003:000000a4       __imp__GetModuleFileNameA@12 100580a4     kernel32:KERNEL32.dll
 0003:000000a8       __imp__FreeEnvironmentStringsA@4 100580a8     kernel32:KERNEL32.dll
 0003:000000ac       __imp__GetEnvironmentStrings@0 100580ac     kernel32:KERNEL32.dll
 0003:000000b0       __imp__FreeEnvironmentStringsW@4 100580b0     kernel32:KERNEL32.dll
 0003:000000b4       __imp__GetEnvironmentStringsW@0 100580b4     kernel32:KERNEL32.dll
 0003:000000b8       __imp__HeapDestroy@4       100580b8     kernel32:KERNEL32.dll
 0003:000000bc       __imp__HeapCreate@12       100580bc     kernel32:KERNEL32.dll
 0003:000000c0       __imp__VirtualFree@12      100580c0     kernel32:KERNEL32.dll
 0003:000000c4       __imp__UnhandledExceptionFilter@4 100580c4     kernel32:KERNEL32.dll
 0003:000000c8       __imp__QueryPerformanceCounter@4 100580c8     kernel32:KERNEL32.dll
 0003:000000cc       __imp__LCMapStringA@24     100580cc     kernel32:KERNEL32.dll
 0003:000000d0       __imp__LCMapStringW@24     100580d0     kernel32:KERNEL32.dll
 0003:000000d4       __imp__GetSystemDefaultLangID@0 100580d4     kernel32:KERNEL32.dll
 0003:000000d8       __imp__GetCPInfo@8         100580d8     kernel32:KERNEL32.dll
 0003:000000dc       __imp__GetUserDefaultLCID@0 100580dc     kernel32:KERNEL32.dll
 0003:000000e0       __imp__GetLocaleInfoA@16   100580e0     kernel32:KERNEL32.dll
 0003:000000e4       __imp__EnumSystemLocalesA@8 100580e4     kernel32:KERNEL32.dll
 0003:000000e8       __imp__IsValidLocale@8     100580e8     kernel32:KERNEL32.dll
 0003:000000ec       __imp__IsValidCodePage@4   100580ec     kernel32:KERNEL32.dll
 0003:000000f0       __imp__GetStringTypeA@20   100580f0     kernel32:KERNEL32.dll
 0003:000000f4       __imp__GetStringTypeW@16   100580f4     kernel32:KERNEL32.dll
 0003:000000f8       __imp__GetACP@0            100580f8     kernel32:KERNEL32.dll
 0003:000000fc       __imp__GetOEMCP@0          100580fc     kernel32:KERNEL32.dll
 0003:00000100       __imp__VirtualAlloc@16     10058100     kernel32:KERNEL32.dll
 0003:00000104       __imp__HeapReAlloc@16      10058104     kernel32:KERNEL32.dll
 0003:00000108       __imp__IsBadWritePtr@8     10058108     kernel32:KERNEL32.dll
 0003:0000010c       __imp__InitializeCriticalSection@4 1005810c     kernel32:KERNEL32.dll
 0003:00000110       __imp__InterlockedExchange@8 10058110     kernel32:KERNEL32.dll
 0003:00000114       __imp__VirtualQuery@12     10058114     kernel32:KERNEL32.dll
 0003:00000118       __imp__LoadLibraryA@4      10058118     kernel32:KERNEL32.dll
 0003:0000011c       __imp__SetUnhandledExceptionFilter@4 1005811c     kernel32:KERNEL32.dll
 0003:00000120       __imp__IsBadReadPtr@8      10058120     kernel32:KERNEL32.dll
 0003:00000124       __imp__IsBadCodePtr@4      10058124     kernel32:KERNEL32.dll
 0003:00000128       __imp__VirtualProtect@16   10058128     kernel32:KERNEL32.dll
 0003:0000012c       __imp__GetSystemInfo@4     1005812c     kernel32:KERNEL32.dll
 0003:00000130       __imp__SetFilePointer@16   10058130     kernel32:KERNEL32.dll
 0003:00000134       __imp__HeapSize@12         10058134     kernel32:KERNEL32.dll
 0003:00000138       __imp__GetTickCount@0      10058138     kernel32:KERNEL32.dll
 0003:0000013c       __imp__GetCurrentProcessId@0 1005813c     kernel32:KERNEL32.dll
 0003:00000140       __imp__GetSystemTimeAsFileTime@4 10058140     kernel32:KERNEL32.dll
 0003:00000144       __imp__CloseHandle@4       10058144     kernel32:KERNEL32.dll
 0003:00000148       __imp__CreateFileW@28      10058148     kernel32:KERNEL32.dll
 0003:0000014c       __imp__FlushFileBuffers@4  1005814c     kernel32:KERNEL32.dll
 0003:00000150       __imp__SetStdHandle@8      10058150     kernel32:KERNEL32.dll
 0003:00000154       __imp__GetLocaleInfoW@16   10058154     kernel32:KERNEL32.dll
 0003:00000158       __imp__ReadFile@20         10058158     kernel32:KERNEL32.dll
 0003:0000015c       __imp__SetEndOfFile@4      1005815c     kernel32:KERNEL32.dll
 0003:00000160       __imp__QueryPerformanceFrequency@4 10058160     kernel32:KERNEL32.dll
 0003:00000164       __imp__MultiByteToWideChar@24 10058164     kernel32:KERNEL32.dll
 0003:00000168       __imp__WideCharToMultiByte@32 10058168     kernel32:KERNEL32.dll
 0003:0000016c       __imp__Sleep@4             1005816c     kernel32:KERNEL32.dll
 0003:00000170       __imp__WriteFile@20        10058170     kernel32:KERNEL32.dll
 0003:00000174       __imp__DisableThreadLibraryCalls@4 10058174     kernel32:KERNEL32.dll
 0003:00000178       \177KERNEL32_NULL_THUNK_DATA 10058178     kernel32:KERNEL32.dll
 0003:0000017c       __imp__DefWindowProcW@16   1005817c     user32:USER32.dll
 0003:00000180       __imp__GetParent@4         10058180     user32:USER32.dll
 0003:00000184       __imp__ScreenToClient@8    10058184     user32:USER32.dll
 0003:00000188       __imp__PostMessageW@16     10058188     user32:USER32.dll
 0003:0000018c       __imp__ValidateRect@8      1005818c     user32:USER32.dll
 0003:00000190       __imp__GetDesktopWindow@0  10058190     user32:USER32.dll
 0003:00000194       __imp__CreateWindowExW@48  10058194     user32:USER32.dll
 0003:00000198       __imp__DestroyWindow@4     10058198     user32:USER32.dll
 0003:0000019c       __imp__SetWindowPos@28     1005819c     user32:USER32.dll
 0003:000001a0       __imp__UnregisterClassW@8  100581a0     user32:USER32.dll
 0003:000001a4       __imp__RegisterClassExW@4  100581a4     user32:USER32.dll
 0003:000001a8       __imp__GetClientRect@8     100581a8     user32:USER32.dll
 0003:000001ac       __imp__ClientToScreen@8    100581ac     user32:USER32.dll
 0003:000001b0       __imp__ReleaseDC@8         100581b0     user32:USER32.dll
 0003:000001b4       __imp__GetDC@4             100581b4     user32:USER32.dll
 0003:000001b8       __imp__GetSystemMetrics@4  100581b8     user32:USER32.dll
 0003:000001bc       __imp__MessageBoxW@16      100581bc     user32:USER32.dll
 0003:000001c0       \177USER32_NULL_THUNK_DATA 100581c0     user32:USER32.dll
 0003:000001c4       __imp__timeEndPeriod@4     100581c4     winmm:WINMM.dll
 0003:000001c8       __imp__timeBeginPeriod@4   100581c8     winmm:WINMM.dll
 0003:000001cc       __imp__timeGetTime@0       100581cc     winmm:WINMM.dll
 0003:000001d0       \177WINMM_NULL_THUNK_DATA  100581d0     winmm:WINMM.dll
 0003:00000320       _CID_IFXDirectX8           10058320     Rendering:IFXRenderingGuids.obj
 0003:00000330       _CID_IFXDirectX7           10058330     Rendering:IFXRenderingGuids.obj
 0003:00000340       _CID_IFXOpenGL             10058340     Rendering:IFXRenderingGuids.obj
 0003:00000350       _CID_IFXDeviceLight        10058350     Rendering:IFXRenderingGuids.obj
 0003:00000360       _CID_IFXDeviceTexture      10058360     Rendering:IFXRenderingGuids.obj
 0003:00000370       _CID_IFXDeviceTexUnit      10058370     Rendering:IFXRenderingGuids.obj
 0003:00000380       _CID_IFXDeviceLightDX8     10058380     Rendering:IFXRenderingGuids.obj
 0003:00000390       _CID_IFXDeviceTextureDX8   10058390     Rendering:IFXRenderingGuids.obj
 0003:000003a0       _CID_IFXDeviceTexUnitDX8   100583a0     Rendering:IFXRenderingGuids.obj
 0003:000003b0       _CID_IFXDeviceLightDX7     100583b0     Rendering:IFXRenderingGuids.obj
 0003:000003c0       _CID_IFXDeviceTextureDX7   100583c0     Rendering:IFXRenderingGuids.obj
 0003:000003d0       _CID_IFXDeviceTexUnitDX7   100583d0     Rendering:IFXRenderingGuids.obj
 0003:000003e0       _CID_IFXDeviceLightNULL    100583e0     Rendering:IFXRenderingGuids.obj
 0003:000003f0       _CID_IFXDeviceTextureNULL  100583f0     Rendering:IFXRenderingGuids.obj
 0003:00000400       _CID_IFXDeviceTexUnitNULL  10058400     Rendering:IFXRenderingGuids.obj
 0003:00000410       _CID_IFXDeviceLightOGL     10058410     Rendering:IFXRenderingGuids.obj
 0003:00000420       _CID_IFXDeviceTextureOGL   10058420     Rendering:IFXRenderingGuids.obj
 0003:00000430       _CID_IFXDeviceTexUnitOGL   10058430     Rendering:IFXRenderingGuids.obj
 0003:00000440       _CID_IFXRenderServices     10058440     Rendering:IFXRenderingGuids.obj
 0003:00000450       _CID_IFXRenderContext      10058450     Rendering:IFXRenderingGuids.obj
 0003:00000460       _CID_IFXRenderDevice       10058460     Rendering:IFXRenderingGuids.obj
 0003:00000470       _CID_IFXRenderDX8          10058470     Rendering:IFXRenderingGuids.obj
 0003:00000480       _CID_IFXRenderDeviceDX8    10058480     Rendering:IFXRenderingGuids.obj
 0003:00000490       _CID_IFXRenderDX7          10058490     Rendering:IFXRenderingGuids.obj
 0003:000004a0       _CID_IFXRenderDeviceDX7    100584a0     Rendering:IFXRenderingGuids.obj
 0003:000004b0       _CID_IFXRenderNULL         100584b0     Rendering:IFXRenderingGuids.obj
 0003:000004c0       _CID_IFXRenderDeviceNULL   100584c0     Rendering:IFXRenderingGuids.obj
 0003:000004d0       _CID_IFXRenderOGL          100584d0     Rendering:IFXRenderingGuids.obj
 0003:000004e0       _CID_IFXRenderDeviceOGL    100584e0     Rendering:IFXRenderingGuids.obj
 0003:000004f0       _CID_IFXOctreeCollection   100584f0     Rendering:IFXRenderingGuids.obj
 0003:00000500       _CID_IFXOctreeCuller       10058500     Rendering:IFXRenderingGuids.obj
 0003:00000510       _CID_IFXSceneGraphCuller   10058510     Rendering:IFXRenderingGuids.obj
 0003:00000520       _IID_IFXUnknown            10058520     Rendering:IFXRenderingGuids.obj
 0003:00000530       _IID_IFXShaderList         10058530     Rendering:IFXRenderingGuids.obj
 0003:00000540       _IID_IFXRenderable         10058540     Rendering:IFXRenderingGuids.obj
 0003:00000550       _IID_IFXMeshGroup          10058550     Rendering:IFXRenderingGuids.obj
 0003:00000560       _IID_IFXInterleavedData    10058560     Rendering:IFXRenderingGuids.obj
 0003:00000570       _IID_IFXMesh               10058570     Rendering:IFXRenderingGuids.obj
 0003:00000580       _CID_IFXNameMap            10058580     Rendering:IFXRenderingGuids.obj
 0003:00000590       _CID_IFXDevice             10058590     Rendering:IFXRenderingGuids.obj
 0003:000005a0       _CID_IFXCLODManager        100585a0     Rendering:IFXRenderingGuids.obj
 0003:000005b0       _CID_IFXSetAdjacencyX      100585b0     Rendering:IFXRenderingGuids.obj
 0003:000005c0       _CID_IFXSetX               100585c0     Rendering:IFXRenderingGuids.obj
 0003:000005d0       _CID_IFXAuthorCLODGen      100585d0     Rendering:IFXRenderingGuids.obj
 0003:000005e0       _CID_IFXAuthorLineSetAnalyzer 100585e0     Rendering:IFXRenderingGuids.obj
 0003:000005f0       _CID_IFXMetaDataX          100585f0     Rendering:IFXRenderingGuids.obj
 0003:00000600       _CID_IFXFileReference      10058600     Rendering:IFXRenderingGuids.obj
 0003:00000610       _CID_IFXMeshCompiler       10058610     Rendering:IFXRenderingGuids.obj
 0003:00000620       _CID_IFXMeshMap            10058620     Rendering:IFXRenderingGuids.obj
 0003:00000630       _CID_IFXAuthorMeshMap      10058630     Rendering:IFXRenderingGuids.obj
 0003:00000640       _CID_IFXGlyph2DCommands    10058640     Rendering:IFXRenderingGuids.obj
 0003:00000650       _CID_IFXGlyphCommandList   10058650     Rendering:IFXRenderingGuids.obj
 0003:00000660       _CID_IFXGlyph3DGenerator   10058660     Rendering:IFXRenderingGuids.obj
 0003:00000670       _CID_IFXAuthorMeshScrub    10058670     Rendering:IFXRenderingGuids.obj
 0003:00000680       _CID_IFXAuthorMesh         10058680     Rendering:IFXRenderingGuids.obj
 0003:00000690       _CID_IFXAuthorCLODResource 10058690     Rendering:IFXRenderingGuids.obj
 0003:000006a0       _CID_IFXBitStreamX         100586a0     Rendering:IFXRenderingGuids.obj
 0003:000006b0       _CID_IFXSkeleton           100586b0     Rendering:IFXRenderingGuids.obj
 0003:000006c0       _CID_IFXBoneWeightsModifier 100586c0     Rendering:IFXRenderingGuids.obj
 0003:000006d0       _CID_IFXBoundHierarchy     100586d0     Rendering:IFXRenderingGuids.obj
 0003:000006e0       _CID_IFXBoundSphereDataElement 100586e0     Rendering:IFXRenderingGuids.obj
 0003:000006f0       _CID_IFXConnector          100586f0     Rendering:IFXRenderingGuids.obj
 0003:00000700       _CID_IFXContour            10058700     Rendering:IFXRenderingGuids.obj
 0003:00000710       _CID_IFXContourExtruder    10058710     Rendering:IFXRenderingGuids.obj
 0003:00000720       _CID_IFXContourGenerator   10058720     Rendering:IFXRenderingGuids.obj
 0003:00000730       _CID_IFXContourTessellator 10058730     Rendering:IFXRenderingGuids.obj
 0003:00000740       _CID_IFXCoreServices       10058740     Rendering:IFXRenderingGuids.obj
 0003:00000750       _CID_IFXCoreServicesRef    10058750     Rendering:IFXRenderingGuids.obj
 0003:00000760       _CID_IFXDataBlock          10058760     Rendering:IFXRenderingGuids.obj
 0003:00000770       _CID_IFXDataBlockX         10058770     Rendering:IFXRenderingGuids.obj
 0003:00000780       _CID_IFXDataBlockQueueX    10058780     Rendering:IFXRenderingGuids.obj
 0003:00000790       _CID_IFXModifierDataPacket 10058790     Rendering:IFXRenderingGuids.obj
 0003:000007a0       _CID_IFXGlyphCurveToBlock  100587a0     Rendering:IFXRenderingGuids.obj
 0003:000007b0       _CID_IFXGlyphLineToBlock   100587b0     Rendering:IFXRenderingGuids.obj
 0003:000007c0       _CID_IFXGlyphMoveToBlock   100587c0     Rendering:IFXRenderingGuids.obj
 0003:000007d0       _CID_IFXGlyphTagBlock      100587d0     Rendering:IFXRenderingGuids.obj
 0003:000007e0       _CID_IFXGroup              100587e0     Rendering:IFXRenderingGuids.obj
 0003:000007f0       _CID_IFXHashMap            100587f0     Rendering:IFXRenderingGuids.obj
 0003:00000800       _CID_IFXIDManager          10058800     Rendering:IFXRenderingGuids.obj
 0003:00000810       _CID_IFXLight              10058810     Rendering:IFXRenderingGuids.obj
 0003:00000820       _CID_IFXLightResource      10058820     Rendering:IFXRenderingGuids.obj
 0003:00000830       _CID_IFXViewResource       10058830     Rendering:IFXRenderingGuids.obj
 0003:00000840       _CID_IFXLightSet           10058840     Rendering:IFXRenderingGuids.obj
 0003:00000850       _CID_IFXImageCodec         10058850     Rendering:IFXRenderingGuids.obj
 0003:00000860       _CID_IFXCLODModifier       10058860     Rendering:IFXRenderingGuids.obj
 0003:00000870       _CID_IFXMaterialResource   10058870     Rendering:IFXRenderingGuids.obj
 0003:00000880       _CID_IFXMesh               10058880     Rendering:IFXRenderingGuids.obj
 0003:00000890       _CID_IFXInterleavedData    10058890     Rendering:IFXRenderingGuids.obj
 0003:000008a0       _CID_IFXMeshGroup          100588a0     Rendering:IFXRenderingGuids.obj
 0003:000008b0       _CID_IFXNeighborMesh       100588b0     Rendering:IFXRenderingGuids.obj
 0003:000008c0       _CID_IFXMixerConstruct     100588c0     Rendering:IFXRenderingGuids.obj
 0003:000008d0       _CID_IFXModel              100588d0     Rendering:IFXRenderingGuids.obj
 0003:000008e0       _CID_IFXModifierChain      100588e0     Rendering:IFXRenderingGuids.obj
 0003:000008f0       _CID_IFXDidRegistry        100588f0     Rendering:IFXRenderingGuids.obj
 0003:00000900       _CID_IFXMotionResource     10058900     Rendering:IFXRenderingGuids.obj
 0003:00000910       _CID_IFXShaderList         10058910     Rendering:IFXRenderingGuids.obj
 0003:00000920       _CID_IFXGlyph2DModifier    10058920     Rendering:IFXRenderingGuids.obj
 0003:00000930       _CID_IFXPalette            10058930     Rendering:IFXRenderingGuids.obj
 0003:00000940       _CID_IFXPerformanceTimer   10058940     Rendering:IFXRenderingGuids.obj
 0003:00000950       _CID_IFXPickObject         10058950     Rendering:IFXRenderingGuids.obj
 0003:00000960       _CID_IFXRenderPass         10058960     Rendering:IFXRenderingGuids.obj
 0003:00000970       _CID_IFXSceneGraph         10058970     Rendering:IFXRenderingGuids.obj
 0003:00000980       _CID_IFXSimpleCollection   10058980     Rendering:IFXRenderingGuids.obj
 0003:00000990       _CID_IFXAnimationModifier  10058990     Rendering:IFXRenderingGuids.obj
 0003:000009a0       _CID_IFXAuthorPointSet     100589a0     Rendering:IFXRenderingGuids.obj
 0003:000009b0       _CID_IFXAuthorPointSetResource 100589b0     Rendering:IFXRenderingGuids.obj
 0003:000009c0       _CID_IFXAuthorLineSet      100589c0     Rendering:IFXRenderingGuids.obj
 0003:000009d0       _CID_IFXAuthorLineSetResource 100589d0     Rendering:IFXRenderingGuids.obj
 0003:000009e0       _CID_IFXSimpleHash         100589e0     Rendering:IFXRenderingGuids.obj
 0003:000009f0       _CID_IFXSimpleList         100589f0     Rendering:IFXRenderingGuids.obj
 0003:00000a00       _CID_IFXSimpleObject       10058a00     Rendering:IFXRenderingGuids.obj
 0003:00000a10       _CID_IFXSpatialSubdiv      10058a10     Rendering:IFXRenderingGuids.obj
 0003:00000a20       _CID_IFXSubdivModifier     10058a20     Rendering:IFXRenderingGuids.obj
 0003:00000a30       _CID_IFXTextureImageTools  10058a30     Rendering:IFXRenderingGuids.obj
 0003:00000a40       _CID_IFXTextureObject      10058a40     Rendering:IFXRenderingGuids.obj
 0003:00000a50       _CID_IFXUVGenerator        10058a50     Rendering:IFXRenderingGuids.obj
 0003:00000a60       _CID_IFXUVMapperCylindrical 10058a60     Rendering:IFXRenderingGuids.obj
 0003:00000a70       _CID_IFXUVMapperNone       10058a70     Rendering:IFXRenderingGuids.obj
 0003:00000a80       _CID_IFXUVMapperPlanar     10058a80     Rendering:IFXRenderingGuids.obj
 0003:00000a90       _CID_IFXUVMapperSpherical  10058a90     Rendering:IFXRenderingGuids.obj
 0003:00000aa0       _CID_IFXUVMapperReflection 10058aa0     Rendering:IFXRenderingGuids.obj
 0003:00000ab0       _CID_IFXView               10058ab0     Rendering:IFXRenderingGuids.obj
 0003:00000ac0       _CID_IFXVoidWrapper        10058ac0     Rendering:IFXRenderingGuids.obj
 0003:00000ad0       _CID_IFXShadingModifier    10058ad0     Rendering:IFXRenderingGuids.obj
 0003:00000ae0       _CID_IFXDummyModifier      10058ae0     Rendering:IFXRenderingGuids.obj
 0003:00000af0       _CID_IFXShaderLitTexture   10058af0     Rendering:IFXRenderingGuids.obj
 0003:00000b00       _IID_IFXMetaDataX          10058b00     Rendering:IFXRenderingGuids.obj
 0003:00000b10       _IID_IFXMarker             10058b10     Rendering:IFXRenderingGuids.obj
 0003:00000b20       _IID_IFXDataBlockX         10058b20     Rendering:IFXRenderingGuids.obj
 0003:00000b30       _IID_IFXDataBlockQueueX    10058b30     Rendering:IFXRenderingGuids.obj
 0003:00000b40       _IID_IFXPalette            10058b40     Rendering:IFXRenderingGuids.obj
 0003:00000b50       _IID_IFXCoreServices       10058b50     Rendering:IFXRenderingGuids.obj
 0003:00000b60       _IID_IFXEncoderX           10058b60     Rendering:IFXRenderingGuids.obj
 0003:00000b70       _IID_IFXMarkerX            10058b70     Rendering:IFXRenderingGuids.obj
 0003:00000b80       _IID_IFXTextureObject      10058b80     Rendering:IFXRenderingGuids.obj
 0003:00000b90       _IID_IFXTextureImageTools  10058b90     Rendering:IFXRenderingGuids.obj
 0003:00000ba0       _IID_IFXRenderServices     10058ba0     Rendering:IFXRenderingGuids.obj
 0003:00000bb0       _IID_IFXRenderContext      10058bb0     Rendering:IFXRenderingGuids.obj
 0003:00000bc0       _IID_IFXRenderClear        10058bc0     Rendering:IFXRenderingGuids.obj
 0003:00000bd0       _IID_IFXRender             10058bd0     Rendering:IFXRenderingGuids.obj
 0003:00000be0       _IID_IFXRenderDevice       10058be0     Rendering:IFXRenderingGuids.obj
 0003:00000bf0       _IID_IFXDirectX8           10058bf0     Rendering:IFXRenderingGuids.obj
 0003:00000c00       _IID_IFXDirectX7           10058c00     Rendering:IFXRenderingGuids.obj
 0003:00000c10       _IID_IFXOpenGL             10058c10     Rendering:IFXRenderingGuids.obj
 0003:00000c20       _IID_IFXOpenGLOS           10058c20     Rendering:IFXRenderingGuids.obj
 0003:00000c30       _IID_IFXSubject            10058c30     Rendering:IFXRenderingGuids.obj
 0003:00000c40       _IID_IFXSpatial            10058c40     Rendering:IFXRenderingGuids.obj
 0003:00000c50       _IID_IFXCollection         10058c50     Rendering:IFXRenderingGuids.obj
 0003:00000c60       _IID_IFXModifier           10058c60     Rendering:IFXRenderingGuids.obj
 0003:00000c70       _IID_IFXSimpleList         10058c70     Rendering:IFXRenderingGuids.obj
 0003:00000c80       _IID_IFXNode               10058c80     Rendering:IFXRenderingGuids.obj
 0003:00000c90       _DID_IFXRenderableGroup    10058c90     Rendering:IFXRenderingGuids.obj
 0003:00000ca0       _DID_IFXRenderableGroupBounds 10058ca0     Rendering:IFXRenderingGuids.obj
 0003:00000cb0       _DID_IFXBoundFrame         10058cb0     Rendering:IFXRenderingGuids.obj
 0003:00000cc0       _DID_IFXBoundFrameBounds   10058cc0     Rendering:IFXRenderingGuids.obj
 0003:00000cd0       _DID_IFXLightSet           10058cd0     Rendering:IFXRenderingGuids.obj
 0003:00000ce0       _DID_IFXNeighborMesh       10058ce0     Rendering:IFXRenderingGuids.obj
 0003:00000cf0       _DID_IFXCLODController     10058cf0     Rendering:IFXRenderingGuids.obj
 0003:00000d00       _DID_IFXNeighborResController 10058d00     Rendering:IFXRenderingGuids.obj
 0003:00000d10       _DID_IFXTransform          10058d10     Rendering:IFXRenderingGuids.obj
 0003:00000d20       _DID_IFXFrustum            10058d20     Rendering:IFXRenderingGuids.obj
 0003:00000d30       _DID_IFXViewSize           10058d30     Rendering:IFXRenderingGuids.obj
 0003:00000d40       _DID_IFXSimulationTime     10058d40     Rendering:IFXRenderingGuids.obj
 0003:00000d50       _DID_IFXVertexWeights      10058d50     Rendering:IFXRenderingGuids.obj
 0003:00000d60       _DID_IFXBoneMatrices       10058d60     Rendering:IFXRenderingGuids.obj
 0003:00000d70       _DID_IFXBonesManager       10058d70     Rendering:IFXRenderingGuids.obj
 0003:00000d80       _DID_IFXBoneWeights        10058d80     Rendering:IFXRenderingGuids.obj
 0003:00000d90       _DID_IFXMatrixSet          10058d90     Rendering:IFXRenderingGuids.obj
 0003:00000da0       _DID_IFXSkeleton           10058da0     Rendering:IFXRenderingGuids.obj
 0003:00000db0       _DID_IFXTexture            10058db0     Rendering:IFXRenderingGuids.obj
 0003:00000dc0       _DTS_IFXRenderable         10058dc0     Rendering:IFXRenderingGuids.obj
 0003:00000dd0       _DTS_IFXBound              10058dd0     Rendering:IFXRenderingGuids.obj
 0003:00000de0       _DID_IFXNullOutput         10058de0     Rendering:IFXRenderingGuids.obj
 0003:00000df0       _IID_IFXVoidWrapper        10058df0     Rendering:IFXRenderingGuids.obj
 0003:00000e00       _IID_IFXSpatialAssociation 10058e00     Rendering:IFXRenderingGuids.obj
 0003:00000e10       _IID_IFXSpatialSetQuery    10058e10     Rendering:IFXRenderingGuids.obj
 0003:00000e20       _IID_IFXSimpleHash         10058e20     Rendering:IFXRenderingGuids.obj
 0003:0000b9a4       ___libm_float_zero         100639a4     libmmt:libm_error.omu
 0003:0000b9ac       ___libm_float_one          100639ac     libmmt:libm_error.omu
 0003:0000b9b4       ___libm_float_inf          100639b4     libmmt:libm_error.omu
 0003:0000b9bc       ___libm_float_huge         100639bc     libmmt:libm_error.omu
 0003:0000b9c4       ___libm_double_zero        100639c4     libmmt:libm_error.omu
 0003:0000b9d4       ___libm_double_one         100639d4     libmmt:libm_error.omu
 0003:0000b9e4       ___libm_double_inf         100639e4     libmmt:libm_error.omu
 0003:0000b9f4       ___libm_double_huge        100639f4     libmmt:libm_error.omu
 0003:0000ba04       ___libm_ldouble_zero       10063a04     libmmt:libm_error.omu
 0003:0000ba14       ___libm_ldouble_neg_zero   10063a14     libmmt:libm_error.omu
 0003:0000ba24       ___libm_ldouble_one        10063a24     libmmt:libm_error.omu
 0003:0000ba34       ___libm_ldouble_neg_one    10063a34     libmmt:libm_error.omu
 0003:0000ba44       ___libm_ldouble_inf        10063a44     libmmt:libm_error.omu
 0003:0000ba54       ___libm_ldouble_neg_inf    10063a54     libmmt:libm_error.omu
 0003:0000ba64       ___libm_ldouble_huge       10063a64     libmmt:libm_error.omu
 0003:0000ba74       ___libm_ldouble_neg_huge   10063a74     libmmt:libm_error.omu
 0003:0000bc00       ___libm_log10_table_256    10063c00     libmmt:log10_table.omu
 0003:0000cc00       ___libm_rcp_table_256      10064c00     libmmt:rcp_table.omu
 0003:0000d000       ___libm_double_rcp_table_256 10065000     libmmt:rcp_table.omu
 0003:0000d840       ??_7type_info@@6B@         10065840     LIBCMT:typinfo.obj
 0003:0000d854       ??_C@_0P@MIGLKIOC@CorExitProcess?$AA@ 10065854     LIBCMT:crt0dat.obj
 0003:0000d864       ??_C@_0M@MBOPBNBK@mscoree?4dll?$AA@ 10065864     LIBCMT:crt0dat.obj
 0003:0000da00       ??_C@_07LCBHPJJN@LC_TIME?$AA@ 10065a00     LIBCMT:setlocal.obj
 0003:0000da08       ??_C@_0L@DLHIECNL@LC_NUMERIC?$AA@ 10065a08     LIBCMT:setlocal.obj
 0003:0000da14       ??_C@_0M@MIENIKLA@LC_MONETARY?$AA@ 10065a14     LIBCMT:setlocal.obj
 0003:0000da20       ??_C@_08EADHIDAD@LC_CTYPE?$AA@ 10065a20     LIBCMT:setlocal.obj
 0003:0000da2c       ??_C@_0L@KFJHEKIK@LC_COLLATE?$AA@ 10065a2c     LIBCMT:setlocal.obj
 0003:0000da38       ??_C@_06NEFDFEKB@LC_ALL?$AA@ 10065a38     LIBCMT:setlocal.obj
 0003:0000da40       ??_C@_03EGDHDPFD@_?4?0?$AA@ 10065a40     LIBCMT:setlocal.obj
 0003:0000da44       ??_C@_01LFCBOECM@?4?$AA@   10065a44     LIBCMT:setlocal.obj
 0003:0000da48       ??_C@_01IDAFKMJL@_?$AA@    10065a48     LIBCMT:setlocal.obj
 0003:0000da5c       ??_C@_01ICJEACDI@?$DL?$AA@ 10065a5c     LIBCMT:setlocal.obj
 0003:0000da60       ??_C@_01NEMOKFLO@?$DN?$AA@ 10065a60     LIBCMT:setlocal.obj
 0003:0000da62       ??_C@_00CNPNBAHC@?$AA@     10065a62     LIBCMT:setlocal.obj
 0003:0000da64       ??_C@_02BALPLPBG@?$DN?$DL?$AA@ 10065a64     LIBCMT:setlocal.obj
 0003:0000dab0       ??_C@_07PEJMOBNF@FlsFree?$AA@ 10065ab0     LIBCMT:tidtable.obj
 0003:0000dab8       ??_C@_0M@JCPCPOEF@FlsSetValue?$AA@ 10065ab8     LIBCMT:tidtable.obj
 0003:0000dac4       ??_C@_0M@GDNOONDI@FlsGetValue?$AA@ 10065ac4     LIBCMT:tidtable.obj
 0003:0000dad0       ??_C@_08KNHFBNJ@FlsAlloc?$AA@ 10065ad0     LIBCMT:tidtable.obj
 0003:0000dadc       ??_C@_0N@MDJJJHMB@kernel32?4dll?$AA@ 10065adc     LIBCMT:tidtable.obj
 0003:0000db2c       ??_C@_0P@GGKDKEEG@runtime?5error?5?$AA@ 10065b2c     LIBCMT:crt0msg.obj
 0003:0000db3c       ??_C@_02PCIJFNDE@?$AN?6?$AA@ 10065b3c     LIBCMT:crt0msg.obj
 0003:0000db40       ??_C@_0O@MJNIPGOH@TLOSS?5error?$AN?6?$AA@ 10065b40     LIBCMT:crt0msg.obj
 0003:0000db50       ??_C@_0N@BONNPDHF@SING?5error?$AN?6?$AA@ 10065b50     LIBCMT:crt0msg.obj
 0003:0000db60       ??_C@_0P@MBDAJNE@DOMAIN?5error?$AN?6?$AA@ 10065b60     LIBCMT:crt0msg.obj
 0003:0000db70       ??_C@_0KC@BDDGGBEJ@R6029?$AN?6?9?5This?5application?5cannot@ 10065b70     LIBCMT:crt0msg.obj
 0003:0000dc14       ??_C@_0CF@KJDAIALP@R6028?$AN?6?9?5unable?5to?5initialize?5he@ 10065c14     LIBCMT:crt0msg.obj
 0003:0000dc3c       ??_C@_0DF@GAKBPDFP@R6027?$AN?6?9?5not?5enough?5space?5for?5lo@ 10065c3c     LIBCMT:crt0msg.obj
 0003:0000dc74       ??_C@_0DF@IBLNNAIG@R6026?$AN?6?9?5not?5enough?5space?5for?5st@ 10065c74     LIBCMT:crt0msg.obj
 0003:0000dcac       ??_C@_0CG@IOHKGFNJ@R6025?$AN?6?9?5pure?5virtual?5function?5c@ 10065cac     LIBCMT:crt0msg.obj
 0003:0000dcd4       ??_C@_0DF@JIJJFJDC@R6024?$AN?6?9?5not?5enough?5space?5for?5_o@ 10065cd4     LIBCMT:crt0msg.obj
 0003:0000dd0c       ??_C@_0CJ@EGEJHFME@R6019?$AN?6?9?5unable?5to?5open?5console?5@ 10065d0c     LIBCMT:crt0msg.obj
 0003:0000dd38       ??_C@_0CB@GNHNIELH@R6018?$AN?6?9?5unexpected?5heap?5error?$AN?6@ 10065d38     LIBCMT:crt0msg.obj
 0003:0000dd5c       ??_C@_0CN@FOLDKNG@R6017?$AN?6?9?5unexpected?5multithread?5@ 10065d5c     LIBCMT:crt0msg.obj
 0003:0000dd8c       ??_C@_0CM@FAHFJNHO@R6016?$AN?6?9?5not?5enough?5space?5for?5th@ 10065d8c     LIBCMT:crt0msg.obj
 0003:0000ddb8       ??_C@_0JG@LBKMGKLD@?$AN?6This?5application?5has?5requested@ 10065db8     LIBCMT:crt0msg.obj
 0003:0000de50       ??_C@_0CM@FLCNIPKK@R6009?$AN?6?9?5not?5enough?5space?5for?5en@ 10065e50     LIBCMT:crt0msg.obj
 0003:0000de7c       ??_C@_0CK@KMMJOAPP@R6008?$AN?6?9?5not?5enough?5space?5for?5ar@ 10065e7c     LIBCMT:crt0msg.obj
 0003:0000dea8       ??_C@_0CF@HOHMHDEK@R6002?$AN?6?9?5floating?5point?5not?5load@ 10065ea8     LIBCMT:crt0msg.obj
 0003:0000ded0       ??_C@_0CF@GOGNBNAK@Microsoft?5Visual?5C?$CL?$CL?5Runtime?5Lib@ 10065ed0     LIBCMT:crt0msg.obj
 0003:0000def8       ??_C@_02PHMGELLB@?6?6?$AA@ 10065ef8     LIBCMT:crt0msg.obj
 0003:0000defc       ??_C@_0BK@OFGJDLJJ@Runtime?5Error?$CB?6?6Program?3?5?$AA@ 10065efc     LIBCMT:crt0msg.obj
 0003:0000df18       ??_C@_03KHICJKCI@?4?4?4?$AA@ 10065f18     LIBCMT:crt0msg.obj
 0003:0000df1c       ??_C@_0BH@DNAGHKFM@?$DMprogram?5name?5unknown?$DO?$AA@ 10065f1c     LIBCMT:crt0msg.obj
 0003:0000df38       __real@0000000000000000    10065f38     LIBCMT:cvt.obj
 0003:0000df40       ??_C@_05KLBDPFGC@e?$CL000?$AA@ 10065f40     LIBCMT:cvt.obj
 0003:0000df48       __real@3ff0000000000000    10065f48     LIBCMT:testfdiv.obj
 0003:0000df50       __real@4150017ec0000000    10065f50     LIBCMT:testfdiv.obj
 0003:0000df58       __real@4147ffff80000000    10065f58     LIBCMT:testfdiv.obj
 0003:0000df60       ??_C@_0BK@NHEOCAHP@IsProcessorFeaturePresent?$AA@ 10065f60     LIBCMT:testfdiv.obj
 0003:0000df7c       ??_C@_08CPNIBGIE@KERNEL32?$AA@ 10065f7c     LIBCMT:testfdiv.obj
 0003:0000dff4       ??_C@_13NOLLCAOD@?$AA?$AA?$AA?$AA@ 10065ff4     LIBCMT:w_map.obj
 0003:0000e010       ___newctype                10066010     LIBCMT:ctype.obj
 0003:0000e310       __wctype                   10066310     LIBCMT:ctype.obj
 0003:0000e56c       ??_C@_08JCCMCCIL@HH?3mm?3ss?$AA@ 1006656c     LIBCMT:strftime.obj
 0003:0000e578       ??_C@_0BE@CKGJFCPC@dddd?0?5MMMM?5dd?0?5yyyy?$AA@ 10066578     LIBCMT:strftime.obj
 0003:0000e58c       ??_C@_08BPBNCDIB@MM?1dd?1yy?$AA@ 1006658c     LIBCMT:strftime.obj
 0003:0000e598       ??_C@_02CJNFDJBF@PM?$AA@   10066598     LIBCMT:strftime.obj
 0003:0000e59c       ??_C@_02DEDBPAFC@AM?$AA@   1006659c     LIBCMT:strftime.obj
 0003:0000e5a0       ??_C@_08EDHMEBNP@December?$AA@ 100665a0     LIBCMT:strftime.obj
 0003:0000e5ac       ??_C@_08HCHEGEOA@November?$AA@ 100665ac     LIBCMT:strftime.obj
 0003:0000e5b8       ??_C@_07JJNFCEND@October?$AA@ 100665b8     LIBCMT:strftime.obj
 0003:0000e5c0       ??_C@_09BHHEALKD@September?$AA@ 100665c0     LIBCMT:strftime.obj
 0003:0000e5cc       ??_C@_06LBBHFDDG@August?$AA@ 100665cc     LIBCMT:strftime.obj
 0003:0000e5d4       ??_C@_04MIEPOIFP@July?$AA@ 100665d4     LIBCMT:strftime.obj
 0003:0000e5dc       ??_C@_04CNLMGBGM@June?$AA@ 100665dc     LIBCMT:strftime.obj
 0003:0000e5e4       ??_C@_05DMJDNLEJ@April?$AA@ 100665e4     LIBCMT:strftime.obj
 0003:0000e5ec       ??_C@_05HPCKOFNC@March?$AA@ 100665ec     LIBCMT:strftime.obj
 0003:0000e5f4       ??_C@_08GNJGEPFN@February?$AA@ 100665f4     LIBCMT:strftime.obj
 0003:0000e600       ??_C@_07CGJPFGJA@January?$AA@ 10066600     LIBCMT:strftime.obj
 0003:0000e608       ??_C@_03MKABNOCG@Dec?$AA@  10066608     LIBCMT:strftime.obj
 0003:0000e60c       ??_C@_03JPJOFNIA@Nov?$AA@  1006660c     LIBCMT:strftime.obj
 0003:0000e610       ??_C@_03BMAOKBAD@Oct?$AA@  10066610     LIBCMT:strftime.obj
 0003:0000e614       ??_C@_03GGCAPAJC@Sep?$AA@  10066614     LIBCMT:strftime.obj
 0003:0000e618       ??_C@_03IFJFEIGA@Aug?$AA@  10066618     LIBCMT:strftime.obj
 0003:0000e61c       ??_C@_03LBGABGKK@Jul?$AA@  1006661c     LIBCMT:strftime.obj
 0003:0000e620       ??_C@_03IDFGHECI@Jun?$AA@  10066620     LIBCMT:strftime.obj
 0003:0000e624       ??_C@_03CNMDKL@May?$AA@    10066624     LIBCMT:strftime.obj
 0003:0000e628       ??_C@_03LEOLGMJP@Apr?$AA@  10066628     LIBCMT:strftime.obj
 0003:0000e62c       ??_C@_03ODNJBKGA@Mar?$AA@  1006662c     LIBCMT:strftime.obj
 0003:0000e630       ??_C@_03HJBDCHOM@Feb?$AA@  10066630     LIBCMT:strftime.obj
 0003:0000e634       ??_C@_03JIHJHPIE@Jan?$AA@  10066634     LIBCMT:strftime.obj
 0003:0000e638       ??_C@_08INBOOONO@Saturday?$AA@ 10066638     LIBCMT:strftime.obj
 0003:0000e644       ??_C@_06JECMNKMI@Friday?$AA@ 10066644     LIBCMT:strftime.obj
 0003:0000e64c       ??_C@_08HACCIKIA@Thursday?$AA@ 1006664c     LIBCMT:strftime.obj
 0003:0000e658       ??_C@_09DLIGFAKA@Wednesday?$AA@ 10066658     LIBCMT:strftime.obj
 0003:0000e664       ??_C@_07BAAGCFCM@Tuesday?$AA@ 10066664     LIBCMT:strftime.obj
 0003:0000e66c       ??_C@_06JLEDEDGH@Monday?$AA@ 1006666c     LIBCMT:strftime.obj
 0003:0000e674       ??_C@_06OOPIFAJ@Sunday?$AA@ 10066674     LIBCMT:strftime.obj
 0003:0000e67c       ??_C@_03FEFJNEK@Sat?$AA@   1006667c     LIBCMT:strftime.obj
 0003:0000e680       ??_C@_03IDIOELNC@Fri?$AA@  10066680     LIBCMT:strftime.obj
 0003:0000e684       ??_C@_03IOFIKPDN@Thu?$AA@  10066684     LIBCMT:strftime.obj
 0003:0000e688       ??_C@_03MHOMLAJA@Wed?$AA@  10066688     LIBCMT:strftime.obj
 0003:0000e68c       ??_C@_03NAGEINEP@Tue?$AA@  1006668c     LIBCMT:strftime.obj
 0003:0000e690       ??_C@_03PDAGKDH@Mon?$AA@   10066690     LIBCMT:strftime.obj
 0003:0000e694       ??_C@_03KOEHGMDN@Sun?$AA@  10066694     LIBCMT:strftime.obj
 0003:0000e6a8       ___rgLocInfo               100666a8     LIBCMT:getqloc.obj
 0003:0000eb4c       ??_C@_08PKBIPKE@Paraguay?$AA@ 10066b4c     LIBCMT:getqloc.obj
 0003:0000eb58       ??_C@_07GHBIBIBP@Uruguay?$AA@ 10066b58     LIBCMT:getqloc.obj
 0003:0000eb60       ??_C@_05HBNKAPDN@Chile?$AA@ 10066b60     LIBCMT:getqloc.obj
 0003:0000eb68       ??_C@_07FEIFIPNF@Ecuador?$AA@ 10066b68     LIBCMT:getqloc.obj
 0003:0000eb70       ??_C@_09PGNFPGME@Argentina?$AA@ 10066b70     LIBCMT:getqloc.obj
 0003:0000eb7c       ??_C@_04IALPBJF@Peru?$AA@  10066b7c     LIBCMT:getqloc.obj
 0003:0000eb84       ??_C@_08IJPLNLKH@Colombia?$AA@ 10066b84     LIBCMT:getqloc.obj
 0003:0000eb90       ??_C@_09IDMFKCN@Venezuela?$AA@ 10066b90     LIBCMT:getqloc.obj
 0003:0000eb9c       ??_C@_0BD@DNEJOGOK@Dominican?5Republic?$AA@ 10066b9c     LIBCMT:getqloc.obj
 0003:0000ebb0       ??_C@_0N@LPINDNDB@South?5Africa?$AA@ 10066bb0     LIBCMT:getqloc.obj
 0003:0000ebc0       ??_C@_06BLJPEOBG@Panama?$AA@ 10066bc0     LIBCMT:getqloc.obj
 0003:0000ebc8       ??_C@_0L@BOCNDGON@Luxembourg?$AA@ 10066bc8     LIBCMT:getqloc.obj
 0003:0000ebd4       ??_C@_0L@CONEHKA@Costa?5Rica?$AA@ 10066bd4     LIBCMT:getqloc.obj
 0003:0000ebe0       ??_C@_0M@KGBPELAM@Switzerland?$AA@ 10066be0     LIBCMT:getqloc.obj
 0003:0000ebec       ??_C@_09FJGLIMAG@Guatemala?$AA@ 10066bec     LIBCMT:getqloc.obj
 0003:0000ebf8       ??_C@_06ECHIPDMK@Canada?$AA@ 10066bf8     LIBCMT:getqloc.obj
 0003:0000ec00       ??_C@_0BG@CCEBNPGH@Spanish?5?9?5Modern?5Sort?$AA@ 10066c00     LIBCMT:getqloc.obj
 0003:0000ec18       ??_C@_09EFGJAPAD@Australia?$AA@ 10066c18     LIBCMT:getqloc.obj
 0003:0000ec24       ??_C@_07NEKHPBCG@English?$AA@ 10066c24     LIBCMT:getqloc.obj
 0003:0000ec2c       ??_C@_07LKIIOGFH@Austria?$AA@ 10066c2c     LIBCMT:getqloc.obj
 0003:0000ec34       ??_C@_06EDDDIONA@German?$AA@ 10066c34     LIBCMT:getqloc.obj
 0003:0000ec3c       ??_C@_07LIIIOFOA@Belgium?$AA@ 10066c3c     LIBCMT:getqloc.obj
 0003:0000ec44       ??_C@_06DIAOLLEH@Mexico?$AA@ 10066c44     LIBCMT:getqloc.obj
 0003:0000ec4c       ??_C@_07PFALJOGE@Spanish?$AA@ 10066c4c     LIBCMT:getqloc.obj
 0003:0000ec54       ??_C@_06FFOOPAJB@Basque?$AA@ 10066c54     LIBCMT:getqloc.obj
 0003:0000ec5c       ??_C@_06DGHNDJFJ@Sweden?$AA@ 10066c5c     LIBCMT:getqloc.obj
 0003:0000ec64       ??_C@_07OBINPKFN@Swedish?$AA@ 10066c64     LIBCMT:getqloc.obj
 0003:0000ec6c       ??_C@_07NCOIHDGC@Iceland?$AA@ 10066c6c     LIBCMT:getqloc.obj
 0003:0000ec74       ??_C@_09JHBBDDIA@Icelandic?$AA@ 10066c74     LIBCMT:getqloc.obj
 0003:0000ec80       ??_C@_06COBCPIFO@France?$AA@ 10066c80     LIBCMT:getqloc.obj
 0003:0000ec88       ??_C@_06GODMCAND@French?$AA@ 10066c88     LIBCMT:getqloc.obj
 0003:0000ec90       ??_C@_07MFHPMOED@Finland?$AA@ 10066c90     LIBCMT:getqloc.obj
 0003:0000ec98       ??_C@_07MCEAMKOD@Finnish?$AA@ 10066c98     LIBCMT:getqloc.obj
 0003:0000eca0       ??_C@_05CBHOCCK@Spain?$AA@ 10066ca0     LIBCMT:getqloc.obj
 0003:0000eca8       ??_C@_0BL@GIOEGDHB@Spanish?5?9?5Traditional?5Sort?$AA@ 10066ca8     LIBCMT:getqloc.obj
 0003:0000ecc4       ___rglangidNotDefault      10066cc4     LIBCMT:getqloc.obj
 0003:0000ecd8       ___rg_country              10066cd8     LIBCMT:getqloc.obj
 0003:0000ed90       ??_C@_0O@FMJNFNKE@united?9states?$AA@ 10066d90     LIBCMT:getqloc.obj
 0003:0000eda0       ??_C@_0P@NDHFFKCA@united?9kingdom?$AA@ 10066da0     LIBCMT:getqloc.obj
 0003:0000edb0       ??_C@_0BC@HHDADLGF@trinidad?5?$CG?5tobago?$AA@ 10066db0     LIBCMT:getqloc.obj
 0003:0000edc4       ??_C@_0M@IOAEBDAC@south?9korea?$AA@ 10066dc4     LIBCMT:getqloc.obj
 0003:0000edd0       ??_C@_0N@FIELFKIJ@south?9africa?$AA@ 10066dd0     LIBCMT:getqloc.obj
 0003:0000ede0       ??_C@_0M@OPNDHCMC@south?5korea?$AA@ 10066de0     LIBCMT:getqloc.obj
 0003:0000edec       ??_C@_0N@MDEOEPFI@south?5africa?$AA@ 10066dec     LIBCMT:getqloc.obj
 0003:0000edfc       ??_C@_06FKAPCJLB@slovak?$AA@ 10066dfc     LIBCMT:getqloc.obj
 0003:0000ee04       ??_C@_0M@EFJANOAL@puerto?9rico?$AA@ 10066e04     LIBCMT:getqloc.obj
 0003:0000ee10       ??_C@_08PGOJKDAI@pr?9china?$AA@ 10066e10     LIBCMT:getqloc.obj
 0003:0000ee1c       ??_C@_08JHDOMCMI@pr?5china?$AA@ 10066e1c     LIBCMT:getqloc.obj
 0003:0000ee28       ??_C@_02JHCHFBLL@nz?$AA@   10066e28     LIBCMT:getqloc.obj
 0003:0000ee2c       ??_C@_0M@LINHDHKP@new?9zealand?$AA@ 10066e2c     LIBCMT:getqloc.obj
 0003:0000ee38       ??_C@_09IIIPPBDB@hong?9kong?$AA@ 10066e38     LIBCMT:getqloc.obj
 0003:0000ee44       ??_C@_07HJLCKBG@holland?$AA@ 10066e44     LIBCMT:getqloc.obj
 0003:0000ee4c       ??_C@_0O@LEHGMHAG@great?5britain?$AA@ 10066e4c     LIBCMT:getqloc.obj
 0003:0000ee5c       ??_C@_07FACOMELA@england?$AA@ 10066e5c     LIBCMT:getqloc.obj
 0003:0000ee64       ??_C@_05JIHCEICB@czech?$AA@ 10066e64     LIBCMT:getqloc.obj
 0003:0000ee6c       ??_C@_05BBJOBLGB@china?$AA@ 10066e6c     LIBCMT:getqloc.obj
 0003:0000ee74       ??_C@_07GPKPHICP@britain?$AA@ 10066e74     LIBCMT:getqloc.obj
 0003:0000ee7c       ??_C@_07MHIPBHMG@america?$AA@ 10066e7c     LIBCMT:getqloc.obj
 0003:0000ee88       ___rg_language             10066e88     LIBCMT:getqloc.obj
 0003:0000f090       ??_C@_03KIALPMKC@usa?$AA@  10067090     LIBCMT:getqloc.obj
 0003:0000f094       ??_C@_02FGJGKGGD@us?$AA@   10067094     LIBCMT:getqloc.obj
 0003:0000f098       ??_C@_02NEINDODK@uk?$AA@   10067098     LIBCMT:getqloc.obj
 0003:0000f09c       ??_C@_05JMPCFJFJ@swiss?$AA@ 1006709c     LIBCMT:getqloc.obj
 0003:0000f0a4       ??_C@_0BA@HLOCPIOD@swedish?9finland?$AA@ 100670a4     LIBCMT:getqloc.obj
 0003:0000f0b4       ??_C@_0BC@PKCNIABK@spanish?9venezuela?$AA@ 100670b4     LIBCMT:getqloc.obj
 0003:0000f0c8       ??_C@_0BA@GBHHMIJI@spanish?9uruguay?$AA@ 100670c8     LIBCMT:getqloc.obj
 0003:0000f0d8       ??_C@_0BE@BHDOHPMC@spanish?9puerto?5rico?$AA@ 100670d8     LIBCMT:getqloc.obj
 0003:0000f0ec       ??_C@_0N@KMOIDGGN@spanish?9peru?$AA@ 100670ec     LIBCMT:getqloc.obj
 0003:0000f0fc       ??_C@_0BB@HMHLPGPH@spanish?9paraguay?$AA@ 100670fc     LIBCMT:getqloc.obj
 0003:0000f110       ??_C@_0P@MCPKNGFD@spanish?9panama?$AA@ 10067110     LIBCMT:getqloc.obj
 0003:0000f120       ??_C@_0BC@IHOHGAIL@spanish?9nicaragua?$AA@ 10067120     LIBCMT:getqloc.obj
 0003:0000f134       ??_C@_0P@KLMJDNFJ@spanish?9modern?$AA@ 10067134     LIBCMT:getqloc.obj
 0003:0000f144       ??_C@_0BA@BPAPGBCM@spanish?9mexican?$AA@ 10067144     LIBCMT:getqloc.obj
 0003:0000f154       ??_C@_0BB@PDECHHHE@spanish?9honduras?$AA@ 10067154     LIBCMT:getqloc.obj
 0003:0000f168       ??_C@_0BC@KLHKFGDB@spanish?9guatemala?$AA@ 10067168     LIBCMT:getqloc.obj
 0003:0000f17c       ??_C@_0BE@MFOOKJAI@spanish?9el?5salvador?$AA@ 1006717c     LIBCMT:getqloc.obj
 0003:0000f190       ??_C@_0BA@FCOKFPFC@spanish?9ecuador?$AA@ 10067190     LIBCMT:getqloc.obj
 0003:0000f1a0       ??_C@_0BL@PLMGIMOO@spanish?9dominican?5republic?$AA@ 100671a0     LIBCMT:getqloc.obj
 0003:0000f1bc       ??_C@_0BD@HLGDNMHB@spanish?9costa?5rica?$AA@ 100671bc     LIBCMT:getqloc.obj
 0003:0000f1d0       ??_C@_0BB@PKCBKCPE@spanish?9colombia?$AA@ 100671d0     LIBCMT:getqloc.obj
 0003:0000f1e4       ??_C@_0O@MCBIJGNE@spanish?9chile?$AA@ 100671e4     LIBCMT:getqloc.obj
 0003:0000f1f4       ??_C@_0BA@BEFEIGJJ@spanish?9bolivia?$AA@ 100671f4     LIBCMT:getqloc.obj
 0003:0000f204       ??_C@_0BC@EMECMPD@spanish?9argentina?$AA@ 10067204     LIBCMT:getqloc.obj
 0003:0000f218       ??_C@_0BF@EALFLENP@portuguese?9brazilian?$AA@ 10067218     LIBCMT:getqloc.obj
 0003:0000f230       ??_C@_0BC@HBLEBLNN@norwegian?9nynorsk?$AA@ 10067230     LIBCMT:getqloc.obj
 0003:0000f244       ??_C@_0BB@HMACDDCK@norwegian?9bokmal?$AA@ 10067244     LIBCMT:getqloc.obj
 0003:0000f258       ??_C@_09BAFFPPHE@norwegian?$AA@ 10067258     LIBCMT:getqloc.obj
 0003:0000f264       ??_C@_0O@EAJFJDFG@italian?9swiss?$AA@ 10067264     LIBCMT:getqloc.obj
 0003:0000f274       ??_C@_0O@CNOMPGD@irish?9english?$AA@ 10067274     LIBCMT:getqloc.obj
 0003:0000f284       ??_C@_0N@EDHBGCKG@german?9swiss?$AA@ 10067284     LIBCMT:getqloc.obj
 0003:0000f294       ??_C@_0BC@JACMHNBP@german?9luxembourg?$AA@ 10067294     LIBCMT:getqloc.obj
 0003:0000f2a8       ??_C@_0BE@HBGMGFEG@german?9lichtenstein?$AA@ 100672a8     LIBCMT:getqloc.obj
 0003:0000f2bc       ??_C@_0BA@HKKBIBKL@german?9austrian?$AA@ 100672bc     LIBCMT:getqloc.obj
 0003:0000f2cc       ??_C@_0N@GCAEPEBK@french?9swiss?$AA@ 100672cc     LIBCMT:getqloc.obj
 0003:0000f2dc       ??_C@_0BC@DJFJJCK@french?9luxembourg?$AA@ 100672dc     LIBCMT:getqloc.obj
 0003:0000f2f0       ??_C@_0BA@NNCEDFIC@french?9canadian?$AA@ 100672f0     LIBCMT:getqloc.obj
 0003:0000f300       ??_C@_0P@CMPOCLM@french?9belgian?$AA@ 10067300     LIBCMT:getqloc.obj
 0003:0000f310       ??_C@_0M@GHHDJOK@english?9usa?$AA@ 10067310     LIBCMT:getqloc.obj
 0003:0000f31c       ??_C@_0L@PLDJKEIL@english?9us?$AA@ 1006731c     LIBCMT:getqloc.obj
 0003:0000f328       ??_C@_0L@HJCCDMNC@english?9uk?$AA@ 10067328     LIBCMT:getqloc.obj
 0003:0000f334       ??_C@_0BK@CKLIAGJB@english?9trinidad?5y?5tobago?$AA@ 10067334     LIBCMT:getqloc.obj
 0003:0000f350       ??_C@_0BF@JMJMGNNF@english?9south?5africa?$AA@ 10067350     LIBCMT:getqloc.obj
 0003:0000f368       ??_C@_0L@DKIIFDFD@english?9nz?$AA@ 10067368     LIBCMT:getqloc.obj
 0003:0000f374       ??_C@_0BA@ONHGJCLH@english?9jamaica?$AA@ 10067374     LIBCMT:getqloc.obj
 0003:0000f384       ??_C@_0M@HJBGHOPO@english?9ire?$AA@ 10067384     LIBCMT:getqloc.obj
 0003:0000f390       ??_C@_0BC@LFEKMIFB@english?9caribbean?$AA@ 10067390     LIBCMT:getqloc.obj
 0003:0000f3a4       ??_C@_0M@OLDPFKHI@english?9can?$AA@ 100673a4     LIBCMT:getqloc.obj
 0003:0000f3b0       ??_C@_0P@OMDEHBMP@english?9belize?$AA@ 100673b0     LIBCMT:getqloc.obj
 0003:0000f3c0       ??_C@_0M@KFHFPFED@english?9aus?$AA@ 100673c0     LIBCMT:getqloc.obj
 0003:0000f3cc       ??_C@_0BB@MNMBKDFE@english?9american?$AA@ 100673cc     LIBCMT:getqloc.obj
 0003:0000f3e0       ??_C@_0O@KIDLNNBA@dutch?9belgian?$AA@ 100673e0     LIBCMT:getqloc.obj
 0003:0000f3f0       ??_C@_0BE@JBKABBMH@chinese?9traditional?$AA@ 100673f0     LIBCMT:getqloc.obj
 0003:0000f404       ??_C@_0BC@MJJMPKCG@chinese?9singapore?$AA@ 10067404     LIBCMT:getqloc.obj
 0003:0000f418       ??_C@_0BD@FDKADDCP@chinese?9simplified?$AA@ 10067418     LIBCMT:getqloc.obj
 0003:0000f42c       ??_C@_0BB@DBEFDDME@chinese?9hongkong?$AA@ 1006742c     LIBCMT:getqloc.obj
 0003:0000f440       ??_C@_07DHNMFMCI@chinese?$AA@ 10067440     LIBCMT:getqloc.obj
 0003:0000f448       ??_C@_03FNDDCHI@chi?$AA@   10067448     LIBCMT:getqloc.obj
 0003:0000f44c       ??_C@_03BMMIADDJ@chh?$AA@  1006744c     LIBCMT:getqloc.obj
 0003:0000f450       ??_C@_08OAIPJDGI@canadian?$AA@ 10067450     LIBCMT:getqloc.obj
 0003:0000f45c       ??_C@_07HBPMNPNJ@belgian?$AA@ 1006745c     LIBCMT:getqloc.obj
 0003:0000f464       ??_C@_0L@OEKOPBEL@australian?$AA@ 10067464     LIBCMT:getqloc.obj
 0003:0000f470       ??_C@_0BB@MEIMBEDG@american?9english?$AA@ 10067470     LIBCMT:getqloc.obj
 0003:0000f484       ??_C@_0BB@DFMDPDGB@american?5english?$AA@ 10067484     LIBCMT:getqloc.obj
 0003:0000f498       ??_C@_08IJLOKOLL@american?$AA@ 10067498     LIBCMT:getqloc.obj
 0003:0000f4a4       ??_C@_03NFKLAGEF@OCP?$AA@  100674a4     LIBCMT:getqloc.obj
 0003:0000f4a8       ??_C@_03DFHEHBHG@ACP?$AA@  100674a8     LIBCMT:getqloc.obj
 0003:0000f4ac       ??_C@_0BC@NFIEMBLL@Norwegian?9Nynorsk?$AA@ 100674ac     LIBCMT:getqloc.obj
 0003:0000f534       ??_C@_0CG@PKBDLMEO@InitializeCriticalSectionAndSpin@ 10067534     LIBCMT:initcrit.obj
 0003:0000f56c       ??_C@_0BI@DFKBFLJE@GetProcessWindowStation?$AA@ 1006756c     LIBCMT:crtmbox.obj
 0003:0000f584       ??_C@_0BK@CIDNPOGP@GetUserObjectInformationA?$AA@ 10067584     LIBCMT:crtmbox.obj
 0003:0000f5a0       ??_C@_0BD@HHGDFDBJ@GetLastActivePopup?$AA@ 100675a0     LIBCMT:crtmbox.obj
 0003:0000f5b4       ??_C@_0BA@HNOPNCHB@GetActiveWindow?$AA@ 100675b4     LIBCMT:crtmbox.obj
 0003:0000f5c4       ??_C@_0M@CHKKJDAI@MessageBoxA?$AA@ 100675c4     LIBCMT:crtmbox.obj
 0003:0000f5d0       ??_C@_0L@GMPLCCII@user32?4dll?$AA@ 100675d0     LIBCMT:crtmbox.obj
 0003:0000f628       ___lookuptable             10067628     LIBCMT:output.obj
 0003:0000f684       ??_C@_1O@CEDCILHN@?$AA?$CI?$AAn?$AAu?$AAl?$AAl?$AA?$CJ?$AA?$AA@ 10067684     LIBCMT:output.obj
 0003:0000f694       ??_C@_06OJHGLDPL@?$CInull?$CJ?$AA@ 10067694     LIBCMT:output.obj
 0003:0000f6bc       ___dnames                  100676bc     LIBCMT:timeset.obj
 0003:0000f6d4       ___mnames                  100676d4     LIBCMT:timeset.obj
 0003:0000f6fc       ??_C@_09KLGCKDOD@Program?3?5?$AA@ 100676fc     LIBCMT:secfail.obj
 0003:0000f708       ??_C@_0KA@JEHFIFGP@A?5buffer?5overrun?5has?5been?5detect@ 10067708     LIBCMT:secfail.obj
 0003:0000f7a8       ??_C@_0BJ@MDEKIEOJ@Buffer?5overrun?5detected?$CB?$AA@ 100677a8     LIBCMT:secfail.obj
 0003:0000f7c8       ??_C@_0LB@BPLHHLFD@A?5security?5error?5of?5unknown?5caus@ 100677c8     LIBCMT:secfail.obj
 0003:0000f87c       ??_C@_0CD@GMKACBEK@Unknown?5security?5failure?5detecte@ 1006787c     LIBCMT:secfail.obj
 0003:0000f8dc       ??_C@_06IMKFLFPG@1?$CDQNAN?$AA@ 100678dc     LIBCMT:x10fout.obj
 0003:0000f8e4       ??_C@_05DNEBIAHO@1?$CDINF?$AA@ 100678e4     LIBCMT:x10fout.obj
 0003:0000f8ec       ??_C@_05PHHOCPM@1?$CDIND?$AA@ 100678ec     LIBCMT:x10fout.obj
 0003:0000f8f4       ??_C@_06PGGFOGJG@1?$CDSNAN?$AA@ 100678f4     LIBCMT:x10fout.obj
 0003:0000fbb0       ??_R1A@?0A@A@type_info@@8  10067bb0     LIBCMT:typinfo.obj
 0003:0000fbc8       ??_R2type_info@@8          10067bc8     LIBCMT:typinfo.obj
 0003:0000fbd0       ??_R3type_info@@8          10067bd0     LIBCMT:typinfo.obj
 0003:0000fbe0       ??_R4type_info@@6B@        10067be0     LIBCMT:typinfo.obj
 0003:0000fbf4       ___rtc_iaa                 10067bf4     LIBCMT:initsect.obj
 0003:0000fbf8       ___rtc_izz                 10067bf8     LIBCMT:initsect.obj
 0003:0000fbfc       ___rtc_taa                 10067bfc     LIBCMT:initsect.obj
 0003:0000fc00       ___rtc_tzz                 10067c00     LIBCMT:initsect.obj
 0003:0000fc04       __IMPORT_DESCRIPTOR_KERNEL32 10067c04     kernel32:KERNEL32.dll
 0003:0000fc18       __IMPORT_DESCRIPTOR_IFXCore 10067c18     IFXCore:IFXCore.dll
 0003:0000fc2c       __IMPORT_DESCRIPTOR_USER32 10067c2c     user32:USER32.dll
 0003:0000fc40       __IMPORT_DESCRIPTOR_GDI32  10067c40     gdi32:GDI32.dll
 0003:0000fc54       __IMPORT_DESCRIPTOR_WINMM  10067c54     winmm:WINMM.dll
 0003:0000fc68       __NULL_IMPORT_DESCRIPTOR   10067c68     kernel32:KERNEL32.dll
 0004:00000000       ___xc_a                    10069000     LIBCMT:crt0init.obj
 0004:0000000c       ___xc_z                    1006900c     LIBCMT:crt0init.obj
 0004:00000010       ___xi_a                    10069010     LIBCMT:crt0init.obj
 0004:00000024       ___xi_z                    10069024     LIBCMT:crt0init.obj
 0004:00000028       ___xp_a                    10069028     LIBCMT:crt0init.obj
 0004:00000030       ___xp_z                    10069030     LIBCMT:crt0init.obj
 0004:00000034       ___xt_a                    10069034     LIBCMT:crt0init.obj
 0004:0000003c       ___xt_z                    1006903c     LIBCMT:crt0init.obj
 0004:000001a0       ??_8CIFXRenderDevice@@7B0@@ 100691a0     Rendering:CIFXRenderDevice.obj
 0004:000001ac       ??_8CIFXRenderDevice@@7BIFXRenderDevice@@@ 100691ac     Rendering:CIFXRenderDevice.obj
 0004:000001b4       ??_8CIFXRenderContext@@7B0@@ 100691b4     Rendering:CIFXRenderContext.obj
 0004:000001c0       ??_8CIFXRenderContext@@7BIFXRenderContext@@@ 100691c0     Rendering:CIFXRenderContext.obj
 0004:000001c8       ??_8CIFXRenderServices@@7B0@@ 100691c8     Rendering:CIFXRenderServices.obj
 0004:000001d4       ??_8CIFXRenderServices@@7BIFXRenderServices@@@ 100691d4     Rendering:CIFXRenderServices.obj
 0004:000001dc       ?_IFXMatrix4x4_Multiply@@3P6AXPAMPBM1@ZA 100691dc     Rendering:IFXMatrix4x4.obj
 0004:000001e0       ?_IFXMatrix4x4_MakeIdentity@@3P6AXPAM@ZA 100691e0     Rendering:IFXMatrix4x4.obj
 0004:000001e4       ?_IFXMatrix4x4_Scale@@3P6AXPAMPBM@ZA 100691e4     Rendering:IFXMatrix4x4.obj
 0004:000001e8       ?_IFXMatrix4x4_Transpose@@3P6AXPAM@ZA 100691e8     Rendering:IFXMatrix4x4.obj
 0004:000001ec       ?_IFXMatrix4x4_CalcDeterminant3x3@@3P6AMPBM@ZA 100691ec     Rendering:IFXMatrix4x4.obj
 0004:000001f0       ?_IFXMatrix4x4_CalcDeterminant@@3P6AMPBM@ZA 100691f0     Rendering:IFXMatrix4x4.obj
 0004:000001f4       ?_IFXMatrix4x4_Invert3x4@@3P6AHPAMPBM@ZA 100691f4     Rendering:IFXMatrix4x4.obj
 0004:000001f8       ?_IFXMatrix4x4_Invert@@3P6AHPAMPBM@ZA 100691f8     Rendering:IFXMatrix4x4.obj
 0004:000001fc       ?_IFXMatrix4x4_Multiply3x4@@3P6AXPAMPBM1@ZA 100691fc     Rendering:IFXMatrix4x4.obj
 0004:00000200       ??_R4IFXString@@6B@        10069200     Rendering:IFXString.obj
 0004:00000218       ??_R0?AVIFXString@@@8      10069218     Rendering:IFXString.obj
 0004:00000230       ??_R3IFXString@@8          10069230     Rendering:IFXString.obj
 0004:00000240       ??_R2IFXString@@8          10069240     Rendering:IFXString.obj
 0004:00000248       ??_R1A@?0A@A@IFXString@@8  10069248     Rendering:IFXString.obj
 0004:00000260       ??_R0?AVIFXUnknown@@@8     10069260     IFXRenderingNULL:CIFXDeviceLightNULL.obj
 0004:00000280       ??_R4CIFXDeviceLightNULL@@6BIFXRenderLight@@@ 10069280     IFXRenderingNULL:CIFXDeviceLightNULL.obj
 0004:00000298       ??_R0?AVCIFXDeviceLightNULL@@@8 10069298     IFXRenderingNULL:CIFXDeviceLightNULL.obj
 0004:000002c0       ??_R3CIFXDeviceLightNULL@@8 100692c0     IFXRenderingNULL:CIFXDeviceLightNULL.obj
 0004:000002d0       ??_R2CIFXDeviceLightNULL@@8 100692d0     IFXRenderingNULL:CIFXDeviceLightNULL.obj
 0004:000002e8       ??_R1A@?0A@A@CIFXDeviceLightNULL@@8 100692e8     IFXRenderingNULL:CIFXDeviceLightNULL.obj
 0004:00000300       ??_R1A@?0A@A@CIFXDeviceLight@@8 10069300     IFXRenderingNULL:CIFXDeviceLightNULL.obj
 0004:00000318       ??_R0?AVCIFXDeviceLight@@@8 10069318     IFXRenderingNULL:CIFXDeviceLightNULL.obj
 0004:00000338       ??_R1A@?0A@A@IFXRenderLight@@8 10069338     IFXRenderingNULL:CIFXDeviceLightNULL.obj
 0004:00000350       ??_R0?AVIFXRenderLight@@@8 10069350     IFXRenderingNULL:CIFXDeviceLightNULL.obj
 0004:00000370       ??_R1JI@?0A@A@CIFXDeviceBase@@8 10069370     IFXRenderingNULL:CIFXDeviceLightNULL.obj
 0004:00000388       ??_R0?AVCIFXDeviceBase@@@8 10069388     IFXRenderingNULL:CIFXDeviceLightNULL.obj
 0004:000003a8       ??_R1A@JM@3BA@IFXUnknown@@8 100693a8     IFXRenderingNULL:CIFXDeviceLightNULL.obj
 0004:000003c0       ??_R4CIFXDeviceLightNULL@@6BIFXUnknown@@@ 100693c0     IFXRenderingNULL:CIFXDeviceLightNULL.obj
 0004:000003d8       ??_R4CIFXDeviceLightNULL@@6BCIFXDeviceBase@@@ 100693d8     IFXRenderingNULL:CIFXDeviceLightNULL.obj
 0004:000003f0       ??_8CIFXDeviceLightNULL@@7B@ 100693f0     IFXRenderingNULL:CIFXDeviceLightNULL.obj
 0004:000003f8       ??_R4CIFXDeviceTextureNULL@@6BIFXUnknown@@@ 100693f8     IFXRenderingNULL:CIFXDeviceTextureNULL.obj
 0004:00000410       ??_R0?AVCIFXDeviceTextureNULL@@@8 10069410     IFXRenderingNULL:CIFXDeviceTextureNULL.obj
 0004:00000438       ??_R3CIFXDeviceTextureNULL@@8 10069438     IFXRenderingNULL:CIFXDeviceTextureNULL.obj
 0004:00000448       ??_R2CIFXDeviceTextureNULL@@8 10069448     IFXRenderingNULL:CIFXDeviceTextureNULL.obj
 0004:00000458       ??_R1A@?0A@A@CIFXDeviceTextureNULL@@8 10069458     IFXRenderingNULL:CIFXDeviceTextureNULL.obj
 0004:00000470       ??_R1A@?0A@A@CIFXDeviceTexture@@8 10069470     IFXRenderingNULL:CIFXDeviceTextureNULL.obj
 0004:00000488       ??_R0?AVCIFXDeviceTexture@@@8 10069488     IFXRenderingNULL:CIFXDeviceTextureNULL.obj
 0004:000004a8       ??_R1A@?0A@A@CIFXDeviceBase@@8 100694a8     IFXRenderingNULL:CIFXDeviceTextureNULL.obj
 0004:000004c0       ??_R1A@33BA@IFXUnknown@@8  100694c0     IFXRenderingNULL:CIFXDeviceTextureNULL.obj
 0004:000004d8       ??_R4CIFXDeviceTextureNULL@@6BCIFXDeviceBase@@@ 100694d8     IFXRenderingNULL:CIFXDeviceTextureNULL.obj
 0004:000004f0       ??_8CIFXDeviceTextureNULL@@7B@ 100694f0     IFXRenderingNULL:CIFXDeviceTextureNULL.obj
 0004:000004f8       ??_R0?AVIFXRenderTexUnit@@@8 100694f8     IFXRenderingNULL:CIFXDeviceTexUnitNULL.obj
 0004:00000518       ??_R1A@?0A@A@IFXRenderTexUnit@@8 10069518     IFXRenderingNULL:CIFXDeviceTexUnitNULL.obj
 0004:00000530       ??_R4CIFXDeviceBase@@6B0@@ 10069530     IFXRenderingNULL:CIFXDeviceTexUnitNULL.obj
 0004:00000548       ??_R3CIFXDeviceBase@@8     10069548     IFXRenderingNULL:CIFXDeviceTexUnitNULL.obj
 0004:00000558       ??_R2CIFXDeviceBase@@8     10069558     IFXRenderingNULL:CIFXDeviceTexUnitNULL.obj
 0004:00000560       ??_R4CIFXDeviceBase@@6BIFXUnknown@@@ 10069560     IFXRenderingNULL:CIFXDeviceTexUnitNULL.obj
 0004:00000578       ??_R4CIFXDeviceTexUnit@@6BIFXRenderTexUnit@@@ 10069578     IFXRenderingNULL:CIFXDeviceTexUnitNULL.obj
 0004:00000590       ??_R0?AVCIFXDeviceTexUnit@@@8 10069590     IFXRenderingNULL:CIFXDeviceTexUnitNULL.obj
 0004:000005b0       ??_R3CIFXDeviceTexUnit@@8  100695b0     IFXRenderingNULL:CIFXDeviceTexUnitNULL.obj
 0004:000005c0       ??_R2CIFXDeviceTexUnit@@8  100695c0     IFXRenderingNULL:CIFXDeviceTexUnitNULL.obj
 0004:000005d0       ??_R1A@?0A@A@CIFXDeviceTexUnit@@8 100695d0     IFXRenderingNULL:CIFXDeviceTexUnitNULL.obj
 0004:000005e8       ??_R1IM@?0A@A@CIFXDeviceBase@@8 100695e8     IFXRenderingNULL:CIFXDeviceTexUnitNULL.obj
 0004:00000600       ??_R1A@JA@3BA@IFXUnknown@@8 10069600     IFXRenderingNULL:CIFXDeviceTexUnitNULL.obj
 0004:00000618       ??_R4CIFXDeviceTexUnit@@6BIFXUnknown@@@ 10069618     IFXRenderingNULL:CIFXDeviceTexUnitNULL.obj
 0004:00000630       ??_R4CIFXDeviceTexUnit@@6BCIFXDeviceBase@@@ 10069630     IFXRenderingNULL:CIFXDeviceTexUnitNULL.obj
 0004:00000648       ??_R4CIFXDeviceTexUnitNULL@@6BIFXRenderTexUnit@@@ 10069648     IFXRenderingNULL:CIFXDeviceTexUnitNULL.obj
 0004:00000660       ??_R0?AVCIFXDeviceTexUnitNULL@@@8 10069660     IFXRenderingNULL:CIFXDeviceTexUnitNULL.obj
 0004:00000688       ??_R3CIFXDeviceTexUnitNULL@@8 10069688     IFXRenderingNULL:CIFXDeviceTexUnitNULL.obj
 0004:00000698       ??_R2CIFXDeviceTexUnitNULL@@8 10069698     IFXRenderingNULL:CIFXDeviceTexUnitNULL.obj
 0004:000006b0       ??_R1A@?0A@A@CIFXDeviceTexUnitNULL@@8 100696b0     IFXRenderingNULL:CIFXDeviceTexUnitNULL.obj
 0004:000006c8       ??_R4CIFXDeviceTexUnitNULL@@6BIFXUnknown@@@ 100696c8     IFXRenderingNULL:CIFXDeviceTexUnitNULL.obj
 0004:000006e0       ??_R4CIFXDeviceTexUnitNULL@@6BCIFXDeviceBase@@@ 100696e0     IFXRenderingNULL:CIFXDeviceTexUnitNULL.obj
 0004:000006f8       ??_8CIFXDeviceTexUnitNULL@@7B@ 100696f8     IFXRenderingNULL:CIFXDeviceTexUnitNULL.obj
 0004:00000700       ??_R0?AVIFXCoreSmartPtr@@@8 10069700     IFXRenderingNULL:CIFXRenderNULL.obj
 0004:00000720       ??_R1A@?0A@A@IFXCoreSmartPtr@@8 10069720     IFXRenderingNULL:CIFXRenderNULL.obj
 0004:00000738       ??_R0?AVIFXRenderContext@@@8 10069738     IFXRenderingNULL:CIFXRenderNULL.obj
 0004:00000758       ??_R4IFXRender@@6B0@@      10069758     IFXRenderingNULL:CIFXRenderNULL.obj
 0004:00000770       ??_R0?AVIFXRender@@@8      10069770     IFXRenderingNULL:CIFXRenderNULL.obj
 0004:00000788       ??_R3IFXRender@@8          10069788     IFXRenderingNULL:CIFXRenderNULL.obj
 0004:00000798       ??_R2IFXRender@@8          10069798     IFXRenderingNULL:CIFXRenderNULL.obj
 0004:000007a8       ??_R1A@?0A@A@IFXRender@@8  100697a8     IFXRenderingNULL:CIFXRenderNULL.obj
 0004:000007c0       ??_R1A@37BA@IFXRenderContext@@8 100697c0     IFXRenderingNULL:CIFXRenderNULL.obj
 0004:000007d8       ??_R4IFXRender@@6BIFXUnknown@@@ 100697d8     IFXRenderingNULL:CIFXRenderNULL.obj
 0004:000007f0       ??_R4IFXRender@@6BIFXRenderContext@@@ 100697f0     IFXRenderingNULL:CIFXRenderNULL.obj
 0004:00000808       ??_R4CIFXRenderNULL@@6BIFXUnknown@@@ 10069808     IFXRenderingNULL:CIFXRenderNULL.obj
 0004:00000820       ??_R0?AVCIFXRenderNULL@@@8 10069820     IFXRenderingNULL:CIFXRenderNULL.obj
 0004:00000840       ??_R3CIFXRenderNULL@@8     10069840     IFXRenderingNULL:CIFXRenderNULL.obj
 0004:00000850       ??_R2CIFXRenderNULL@@8     10069850     IFXRenderingNULL:CIFXRenderNULL.obj
 0004:00000868       ??_R1A@?0A@A@CIFXRenderNULL@@8 10069868     IFXRenderingNULL:CIFXRenderNULL.obj
 0004:00000880       ??_R1A@?0A@A@CIFXRender@@8 10069880     IFXRenderingNULL:CIFXRenderNULL.obj
 0004:00000898       ??_R0?AVCIFXRender@@@8     10069898     IFXRenderingNULL:CIFXRenderNULL.obj
 0004:000008b8       ??_R1A@3M@BA@IFXRender@@8  100698b8     IFXRenderingNULL:CIFXRenderNULL.obj
 0004:000008d0       ??_R4CIFXRenderNULL@@6BIFXRenderContext@@@ 100698d0     IFXRenderingNULL:CIFXRenderNULL.obj
 0004:000008e8       ??_R4CIFXRenderNULL@@6BIFXRender@@@ 100698e8     IFXRenderingNULL:CIFXRenderNULL.obj
 0004:00000900       ??_R4CIFXRenderNULL@@6BCIFXRender@@@ 10069900     IFXRenderingNULL:CIFXRenderNULL.obj
 0004:00000918       ??_8CIFXRenderNULL@@7BCIFXRender@@@ 10069918     IFXRenderingNULL:CIFXRenderNULL.obj
 0004:00000928       ??_8CIFXRenderNULL@@7BIFXRenderContext@@@ 10069928     IFXRenderingNULL:CIFXRenderNULL.obj
 0004:00000930       ??_8CIFXRenderNULL@@7BIFXRender@@@ 10069930     IFXRenderingNULL:CIFXRenderNULL.obj
 0004:00000940       ??_R4?$IFXSmartPtr@VCIFXRenderDeviceNULL@@@@6B@ 10069940     IFXRenderingNULL:CIFXRenderNULL.obj
 0004:00000958       ??_R0?AV?$IFXSmartPtr@VCIFXRenderDeviceNULL@@@@@8 10069958     IFXRenderingNULL:CIFXRenderNULL.obj
 0004:00000990       ??_R3?$IFXSmartPtr@VCIFXRenderDeviceNULL@@@@8 10069990     IFXRenderingNULL:CIFXRenderNULL.obj
 0004:000009a0       ??_R2?$IFXSmartPtr@VCIFXRenderDeviceNULL@@@@8 100699a0     IFXRenderingNULL:CIFXRenderNULL.obj
 0004:000009a8       ??_R1A@?0A@A@?$IFXSmartPtr@VCIFXRenderDeviceNULL@@@@8 100699a8     IFXRenderingNULL:CIFXRenderNULL.obj
 0004:000009c0       ??_R4?$IFXSmartPtr@VCIFXDeviceTextureNULL@@@@6B@ 100699c0     IFXRenderingNULL:CIFXRenderNULL.obj
 0004:000009d8       ??_R0?AV?$IFXSmartPtr@VCIFXDeviceTextureNULL@@@@@8 100699d8     IFXRenderingNULL:CIFXRenderNULL.obj
 0004:00000a10       ??_R3?$IFXSmartPtr@VCIFXDeviceTextureNULL@@@@8 10069a10     IFXRenderingNULL:CIFXRenderNULL.obj
 0004:00000a20       ??_R2?$IFXSmartPtr@VCIFXDeviceTextureNULL@@@@8 10069a20     IFXRenderingNULL:CIFXRenderNULL.obj
 0004:00000a28       ??_R1A@?0A@A@?$IFXSmartPtr@VCIFXDeviceTextureNULL@@@@8 10069a28     IFXRenderingNULL:CIFXRenderNULL.obj
 0004:00000a40       ??_R4?$IFXSmartPtr@VCIFXDeviceLightNULL@@@@6B@ 10069a40     IFXRenderingNULL:CIFXRenderNULL.obj
 0004:00000a58       ??_R0?AV?$IFXSmartPtr@VCIFXDeviceLightNULL@@@@@8 10069a58     IFXRenderingNULL:CIFXRenderNULL.obj
 0004:00000a90       ??_R3?$IFXSmartPtr@VCIFXDeviceLightNULL@@@@8 10069a90     IFXRenderingNULL:CIFXRenderNULL.obj
 0004:00000aa0       ??_R2?$IFXSmartPtr@VCIFXDeviceLightNULL@@@@8 10069aa0     IFXRenderingNULL:CIFXRenderNULL.obj
 0004:00000aa8       ??_R1A@?0A@A@?$IFXSmartPtr@VCIFXDeviceLightNULL@@@@8 10069aa8     IFXRenderingNULL:CIFXRenderNULL.obj
 0004:00000ac0       ??_R4?$IFXSmartPtr@VCIFXDeviceTexUnitNULL@@@@6B@ 10069ac0     IFXRenderingNULL:CIFXRenderNULL.obj
 0004:00000ad8       ??_R0?AV?$IFXSmartPtr@VCIFXDeviceTexUnitNULL@@@@@8 10069ad8     IFXRenderingNULL:CIFXRenderNULL.obj
 0004:00000b10       ??_R3?$IFXSmartPtr@VCIFXDeviceTexUnitNULL@@@@8 10069b10     IFXRenderingNULL:CIFXRenderNULL.obj
 0004:00000b20       ??_R2?$IFXSmartPtr@VCIFXDeviceTexUnitNULL@@@@8 10069b20     IFXRenderingNULL:CIFXRenderNULL.obj
 0004:00000b28       ??_R1A@?0A@A@?$IFXSmartPtr@VCIFXDeviceTexUnitNULL@@@@8 10069b28     IFXRenderingNULL:CIFXRenderNULL.obj
 0004:00000b40       ??_R0?AVIFXRenderDevice@@@8 10069b40     IFXRenderingNULL:CIFXRenderDeviceNULL.obj
 0004:00000b60       ??_R4CIFXRenderDeviceNULL@@6BIFXUnknown@@@ 10069b60     IFXRenderingNULL:CIFXRenderDeviceNULL.obj
 0004:00000b78       ??_R0?AVCIFXRenderDeviceNULL@@@8 10069b78     IFXRenderingNULL:CIFXRenderDeviceNULL.obj
 0004:00000ba0       ??_R3CIFXRenderDeviceNULL@@8 10069ba0     IFXRenderingNULL:CIFXRenderDeviceNULL.obj
 0004:00000bb0       ??_R2CIFXRenderDeviceNULL@@8 10069bb0     IFXRenderingNULL:CIFXRenderDeviceNULL.obj
 0004:00000bc8       ??_R1A@?0A@A@CIFXRenderDeviceNULL@@8 10069bc8     IFXRenderingNULL:CIFXRenderDeviceNULL.obj
 0004:00000be0       ??_R1A@?0A@A@CIFXRenderDevice@@8 10069be0     IFXRenderingNULL:CIFXRenderDeviceNULL.obj
 0004:00000bf8       ??_R0?AVCIFXRenderDevice@@@8 10069bf8     IFXRenderingNULL:CIFXRenderDeviceNULL.obj
 0004:00000c18       ??_R1A@37BA@IFXRenderDevice@@8 10069c18     IFXRenderingNULL:CIFXRenderDeviceNULL.obj
 0004:00000c30       ??_R4CIFXRenderDeviceNULL@@6BIFXRenderDevice@@@ 10069c30     IFXRenderingNULL:CIFXRenderDeviceNULL.obj
 0004:00000c48       ??_R4CIFXRenderDeviceNULL@@6BCIFXRenderDevice@@@ 10069c48     IFXRenderingNULL:CIFXRenderDeviceNULL.obj
 0004:00000c60       ??_8CIFXRenderDeviceNULL@@7BCIFXRenderDevice@@@ 10069c60     IFXRenderingNULL:CIFXRenderDeviceNULL.obj
 0004:00000c6c       ??_8CIFXRenderDeviceNULL@@7BIFXRenderDevice@@@ 10069c6c     IFXRenderingNULL:CIFXRenderDeviceNULL.obj
 0004:00000c74       ??_8CIFXOpenGLOS@@7BCIFXOpenGL@@@ 10069c74     IFXRenderingOpenGL:CIFXOpenGLOS.obj
 0004:00000c84       ??_8CIFXOpenGLOS@@7BIFXOpenGL@@@ 10069c84     IFXRenderingOpenGL:CIFXOpenGLOS.obj
 0004:00000c8c       ??_8CIFXOpenGLOS@@7BIFXOpenGLOS@@@ 10069c8c     IFXRenderingOpenGL:CIFXOpenGLOS.obj
 0004:00000c98       ??_8CIFXDeviceLightOGL@@7B@ 10069c98     IFXRenderingOpenGL:CIFXDeviceLightOGL.obj
 0004:00000ca0       ??_8CIFXDeviceTextureOGL@@7B@ 10069ca0     IFXRenderingOpenGL:CIFXDeviceTextureOGL.obj
 0004:00000ca8       ??_8CIFXDeviceTexUnitOGL@@7B@ 10069ca8     IFXRenderingOpenGL:CIFXDeviceTexUnitOGL.obj
 0004:00000cb0       ??_8CIFXRenderOGL@@7BCIFXRender@@@ 10069cb0     IFXRenderingOpenGL:CIFXRenderOGL.obj
 0004:00000cc0       ??_8CIFXRenderOGL@@7BIFXRenderContext@@@ 10069cc0     IFXRenderingOpenGL:CIFXRenderOGL.obj
 0004:00000cc8       ??_8CIFXRenderOGL@@7BIFXRender@@@ 10069cc8     IFXRenderingOpenGL:CIFXRenderOGL.obj
 0004:00000cd4       ??_8?$IFXIteratorT@VIFXVector3@@@@7B@ 10069cd4     IFXRenderingOpenGL:CIFXRenderDeviceOGL.obj
 0004:00000cdc       ??_8CIFXRenderDeviceOGL@@7BCIFXRenderDevice@@@ 10069cdc     IFXRenderingOpenGL:CIFXRenderDeviceOGL.obj
 0004:00000ce8       ??_8CIFXRenderDeviceOGL@@7BIFXRenderDevice@@@ 10069ce8     IFXRenderingOpenGL:CIFXRenderDeviceOGL.obj
 0004:00000cf0       ??_8?$IFXIteratorT@I@@7B@  10069cf0     IFXRenderingOpenGL:CIFXRenderDeviceOGL.obj
 0004:00000cf8       ??_8?$IFXIteratorT@V?$IFXFaceT@G@@@@7B@ 10069cf8     IFXRenderingOpenGL:CIFXRenderDeviceOGL.obj
 0004:00000d00       ??_8?$IFXIteratorT@V?$IFXFaceT@I@@@@7B@ 10069d00     IFXRenderingOpenGL:CIFXRenderDeviceOGL.obj
 0004:00000d08       ??_8?$IFXIteratorT@V?$IFXLineT@G@@@@7B@ 10069d08     IFXRenderingOpenGL:CIFXRenderDeviceOGL.obj
 0004:00000d10       ??_8?$IFXIteratorT@V?$IFXLineT@I@@@@7B@ 10069d10     IFXRenderingOpenGL:CIFXRenderDeviceOGL.obj
 0004:00000d18       ??_8?$IFXIteratorT@VIFXVector2@@@@7B@ 10069d18     IFXRenderingOpenGL:CIFXRenderDeviceOGL.obj
 0004:00000d28       ??_8CIFXDeviceLightDX7@@7B@ 10069d28     IFXRenderingDX7:CIFXDeviceLightDX7.obj
 0004:00000d30       ??_8CIFXDeviceTextureDX7@@7B@ 10069d30     IFXRenderingDX7:CIFXDeviceTextureDX7.obj
 0004:00000d38       ??_8CIFXDeviceTexUnitDX7@@7B@ 10069d38     IFXRenderingDX7:CIFXDeviceTexUnitDX7.obj
 0004:00000d40       ??_8CIFXDirectX7@@7B0@@    10069d40     IFXRenderingDX7:CIFXDirectX7.obj
 0004:00000d4c       ??_8CIFXDirectX7@@7BIFXDirectX7@@@ 10069d4c     IFXRenderingDX7:CIFXDirectX7.obj
 0004:00000d54       ??_8CIFXRenderDX7@@7BCIFXRender@@@ 10069d54     IFXRenderingDX7:CIFXRenderDX7.obj
 0004:00000d64       ??_8CIFXRenderDX7@@7BIFXRenderContext@@@ 10069d64     IFXRenderingDX7:CIFXRenderDX7.obj
 0004:00000d6c       ??_8CIFXRenderDX7@@7BIFXRender@@@ 10069d6c     IFXRenderingDX7:CIFXRenderDX7.obj
 0004:00000d78       ??_8IFXVertexIter@@7B@     10069d78     IFXRenderingDX7:CIFXRenderDeviceDX7.obj
 0004:00000d80       ??_8CIFXRenderDeviceDX7@@7BCIFXRenderDevice@@@ 10069d80     IFXRenderingDX7:CIFXRenderDeviceDX7.obj
 0004:00000d8c       ??_8CIFXRenderDeviceDX7@@7BIFXRenderDevice@@@ 10069d8c     IFXRenderingDX7:CIFXRenderDeviceDX7.obj
 0004:00000d94       ??_8CIFXDeviceLightDX8@@7B@ 10069d94     IFXRenderingDX8:CIFXDeviceLightDX8.obj
 0004:00000d9c       ??_8CIFXDeviceTextureDX8@@7B@ 10069d9c     IFXRenderingDX8:CIFXDeviceTextureDX8.obj
 0004:00000da4       ??_8CIFXDeviceTexUnitDX8@@7B@ 10069da4     IFXRenderingDX8:CIFXDeviceTexUnitDX8.obj
 0004:00000dac       ??_8CIFXDirectX8@@7B0@@    10069dac     IFXRenderingDX8:CIFXDirectX8.obj
 0004:00000db8       ??_8CIFXDirectX8@@7BIFXDirectX8@@@ 10069db8     IFXRenderingDX8:CIFXDirectX8.obj
 0004:00000dc0       ??_8CIFXRenderDX8@@7BCIFXRender@@@ 10069dc0     IFXRenderingDX8:CIFXRenderDX8.obj
 0004:00000dd0       ??_8CIFXRenderDX8@@7BIFXRenderContext@@@ 10069dd0     IFXRenderingDX8:CIFXRenderDX8.obj
 0004:00000dd8       ??_8CIFXRenderDX8@@7BIFXRender@@@ 10069dd8     IFXRenderingDX8:CIFXRenderDX8.obj
 0004:00000de4       ??_8CIFXRenderDeviceDX8@@7BCIFXRenderDevice@@@ 10069de4     IFXRenderingDX8:CIFXRenderDeviceDX8.obj
 0004:00000df0       ??_8CIFXRenderDeviceDX8@@7BIFXRenderDevice@@@ 10069df0     IFXRenderingDX8:CIFXRenderDeviceDX8.obj
 0004:00000df8       ??_R4IFXObserver@@6B0@@    10069df8     Culling:CIFXOctreeCollection.obj
 0004:00000e10       ??_R0?AVIFXObserver@@@8    10069e10     Culling:CIFXOctreeCollection.obj
 0004:00000e30       ??_R3IFXObserver@@8        10069e30     Culling:CIFXOctreeCollection.obj
 0004:00000e40       ??_R2IFXObserver@@8        10069e40     Culling:CIFXOctreeCollection.obj
 0004:00000e48       ??_R1A@?0A@A@IFXObserver@@8 10069e48     Culling:CIFXOctreeCollection.obj
 0004:00000e60       ??_R4IFXObserver@@6BIFXUnknown@@@ 10069e60     Culling:CIFXOctreeCollection.obj
 0004:00000e78       ??_R4IFXCollection@@6B0@@  10069e78     Culling:CIFXOctreeCollection.obj
 0004:00000e90       ??_R0?AVIFXCollection@@@8  10069e90     Culling:CIFXOctreeCollection.obj
 0004:00000eb0       ??_R3IFXCollection@@8      10069eb0     Culling:CIFXOctreeCollection.obj
 0004:00000ec0       ??_R2IFXCollection@@8      10069ec0     Culling:CIFXOctreeCollection.obj
 0004:00000ec8       ??_R1A@?0A@A@IFXCollection@@8 10069ec8     Culling:CIFXOctreeCollection.obj
 0004:00000ee0       ??_R4IFXCollection@@6BIFXUnknown@@@ 10069ee0     Culling:CIFXOctreeCollection.obj
 0004:00000ef8       ??_R4CIFXOctreeCollection@@6BIFXUnknown@@@ 10069ef8     Culling:CIFXOctreeCollection.obj
 0004:00000f10       ??_R0?AVCIFXOctreeCollection@@@8 10069f10     Culling:CIFXOctreeCollection.obj
 0004:00000f38       ??_R3CIFXOctreeCollection@@8 10069f38     Culling:CIFXOctreeCollection.obj
 0004:00000f48       ??_R2CIFXOctreeCollection@@8 10069f48     Culling:CIFXOctreeCollection.obj
 0004:00000f58       ??_R1A@?0A@A@CIFXOctreeCollection@@8 10069f58     Culling:CIFXOctreeCollection.obj
 0004:00000f70       ??_R4CIFXOctreeCollection@@6BIFXCollection@@@ 10069f70     Culling:CIFXOctreeCollection.obj
 0004:00000f88       ??_8CIFXOctreeCollection@@7B@ 10069f88     Culling:CIFXOctreeCollection.obj
 0004:00000f90       ??_R4COctreeNode@@6BIFXUnknown@@@ 10069f90     Culling:CIFXOctreeCollection.obj
 0004:00000fa8       ??_R0?AVCOctreeNode@@@8    10069fa8     Culling:CIFXOctreeCollection.obj
 0004:00000fc8       ??_R3COctreeNode@@8        10069fc8     Culling:CIFXOctreeCollection.obj
 0004:00000fd8       ??_R2COctreeNode@@8        10069fd8     Culling:CIFXOctreeCollection.obj
 0004:00000fe8       ??_R1A@?0A@A@COctreeNode@@8 10069fe8     Culling:CIFXOctreeCollection.obj
 0004:00001000       ??_R4COctreeNode@@6BIFXObserver@@@ 1006a000     Culling:CIFXOctreeCollection.obj
 0004:00001018       ??_8COctreeNode@@7B@       1006a018     Culling:CIFXOctreeCollection.obj
 0004:00001020       ??_R4IFXSpatialSetQuery@@6B0@@ 1006a020     Culling:CIFXScenegraphCuller.obj
 0004:00001038       ??_R0?AVIFXSpatialSetQuery@@@8 1006a038     Culling:CIFXScenegraphCuller.obj
 0004:00001060       ??_R3IFXSpatialSetQuery@@8 1006a060     Culling:CIFXScenegraphCuller.obj
 0004:00001070       ??_R2IFXSpatialSetQuery@@8 1006a070     Culling:CIFXScenegraphCuller.obj
 0004:00001078       ??_R1A@?0A@A@IFXSpatialSetQuery@@8 1006a078     Culling:CIFXScenegraphCuller.obj
 0004:00001090       ??_R4IFXSpatialSetQuery@@6BIFXUnknown@@@ 1006a090     Culling:CIFXScenegraphCuller.obj
 0004:000010a8       ??_R4CIFXSceneGraphCuller@@6B0@@ 1006a0a8     Culling:CIFXScenegraphCuller.obj
 0004:000010c0       ??_R0?AVCIFXSceneGraphCuller@@@8 1006a0c0     Culling:CIFXScenegraphCuller.obj
 0004:000010e8       ??_R3CIFXSceneGraphCuller@@8 1006a0e8     Culling:CIFXScenegraphCuller.obj
 0004:000010f8       ??_R2CIFXSceneGraphCuller@@8 1006a0f8     Culling:CIFXScenegraphCuller.obj
 0004:00001108       ??_R1A@?0A@A@CIFXSceneGraphCuller@@8 1006a108     Culling:CIFXScenegraphCuller.obj
 0004:00001120       ??_R1A@37BA@IFXSpatialSetQuery@@8 1006a120     Culling:CIFXScenegraphCuller.obj
 0004:00001138       ??_R4CIFXSceneGraphCuller@@6BIFXUnknown@@@ 1006a138     Culling:CIFXScenegraphCuller.obj
 0004:00001150       ??_R4CIFXSceneGraphCuller@@6BIFXSpatialSetQuery@@@ 1006a150     Culling:CIFXScenegraphCuller.obj
 0004:00001168       ??_8CIFXSceneGraphCuller@@7B0@@ 1006a168     Culling:CIFXScenegraphCuller.obj
 0004:00001174       ??_8CIFXSceneGraphCuller@@7BIFXSpatialSetQuery@@@ 1006a174     Culling:CIFXScenegraphCuller.obj
 0004:00001180       ??_R4CIFXOctreeCuller@@6BIFXUnknown@@@ 1006a180     Culling:CIFXOctreeCuller.obj
 0004:00001198       ??_R0?AVCIFXOctreeCuller@@@8 1006a198     Culling:CIFXOctreeCuller.obj
 0004:000011b8       ??_R3CIFXOctreeCuller@@8   1006a1b8     Culling:CIFXOctreeCuller.obj
 0004:000011c8       ??_R2CIFXOctreeCuller@@8   1006a1c8     Culling:CIFXOctreeCuller.obj
 0004:000011d8       ??_R1A@?0A@A@CIFXOctreeCuller@@8 1006a1d8     Culling:CIFXOctreeCuller.obj
 0004:000011f0       ??_R4CIFXOctreeCuller@@6BIFXSpatialSetQuery@@@ 1006a1f0     Culling:CIFXOctreeCuller.obj
 0004:00001208       ??_8CIFXOctreeCuller@@7B@  1006a208     Culling:CIFXOctreeCuller.obj
 0004:00001210       __LIB_VERSIONIMF           1006a210     libmmt:libm_error.omu
 0004:00001214       _pmatherrf                 1006a214     libmmt:libm_error.omu
 0004:00001218       _pmatherr                  1006a218     libmmt:libm_error.omu
 0004:0000121c       _pmatherrl                 1006a21c     libmmt:libm_error.omu
 0004:00001220       __aexit_rtn                1006a220     LIBCMT:dllcrt0.obj
 0004:00001224       __fltused                  1006a224     LIBCMT:fpinit.obj
 0004:00001228       __ldused                   1006a228     LIBCMT:fpinit.obj
 0004:0000122c       __FPinit                   1006a22c     LIBCMT:fpinit.obj
 0004:00001230       __FPmtinit                 1006a230     LIBCMT:fpinit.obj
 0004:00001234       __FPmtterm                 1006a234     LIBCMT:fpinit.obj
 0004:00001238       __NLG_Destination          1006a238     LIBCMT:exsup.obj
 0004:00001248       ??_R0?AVtype_info@@@8      1006a248     LIBCMT:typinfo.obj
 0004:00001268       ___initiallocinfo          1006a268     LIBCMT:setlocal.obj
 0004:000012bc       ___ptlocinfo               1006a2bc     LIBCMT:setlocal.obj
 0004:000013f8       ___lc_category             1006a3f8     LIBCMT:setlocal.obj
 0004:00001440       __iob                      1006a440     LIBCMT:_file.obj
 0004:00001828       ___tlsindex                1006a828     LIBCMT:tidtable.obj
 0004:0000182c       ___badioinfo               1006a82c     LIBCMT:ioinit.obj
 0004:00001850       __amblksiz                 1006a850     LIBCMT:heapinit.obj
 0004:00001860       __XcptActTab               1006a860     LIBCMT:winxfltr.obj
 0004:000018d8       __First_FPE_Indx           1006a8d8     LIBCMT:winxfltr.obj
 0004:000018dc       __Num_FPE                  1006a8dc     LIBCMT:winxfltr.obj
 0004:000018e0       __XcptActTabSize           1006a8e0     LIBCMT:winxfltr.obj
 0004:000018e4       __XcptActTabCount          1006a8e4     LIBCMT:winxfltr.obj
 0004:00001980       __cfltcvt_tab              1006a980     LIBCMT:cmiscdat.obj
 0004:00001998       ?__pInconsistency@@3P6AXXZA 1006a998     LIBCMT:hooks.obj
 0004:000019a0       ___security_cookie         1006a9a0     LIBCMT:seccook.obj
 0004:000019b0       __pctype                   1006a9b0     LIBCMT:ctype.obj
 0004:000019b4       __pwctype                  1006a9b4     LIBCMT:ctype.obj
 0004:00001ae0       ___lc_time_curr            1006aae0     LIBCMT:strftime.obj
 0004:00001ae8       ___lc_time_c               1006aae8     LIBCMT:strftime.obj
 0004:00001ba0       ___lconv_static_decimal    1006aba0     LIBCMT:lconv.obj
 0004:00001ba4       ___lconv_c                 1006aba4     LIBCMT:lconv.obj
 0004:00001bd4       ___lconv                   1006abd4     LIBCMT:lconv.obj
 0004:00001be0       ___lc_clike                1006abe0     LIBCMT:nlsdata2.obj
 0004:00001bf0       ___mb_cur_max              1006abf0     LIBCMT:nlsdata1.obj
 0004:00001bf4       ___decimal_point           1006abf4     LIBCMT:nlsdata1.obj
 0004:00001bf8       ___decimal_point_length    1006abf8     LIBCMT:nlsdata1.obj
 0004:00001d30       ___nullstring              1006ad30     LIBCMT:output.obj
 0004:00001d34       ___wnullstring             1006ad34     LIBCMT:output.obj
 0004:00001d40       __timezone                 1006ad40     LIBCMT:timeset.obj
 0004:00001d44       __daylight                 1006ad44     LIBCMT:timeset.obj
 0004:00001d48       __dstbias                  1006ad48     LIBCMT:timeset.obj
 0004:00001dd0       __tzname                   1006add0     LIBCMT:timeset.obj
 0004:00001df0       __lpdays                   1006adf0     LIBCMT:days.obj
 0004:00001e24       __days                     1006ae24     LIBCMT:days.obj
 0004:00001e60       __pow10pos                 1006ae60     LIBCMT:constpow.obj
 0004:00001fc0       __pow10neg                 1006afc0     LIBCMT:constpow.obj
 0004:00002120       _cache_values              1006b120     libirc:fast_mem_ops.obj
 0004:00002774       __memcpy_mem_ops_method    1006b774     libirc:fast_mem_ops.obj
 0004:00002780       ??_8CIFXDeviceLight@@7B@   1006b780     Rendering:CIFXDeviceLight.obj
 0004:00002788       ??_8CIFXDeviceTexture@@7B@ 1006b788     Rendering:CIFXDeviceTexture.obj
 0004:00002790       ??_8CIFXRender@@7B0@@      1006b790     Rendering:CIFXRender.obj
 0004:000027a0       ??_8CIFXRender@@7BIFXRenderContext@@@ 1006b7a0     Rendering:CIFXRender.obj
 0004:000027a8       ??_8CIFXRender@@7BIFXRender@@@ 1006b7a8     Rendering:CIFXRender.obj
 0004:000027c0       ?g_countActiveObjects@@3IA 1006b7c0     Rendering:IFXCorePluginStatic.obj
 0004:000027c8       ?ms_pSingleton@CIFXRenderServices@@1PAV1@A 1006b7c8     Rendering:CIFXRenderServices.obj
 0004:00002fe0       ?g_QPCFrequency@@3T_LARGE_INTEGER@@A 1006bfe0     IFXRenderingOpenGL:IFXOSUtilities.obj
 0004:00002fe8       ?g_bUseQPC@@3HA            1006bfe8     IFXRenderingOpenGL:IFXOSUtilities.obj
 0004:00002fec       ?g_eax@@3IA                1006bfec     IFXRenderingOpenGL:IFXOSUtilities.obj
 0004:00002ff0       ?g_ebx@@3IA                1006bff0     IFXRenderingOpenGL:IFXOSUtilities.obj
 0004:00002ff4       ?g_ecx@@3IA                1006bff4     IFXRenderingOpenGL:IFXOSUtilities.obj
 0004:00002ff8       ?g_edx@@3IA                1006bff8     IFXRenderingOpenGL:IFXOSUtilities.obj
 0004:00003000       ?ms_pSingleton@CIFXOpenGLOS@@1PAV1@A 1006c000     IFXRenderingOpenGL:CIFXOpenGLOS.obj
 0004:00003004       ?ms_pSurface@CIFXDeviceTextureOGL@@1PAEA 1006c004     IFXRenderingOpenGL:CIFXDeviceTextureOGL.obj
 0004:00003008       ?ms_uSurfaceSize@CIFXDeviceTextureOGL@@1IA 1006c008     IFXRenderingOpenGL:CIFXDeviceTextureOGL.obj
 0004:00003010       ?gs_uNumInUse@@3IA         1006c010     IFXRenderingOpenGL:IFXOSRender.obj
 0004:00003014       ?ms_pSingleton@CIFXDirectX7@@1PAV1@A 1006c014     IFXRenderingDX7:CIFXDirectX7.obj
 0004:00003018       ?ms_pSingleton@CIFXDirectX8@@1PAV1@A 1006c018     IFXRenderingDX8:CIFXDirectX8.obj
 0004:0000301c       ?m_pHugeSortKeys@CIFXSceneGraphCuller@@0PANA 1006c01c     Culling:CIFXScenegraphCuller.obj
 0004:00003020       ?m_uHugeSortKeys@CIFXSceneGraphCuller@@0IA 1006c020     Culling:CIFXScenegraphCuller.obj
 0004:00003024       ?m_uHugeSortKeysAllocated@CIFXSceneGraphCuller@@0IA 1006c024     Culling:CIFXScenegraphCuller.obj
 0004:0000302c       __aenvptr                  1006c02c     LIBCMT:dllcrt0.obj
 0004:00003030       __wenvptr                  1006c030     LIBCMT:dllcrt0.obj
 0004:00003034       ___error_mode              1006c034     LIBCMT:dllcrt0.obj
 0004:00003038       ___app_type                1006c038     LIBCMT:dllcrt0.obj
 0004:0000303c       ___fastflag                1006c03c     LIBCMT:fpinit.obj
 0004:00003040       __adjust_fdiv              1006c040     LIBCMT:fpinit.obj
 0004:00003044       ___pPurecall               1006c044     LIBCMT:purevirt.obj
 0004:00003048       __umaskval                 1006c048     LIBCMT:crt0dat.obj
 0004:0000304c       __osplatform               1006c04c     LIBCMT:crt0dat.obj
 0004:00003050       __osver                    1006c050     LIBCMT:crt0dat.obj
 0004:00003054       __winver                   1006c054     LIBCMT:crt0dat.obj
 0004:00003058       __winmajor                 1006c058     LIBCMT:crt0dat.obj
 0004:0000305c       __winminor                 1006c05c     LIBCMT:crt0dat.obj
 0004:00003060       ___argc                    1006c060     LIBCMT:crt0dat.obj
 0004:00003064       ___argv                    1006c064     LIBCMT:crt0dat.obj
 0004:00003068       ___wargv                   1006c068     LIBCMT:crt0dat.obj
 0004:0000306c       __environ                  1006c06c     LIBCMT:crt0dat.obj
 0004:00003070       ___initenv                 1006c070     LIBCMT:crt0dat.obj
 0004:00003074       __wenviron                 1006c074     LIBCMT:crt0dat.obj
 0004:00003078       ___winitenv                1006c078     LIBCMT:crt0dat.obj
 0004:0000307c       __pgmptr                   1006c07c     LIBCMT:crt0dat.obj
 0004:00003080       __wpgmptr                  1006c080     LIBCMT:crt0dat.obj
 0004:00003084       __exitflag                 1006c084     LIBCMT:crt0dat.obj
 0004:00003088       __C_Termination_Done       1006c088     LIBCMT:crt0dat.obj
 0004:0000308c       __C_Exit_Done              1006c08c     LIBCMT:crt0dat.obj
 0004:0000309c       __cflush                   1006c09c     LIBCMT:_file.obj
 0004:000030a0       _gpFlsAlloc                1006c0a0     LIBCMT:tidtable.obj
 0004:000030a4       _gpFlsGetValue             1006c0a4     LIBCMT:tidtable.obj
 0004:000030a8       _gpFlsSetValue             1006c0a8     LIBCMT:tidtable.obj
 0004:000030ac       _gpFlsFree                 1006c0ac     LIBCMT:tidtable.obj
 0004:000031bc       __adbgmsg                  1006c1bc     LIBCMT:crt0msg.obj
 0004:00003330       ___lconv_static_null       1006c330     LIBCMT:lconv.obj
 0004:00003334       ___lc_time_intl            1006c334     LIBCMT:inittime.obj
 0004:00003338       ___lconv_intl              1006c338     LIBCMT:initmon.obj
 0004:00003360       ___lc_handle               1006c360     LIBCMT:nlsdata2.obj
 0004:00003378       ___lc_codepage             1006c378     LIBCMT:nlsdata2.obj
 0004:0000337c       ___lc_collate_cp           1006c37c     LIBCMT:nlsdata2.obj
 0004:00003384       ___lc_id                   1006c384     LIBCMT:nlsdata3.obj
 0004:000033a8       __stdbuf                   1006c3a8     LIBCMT:_sftbuf.obj
 0004:000033b4       ?_pnhHeap@@3P6AHI@ZA       1006c3b4     LIBCMT:handler.obj
 0004:000033b8       __newmode                  1006c3b8     LIBCMT:_newmode.obj
 0004:000034ec       __commode                  1006c4ec     LIBCMT:ncommode.obj
 0004:000034f8       __fmode                    1006c4f8     LIBCMT:txtmode.obj
 0004:00003500       ___intel_cpu_indicator     1006c500     libirc:cpu_disp.obj
 0004:00003504       __memcpy_largest_cache_size 1006c504     libirc:fast_mem_ops.obj
 0004:00003508       __memcpy_largest_cachelinesize 1006c508     libirc:fast_mem_ops.obj
 0004:00003520       ?ms_mViewMatrix@CIFXDeviceLight@@1VIFXMatrix4x4@@A 1006c520     Rendering:CIFXDeviceLight.obj
 0004:00003560       ?ms_vZero@CIFXDeviceLight@@1VIFXVector3@@B 1006c560     Rendering:CIFXDeviceLight.obj
 0004:0000356c       ?ms_vNegativeZ@CIFXDeviceLight@@1VIFXVector3@@B 1006c56c     Rendering:CIFXDeviceLight.obj
 0004:00003578       ?ms_vPositiveZ@CIFXDeviceLight@@1VIFXVector3@@B 1006c578     Rendering:CIFXDeviceLight.obj
 0004:000035a0       ___sbh_pHeaderDefer        1006c5a0     <common>
 0004:000035a4       ___sbh_cntHeaderList       1006c5a4     <common>
 0004:000035a8       ___sbh_pHeaderList         1006c5a8     <common>
 0004:000035ac       ___sbh_threshold           1006c5ac     <common>
 0004:000035b0       ___sbh_pHeaderScan         1006c5b0     <common>
 0004:000035b4       ___sbh_sizeHeaderList      1006c5b4     <common>
 0004:000035b8       ___sbh_indGroupDefer       1006c5b8     <common>
 0004:000035bc       ___mblcid                  1006c5bc     <common>
 0004:000035c0       ___ptmbcinfo               1006c5c0     <common>
 0004:000035c4       ___ismbcodepage            1006c5c4     <common>
 0004:000035e0       __mbctype                  1006c5e0     <common>
 0004:000036e4       ___mbcodepage              1006c6e4     <common>
 0004:000036f0       ___mbulinfo                1006c6f0     <common>
 0004:00003700       __mbcasemap                1006c700     <common>
 0004:00003800       ___ctype1                  1006c800     <common>
 0004:00003804       ___ctype1_refcount         1006c804     <common>
 0004:00003808       ___lconv_mon_refcount      1006c808     <common>
 0004:0000380c       ___lconv_intl_refcount     1006c80c     <common>
 0004:00003810       ___lconv_num_refcount      1006c810     <common>
 0004:00003814       __crtheap                  1006c814     <common>
 0004:00003818       ___active_heap             1006c818     <common>
 0004:0000381c       __nhandle                  1006c81c     <common>
 0004:00003820       ___pioinfo                 1006c820     <common>
 0004:00003920       ___piob                    1006c920     <common>
 0004:00003940       __bufin                    1006c940     <common>
 0004:00004940       __nstream                  1006d940     <common>
 0004:00004944       ___env_initialized         1006d944     <common>
 0004:00004948       ___onexitend               1006d948     <common>
 0004:0000494c       ___onexitbegin             1006d94c     <common>
 0004:00004950       ___mbctype_initialized     1006d950     <common>
 0004:00004954       __acmdln                   1006d954     <common>
 0004:00004958       __pRawDllMain              1006d958     <common>
 0005:00000180       ??_7IFXCoreSmartPtr@@6B@   1006e180     Rendering:CIFXRenderDevice.obj
 0005:00000188       ??_7IFXUnknown@@6B@        1006e188     Rendering:CIFXRenderDevice.obj
 0005:00000194       ??_7IFXRenderBlend@@6B@    1006e194     Rendering:CIFXRenderDevice.obj
 0005:00000198       ??_7IFXRenderFog@@6B@      1006e198     Rendering:CIFXRenderDevice.obj
 0005:0000019c       ??_7IFXRenderMaterial@@6B@ 1006e19c     Rendering:CIFXRenderDevice.obj
 0005:000001a0       ??_7IFXRenderStencil@@6B@  1006e1a0     Rendering:CIFXRenderDevice.obj
 0005:000001a4       ??_7IFXRenderView@@6B@     1006e1a4     Rendering:CIFXRenderDevice.obj
 0005:000001a8       ??_7IFXRenderDevice@@6B0@@ 1006e1a8     Rendering:CIFXRenderDevice.obj
 0005:000001c0       ??_7IFXRenderDevice@@6BIFXUnknown@@@ 1006e1c0     Rendering:CIFXRenderDevice.obj
 0005:000001e0       ??_7CIFXRenderDevice@@6B0@@ 1006e1e0     Rendering:CIFXRenderDevice.obj
 0005:000002e0       ??_7CIFXRenderDevice@@6BIFXUnknown@@@ 1006e2e0     Rendering:CIFXRenderDevice.obj
 0005:000003e0       ??_7CIFXRenderDevice@@6BIFXRenderDevice@@@ 1006e3e0     Rendering:CIFXRenderDevice.obj
 0005:000004e0       ??_7?$IFXSmartPtr@VIFXSimpleHash@@@@6B@ 1006e4e0     Rendering:CIFXRenderDevice.obj
 0005:000004e8       ??_7?$IFXSmartPtr@VCIFXDeviceTexUnit@@@@6B@ 1006e4e8     Rendering:CIFXRenderDevice.obj
 0005:000004f0       ??_7?$IFXSmartPtr@VCIFXDeviceLight@@@@6B@ 1006e4f0     Rendering:CIFXRenderDevice.obj
 0005:000005f8       ??_7IFXRenderTexUnit@@6B@  1006e5f8     Rendering:CIFXRenderContext.obj
 0005:00000600       ??_7IFXRenderContext@@6B0@@ 1006e600     Rendering:CIFXRenderContext.obj
 0005:000006c0       ??_7IFXRenderContext@@6BIFXUnknown@@@ 1006e6c0     Rendering:CIFXRenderContext.obj
 0005:00000780       ??_7CIFXRenderContext@@6B0@@ 1006e780     Rendering:CIFXRenderContext.obj
 0005:00000788       ??_7CIFXRenderContext@@6BIFXUnknown@@@ 1006e788     Rendering:CIFXRenderContext.obj
 0005:000007a0       ??_7CIFXRenderContext@@6BIFXRenderContext@@@ 1006e7a0     Rendering:CIFXRenderContext.obj
 0005:00000860       ??_7?$IFXSmartPtr@VCIFXRenderServices@@@@6B@ 1006e860     Rendering:CIFXRenderContext.obj
 0005:00000868       ??_7?$IFXSmartPtr@VIFXRender@@@@6B@ 1006e868     Rendering:CIFXRenderContext.obj
 0005:00000900       ??_7IFXRenderServices@@6B0@@ 1006e900     Rendering:CIFXRenderServices.obj
 0005:00000980       ??_7IFXRenderServices@@6BIFXUnknown@@@ 1006e980     Rendering:CIFXRenderServices.obj
 0005:00000a00       ??_7CIFXRenderServices@@6B0@@ 1006ea00     Rendering:CIFXRenderServices.obj
 0005:00000a04       ??_7CIFXRenderServices@@6BIFXUnknown@@@ 1006ea04     Rendering:CIFXRenderServices.obj
 0005:00000a20       ??_7CIFXRenderServices@@6BIFXRenderServices@@@ 1006ea20     Rendering:CIFXRenderServices.obj
 0005:00000aa0       ??_7?$IFXSmartPtr@VIFXRenderDevice@@@@6B@ 1006eaa0     Rendering:CIFXRenderServices.obj
 0005:00000aac       ??_7IFXString@@6B@         1006eaac     Rendering:IFXString.obj
 0005:00000ab4       ??_7CIFXDeviceLightNULL@@6BIFXRenderLight@@@ 1006eab4     IFXRenderingNULL:CIFXDeviceLightNULL.obj
 0005:00000af0       ??_7CIFXDeviceLightNULL@@6BIFXUnknown@@@ 1006eaf0     IFXRenderingNULL:CIFXDeviceLightNULL.obj
 0005:00000b2c       ??_7CIFXDeviceLightNULL@@6BCIFXDeviceBase@@@ 1006eb2c     IFXRenderingNULL:CIFXDeviceLightNULL.obj
 0005:00000b84       ??_7CIFXDeviceTextureNULL@@6BIFXUnknown@@@ 1006eb84     IFXRenderingNULL:CIFXDeviceTextureNULL.obj
 0005:00000be4       ??_7CIFXDeviceTextureNULL@@6BCIFXDeviceBase@@@ 1006ebe4     IFXRenderingNULL:CIFXDeviceTextureNULL.obj
 0005:00000c44       ??_7CIFXDeviceBase@@6B0@@  1006ec44     IFXRenderingNULL:CIFXDeviceTexUnitNULL.obj
 0005:00000c50       ??_7CIFXDeviceBase@@6BIFXUnknown@@@ 1006ec50     IFXRenderingNULL:CIFXDeviceTexUnitNULL.obj
 0005:00000c64       ??_7CIFXDeviceTexUnit@@6BIFXRenderTexUnit@@@ 1006ec64     IFXRenderingNULL:CIFXDeviceTexUnitNULL.obj
 0005:00000cc4       ??_7CIFXDeviceTexUnit@@6BIFXUnknown@@@ 1006ecc4     IFXRenderingNULL:CIFXDeviceTexUnitNULL.obj
 0005:00000d24       ??_7CIFXDeviceTexUnit@@6BCIFXDeviceBase@@@ 1006ed24     IFXRenderingNULL:CIFXDeviceTexUnitNULL.obj
 0005:00000d84       ??_7CIFXDeviceTexUnitNULL@@6BIFXRenderTexUnit@@@ 1006ed84     IFXRenderingNULL:CIFXDeviceTexUnitNULL.obj
 0005:00000de4       ??_7CIFXDeviceTexUnitNULL@@6BIFXUnknown@@@ 1006ede4     IFXRenderingNULL:CIFXDeviceTexUnitNULL.obj
 0005:00000e44       ??_7CIFXDeviceTexUnitNULL@@6BCIFXDeviceBase@@@ 1006ee44     IFXRenderingNULL:CIFXDeviceTexUnitNULL.obj
 0005:000010a4       ??_7IFXRender@@6B0@@       1006f0a4     IFXRenderingNULL:CIFXRenderNULL.obj
 0005:000010b0       ??_7IFXRender@@6BIFXUnknown@@@ 1006f0b0     IFXRenderingNULL:CIFXRenderNULL.obj
 0005:000010c4       ??_7IFXRender@@6BIFXRenderContext@@@ 1006f0c4     IFXRenderingNULL:CIFXRenderNULL.obj
 0005:00001184       ??_7CIFXRenderNULL@@6BIFXUnknown@@@ 1006f184     IFXRenderingNULL:CIFXRenderNULL.obj
 0005:000011c4       ??_7CIFXRenderNULL@@6BIFXRenderContext@@@ 1006f1c4     IFXRenderingNULL:CIFXRenderNULL.obj
 0005:00001284       ??_7CIFXRenderNULL@@6BIFXRender@@@ 1006f284     IFXRenderingNULL:CIFXRenderNULL.obj
 0005:000012bc       ??_7CIFXRenderNULL@@6BCIFXRender@@@ 1006f2bc     IFXRenderingNULL:CIFXRenderNULL.obj
 0005:000012f4       ??_7?$IFXSmartPtr@VCIFXRenderDeviceNULL@@@@6B@ 1006f2f4     IFXRenderingNULL:CIFXRenderNULL.obj
 0005:00001300       ??_7?$IFXSmartPtr@VCIFXDeviceTextureNULL@@@@6B@ 1006f300     IFXRenderingNULL:CIFXRenderNULL.obj
 0005:0000130c       ??_7?$IFXSmartPtr@VCIFXDeviceLightNULL@@@@6B@ 1006f30c     IFXRenderingNULL:CIFXRenderNULL.obj
 0005:00001318       ??_7?$IFXSmartPtr@VCIFXDeviceTexUnitNULL@@@@6B@ 1006f318     IFXRenderingNULL:CIFXRenderNULL.obj
 0005:00001324       ??_7CIFXRenderDeviceNULL@@6BIFXUnknown@@@ 1006f324     IFXRenderingNULL:CIFXRenderDeviceNULL.obj
 0005:00001424       ??_7CIFXRenderDeviceNULL@@6BIFXRenderDevice@@@ 1006f424     IFXRenderingNULL:CIFXRenderDeviceNULL.obj
 0005:00001524       ??_7CIFXRenderDeviceNULL@@6BCIFXRenderDevice@@@ 1006f524     IFXRenderingNULL:CIFXRenderDeviceNULL.obj
 0005:00001620       ??_7IFXOpenGL@@6B0@@       1006f620     IFXRenderingOpenGL:CIFXOpenGLOS.obj
 0005:00001638       ??_7IFXOpenGL@@6BIFXUnknown@@@ 1006f638     IFXRenderingOpenGL:CIFXOpenGLOS.obj
 0005:00001650       ??_7IFXOpenGLOS@@6BIFXUnknown@@@ 1006f650     IFXRenderingOpenGL:CIFXOpenGLOS.obj
 0005:0000165c       ??_7IFXOpenGLOS@@6BIFXOpenGL@@@ 1006f65c     IFXRenderingOpenGL:CIFXOpenGLOS.obj
 0005:00001674       ??_7CIFXOpenGL@@6B0@@      1006f674     IFXRenderingOpenGL:CIFXOpenGLOS.obj
 0005:00001678       ??_7CIFXOpenGL@@6BIFXUnknown@@@ 1006f678     IFXRenderingOpenGL:CIFXOpenGLOS.obj
 0005:00001684       ??_7CIFXOpenGL@@6BIFXOpenGL@@@ 1006f684     IFXRenderingOpenGL:CIFXOpenGLOS.obj
 0005:0000169c       ??_7CIFXOpenGLOS@@6BIFXUnknown@@@ 1006f69c     IFXRenderingOpenGL:CIFXOpenGLOS.obj
 0005:000016a8       ??_7CIFXOpenGLOS@@6BIFXOpenGL@@@ 1006f6a8     IFXRenderingOpenGL:CIFXOpenGLOS.obj
 0005:000016c0       ??_7CIFXOpenGLOS@@6BCIFXOpenGL@@@ 1006f6c0     IFXRenderingOpenGL:CIFXOpenGLOS.obj
 0005:000016c4       ??_7CIFXDeviceLightOGL@@6BIFXRenderLight@@@ 1006f6c4     IFXRenderingOpenGL:CIFXDeviceLightOGL.obj
 0005:000016fc       ??_7CIFXDeviceLightOGL@@6BIFXUnknown@@@ 1006f6fc     IFXRenderingOpenGL:CIFXDeviceLightOGL.obj
 0005:00001734       ??_7CIFXDeviceLightOGL@@6BCIFXDeviceBase@@@ 1006f734     IFXRenderingOpenGL:CIFXDeviceLightOGL.obj
 0005:00001800       ??_7CIFXDeviceTextureOGL@@6BIFXUnknown@@@ 1006f800     IFXRenderingOpenGL:CIFXDeviceTextureOGL.obj
 0005:00001840       ??_7CIFXDeviceTextureOGL@@6BCIFXDeviceBase@@@ 1006f840     IFXRenderingOpenGL:CIFXDeviceTextureOGL.obj
 0005:00001880       ??_7?$IFXSmartPtr@VCIFXRenderDeviceOGL@@@@6B@ 1006f880     IFXRenderingOpenGL:CIFXDeviceTextureOGL.obj
 0005:000018a0       ??_7CIFXDeviceTexUnitOGL@@6BIFXRenderTexUnit@@@ 1006f8a0     IFXRenderingOpenGL:CIFXDeviceTexUnitOGL.obj
 0005:00001900       ??_7CIFXDeviceTexUnitOGL@@6BIFXUnknown@@@ 1006f900     IFXRenderingOpenGL:CIFXDeviceTexUnitOGL.obj
 0005:00001960       ??_7CIFXDeviceTexUnitOGL@@6BCIFXDeviceBase@@@ 1006f960     IFXRenderingOpenGL:CIFXDeviceTexUnitOGL.obj
 0005:00001b80       ??_7CIFXRenderOGL@@6BIFXUnknown@@@ 1006fb80     IFXRenderingOpenGL:CIFXRenderOGL.obj
 0005:00001bc0       ??_7CIFXRenderOGL@@6BIFXRenderContext@@@ 1006fbc0     IFXRenderingOpenGL:CIFXRenderOGL.obj
 0005:00001c80       ??_7CIFXRenderOGL@@6BIFXRender@@@ 1006fc80     IFXRenderingOpenGL:CIFXRenderOGL.obj
 0005:00001cb4       ??_7CIFXRenderOGL@@6BCIFXRender@@@ 1006fcb4     IFXRenderingOpenGL:CIFXRenderOGL.obj
 0005:00001ce8       ??_7?$IFXSmartPtr@VCIFXDeviceTextureOGL@@@@6B@ 1006fce8     IFXRenderingOpenGL:CIFXRenderOGL.obj
 0005:00001cf0       ??_7?$IFXSmartPtr@VCIFXDeviceLightOGL@@@@6B@ 1006fcf0     IFXRenderingOpenGL:CIFXRenderOGL.obj
 0005:00001cf8       ??_7?$IFXSmartPtr@VCIFXDeviceTexUnitOGL@@@@6B@ 1006fcf8     IFXRenderingOpenGL:CIFXRenderOGL.obj
 0005:00001d00       ??_7CIFXRenderDeviceOGL@@6BIFXUnknown@@@ 1006fd00     IFXRenderingOpenGL:CIFXRenderDeviceOGL.obj
 0005:00001e00       ??_7CIFXRenderDeviceOGL@@6BIFXRenderDevice@@@ 1006fe00     IFXRenderingOpenGL:CIFXRenderDeviceOGL.obj
 0005:00001f00       ??_7CIFXRenderDeviceOGL@@6BCIFXRenderDevice@@@ 1006ff00     IFXRenderingOpenGL:CIFXRenderDeviceOGL.obj
 0005:00002000       ??_7IFXRenderWindow@@6B@   10070000     IFXRenderingOpenGL:IFXOSRenderWindow.obj
 0005:00002088       ??_7?$IFXSmartPtr@VIFXRenderServices@@@@6B@ 10070088     IFXRenderingOpenGL:CIFXRenderOGLOS.obj
 0005:00002090       ??_7CIFXDeviceLightDX7@@6BIFXRenderLight@@@ 10070090     IFXRenderingDX7:CIFXDeviceLightDX7.obj
 0005:000020c8       ??_7CIFXDeviceLightDX7@@6BIFXUnknown@@@ 100700c8     IFXRenderingDX7:CIFXDeviceLightDX7.obj
 0005:00002100       ??_7CIFXDeviceLightDX7@@6BCIFXDeviceBase@@@ 10070100     IFXRenderingDX7:CIFXDeviceLightDX7.obj
 0005:00002140       ??_7CIFXDeviceTextureDX7@@6BIFXUnknown@@@ 10070140     IFXRenderingDX7:CIFXDeviceTextureDX7.obj
 0005:000021a0       ??_7CIFXDeviceTextureDX7@@6BCIFXDeviceBase@@@ 100701a0     IFXRenderingDX7:CIFXDeviceTextureDX7.obj
 0005:00002200       ??_7CIFXDeviceTexUnitDX7@@6BIFXRenderTexUnit@@@ 10070200     IFXRenderingDX7:CIFXDeviceTexUnitDX7.obj
 0005:00002260       ??_7CIFXDeviceTexUnitDX7@@6BIFXUnknown@@@ 10070260     IFXRenderingDX7:CIFXDeviceTexUnitDX7.obj
 0005:000022c0       ??_7CIFXDeviceTexUnitDX7@@6BCIFXDeviceBase@@@ 100702c0     IFXRenderingDX7:CIFXDeviceTexUnitDX7.obj
 0005:00002320       _IID_IDirectDraw7          10070320     IFXRenderingDX7:CIFXDirectX7.obj
 0005:00002330       _IID_IDirect3D7            10070330     IFXRenderingDX7:CIFXDirectX7.obj
 0005:00002340       _IID_IDirect3DHALDevice    10070340     IFXRenderingDX7:CIFXDirectX7.obj
 0005:00002350       _IID_IDirect3DTnLHalDevice 10070350     IFXRenderingDX7:CIFXDirectX7.obj
 0005:00002360       ??_7IFXDirectX7@@6B0@@     10070360     IFXRenderingDX7:CIFXDirectX7.obj
 0005:00002368       ??_7IFXDirectX7@@6BIFXUnknown@@@ 10070368     IFXRenderingDX7:CIFXDirectX7.obj
 0005:00002374       ??_7CIFXDirectX7@@6BIFXUnknown@@@ 10070374     IFXRenderingDX7:CIFXDirectX7.obj
 0005:00002380       ??_7CIFXDirectX7@@6BIFXDirectX7@@@ 10070380     IFXRenderingDX7:CIFXDirectX7.obj
 0005:00002590       ??_7CIFXRenderDX7@@6BIFXUnknown@@@ 10070590     IFXRenderingDX7:CIFXRenderDX7.obj
 0005:000025e0       ??_7CIFXRenderDX7@@6BIFXRenderContext@@@ 100705e0     IFXRenderingDX7:CIFXRenderDX7.obj
 0005:000026a0       ??_7CIFXRenderDX7@@6BIFXRender@@@ 100706a0     IFXRenderingDX7:CIFXRenderDX7.obj
 0005:000026d4       ??_7CIFXRenderDX7@@6BCIFXRender@@@ 100706d4     IFXRenderingDX7:CIFXRenderDX7.obj
 0005:00002708       ??_7?$IFXSmartPtr@VCIFXRenderDeviceDX7@@@@6B@ 10070708     IFXRenderingDX7:CIFXRenderDX7.obj
 0005:00002710       ??_7?$IFXSmartPtr@VCIFXDeviceTextureDX7@@@@6B@ 10070710     IFXRenderingDX7:CIFXRenderDX7.obj
 0005:00002718       ??_7?$IFXSmartPtr@VCIFXDeviceLightDX7@@@@6B@ 10070718     IFXRenderingDX7:CIFXRenderDX7.obj
 0005:00002720       ??_7?$IFXSmartPtr@VCIFXDeviceTexUnitDX7@@@@6B@ 10070720     IFXRenderingDX7:CIFXRenderDX7.obj
 0005:000027c0       ??_7CIFXRenderDeviceDX7@@6BIFXUnknown@@@ 100707c0     IFXRenderingDX7:CIFXRenderDeviceDX7.obj
 0005:000028c0       ??_7CIFXRenderDeviceDX7@@6BIFXRenderDevice@@@ 100708c0     IFXRenderingDX7:CIFXRenderDeviceDX7.obj
 0005:000029c0       ??_7CIFXRenderDeviceDX7@@6BCIFXRenderDevice@@@ 100709c0     IFXRenderingDX7:CIFXRenderDeviceDX7.obj
 0005:00002ac0       ??_7?$IFXSmartPtr@VIFXDirectX7@@@@6B@ 10070ac0     IFXRenderingDX7:CIFXRenderDeviceDX7.obj
 0005:00002ac8       ??_7CIFXDeviceLightDX8@@6BIFXRenderLight@@@ 10070ac8     IFXRenderingDX8:CIFXDeviceLightDX8.obj
 0005:00002b00       ??_7CIFXDeviceLightDX8@@6BIFXUnknown@@@ 10070b00     IFXRenderingDX8:CIFXDeviceLightDX8.obj
 0005:00002b38       ??_7CIFXDeviceLightDX8@@6BCIFXDeviceBase@@@ 10070b38     IFXRenderingDX8:CIFXDeviceLightDX8.obj
 0005:00002b80       ??_7CIFXDeviceTextureDX8@@6BIFXUnknown@@@ 10070b80     IFXRenderingDX8:CIFXDeviceTextureDX8.obj
 0005:00002be0       ??_7CIFXDeviceTextureDX8@@6BCIFXDeviceBase@@@ 10070be0     IFXRenderingDX8:CIFXDeviceTextureDX8.obj
 0005:00002c40       ??_7CIFXDeviceTexUnitDX8@@6BIFXRenderTexUnit@@@ 10070c40     IFXRenderingDX8:CIFXDeviceTexUnitDX8.obj
 0005:00002ca0       ??_7CIFXDeviceTexUnitDX8@@6BIFXUnknown@@@ 10070ca0     IFXRenderingDX8:CIFXDeviceTexUnitDX8.obj
 0005:00002d00       ??_7CIFXDeviceTexUnitDX8@@6BCIFXDeviceBase@@@ 10070d00     IFXRenderingDX8:CIFXDeviceTexUnitDX8.obj
 0005:00002d60       _IID_IDirect3DBaseTexture8 10070d60     IFXRenderingDX8:CIFXDirectX8.obj
 0005:00002d70       _IID_IDirect3DTexture8     10070d70     IFXRenderingDX8:CIFXDirectX8.obj
 0005:00002d80       _IID_IDirect3DCubeTexture8 10070d80     IFXRenderingDX8:CIFXDirectX8.obj
 0005:00002d90       ??_7IFXDirectX8@@6B0@@     10070d90     IFXRenderingDX8:CIFXDirectX8.obj
 0005:00002d98       ??_7IFXDirectX8@@6BIFXUnknown@@@ 10070d98     IFXRenderingDX8:CIFXDirectX8.obj
 0005:00002da4       ??_7CIFXDirectX8@@6BIFXUnknown@@@ 10070da4     IFXRenderingDX8:CIFXDirectX8.obj
 0005:00002db0       ??_7CIFXDirectX8@@6BIFXDirectX8@@@ 10070db0     IFXRenderingDX8:CIFXDirectX8.obj
 0005:00002fc0       ??_7CIFXRenderDX8@@6BIFXUnknown@@@ 10070fc0     IFXRenderingDX8:CIFXRenderDX8.obj
 0005:00003000       ??_7CIFXRenderDX8@@6BIFXRenderContext@@@ 10071000     IFXRenderingDX8:CIFXRenderDX8.obj
 0005:000030c0       ??_7CIFXRenderDX8@@6BIFXRender@@@ 100710c0     IFXRenderingDX8:CIFXRenderDX8.obj
 0005:000030f4       ??_7CIFXRenderDX8@@6BCIFXRender@@@ 100710f4     IFXRenderingDX8:CIFXRenderDX8.obj
 0005:00003128       ??_7?$IFXSmartPtr@VCIFXRenderDeviceDX8@@@@6B@ 10071128     IFXRenderingDX8:CIFXRenderDX8.obj
 0005:00003130       ??_7?$IFXSmartPtr@VCIFXDeviceTextureDX8@@@@6B@ 10071130     IFXRenderingDX8:CIFXRenderDX8.obj
 0005:00003138       ??_7?$IFXSmartPtr@VCIFXDeviceLightDX8@@@@6B@ 10071138     IFXRenderingDX8:CIFXRenderDX8.obj
 0005:00003140       ??_7?$IFXSmartPtr@VCIFXDeviceTexUnitDX8@@@@6B@ 10071140     IFXRenderingDX8:CIFXRenderDX8.obj
 0005:000031e0       ??_7CIFXRenderDeviceDX8@@6BIFXUnknown@@@ 100711e0     IFXRenderingDX8:CIFXRenderDeviceDX8.obj
 0005:000032e0       ??_7CIFXRenderDeviceDX8@@6BIFXRenderDevice@@@ 100712e0     IFXRenderingDX8:CIFXRenderDeviceDX8.obj
 0005:000033e0       ??_7CIFXRenderDeviceDX8@@6BCIFXRenderDevice@@@ 100713e0     IFXRenderingDX8:CIFXRenderDeviceDX8.obj
 0005:000034e0       ??_7?$IFXSmartPtr@VIFXDirectX8@@@@6B@ 100714e0     IFXRenderingDX8:CIFXRenderDeviceDX8.obj
 0005:00003544       ??_7IFXObserver@@6B0@@     10071544     Culling:CIFXOctreeCollection.obj
 0005:0000354c       ??_7IFXObserver@@6BIFXUnknown@@@ 1007154c     Culling:CIFXOctreeCollection.obj
 0005:0000355c       ??_7IFXCollection@@6B0@@   1007155c     Culling:CIFXOctreeCollection.obj
 0005:00003578       ??_7IFXCollection@@6BIFXUnknown@@@ 10071578     Culling:CIFXOctreeCollection.obj
 0005:00003594       ??_7CIFXOctreeCollection@@6BIFXUnknown@@@ 10071594     Culling:CIFXOctreeCollection.obj
 0005:000035b4       ??_7CIFXOctreeCollection@@6BIFXCollection@@@ 100715b4     Culling:CIFXOctreeCollection.obj
 0005:000035d4       ??_7COctreeNode@@6BIFXUnknown@@@ 100715d4     Culling:CIFXOctreeCollection.obj
 0005:000035e4       ??_7COctreeNode@@6BIFXObserver@@@ 100715e4     Culling:CIFXOctreeCollection.obj
 0005:000035f0       ??_7IFXSpatialSetQuery@@6B0@@ 100715f0     Culling:CIFXScenegraphCuller.obj
 0005:00003604       ??_7IFXSpatialSetQuery@@6BIFXUnknown@@@ 10071604     Culling:CIFXScenegraphCuller.obj
 0005:00003618       ??_7CIFXSceneGraphCuller@@6B0@@ 10071618     Culling:CIFXScenegraphCuller.obj
 0005:00003620       ??_7CIFXSceneGraphCuller@@6BIFXUnknown@@@ 10071620     Culling:CIFXScenegraphCuller.obj
 0005:00003630       ??_7CIFXSceneGraphCuller@@6BIFXSpatialSetQuery@@@ 10071630     Culling:CIFXScenegraphCuller.obj
 0005:00003644       ??_7CIFXOctreeCuller@@6BIFXUnknown@@@ 10071644     Culling:CIFXOctreeCuller.obj
 0005:0000365c       ??_7CIFXOctreeCuller@@6BIFXSpatialSetQuery@@@ 1007165c     Culling:CIFXOctreeCuller.obj
 0005:00003670       ??_7IFXRenderLight@@6B@    10071670     Rendering:CIFXDeviceLight.obj
 0005:00003674       ??_7CIFXDeviceLight@@6BIFXRenderLight@@@ 10071674     Rendering:CIFXDeviceLight.obj
 0005:000036ac       ??_7CIFXDeviceLight@@6BIFXUnknown@@@ 100716ac     Rendering:CIFXDeviceLight.obj
 0005:000036e4       ??_7CIFXDeviceLight@@6BCIFXDeviceBase@@@ 100716e4     Rendering:CIFXDeviceLight.obj
 0005:00003720       ??_7CIFXDeviceTexture@@6BIFXUnknown@@@ 10071720     Rendering:CIFXDeviceTexture.obj
 0005:00003760       ??_7CIFXDeviceTexture@@6BCIFXDeviceBase@@@ 10071760     Rendering:CIFXDeviceTexture.obj
 0005:00003920       ??_7CIFXRender@@6B0@@      10071920     Rendering:CIFXRender.obj
 0005:00003954       ??_7CIFXRender@@6BIFXUnknown@@@ 10071954     Rendering:CIFXRender.obj
 0005:000039a0       ??_7CIFXRender@@6BIFXRenderContext@@@ 100719a0     Rendering:CIFXRender.obj
 0005:00003a60       ??_7CIFXRender@@6BIFXRender@@@ 10071a60     Rendering:CIFXRender.obj
 0005:00003a94       ??_7?$IFXSmartPtr@VCIFXRenderDevice@@@@6B@ 10071a94     Rendering:CIFXRender.obj
 0005:00003a9c       ??_7?$IFXSmartPtr@VIFXUnknown@@@@6B@ 10071a9c     Rendering:CIFXRender.obj
 0005:00003aa4       ??_7?$IFXSmartPtr@VCIFXDeviceTexture@@@@6B@ 10071aa4     Rendering:CIFXRender.obj
 0006:00000000       ??_C@_1NG@A@?$CF?$AAl?$AAs?$AA?6?$AA?6?$AAF?$AAi?$AAl?$AAe?$AA?3?$AA?7?$AA?7?$AA?$CF?$AAl?$AAs?$AA?6?$AAL?$AAi?$AAn?$AAe?$AA?3?$AA?7?$AA?7?$AA?$CF?$AAd?$AA?6?$AAE?$AAx?$AAp?$AAr?$AAe?$AAs?$AAs?$AAi?$AAo?$AAn?$AA?3?$AA?7?$AA?$CF?$AAl?$AAs?$AA?6?$AA?6?$AAA?$AAb?$AAo?$AAr?$AAt?$AA?5?$AA?$DN?$AA?5?$AAS?$AAt?$AAo?$AAp?$AA?5?$AAD?$AAe?$AAb?$AAu?$AAg?$AAg?$AAi?$AAn?$AAg?$AA?6?$AAR?$AAe?$AAt?$AAr?$AAy?$AA?5?$AA?$DN?$AA?5?$AAD?$AAe?$AAb?$AAu?$AAg?$AA?6?$AAI?$AAg?$AAn?$AAo?$AAr?$AAe?$AA?5?$AA?$DN?$AA?5?$AAC?$AAo?$AAn?$AAt?$AAi?$AAn?$AAu?$AAe?$AA?5?$AAR?$AAu?$AAn?$AAn?$AAi?$AAn?$AAg?$AA?6?$AA?$AA?$AA@ 10072000     IFXRenderingOpenGL:IFXOSUtilities.obj
 0006:000000e0       ??_C@_1CE@A@A?$AAs?$AAs?$AAe?$AAr?$AAt?$AAi?$AAo?$AAn?$AA?5?$AAF?$AAa?$AAi?$AAl?$AAe?$AAd?$AA?$CB?$AA?$AA?$AA@ 100720e0     IFXRenderingOpenGL:IFXOSUtilities.obj
 0006:00000120       ??_C@_1FO@A@I?$AAg?$AAn?$AAo?$AAr?$AAe?$AA?5?$AAa?$AAl?$AAl?$AA?5?$AAf?$AAu?$AAt?$AAu?$AAr?$AAe?$AA?5?$AAi?$AAn?$AAs?$AAt?$AAa?$AAn?$AAc?$AAe?$AAs?$AA?5?$AAo?$AAf?$AA?5?$AAt?$AAh?$AAi?$AAs?$AA?5?$AAa?$AAs?$AAs?$AAe?$AAr?$AAt?$AAi?$AAo?$AAn?$AA?$DP?$AA?$AA?$AA@ 10072120     IFXRenderingOpenGL:IFXOSUtilities.obj
 0006:00000180       ??_C@_1BE@A@I?$AAF?$AAX?$AAA?$AAS?$AAS?$AAE?$AAR?$AAT?$AA?$AA?$AA@ 10072180     IFXRenderingOpenGL:IFXOSUtilities.obj
 0006:00000194       ??_C@_07A@English?$AA@     10072194     IFXRenderingOpenGL:IFXOSUtilities.obj
 0006:0000019c       ??_C@_0P@A@wglCopyContext?$AA@ 1007219c     IFXRenderingOpenGL:CIFXOpenGLOS.obj
 0006:000001ac       ??_C@_0BB@A@wglCreateContext?$AA@ 100721ac     IFXRenderingOpenGL:CIFXOpenGLOS.obj
 0006:000001c0       ??_C@_0BG@A@wglCreateLayerContext?$AA@ 100721c0     IFXRenderingOpenGL:CIFXOpenGLOS.obj
 0006:000001d8       ??_C@_0BB@A@wglDeleteContext?$AA@ 100721d8     IFXRenderingOpenGL:CIFXOpenGLOS.obj
 0006:000001ec       ??_C@_0BF@A@wglGetCurrentContext?$AA@ 100721ec     IFXRenderingOpenGL:CIFXOpenGLOS.obj
 0006:00000204       ??_C@_0BA@A@wglGetCurrentDC?$AA@ 10072204     IFXRenderingOpenGL:CIFXOpenGLOS.obj
 0006:00000214       ??_C@_0BC@A@wglGetProcAddress?$AA@ 10072214     IFXRenderingOpenGL:CIFXOpenGLOS.obj
 0006:00000228       ??_C@_0P@A@wglMakeCurrent?$AA@ 10072228     IFXRenderingOpenGL:CIFXOpenGLOS.obj
 0006:00000238       ??_C@_0O@A@wglShareLists?$AA@ 10072238     IFXRenderingOpenGL:CIFXOpenGLOS.obj
 0006:00000248       ??_C@_0BE@A@wglSwapLayerBuffers?$AA@ 10072248     IFXRenderingOpenGL:CIFXOpenGLOS.obj
 0006:0000025c       ??_C@_1O@A@U?$AAS?$AAE?$AAR?$AA3?$AA2?$AA?$AA?$AA@ 1007225c     IFXRenderingOpenGL:IFXOSRender.obj
 0006:0000026c       ??_C@_0BE@A@EnumDisplayDevicesW?$AA@ 1007226c     IFXRenderingOpenGL:IFXOSRender.obj
 0006:00000280       ??_C@_0BE@A@EnumDisplayMonitors?$AA@ 10072280     IFXRenderingOpenGL:IFXOSRender.obj
 0006:00000294       ??_C@_0BA@A@GetMonitorInfoW?$AA@ 10072294     IFXRenderingOpenGL:IFXOSRender.obj
 0006:000002a4       ??_C@_1CK@A@I?$AAF?$AAX?$AAR?$AAe?$AAn?$AAd?$AAe?$AAr?$AAW?$AAi?$AAn?$AAd?$AAo?$AAw?$AAC?$AAl?$AAa?$AAs?$AAs?$AA?$AA?$AA@ 100722a4     IFXRenderingOpenGL:IFXOSRender.obj
 0006:000002d0       ??_C@_01A@?5?$AA@          100722d0     IFXRenderingOpenGL:CIFXOpenGL.obj
 0006:000002d4       ??_C@_0BI@A@GL_SGIS_generate_mipmap?$AA@ 100722d4     IFXRenderingOpenGL:CIFXOpenGL.obj
 0006:000002ec       ??_C@_0BI@A@GL_ARB_texture_cube_map?$AA@ 100722ec     IFXRenderingOpenGL:CIFXOpenGL.obj
 0006:00000304       ??_C@_0BI@A@GL_EXT_texture_cube_map?$AA@ 10072304     IFXRenderingOpenGL:CIFXOpenGL.obj
 0006:0000031c       ??_C@_0BI@A@GL_EXT_texture_env_dot3?$AA@ 1007231c     IFXRenderingOpenGL:CIFXOpenGL.obj
 0006:00000334       ??_C@_0BH@A@GL_EXT_texture_env_add?$AA@ 10072334     IFXRenderingOpenGL:CIFXOpenGL.obj
 0006:0000034c       ??_C@_0BL@A@GL_EXT_texture_env_combine?$AA@ 1007234c     IFXRenderingOpenGL:CIFXOpenGL.obj
 0006:00000368       ??_C@_0BP@A@GL_EXT_separate_specular_color?$AA@ 10072368     IFXRenderingOpenGL:CIFXOpenGL.obj
 0006:00000388       ??_C@_0M@A@GL_EXT_bgra?$AA@ 10072388     IFXRenderingOpenGL:CIFXOpenGL.obj
 0006:00000394       ??_C@_0BF@A@GL_EXT_packed_pixels?$AA@ 10072394     IFXRenderingOpenGL:CIFXOpenGL.obj
 0006:000003ac       ??_C@_0BL@A@GL_ARB_texture_compression?$AA@ 100723ac     IFXRenderingOpenGL:CIFXOpenGL.obj
 0006:000003c8       ??_C@_0BE@A@GL_ARB_multitexture?$AA@ 100723c8     IFXRenderingOpenGL:CIFXOpenGL.obj
 0006:000003dc       ??_C@_05A@?$CFd?4?$CFd?$AA@ 100723dc     IFXRenderingOpenGL:CIFXOpenGL.obj
 0006:000003e4       ??_C@_0BG@A@ATI?5Technologies?5Inc?4?$AA@ 100723e4     IFXRenderingOpenGL:CIFXOpenGL.obj
 0006:000003fc       ??_C@_0BE@A@glDrawRangeElements?$AA@ 100723fc     IFXRenderingOpenGL:CIFXOpenGL.obj
 0006:00000410       ??_C@_0BD@A@glActiveTextureARB?$AA@ 10072410     IFXRenderingOpenGL:CIFXOpenGL.obj
 0006:00000424       ??_C@_0BJ@A@glClientActiveTextureARB?$AA@ 10072424     IFXRenderingOpenGL:CIFXOpenGL.obj
 0006:00000440       ??_C@_07A@glAccum?$AA@     10072440     IFXRenderingOpenGL:IFXOpenGL.obj
 0006:00000448       ??_C@_0M@A@glAlphaFunc?$AA@ 10072448     IFXRenderingOpenGL:IFXOpenGL.obj
 0006:00000454       ??_C@_07A@glBegin?$AA@     10072454     IFXRenderingOpenGL:IFXOpenGL.obj
 0006:0000045c       ??_C@_0O@A@glBindTexture?$AA@ 1007245c     IFXRenderingOpenGL:IFXOpenGL.obj
 0006:0000046c       ??_C@_0M@A@glBlendFunc?$AA@ 1007246c     IFXRenderingOpenGL:IFXOpenGL.obj
 0006:00000478       ??_C@_0L@A@glCallList?$AA@ 10072478     IFXRenderingOpenGL:IFXOpenGL.obj
 0006:00000484       ??_C@_07A@glClear?$AA@     10072484     IFXRenderingOpenGL:IFXOpenGL.obj
 0006:0000048c       ??_C@_0N@A@glClearAccum?$AA@ 1007248c     IFXRenderingOpenGL:IFXOpenGL.obj
 0006:0000049c       ??_C@_0N@A@glClearColor?$AA@ 1007249c     IFXRenderingOpenGL:IFXOpenGL.obj
 0006:000004ac       ??_C@_0N@A@glClearDepth?$AA@ 100724ac     IFXRenderingOpenGL:IFXOpenGL.obj
 0006:000004bc       ??_C@_0P@A@glClearStencil?$AA@ 100724bc     IFXRenderingOpenGL:IFXOpenGL.obj
 0006:000004cc       ??_C@_09A@glColor3f?$AA@   100724cc     IFXRenderingOpenGL:IFXOpenGL.obj
 0006:000004d8       ??_C@_0L@A@glColor3fv?$AA@ 100724d8     IFXRenderingOpenGL:IFXOpenGL.obj
 0006:000004e4       ??_C@_09A@glColor4f?$AA@   100724e4     IFXRenderingOpenGL:IFXOpenGL.obj
 0006:000004f0       ??_C@_0L@A@glColor4fv?$AA@ 100724f0     IFXRenderingOpenGL:IFXOpenGL.obj
 0006:000004fc       ??_C@_0BA@A@glColorMaterial?$AA@ 100724fc     IFXRenderingOpenGL:IFXOpenGL.obj
 0006:0000050c       ??_C@_0P@A@glColorPointer?$AA@ 1007250c     IFXRenderingOpenGL:IFXOpenGL.obj
 0006:0000051c       ??_C@_0L@A@glCullFace?$AA@ 1007251c     IFXRenderingOpenGL:IFXOpenGL.obj
 0006:00000528       ??_C@_0O@A@glDeleteLists?$AA@ 10072528     IFXRenderingOpenGL:IFXOpenGL.obj
 0006:00000538       ??_C@_0BB@A@glDeleteTextures?$AA@ 10072538     IFXRenderingOpenGL:IFXOpenGL.obj
 0006:0000054c       ??_C@_0M@A@glDepthFunc?$AA@ 1007254c     IFXRenderingOpenGL:IFXOpenGL.obj
 0006:00000558       ??_C@_0M@A@glDepthMask?$AA@ 10072558     IFXRenderingOpenGL:IFXOpenGL.obj
 0006:00000564       ??_C@_0N@A@glDepthRange?$AA@ 10072564     IFXRenderingOpenGL:IFXOpenGL.obj
 0006:00000574       ??_C@_09A@glDisable?$AA@   10072574     IFXRenderingOpenGL:IFXOpenGL.obj
 0006:00000580       ??_C@_0BF@A@glDisableClientState?$AA@ 10072580     IFXRenderingOpenGL:IFXOpenGL.obj
 0006:00000598       ??_C@_0P@A@glDrawElements?$AA@ 10072598     IFXRenderingOpenGL:IFXOpenGL.obj
 0006:000005a8       ??_C@_0N@A@glDrawPixels?$AA@ 100725a8     IFXRenderingOpenGL:IFXOpenGL.obj
 0006:000005b8       ??_C@_08A@glEnable?$AA@    100725b8     IFXRenderingOpenGL:IFXOpenGL.obj
 0006:000005c4       ??_C@_0BE@A@glEnableClientState?$AA@ 100725c4     IFXRenderingOpenGL:IFXOpenGL.obj
 0006:000005d8       ??_C@_05A@glEnd?$AA@       100725d8     IFXRenderingOpenGL:IFXOpenGL.obj
 0006:000005e0       ??_C@_09A@glEndList?$AA@   100725e0     IFXRenderingOpenGL:IFXOpenGL.obj
 0006:000005ec       ??_C@_08A@glFinish?$AA@    100725ec     IFXRenderingOpenGL:IFXOpenGL.obj
 0006:000005f8       ??_C@_07A@glFlush?$AA@     100725f8     IFXRenderingOpenGL:IFXOpenGL.obj
 0006:00000600       ??_C@_06A@glFogf?$AA@      10072600     IFXRenderingOpenGL:IFXOpenGL.obj
 0006:00000608       ??_C@_07A@glFogfv?$AA@     10072608     IFXRenderingOpenGL:IFXOpenGL.obj
 0006:00000610       ??_C@_06A@glFogi?$AA@      10072610     IFXRenderingOpenGL:IFXOpenGL.obj
 0006:00000618       ??_C@_07A@glFogiv?$AA@     10072618     IFXRenderingOpenGL:IFXOpenGL.obj
 0006:00000620       ??_C@_0M@A@glFrontFace?$AA@ 10072620     IFXRenderingOpenGL:IFXOpenGL.obj
 0006:0000062c       ??_C@_0L@A@glGenLists?$AA@ 1007262c     IFXRenderingOpenGL:IFXOpenGL.obj
 0006:00000638       ??_C@_0O@A@glGenTextures?$AA@ 10072638     IFXRenderingOpenGL:IFXOpenGL.obj
 0006:00000648       ??_C@_0O@A@glGetBooleanv?$AA@ 10072648     IFXRenderingOpenGL:IFXOpenGL.obj
 0006:00000658       ??_C@_0P@A@glGetClipPlane?$AA@ 10072658     IFXRenderingOpenGL:IFXOpenGL.obj
 0006:00000668       ??_C@_0L@A@glGetError?$AA@ 10072668     IFXRenderingOpenGL:IFXOpenGL.obj
 0006:00000674       ??_C@_0M@A@glGetFloatv?$AA@ 10072674     IFXRenderingOpenGL:IFXOpenGL.obj
 0006:00000680       ??_C@_0O@A@glGetIntegerv?$AA@ 10072680     IFXRenderingOpenGL:IFXOpenGL.obj
 0006:00000690       ??_C@_0N@A@glGetLightfv?$AA@ 10072690     IFXRenderingOpenGL:IFXOpenGL.obj
 0006:000006a0       ??_C@_0N@A@glGetLightiv?$AA@ 100726a0     IFXRenderingOpenGL:IFXOpenGL.obj
 0006:000006b0       ??_C@_0BA@A@glGetMaterialfv?$AA@ 100726b0     IFXRenderingOpenGL:IFXOpenGL.obj
 0006:000006c0       ??_C@_0BA@A@glGetMaterialiv?$AA@ 100726c0     IFXRenderingOpenGL:IFXOpenGL.obj
 0006:000006d0       ??_C@_0M@A@glGetString?$AA@ 100726d0     IFXRenderingOpenGL:IFXOpenGL.obj
 0006:000006dc       ??_C@_0O@A@glGetTexEnvfv?$AA@ 100726dc     IFXRenderingOpenGL:IFXOpenGL.obj
 0006:000006ec       ??_C@_0O@A@glGetTexEnviv?$AA@ 100726ec     IFXRenderingOpenGL:IFXOpenGL.obj
 0006:000006fc       ??_C@_0O@A@glGetTexImage?$AA@ 100726fc     IFXRenderingOpenGL:IFXOpenGL.obj
 0006:0000070c       ??_C@_0BJ@A@glGetTexLevelParameterfv?$AA@ 1007270c     IFXRenderingOpenGL:IFXOpenGL.obj
 0006:00000728       ??_C@_0BJ@A@glGetTexLevelParameteriv?$AA@ 10072728     IFXRenderingOpenGL:IFXOpenGL.obj
 0006:00000744       ??_C@_0BE@A@glGetTexParameterfv?$AA@ 10072744     IFXRenderingOpenGL:IFXOpenGL.obj
 0006:00000758       ??_C@_0BE@A@glGetTexParameteriv?$AA@ 10072758     IFXRenderingOpenGL:IFXOpenGL.obj
 0006:0000076c       ??_C@_06A@glHint?$AA@      1007276c     IFXRenderingOpenGL:IFXOpenGL.obj
 0006:00000774       ??_C@_0M@A@glIsEnabled?$AA@ 10072774     IFXRenderingOpenGL:IFXOpenGL.obj
 0006:00000780       ??_C@_08A@glIsList?$AA@    10072780     IFXRenderingOpenGL:IFXOpenGL.obj
 0006:0000078c       ??_C@_0M@A@glIsTexture?$AA@ 1007278c     IFXRenderingOpenGL:IFXOpenGL.obj
 0006:00000798       ??_C@_08A@glLightf?$AA@    10072798     IFXRenderingOpenGL:IFXOpenGL.obj
 0006:000007a4       ??_C@_09A@glLightfv?$AA@   100727a4     IFXRenderingOpenGL:IFXOpenGL.obj
 0006:000007b0       ??_C@_08A@glLighti?$AA@    100727b0     IFXRenderingOpenGL:IFXOpenGL.obj
 0006:000007bc       ??_C@_09A@glLightiv?$AA@   100727bc     IFXRenderingOpenGL:IFXOpenGL.obj
 0006:000007c8       ??_C@_0P@A@glLightModelfv?$AA@ 100727c8     IFXRenderingOpenGL:IFXOpenGL.obj
 0006:000007d8       ??_C@_0O@A@glLightModeli?$AA@ 100727d8     IFXRenderingOpenGL:IFXOpenGL.obj
 0006:000007e8       ??_C@_0M@A@glLineWidth?$AA@ 100727e8     IFXRenderingOpenGL:IFXOpenGL.obj
 0006:000007f4       ??_C@_0P@A@glLoadIdentity?$AA@ 100727f4     IFXRenderingOpenGL:IFXOpenGL.obj
 0006:00000804       ??_C@_0O@A@glLoadMatrixf?$AA@ 10072804     IFXRenderingOpenGL:IFXOpenGL.obj
 0006:00000814       ??_C@_0M@A@glMaterialf?$AA@ 10072814     IFXRenderingOpenGL:IFXOpenGL.obj
 0006:00000820       ??_C@_0N@A@glMaterialfv?$AA@ 10072820     IFXRenderingOpenGL:IFXOpenGL.obj
 0006:00000830       ??_C@_0M@A@glMateriali?$AA@ 10072830     IFXRenderingOpenGL:IFXOpenGL.obj
 0006:0000083c       ??_C@_0N@A@glMaterialiv?$AA@ 1007283c     IFXRenderingOpenGL:IFXOpenGL.obj
 0006:0000084c       ??_C@_0N@A@glMatrixMode?$AA@ 1007284c     IFXRenderingOpenGL:IFXOpenGL.obj
 0006:0000085c       ??_C@_0O@A@glMultMatrixf?$AA@ 1007285c     IFXRenderingOpenGL:IFXOpenGL.obj
 0006:0000086c       ??_C@_09A@glNewList?$AA@   1007286c     IFXRenderingOpenGL:IFXOpenGL.obj
 0006:00000878       ??_C@_0BA@A@glNormalPointer?$AA@ 10072878     IFXRenderingOpenGL:IFXOpenGL.obj
 0006:00000888       ??_C@_07A@glOrtho?$AA@     10072888     IFXRenderingOpenGL:IFXOpenGL.obj
 0006:00000890       ??_C@_0O@A@glPixelStorei?$AA@ 10072890     IFXRenderingOpenGL:IFXOpenGL.obj
 0006:000008a0       ??_C@_0M@A@glPointSize?$AA@ 100728a0     IFXRenderingOpenGL:IFXOpenGL.obj
 0006:000008ac       ??_C@_0O@A@glPolygonMode?$AA@ 100728ac     IFXRenderingOpenGL:IFXOpenGL.obj
 0006:000008bc       ??_C@_0BA@A@glPolygonOffset?$AA@ 100728bc     IFXRenderingOpenGL:IFXOpenGL.obj
 0006:000008cc       ??_C@_0M@A@glPopMatrix?$AA@ 100728cc     IFXRenderingOpenGL:IFXOpenGL.obj
 0006:000008d8       ??_C@_0N@A@glPushMatrix?$AA@ 100728d8     IFXRenderingOpenGL:IFXOpenGL.obj
 0006:000008e8       ??_C@_0O@A@glRasterPos2i?$AA@ 100728e8     IFXRenderingOpenGL:IFXOpenGL.obj
 0006:000008f8       ??_C@_0N@A@glReadBuffer?$AA@ 100728f8     IFXRenderingOpenGL:IFXOpenGL.obj
 0006:00000908       ??_C@_0N@A@glReadPixels?$AA@ 10072908     IFXRenderingOpenGL:IFXOpenGL.obj
 0006:00000918       ??_C@_0N@A@glRenderMode?$AA@ 10072918     IFXRenderingOpenGL:IFXOpenGL.obj
 0006:00000928       ??_C@_09A@glScissor?$AA@   10072928     IFXRenderingOpenGL:IFXOpenGL.obj
 0006:00000934       ??_C@_0P@A@glSelectBuffer?$AA@ 10072934     IFXRenderingOpenGL:IFXOpenGL.obj
 0006:00000944       ??_C@_0N@A@glShadeModel?$AA@ 10072944     IFXRenderingOpenGL:IFXOpenGL.obj
 0006:00000954       ??_C@_0O@A@glStencilFunc?$AA@ 10072954     IFXRenderingOpenGL:IFXOpenGL.obj
 0006:00000964       ??_C@_0O@A@glStencilMask?$AA@ 10072964     IFXRenderingOpenGL:IFXOpenGL.obj
 0006:00000974       ??_C@_0M@A@glStencilOp?$AA@ 10072974     IFXRenderingOpenGL:IFXOpenGL.obj
 0006:00000980       ??_C@_0BC@A@glTexCoordPointer?$AA@ 10072980     IFXRenderingOpenGL:IFXOpenGL.obj
 0006:00000994       ??_C@_09A@glTexEnvf?$AA@   10072994     IFXRenderingOpenGL:IFXOpenGL.obj
 0006:000009a0       ??_C@_0L@A@glTexEnvfv?$AA@ 100729a0     IFXRenderingOpenGL:IFXOpenGL.obj
 0006:000009ac       ??_C@_09A@glTexEnvi?$AA@   100729ac     IFXRenderingOpenGL:IFXOpenGL.obj
 0006:000009b8       ??_C@_0L@A@glTexEnviv?$AA@ 100729b8     IFXRenderingOpenGL:IFXOpenGL.obj
 0006:000009c4       ??_C@_09A@glTexGenf?$AA@   100729c4     IFXRenderingOpenGL:IFXOpenGL.obj
 0006:000009d0       ??_C@_0L@A@glTexGenfv?$AA@ 100729d0     IFXRenderingOpenGL:IFXOpenGL.obj
 0006:000009dc       ??_C@_09A@glTexGeni?$AA@   100729dc     IFXRenderingOpenGL:IFXOpenGL.obj
 0006:000009e8       ??_C@_0L@A@glTexGeniv?$AA@ 100729e8     IFXRenderingOpenGL:IFXOpenGL.obj
 0006:000009f4       ??_C@_0N@A@glTexImage2D?$AA@ 100729f4     IFXRenderingOpenGL:IFXOpenGL.obj
 0006:00000a04       ??_C@_0BA@A@glTexParameterf?$AA@ 10072a04     IFXRenderingOpenGL:IFXOpenGL.obj
 0006:00000a14       ??_C@_0BB@A@glTexParameterfv?$AA@ 10072a14     IFXRenderingOpenGL:IFXOpenGL.obj
 0006:00000a28       ??_C@_0BA@A@glTexParameteri?$AA@ 10072a28     IFXRenderingOpenGL:IFXOpenGL.obj
 0006:00000a38       ??_C@_0BB@A@glTexParameteriv?$AA@ 10072a38     IFXRenderingOpenGL:IFXOpenGL.obj
 0006:00000a4c       ??_C@_0BA@A@glTexSubImage2D?$AA@ 10072a4c     IFXRenderingOpenGL:IFXOpenGL.obj
 0006:00000a5c       ??_C@_0L@A@glVertex3f?$AA@ 10072a5c     IFXRenderingOpenGL:IFXOpenGL.obj
 0006:00000a68       ??_C@_0BA@A@glVertexPointer?$AA@ 10072a68     IFXRenderingOpenGL:IFXOpenGL.obj
 0006:00000a78       ??_C@_0L@A@glViewport?$AA@ 10072a78     IFXRenderingOpenGL:IFXOpenGL.obj
 0006:00000a84       ??_C@_1BI@A@I?$AAF?$AAX?$AAC?$AAo?$AAr?$AAe?$AA?4?$AAd?$AAl?$AAl?$AA?$AA?$AA@ 10072a84     IFXRenderingOpenGL:IFXOSLoader.obj
 0006:00000a9c       ??_C@_1BC@A@O?$AAP?$AAE?$AAN?$AAG?$AAL?$AA3?$AA2?$AA?$AA?$AA@ 10072a9c     IFXRenderingOpenGL:IFXOSLoader.obj
 0006:00000ab0       ??_C@_0BG@A@Microsoft?5Corporation?$AA@ 10072ab0     IFXRenderingOpenGL:CIFXRenderOGLOS.obj
 0006:00000ac8       ??_C@_1M@A@D?$AAD?$AAR?$AAA?$AAW?$AA?$AA?$AA@ 10072ac8     IFXRenderingDX7:CIFXDirectX7.obj
 0006:00000ad4       ??_C@_0BH@A@DirectDrawEnumerateExW?$AA@ 10072ad4     IFXRenderingDX7:CIFXDirectX7.obj
 0006:00000aec       ??_C@_0BD@A@DirectDrawCreateEx?$AA@ 10072aec     IFXRenderingDX7:CIFXDirectX7.obj
 0006:00000b00       ??_C@_11A@?$AA?$AA@        10072b00     IFXRenderingDX7:CIFXRenderDX7.obj
 0006:00000b04       ??_C@_19A@D?$AA3?$AAD?$AA8?$AA?$AA?$AA@ 10072b04     IFXRenderingDX8:CIFXDirectX8.obj
 0006:00000b10       ??_C@_0BA@A@Direct3DCreate8?$AA@ 10072b10     IFXRenderingDX8:CIFXDirectX8.obj
 0006:00000b20       ??_C@_05A@sqrtl?$AA@       10072b20     libmmt:libm_error.omu
 0006:00000b28       ??_C@_0BG@A@?$ANsqrtl?3?5DOMAIN?5error?6?$AA@ 10072b28     libmmt:libm_error.omu
 0006:00000b40       ??_C@_04A@sqrt?$AA@        10072b40     libmmt:libm_error.omu
 0006:00000b48       ??_C@_0BF@A@?$ANsqrt?3?5DOMAIN?5error?6?$AA@ 10072b48     libmmt:libm_error.omu
 0006:00000b60       ??_C@_05A@sqrtf?$AA@       10072b60     libmmt:libm_error.omu
 0006:00000b68       ??_C@_0BG@A@?$ANsqrtf?3?5DOMAIN?5error?6?$AA@ 10072b68     libmmt:libm_error.omu
 0006:00000b80       ??_C@_04A@logl?$AA@        10072b80     libmmt:libm_error.omu
 0006:00000b88       ??_C@_0BD@A@?$ANlogl?3?5SING?5error?6?$AA@ 10072b88     libmmt:libm_error.omu
 0006:00000b9c       ??_C@_03A@log?$AA@         10072b9c     libmmt:libm_error.omu
 0006:00000ba0       ??_C@_0BC@A@?$ANlog?3?5SING?5error?6?$AA@ 10072ba0     libmmt:libm_error.omu
 0006:00000bb4       ??_C@_04A@logf?$AA@        10072bb4     libmmt:libm_error.omu
 0006:00000bbc       ??_C@_0BD@A@?$ANlogf?3?5SING?5error?6?$AA@ 10072bbc     libmmt:libm_error.omu
 0006:00000bd0       ??_C@_0BF@A@?$ANlogl?3?5DOMAIN?5error?6?$AA@ 10072bd0     libmmt:libm_error.omu
 0006:00000be8       ??_C@_0BE@A@?$ANlog?3?5DOMAIN?5error?6?$AA@ 10072be8     libmmt:libm_error.omu
 0006:00000bfc       ??_C@_0BF@A@?$ANlogf?3?5DOMAIN?5error?6?$AA@ 10072bfc     libmmt:libm_error.omu
 0006:00000c14       ??_C@_06A@log1pl?$AA@      10072c14     libmmt:libm_error.omu
 0006:00000c1c       ??_C@_0BF@A@?$ANlog1pl?3?5SING?5error?6?$AA@ 10072c1c     libmmt:libm_error.omu
 0006:00000c34       ??_C@_05A@log1p?$AA@       10072c34     libmmt:libm_error.omu
 0006:00000c3c       ??_C@_0BE@A@?$ANlog1p?3?5SING?5error?6?$AA@ 10072c3c     libmmt:libm_error.omu
 0006:00000c50       ??_C@_06A@log1pf?$AA@      10072c50     libmmt:libm_error.omu
 0006:00000c58       ??_C@_0BF@A@?$ANlog1pf?3?5SING?5error?6?$AA@ 10072c58     libmmt:libm_error.omu
 0006:00000c70       ??_C@_0BH@A@?$ANlog1pl?3?5DOMAIN?5error?6?$AA@ 10072c70     libmmt:libm_error.omu
 0006:00000c88       ??_C@_0BG@A@?$ANlog1p?3?5DOMAIN?5error?6?$AA@ 10072c88     libmmt:libm_error.omu
 0006:00000ca0       ??_C@_0BH@A@?$ANlog1pf?3?5DOMAIN?5error?6?$AA@ 10072ca0     libmmt:libm_error.omu
 0006:00000cb8       ??_C@_06A@log10l?$AA@      10072cb8     libmmt:libm_error.omu
 0006:00000cc0       ??_C@_0BF@A@?$ANlog10l?3?5SING?5error?6?$AA@ 10072cc0     libmmt:libm_error.omu
 0006:00000cd8       ??_C@_05A@log10?$AA@       10072cd8     libmmt:libm_error.omu
 0006:00000ce0       ??_C@_0BE@A@?$ANlog10?3?5SING?5error?6?$AA@ 10072ce0     libmmt:libm_error.omu
 0006:00000cf4       ??_C@_06A@log10f?$AA@      10072cf4     libmmt:libm_error.omu
 0006:00000cfc       ??_C@_0BF@A@?$ANlog10f?3?5SING?5error?6?$AA@ 10072cfc     libmmt:libm_error.omu
 0006:00000d14       ??_C@_0BH@A@?$ANlog10l?3?5DOMAIN?5error?6?$AA@ 10072d14     libmmt:libm_error.omu
 0006:00000d2c       ??_C@_0BG@A@?$ANlog10?3?5DOMAIN?5error?6?$AA@ 10072d2c     libmmt:libm_error.omu
 0006:00000d44       ??_C@_0BH@A@?$ANlog10f?3?5DOMAIN?5error?6?$AA@ 10072d44     libmmt:libm_error.omu
 0006:00000d5c       ??_C@_05A@log2l?$AA@       10072d5c     libmmt:libm_error.omu
 0006:00000d64       ??_C@_0BE@A@?$ANlog2l?3?5SING?5error?6?$AA@ 10072d64     libmmt:libm_error.omu
 0006:00000d78       ??_C@_04A@log2?$AA@        10072d78     libmmt:libm_error.omu
 0006:00000d80       ??_C@_0BD@A@?$ANlog2?3?5SING?5error?6?$AA@ 10072d80     libmmt:libm_error.omu
 0006:00000d94       ??_C@_05A@log2f?$AA@       10072d94     libmmt:libm_error.omu
 0006:00000d9c       ??_C@_0BE@A@?$ANlog2f?3?5SING?5error?6?$AA@ 10072d9c     libmmt:libm_error.omu
 0006:00000db0       ??_C@_0BG@A@?$ANlog2l?3?5DOMAIN?5error?6?$AA@ 10072db0     libmmt:libm_error.omu
 0006:00000dc8       ??_C@_0BF@A@?$ANlog2?3?5DOMAIN?5error?6?$AA@ 10072dc8     libmmt:libm_error.omu
 0006:00000de0       ??_C@_0BG@A@?$ANlog2f?3?5DOMAIN?5error?6?$AA@ 10072de0     libmmt:libm_error.omu
 0006:00000df8       ??_C@_04A@expl?$AA@        10072df8     libmmt:libm_error.omu
 0006:00000e00       ??_C@_03A@exp?$AA@         10072e00     libmmt:libm_error.omu
 0006:00000e04       ??_C@_04A@expf?$AA@        10072e04     libmmt:libm_error.omu
 0006:00000e0c       ??_C@_04A@powl?$AA@        10072e0c     libmmt:libm_error.omu
 0006:00000e14       ??_C@_0BK@A@?$ANpowl?$CI0?00?$CJ?3?5DOMAIN?5error?6?$AA@ 10072e14     libmmt:libm_error.omu
 0006:00000e30       ??_C@_03A@pow?$AA@         10072e30     libmmt:libm_error.omu
 0006:00000e34       ??_C@_0BJ@A@?$ANpow?$CI0?00?$CJ?3?5DOMAIN?5error?6?$AA@ 10072e34     libmmt:libm_error.omu
 0006:00000e50       ??_C@_04A@powf?$AA@        10072e50     libmmt:libm_error.omu
 0006:00000e58       ??_C@_0BK@A@?$ANpowf?$CI0?00?$CJ?3?5DOMAIN?5error?6?$AA@ 10072e58     libmmt:libm_error.omu
 0006:00000e74       ??_C@_0CB@A@?$ANpowl?$CI0?0negative?$CJ?3?5DOMAIN?5error?6?$AA@ 10072e74     libmmt:libm_error.omu
 0006:00000e98       ??_C@_0CA@A@?$ANpow?$CI0?0negative?$CJ?3?5DOMAIN?5error?6?$AA@ 10072e98     libmmt:libm_error.omu
 0006:00000eb8       ??_C@_0CB@A@?$ANpowf?$CI0?0negative?$CJ?3?5DOMAIN?5error?6?$AA@ 10072eb8     libmmt:libm_error.omu
 0006:00000edc       ??_C@_0CL@A@?$ANpowl?$CInegative?0non?9integer?$CJ?3?5DOMAIN?5error?6?$AA@ 10072edc     libmmt:libm_error.omu
 0006:00000f08       ??_C@_0CK@A@?$ANpow?$CInegative?0non?9integer?$CJ?3?5DOMAIN?5error?6?$AA@ 10072f08     libmmt:libm_error.omu
 0006:00000f34       ??_C@_0CL@A@?$ANpowf?$CInegative?0non?9integer?$CJ?3?5DOMAIN?5error?6?$AA@ 10072f34     libmmt:libm_error.omu
 0006:00000f60       ??_C@_06A@atan2l?$AA@      10072f60     libmmt:libm_error.omu
 0006:00000f68       ??_C@_0BH@A@?$ANatan2l?3?5DOMAIN?5error?6?$AA@ 10072f68     libmmt:libm_error.omu
 0006:00000f80       ??_C@_05A@atan2?$AA@       10072f80     libmmt:libm_error.omu
 0006:00000f88       ??_C@_0BG@A@?$ANatan2?3?5DOMAIN?5error?6?$AA@ 10072f88     libmmt:libm_error.omu
 0006:00000fa0       ??_C@_06A@atan2f?$AA@      10072fa0     libmmt:libm_error.omu
 0006:00000fa8       ??_C@_0BH@A@?$ANatan2f?3?5DOMAIN?5error?6?$AA@ 10072fa8     libmmt:libm_error.omu
 0006:00000fc0       ??_C@_07A@atan2dl?$AA@     10072fc0     libmmt:libm_error.omu
 0006:00000fc8       ??_C@_0BI@A@?$ANatan2dl?3?5DOMAIN?5error?6?$AA@ 10072fc8     libmmt:libm_error.omu
 0006:00000fe0       ??_C@_06A@atan2d?$AA@      10072fe0     libmmt:libm_error.omu
 0006:00000fe8       ??_C@_0BH@A@?$ANatan2d?3?5DOMAIN?5error?6?$AA@ 10072fe8     libmmt:libm_error.omu
 0006:00001000       ??_C@_07A@atan2df?$AA@     10073000     libmmt:libm_error.omu
 0006:00001008       ??_C@_0BI@A@?$ANatan2df?3?5DOMAIN?5error?6?$AA@ 10073008     libmmt:libm_error.omu
 0006:00001020       ??_C@_06A@scalbl?$AA@      10073020     libmmt:libm_error.omu
 0006:00001028       ??_C@_05A@scalb?$AA@       10073028     libmmt:libm_error.omu
 0006:00001030       ??_C@_06A@scalbf?$AA@      10073030     libmmt:libm_error.omu
 0006:00001038       ??_C@_06A@hypotl?$AA@      10073038     libmmt:libm_error.omu
 0006:00001040       ??_C@_05A@hypot?$AA@       10073040     libmmt:libm_error.omu
 0006:00001048       ??_C@_06A@hypotf?$AA@      10073048     libmmt:libm_error.omu
 0006:00001050       ??_C@_05A@acosl?$AA@       10073050     libmmt:libm_error.omu
 0006:00001058       ??_C@_0BG@A@?$ANacosl?3?5DOMAIN?5error?6?$AA@ 10073058     libmmt:libm_error.omu
 0006:00001070       ??_C@_04A@acos?$AA@        10073070     libmmt:libm_error.omu
 0006:00001078       ??_C@_0BF@A@?$ANacos?3?5DOMAIN?5error?6?$AA@ 10073078     libmmt:libm_error.omu
 0006:00001090       ??_C@_05A@acosf?$AA@       10073090     libmmt:libm_error.omu
 0006:00001098       ??_C@_0BG@A@?$ANacosf?3?5DOMAIN?5error?6?$AA@ 10073098     libmmt:libm_error.omu
 0006:000010b0       ??_C@_05A@asinl?$AA@       100730b0     libmmt:libm_error.omu
 0006:000010b8       ??_C@_0BG@A@?$ANasinl?3?5DOMAIN?5error?6?$AA@ 100730b8     libmmt:libm_error.omu
 0006:000010d0       ??_C@_04A@asin?$AA@        100730d0     libmmt:libm_error.omu
 0006:000010d8       ??_C@_0BF@A@?$ANasin?3?5DOMAIN?5error?6?$AA@ 100730d8     libmmt:libm_error.omu
 0006:000010f0       ??_C@_05A@asinf?$AA@       100730f0     libmmt:libm_error.omu
 0006:000010f8       ??_C@_0BG@A@?$ANasinf?3?5DOMAIN?5error?6?$AA@ 100730f8     libmmt:libm_error.omu
 0006:00001110       ??_C@_06A@acosdl?$AA@      10073110     libmmt:libm_error.omu
 0006:00001118       ??_C@_0BH@A@?$ANacosdl?3?5DOMAIN?5error?6?$AA@ 10073118     libmmt:libm_error.omu
 0006:00001130       ??_C@_05A@acosd?$AA@       10073130     libmmt:libm_error.omu
 0006:00001138       ??_C@_0BG@A@?$ANacosd?3?5DOMAIN?5error?6?$AA@ 10073138     libmmt:libm_error.omu
 0006:00001150       ??_C@_06A@acosdf?$AA@      10073150     libmmt:libm_error.omu
 0006:00001158       ??_C@_0BH@A@?$ANacosdf?3?5DOMAIN?5error?6?$AA@ 10073158     libmmt:libm_error.omu
 0006:00001170       ??_C@_06A@asindl?$AA@      10073170     libmmt:libm_error.omu
 0006:00001178       ??_C@_0BH@A@?$ANasindl?3?5DOMAIN?5error?6?$AA@ 10073178     libmmt:libm_error.omu
 0006:00001190       ??_C@_05A@asind?$AA@       10073190     libmmt:libm_error.omu
 0006:00001198       ??_C@_0BG@A@?$ANasind?3?5DOMAIN?5error?6?$AA@ 10073198     libmmt:libm_error.omu
 0006:000011b0       ??_C@_06A@asindf?$AA@      100731b0     libmmt:libm_error.omu
 0006:000011b8       ??_C@_0BH@A@?$ANasindf?3?5DOMAIN?5error?6?$AA@ 100731b8     libmmt:libm_error.omu
 0006:000011d0       ??_C@_05A@coshl?$AA@       100731d0     libmmt:libm_error.omu
 0006:000011d8       ??_C@_04A@cosh?$AA@        100731d8     libmmt:libm_error.omu
 0006:000011e0       ??_C@_05A@coshf?$AA@       100731e0     libmmt:libm_error.omu
 0006:000011e8       ??_C@_05A@sinhl?$AA@       100731e8     libmmt:libm_error.omu
 0006:000011f0       ??_C@_04A@sinh?$AA@        100731f0     libmmt:libm_error.omu
 0006:000011f8       ??_C@_05A@sinhf?$AA@       100731f8     libmmt:libm_error.omu
 0006:00001200       ??_C@_06A@acoshl?$AA@      10073200     libmmt:libm_error.omu
 0006:00001208       ??_C@_0BH@A@?$ANacoshl?3?5DOMAIN?5error?6?$AA@ 10073208     libmmt:libm_error.omu
 0006:00001220       ??_C@_05A@acosh?$AA@       10073220     libmmt:libm_error.omu
 0006:00001228       ??_C@_0BG@A@?$ANacosh?3?5DOMAIN?5error?6?$AA@ 10073228     libmmt:libm_error.omu
 0006:00001240       ??_C@_06A@acoshf?$AA@      10073240     libmmt:libm_error.omu
 0006:00001248       ??_C@_0BH@A@?$ANacoshf?3?5DOMAIN?5error?6?$AA@ 10073248     libmmt:libm_error.omu
 0006:00001260       ??_C@_06A@atanhl?$AA@      10073260     libmmt:libm_error.omu
 0006:00001268       ??_C@_0BH@A@?$ANatanhl?3?5DOMAIN?5error?6?$AA@ 10073268     libmmt:libm_error.omu
 0006:00001280       ??_C@_05A@atanh?$AA@       10073280     libmmt:libm_error.omu
 0006:00001288       ??_C@_0BG@A@?$ANatanh?3?5DOMAIN?5error?6?$AA@ 10073288     libmmt:libm_error.omu
 0006:000012a0       ??_C@_06A@atanhf?$AA@      100732a0     libmmt:libm_error.omu
 0006:000012a8       ??_C@_0BH@A@?$ANatanhf?3?5DOMAIN?5error?6?$AA@ 100732a8     libmmt:libm_error.omu
 0006:000012c0       ??_C@_0BF@A@?$ANatanhl?3?5SING?5error?6?$AA@ 100732c0     libmmt:libm_error.omu
 0006:000012d8       ??_C@_0BE@A@?$ANatanh?3?5SING?5error?6?$AA@ 100732d8     libmmt:libm_error.omu
 0006:000012ec       ??_C@_0BF@A@?$ANatanhf?3?5SING?5error?6?$AA@ 100732ec     libmmt:libm_error.omu
 0006:00001304       ??_C@_06A@gammal?$AA@      10073304     libmmt:libm_error.omu
 0006:0000130c       ??_C@_05A@gamma?$AA@       1007330c     libmmt:libm_error.omu
 0006:00001314       ??_C@_06A@gammaf?$AA@      10073314     libmmt:libm_error.omu
 0006:0000131c       ??_C@_0BF@A@?$ANgammal?3?5SING?5error?6?$AA@ 1007331c     libmmt:libm_error.omu
 0006:00001334       ??_C@_0BE@A@?$ANgamma?3?5SING?5error?6?$AA@ 10073334     libmmt:libm_error.omu
 0006:00001348       ??_C@_0BF@A@?$ANgammaf?3?5SING?5error?6?$AA@ 10073348     libmmt:libm_error.omu
 0006:00001360       ??_C@_07A@lgammal?$AA@     10073360     libmmt:libm_error.omu
 0006:00001368       ??_C@_06A@lgamma?$AA@      10073368     libmmt:libm_error.omu
 0006:00001370       ??_C@_07A@lgammaf?$AA@     10073370     libmmt:libm_error.omu
 0006:00001378       ??_C@_0BG@A@?$ANlgammal?3?5SING?5error?6?$AA@ 10073378     libmmt:libm_error.omu
 0006:00001390       ??_C@_0BF@A@?$ANlgamma?3?5SING?5error?6?$AA@ 10073390     libmmt:libm_error.omu
 0006:000013a8       ??_C@_0BG@A@?$ANlgammaf?3?5SING?5error?6?$AA@ 100733a8     libmmt:libm_error.omu
 0006:000013c0       ??_C@_07A@tgammal?$AA@     100733c0     libmmt:libm_error.omu
 0006:000013c8       ??_C@_06A@tgamma?$AA@      100733c8     libmmt:libm_error.omu
 0006:000013d0       ??_C@_07A@tgammaf?$AA@     100733d0     libmmt:libm_error.omu
 0006:000013d8       ??_C@_0BI@A@?$ANtgammal?3?5DOMAIN?5error?6?$AA@ 100733d8     libmmt:libm_error.omu
 0006:000013f0       ??_C@_0BH@A@?$ANtgamma?3?5DOMAIN?5error?6?$AA@ 100733f0     libmmt:libm_error.omu
 0006:00001408       ??_C@_0BI@A@?$ANtgammaf?3?5DOMAIN?5error?6?$AA@ 10073408     libmmt:libm_error.omu
 0006:00001420       ??_C@_03A@j0l?$AA@         10073420     libmmt:libm_error.omu
 0006:00001424       ??_C@_0BD@A@?$ANj0l?3?5TLOSS?5error?6?$AA@ 10073424     libmmt:libm_error.omu
 0006:00001438       ??_C@_02A@j0?$AA@          10073438     libmmt:libm_error.omu
 0006:0000143c       ??_C@_0BC@A@?$ANj0?3?5TLOSS?5error?6?$AA@ 1007343c     libmmt:libm_error.omu
 0006:00001450       ??_C@_03A@j0f?$AA@         10073450     libmmt:libm_error.omu
 0006:00001454       ??_C@_0BD@A@?$ANj0f?3?5TLOSS?5error?6?$AA@ 10073454     libmmt:libm_error.omu
 0006:00001468       ??_C@_03A@j1l?$AA@         10073468     libmmt:libm_error.omu
 0006:0000146c       ??_C@_0BD@A@?$ANj1l?3?5TLOSS?5error?6?$AA@ 1007346c     libmmt:libm_error.omu
 0006:00001480       ??_C@_02A@j1?$AA@          10073480     libmmt:libm_error.omu
 0006:00001484       ??_C@_0BC@A@?$ANj1?3?5TLOSS?5error?6?$AA@ 10073484     libmmt:libm_error.omu
 0006:00001498       ??_C@_03A@j1f?$AA@         10073498     libmmt:libm_error.omu
 0006:0000149c       ??_C@_0BD@A@?$ANj1f?3?5TLOSS?5error?6?$AA@ 1007349c     libmmt:libm_error.omu
 0006:000014b0       ??_C@_03A@jnl?$AA@         100734b0     libmmt:libm_error.omu
 0006:000014b4       ??_C@_0BD@A@?$ANjnl?3?5TLOSS?5error?6?$AA@ 100734b4     libmmt:libm_error.omu
 0006:000014c8       ??_C@_02A@jn?$AA@          100734c8     libmmt:libm_error.omu
 0006:000014cc       ??_C@_0BC@A@?$ANjn?3?5TLOSS?5error?6?$AA@ 100734cc     libmmt:libm_error.omu
 0006:000014e0       ??_C@_03A@jnf?$AA@         100734e0     libmmt:libm_error.omu
 0006:000014e4       ??_C@_0BD@A@?$ANjnf?3?5TLOSS?5error?6?$AA@ 100734e4     libmmt:libm_error.omu
 0006:000014f8       ??_C@_03A@y0l?$AA@         100734f8     libmmt:libm_error.omu
 0006:000014fc       ??_C@_0BD@A@?$ANy0l?3?5TLOSS?5error?6?$AA@ 100734fc     libmmt:libm_error.omu
 0006:00001510       ??_C@_02A@y0?$AA@          10073510     libmmt:libm_error.omu
 0006:00001514       ??_C@_0BC@A@?$ANy0?3?5TLOSS?5error?6?$AA@ 10073514     libmmt:libm_error.omu
 0006:00001528       ??_C@_03A@y0f?$AA@         10073528     libmmt:libm_error.omu
 0006:0000152c       ??_C@_0BD@A@?$ANy0f?3?5TLOSS?5error?6?$AA@ 1007352c     libmmt:libm_error.omu
 0006:00001540       ??_C@_0BE@A@?$ANy0l?3?5DOMAIN?5error?6?$AA@ 10073540     libmmt:libm_error.omu
 0006:00001554       ??_C@_0BD@A@?$ANy0?3?5DOMAIN?5error?6?$AA@ 10073554     libmmt:libm_error.omu
 0006:00001568       ??_C@_0BE@A@?$ANy0f?3?5DOMAIN?5error?6?$AA@ 10073568     libmmt:libm_error.omu
 0006:0000157c       ??_C@_03A@y1l?$AA@         1007357c     libmmt:libm_error.omu
 0006:00001580       ??_C@_0BD@A@?$ANy1l?3?5TLOSS?5error?6?$AA@ 10073580     libmmt:libm_error.omu
 0006:00001594       ??_C@_02A@y1?$AA@          10073594     libmmt:libm_error.omu
 0006:00001598       ??_C@_0BC@A@?$ANy1?3?5TLOSS?5error?6?$AA@ 10073598     libmmt:libm_error.omu
 0006:000015ac       ??_C@_03A@y1f?$AA@         100735ac     libmmt:libm_error.omu
 0006:000015b0       ??_C@_0BD@A@?$ANy1f?3?5TLOSS?5error?6?$AA@ 100735b0     libmmt:libm_error.omu
 0006:000015c4       ??_C@_0BE@A@?$ANy1l?3?5DOMAIN?5error?6?$AA@ 100735c4     libmmt:libm_error.omu
 0006:000015d8       ??_C@_0BD@A@?$ANy1?3?5DOMAIN?5error?6?$AA@ 100735d8     libmmt:libm_error.omu
 0006:000015ec       ??_C@_0BE@A@?$ANy1f?3?5DOMAIN?5error?6?$AA@ 100735ec     libmmt:libm_error.omu
 0006:00001600       ??_C@_03A@ynl?$AA@         10073600     libmmt:libm_error.omu
 0006:00001604       ??_C@_0BD@A@?$ANynl?3?5TLOSS?5error?6?$AA@ 10073604     libmmt:libm_error.omu
 0006:00001618       ??_C@_02A@yn?$AA@          10073618     libmmt:libm_error.omu
 0006:0000161c       ??_C@_0BC@A@?$ANyn?3?5TLOSS?5error?6?$AA@ 1007361c     libmmt:libm_error.omu
 0006:00001630       ??_C@_03A@ynf?$AA@         10073630     libmmt:libm_error.omu
 0006:00001634       ??_C@_0BD@A@?$ANynf?3?5TLOSS?5error?6?$AA@ 10073634     libmmt:libm_error.omu
 0006:00001648       ??_C@_0BE@A@?$ANynl?3?5DOMAIN?5error?6?$AA@ 10073648     libmmt:libm_error.omu
 0006:0000165c       ??_C@_0BD@A@?$ANyn?3?5DOMAIN?5error?6?$AA@ 1007365c     libmmt:libm_error.omu
 0006:00001670       ??_C@_0BE@A@?$ANynf?3?5DOMAIN?5error?6?$AA@ 10073670     libmmt:libm_error.omu
 0006:00001684       ??_C@_05A@fmodl?$AA@       10073684     libmmt:libm_error.omu
 0006:0000168c       ??_C@_0BG@A@?$ANfmodl?3?5DOMAIN?5error?6?$AA@ 1007368c     libmmt:libm_error.omu
 0006:000016a4       ??_C@_04A@fmod?$AA@        100736a4     libmmt:libm_error.omu
 0006:000016ac       ??_C@_0BF@A@?$ANfmod?3?5DOMAIN?5error?6?$AA@ 100736ac     libmmt:libm_error.omu
 0006:000016c4       ??_C@_05A@fmodf?$AA@       100736c4     libmmt:libm_error.omu
 0006:000016cc       ??_C@_0BG@A@?$ANfmodf?3?5DOMAIN?5error?6?$AA@ 100736cc     libmmt:libm_error.omu
 0006:000016e4       ??_C@_0L@A@remainderl?$AA@ 100736e4     libmmt:libm_error.omu
 0006:000016f0       ??_C@_0BL@A@?$ANremainderl?3?5DOMAIN?5error?6?$AA@ 100736f0     libmmt:libm_error.omu
 0006:0000170c       ??_C@_09A@remainder?$AA@   1007370c     libmmt:libm_error.omu
 0006:00001718       ??_C@_0BK@A@?$ANremainder?3?5DOMAIN?5error?6?$AA@ 10073718     libmmt:libm_error.omu
 0006:00001734       ??_C@_0L@A@remainderf?$AA@ 10073734     libmmt:libm_error.omu
 0006:00001740       ??_C@_0BL@A@?$ANremainderf?3?5DOMAIN?5error?6?$AA@ 10073740     libmmt:libm_error.omu
 0006:0000175c       ??_C@_1BE@A@V?$AAe?$AAc?$AAt?$AAo?$AAr?$AA4?$AA?5?$AA?$HL?$AA?$AA?$AA@ 1007375c     Rendering:IFXVector4.obj
 0006:00001770       ??_C@_02A@?$CFG?$AA@       10073770     Rendering:IFXVector4.obj
 0006:00001774       ??_C@_13A@?5?$AA?$AA?$AA@  10073774     Rendering:IFXVector4.obj
 0006:00001778       ??_C@_13A@?$HN?$AA?$AA?$AA@ 10073778     Rendering:IFXVector4.obj

 entry point at        0001:0003e741

 Static symbols

 0001:0000212a       B10.EH                     1000312a f   Rendering:CIFXRenderContext.obj
 0001:00004d00       B5.EH                      10005d00 f   Rendering:CIFXRenderServices.obj
 0001:000169c4       ?MonitorEnum@@YGHPAXPAUHDC__@@PAUtagRECT@@J@Z 100179c4 f   IFXRenderingOpenGL:IFXOSRender.obj
 0001:0001efc6       ?DDEnumCallback@@YGHPAU_GUID@@PAG1PAXPAUHMONITOR__@@@Z 1001ffc6 f   IFXRenderingDX7:CIFXRenderDeviceDX7.obj
 0001:0001f018       ?D3DEnumCallback@@YGJPAD0PAU_D3DDeviceDesc7@@PAX@Z 10020018 f   IFXRenderingDX7:CIFXRenderDeviceDX7.obj
 0001:0001f4fe       ?EnumTexFormats@@YGJPAU_DDPIXELFORMAT@@PAX@Z 100204fe f   IFXRenderingDX7:CIFXRenderDeviceDX7.obj
 0001:0001f57a       ?EnumZFormats@@YGJPAU_DDPIXELFORMAT@@PAX@Z 1002057a f   IFXRenderingDX7:CIFXRenderDeviceDX7.obj
 0001:00031f02       ?Sort@@YAXPAV?$CArrayList@UIFXSpatialInstance@@@@PANII@Z 10032f02 f   Culling:CIFXScenegraphCuller.obj
 0001:0003e8b0       $$$00001                   1003f8b0 f   LIBCMT:exsup.obj
 0001:0003e8d0       $$$00003                   1003f8d0 f   LIBCMT:exsup.obj
 0001:0003e8d0       __unwind_handler           1003f8d0 f   LIBCMT:exsup.obj
 0001:0003e8f2       $$$00005                   1003f8f2 f   LIBCMT:exsup.obj
 0001:0003e95a       $$$00007                   1003f95a f   LIBCMT:exsup.obj
 0001:0003e99e       $$$00011                   1003f99e f   LIBCMT:exsup.obj
 0001:0003eb1b       ?CatchGuardHandler@@YA?AW4_EXCEPTION_DISPOSITION@@PAUEHExceptionRecord@@PAUCatchGuardRN@@PAX2@Z 1003fb1b f   LIBCMT:trnsctrl.obj
 0001:0003ec1d       ?TranslatorGuardHandler@@YA?AW4_EXCEPTION_DISPOSITION@@PAUEHExceptionRecord@@PAUTranslatorGuardRN@@PAX2@Z 1003fc1d f   LIBCMT:trnsctrl.obj
 0001:0003f10b       _wcstoxl                   1004010b f   LIBCMT:wcstol.obj
 0001:0003f5da       __abstract_cw              100405da f   LIBCMT:ieee87.obj
 0001:0003f66c       __hw_cw                    1004066c f   LIBCMT:ieee87.obj
 0001:0003f7f3       __initterm                 100407f3 f   LIBCMT:crt0dat.obj
 0001:0003f875       _doexit                    10040875 f   LIBCMT:crt0dat.obj
 0001:0003fa39       ___updatetlocinfo_lk       10040a39 f   LIBCMT:setlocal.obj
 0001:0003fc86       __setlocale_get_all        10040c86 f   LIBCMT:setlocal.obj
 0001:0003fea1       __setlocale_set_cat        10040ea1 f   LIBCMT:setlocal.obj
 0001:00040130       __setlocale_lk             10041130 f   LIBCMT:setlocal.obj
 0001:00040f5e       _parse_cmdline             10041f5e f   LIBCMT:stdargv.obj
 0001:00041711       $$$00003                   10042711 f   LIBCMT:exsup3.obj
 0001:000419a0       __shift                    100429a0 f   LIBCMT:cvt.obj
 0001:000419bd       __cftoe2                   100429bd f   LIBCMT:cvt.obj
 0001:00041ad7       __cftof2                   10042ad7 f   LIBCMT:cvt.obj
 0001:00041d9d       ?TypeMatch@@YAHPBU_s_HandlerType@@PBU_s_CatchableType@@PBU_s_ThrowInfo@@@Z 10042d9d f   LIBCMT:frame.obj
 0001:00041dec       ?FrameUnwindFilter@@YAHPAU_EXCEPTION_POINTERS@@@Z 10042dec f   LIBCMT:frame.obj
 0001:00041f1d       ?AdjustPointer@@YAPAXPAXABUPMD@@@Z 10042f1d f   LIBCMT:frame.obj
 0001:00041f3c       ?CallCatchBlock@@YAPAXPAUEHExceptionRecord@@PAUEHRegistrationNode@@PAU_CONTEXT@@PBU_s_FuncInfo@@PAXHK@Z 10042f3c f   LIBCMT:frame.obj
 0001:00042100       ?BuildCatchObject@@YAXPAUEHExceptionRecord@@PAXPBU_s_HandlerType@@PBU_s_CatchableType@@@Z 10043100 f   LIBCMT:frame.obj
 0001:0004227c       ?CatchIt@@YAXPAUEHExceptionRecord@@PAUEHRegistrationNode@@PAU_CONTEXT@@PAXPBU_s_FuncInfo@@PBU_s_HandlerType@@PBU_s_CatchableType@@PBU_s_TryBlockMapEntry@@H1E@Z 1004327c f   LIBCMT:frame.obj
 0001:000422e3       ?FindHandlerForForeignException@@YAXPAUEHExceptionRecord@@PAUEHRegistrationNode@@PAU_CONTEXT@@PAXPBU_s_FuncInfo@@HH1@Z 100432e3 f   LIBCMT:frame.obj
 0001:000423a1       ?FindHandler@@YAXPAUEHExceptionRecord@@PAUEHRegistrationNode@@PAU_CONTEXT@@PAXPBU_s_FuncInfo@@EH1@Z 100433a1 f   LIBCMT:frame.obj
 0001:00042c2d       _write_char                10043c2d f   LIBCMT:woutput.obj
 0001:00042c52       _write_multi_char          10043c52 f   LIBCMT:woutput.obj
 0001:00042c77       _write_string              10043c77 f   LIBCMT:woutput.obj
 0001:00043b2b       _siglookup                 10044b2b f   LIBCMT:winsig.obj
 0001:00043cd2       __onexit_lk                10044cd2 f   LIBCMT:onexit.obj
 0001:00043dc4       __get_lc_time              10044dc4 f   LIBCMT:inittime.obj
 0001:0004512d       _TranslateName             1004612d f   LIBCMT:getqloc.obj
 0001:0004518d       _GetLcidFromDefault        1004618d f   LIBCMT:getqloc.obj
 0001:000451a7       _ProcessCodePage           100461a7 f   LIBCMT:getqloc.obj
 0001:0004521d       _TestDefaultCountry        1004621d f   LIBCMT:getqloc.obj
 0001:0004523b       _crtGetLocaleInfoA@16      1004623b f   LIBCMT:getqloc.obj
 0001:0004531e       _LcidFromHexString         1004631e f   LIBCMT:getqloc.obj
 0001:00045353       _GetPrimaryLen             10046353 f   LIBCMT:getqloc.obj
 0001:00045370       _CountryEnumProc@4         10046370 f   LIBCMT:getqloc.obj
 0001:00045404       _TestDefaultLanguage       10046404 f   LIBCMT:getqloc.obj
 0001:00045475       _LangCountryEnumProc@4     10046475 f   LIBCMT:getqloc.obj
 0001:0004568f       _LanguageEnumProc@4        1004668f f   LIBCMT:getqloc.obj
 0001:0004575a       _GetLcidFromCountry        1004675a f   LIBCMT:getqloc.obj
 0001:00045791       _GetLcidFromLangCountry    10046791 f   LIBCMT:getqloc.obj
 0001:00045817       _GetLcidFromLanguage       10046817 f   LIBCMT:getqloc.obj
 0001:00045abb       _report_failure            10046abb f   LIBCMT:secchk.obj
 0001:00045e00       __inc                      10046e00 f   LIBCMT:input.obj
 0001:00046f49       _flsall                    10047f49 f   LIBCMT:fflush.obj
 0001:000471e0       _CPtoLCID                  100481e0 f   LIBCMT:mbctype.obj
 0001:0004720f       _setSBCS                   1004820f f   LIBCMT:mbctype.obj
 0001:00047238       _setSBUpLow                10048238 f   LIBCMT:mbctype.obj
 0001:000473c4       __setmbcp_lk               100483c4 f   LIBCMT:mbctype.obj
 0001:00048200       ___crtInitCritSecNoSpinCount@8 10049200 f   LIBCMT:initcrit.obj
 0001:00049aa9       _write_char                1004aaa9 f   LIBCMT:output.obj
 0001:00049adc       _write_multi_char          1004aadc f   LIBCMT:output.obj
 0001:00049b00       _write_string              1004ab00 f   LIBCMT:output.obj
 0001:0004a9c5       _xtoa                      1004b9c5 f   LIBCMT:xtoa.obj
 0001:0004ad28       __tsopen_lk                1004bd28 f   LIBCMT:wopen.obj
 0001:0004cb00       _$$$00001                  1004db00 f   LIBCMT:strchr.obj
 0001:0004f606       ___sti__$E                 10050606 f   Rendering:CIFXDeviceLight.obj
 0002:000000e0       B2.EH                      100550e0 f   Rendering:CIFXRenderDevice.obj
 0002:000001a6       B75.EH                     100551a6 f   Rendering:CIFXRenderDevice.obj
 0002:000001c0       B10.EH                     100551c0 f   Rendering:CIFXRenderDevice.obj
 0002:000001dc       B19.EH                     100551dc f   Rendering:CIFXRenderDevice.obj
 0002:000001f8       B20.EH                     100551f8 f   Rendering:CIFXRenderDevice.obj
 0002:00000214       B21.EH                     10055214 f   Rendering:CIFXRenderDevice.obj
 0002:00000230       B46.EH                     10055230 f   Rendering:CIFXRenderDevice.obj
 0002:0000024c       B49.EH                     1005524c f   Rendering:CIFXRenderDevice.obj
 0002:00000340       B2.EH                      10055340 f   Rendering:CIFXRenderContext.obj
 0002:00000362       B24.EH                     10055362 f   Rendering:CIFXRenderContext.obj
 0002:00000440       B25.EH                     10055440 f   Rendering:CIFXRenderContext.obj
 0002:0000047a       B26.EH                     1005547a f   Rendering:CIFXRenderContext.obj
 0002:00000494       B7.EH                      10055494 f   Rendering:CIFXRenderContext.obj
 0002:000004b0       B18.EH                     100554b0 f   Rendering:CIFXRenderContext.obj
 0002:000004cc       B22.EH                     100554cc f   Rendering:CIFXRenderContext.obj
 0002:000004e8       B27.EH                     100554e8 f   Rendering:CIFXRenderContext.obj
 0002:0000050c       B13.EH                     1005550c f   Rendering:CIFXRenderServices.obj
 0002:0000055e       B61.EH                     1005555e f   Rendering:CIFXRenderServices.obj
 0002:00000580       B83.EH                     10055580 f   Rendering:CIFXRenderServices.obj
 0002:000005ea       B88.EH                     100555ea f   Rendering:CIFXRenderServices.obj
 0002:00000604       B11.EH                     10055604 f   Rendering:CIFXRenderServices.obj
 0002:00000620       B15.EH                     10055620 f   Rendering:CIFXRenderServices.obj
 0002:0000063c       B2.EH                      1005563c f   IFXRenderingNULL:CIFXDeviceLightNULL.obj
 0002:0000065e       B3.EH                      1005565e f   IFXRenderingNULL:CIFXDeviceLightNULL.obj
 0002:00000678       B2.EH                      10055678 f   IFXRenderingNULL:CIFXDeviceTextureNULL.obj
 0002:0000069a       B4.EH                      1005569a f   IFXRenderingNULL:CIFXDeviceTextureNULL.obj
 0002:000006bc       B10.EH                     100556bc f   IFXRenderingNULL:CIFXDeviceTexUnitNULL.obj
 0002:00000772       B2.EH                      10055772 f   IFXRenderingNULL:CIFXRenderNULL.obj
 0002:00000794       B20.EH                     10055794 f   IFXRenderingNULL:CIFXRenderNULL.obj
 0002:0000081e       B21.EH                     1005581e f   IFXRenderingNULL:CIFXRenderNULL.obj
 0002:00000846       B85.EH                     10055846 f   IFXRenderingNULL:CIFXRenderNULL.obj
 0002:00000860       B4.EH                      10055860 f   IFXRenderingNULL:CIFXRenderNULL.obj
 0002:0000087c       B8.EH                      1005587c f   IFXRenderingNULL:CIFXRenderNULL.obj
 0002:00000898       B9.EH                      10055898 f   IFXRenderingNULL:CIFXRenderNULL.obj
 0002:000008b4       B10.EH                     100558b4 f   IFXRenderingNULL:CIFXRenderNULL.obj
 0002:000008d0       B11.EH                     100558d0 f   IFXRenderingNULL:CIFXRenderNULL.obj
 0002:000008ec       B13.EH                     100558ec f   IFXRenderingNULL:CIFXRenderNULL.obj
 0002:00000908       B16.EH                     10055908 f   IFXRenderingNULL:CIFXRenderNULL.obj
 0002:00000924       B87.EH                     10055924 f   IFXRenderingNULL:CIFXRenderNULL.obj
 0002:000009a0       B3.EH                      100559a0 f   IFXRenderingNULL:CIFXRenderDeviceNULL.obj
 0002:00000a1e       B38.EH                     10055a1e f   IFXRenderingNULL:CIFXRenderDeviceNULL.obj
 0002:00000a40       B55.EH                     10055a40 f   IFXRenderingNULL:CIFXRenderDeviceNULL.obj
 0002:00000aa6       B59.EH                     10055aa6 f   IFXRenderingNULL:CIFXRenderDeviceNULL.obj
 0002:00000ace       B104.EH                    10055ace f   IFXRenderingNULL:CIFXRenderDeviceNULL.obj
 0002:00000af0       B8.EH                      10055af0 f   IFXRenderingOpenGL:CIFXOpenGLOS.obj
 0002:00000b0c       B2.EH                      10055b0c f   IFXRenderingOpenGL:CIFXDeviceLightOGL.obj
 0002:00000b2e       B3.EH                      10055b2e f   IFXRenderingOpenGL:CIFXDeviceLightOGL.obj
 0002:00000b68       B2.EH                      10055b68 f   IFXRenderingOpenGL:CIFXDeviceTextureOGL.obj
 0002:00000b8a       B9.EH                      10055b8a f   IFXRenderingOpenGL:CIFXDeviceTextureOGL.obj
 0002:00000ba4       B4.EH                      10055ba4 f   IFXRenderingOpenGL:CIFXDeviceTextureOGL.obj
 0002:00000bc0       B6.EH                      10055bc0 f   IFXRenderingOpenGL:CIFXDeviceTextureOGL.obj
 0002:00000bdc       B2.EH                      10055bdc f   IFXRenderingOpenGL:CIFXDeviceTexUnitOGL.obj
 0002:00000bfe       B10.EH                     10055bfe f   IFXRenderingOpenGL:CIFXDeviceTexUnitOGL.obj
 0002:00000cd6       B2.EH                      10055cd6 f   IFXRenderingOpenGL:CIFXRenderOGL.obj
 0002:00000cf8       B24.EH                     10055cf8 f   IFXRenderingOpenGL:CIFXRenderOGL.obj
 0002:00000d96       B25.EH                     10055d96 f   IFXRenderingOpenGL:CIFXRenderOGL.obj
 0002:00000dbe       B94.EH                     10055dbe f   IFXRenderingOpenGL:CIFXRenderOGL.obj
 0002:00000dd8       B4.EH                      10055dd8 f   IFXRenderingOpenGL:CIFXRenderOGL.obj
 0002:00000df4       B10.EH                     10055df4 f   IFXRenderingOpenGL:CIFXRenderOGL.obj
 0002:00000e10       B11.EH                     10055e10 f   IFXRenderingOpenGL:CIFXRenderOGL.obj
 0002:00000e2c       B12.EH                     10055e2c f   IFXRenderingOpenGL:CIFXRenderOGL.obj
 0002:00000e48       B15.EH                     10055e48 f   IFXRenderingOpenGL:CIFXRenderOGL.obj
 0002:00000e64       B18.EH                     10055e64 f   IFXRenderingOpenGL:CIFXRenderOGL.obj
 0002:00000e80       B96.EH                     10055e80 f   IFXRenderingOpenGL:CIFXRenderOGL.obj
 0002:00000f20       B2.EH                      10055f20 f   IFXRenderingOpenGL:CIFXRenderDeviceOGL.obj
 0002:00000f42       B40.EH                     10055f42 f   IFXRenderingOpenGL:CIFXRenderDeviceOGL.obj
 0002:00000fbe       B41.EH                     10055fbe f   IFXRenderingOpenGL:CIFXRenderDeviceOGL.obj
 0002:00000fe6       B102.EH                    10055fe6 f   IFXRenderingOpenGL:CIFXRenderDeviceOGL.obj
 0002:00001008       B1.EH                      10056008 f   IFXRenderingOpenGL:IFXOSRender.obj
 0002:00001032       B4.EH                      10056032 f   IFXRenderingOpenGL:IFXOSLoader.obj
 0002:0000105a       B4.EH                      1005605a f   IFXRenderingOpenGL:CIFXRenderOGLOS.obj
 0002:00001082       B20.EH                     10056082 f   IFXRenderingOpenGL:CIFXRenderOGLOS.obj
 0002:0000109c       B2.EH                      1005609c f   IFXRenderingOpenGL:CIFXRenderOGLOS.obj
 0002:000010b8       B6.EH                      100560b8 f   IFXRenderingOpenGL:CIFXRenderOGLOS.obj
 0002:000010d4       B2.EH                      100560d4 f   IFXRenderingDX7:CIFXDeviceLightDX7.obj
 0002:000010f6       B3.EH                      100560f6 f   IFXRenderingDX7:CIFXDeviceLightDX7.obj
 0002:00001110       B2.EH                      10056110 f   IFXRenderingDX7:CIFXDeviceTextureDX7.obj
 0002:00001132       B4.EH                      10056132 f   IFXRenderingDX7:CIFXDeviceTextureDX7.obj
 0002:00001154       B10.EH                     10056154 f   IFXRenderingDX7:CIFXDeviceTexUnitDX7.obj
 0002:00001172       B2.EH                      10056172 f   IFXRenderingDX7:CIFXDirectX7.obj
 0002:00001194       B5.EH                      10056194 f   IFXRenderingDX7:CIFXDirectX7.obj
 0002:0000124a       B2.EH                      1005624a f   IFXRenderingDX7:CIFXRenderDX7.obj
 0002:0000126c       B22.EH                     1005626c f   IFXRenderingDX7:CIFXRenderDX7.obj
 0002:000012f6       B23.EH                     100562f6 f   IFXRenderingDX7:CIFXRenderDX7.obj
 0002:0000131e       B89.EH                     1005631e f   IFXRenderingDX7:CIFXRenderDX7.obj
 0002:00001338       B4.EH                      10056338 f   IFXRenderingDX7:CIFXRenderDX7.obj
 0002:00001354       B9.EH                      10056354 f   IFXRenderingDX7:CIFXRenderDX7.obj
 0002:00001370       B10.EH                     10056370 f   IFXRenderingDX7:CIFXRenderDX7.obj
 0002:0000138c       B11.EH                     1005638c f   IFXRenderingDX7:CIFXRenderDX7.obj
 0002:000013a8       B12.EH                     100563a8 f   IFXRenderingDX7:CIFXRenderDX7.obj
 0002:000013c4       B14.EH                     100563c4 f   IFXRenderingDX7:CIFXRenderDX7.obj
 0002:000013e0       B17.EH                     100563e0 f   IFXRenderingDX7:CIFXRenderDX7.obj
 0002:000013fc       B91.EH                     100563fc f   IFXRenderingDX7:CIFXRenderDX7.obj
 0002:000014e4       B3.EH                      100564e4 f   IFXRenderingDX7:CIFXRenderDeviceDX7.obj
 0002:00001506       B50.EH                     10056506 f   IFXRenderingDX7:CIFXRenderDeviceDX7.obj
 0002:0000156c       B51.EH                     1005656c f   IFXRenderingDX7:CIFXRenderDeviceDX7.obj
 0002:0000158e       B74.EH                     1005658e f   IFXRenderingDX7:CIFXRenderDeviceDX7.obj
 0002:000015b0       B81.EH                     100565b0 f   IFXRenderingDX7:CIFXRenderDeviceDX7.obj
 0002:000015d2       B86.EH                     100565d2 f   IFXRenderingDX7:CIFXRenderDeviceDX7.obj
 0002:000015fa       B136.EH                    100565fa f   IFXRenderingDX7:CIFXRenderDeviceDX7.obj
 0002:00001614       B7.EH                      10056614 f   IFXRenderingDX7:CIFXRenderDeviceDX7.obj
 0002:00001630       B17.EH                     10056630 f   IFXRenderingDX7:CIFXRenderDeviceDX7.obj
 0002:0000164c       B2.EH                      1005664c f   IFXRenderingDX8:CIFXDeviceLightDX8.obj
 0002:0000166e       B3.EH                      1005666e f   IFXRenderingDX8:CIFXDeviceLightDX8.obj
 0002:00001688       B2.EH                      10056688 f   IFXRenderingDX8:CIFXDeviceTextureDX8.obj
 0002:000016aa       B4.EH                      100566aa f   IFXRenderingDX8:CIFXDeviceTextureDX8.obj
 0002:000016cc       B10.EH                     100566cc f   IFXRenderingDX8:CIFXDeviceTexUnitDX8.obj
 0002:000016ea       B2.EH                      100566ea f   IFXRenderingDX8:CIFXDirectX8.obj
 0002:0000170c       B5.EH                      1005670c f   IFXRenderingDX8:CIFXDirectX8.obj
 0002:000017c2       B2.EH                      100567c2 f   IFXRenderingDX8:CIFXRenderDX8.obj
 0002:000017e4       B21.EH                     100567e4 f   IFXRenderingDX8:CIFXRenderDX8.obj
 0002:0000186e       B22.EH                     1005686e f   IFXRenderingDX8:CIFXRenderDX8.obj
 0002:00001896       B86.EH                     10056896 f   IFXRenderingDX8:CIFXRenderDX8.obj
 0002:000018a2       B89.EH                     100568a2 f   IFXRenderingDX8:CIFXRenderDX8.obj
 0002:000018bc       B4.EH                      100568bc f   IFXRenderingDX8:CIFXRenderDX8.obj
 0002:000018d8       B9.EH                      100568d8 f   IFXRenderingDX8:CIFXRenderDX8.obj
 0002:000018f4       B10.EH                     100568f4 f   IFXRenderingDX8:CIFXRenderDX8.obj
 0002:00001910       B11.EH                     10056910 f   IFXRenderingDX8:CIFXRenderDX8.obj
 0002:0000192c       B12.EH                     1005692c f   IFXRenderingDX8:CIFXRenderDX8.obj
 0002:00001948       B14.EH                     10056948 f   IFXRenderingDX8:CIFXRenderDX8.obj
 0002:00001964       B17.EH                     10056964 f   IFXRenderingDX8:CIFXRenderDX8.obj
 0002:00001980       B88.EH                     10056980 f   IFXRenderingDX8:CIFXRenderDX8.obj
 0002:00001a68       B3.EH                      10056a68 f   IFXRenderingDX8:CIFXRenderDeviceDX8.obj
 0002:00001a8a       B48.EH                     10056a8a f   IFXRenderingDX8:CIFXRenderDeviceDX8.obj
 0002:00001b30       B49.EH                     10056b30 f   IFXRenderingDX8:CIFXRenderDeviceDX8.obj
 0002:00001b52       B70.EH                     10056b52 f   IFXRenderingDX8:CIFXRenderDeviceDX8.obj
 0002:00001b74       B80.EH                     10056b74 f   IFXRenderingDX8:CIFXRenderDeviceDX8.obj
 0002:00001b96       B86.EH                     10056b96 f   IFXRenderingDX8:CIFXRenderDeviceDX8.obj
 0002:00001bbe       B134.EH                    10056bbe f   IFXRenderingDX8:CIFXRenderDeviceDX8.obj
 0002:00001bd8       B7.EH                      10056bd8 f   IFXRenderingDX8:CIFXRenderDeviceDX8.obj
 0002:00001bf4       B15.EH                     10056bf4 f   IFXRenderingDX8:CIFXRenderDeviceDX8.obj
 0002:00001c18       B14.EH                     10056c18 f   Culling:CIFXOctreeCollection.obj
 0002:00001c3a       B31.EH                     10056c3a f   Culling:CIFXOctreeCollection.obj
 0002:00001c78       B33.EH                     10056c78 f   Culling:CIFXOctreeCollection.obj
 0002:00001c92       B36.EH                     10056c92 f   Culling:CIFXOctreeCollection.obj
 0002:00001cac       B38.EH                     10056cac f   Culling:CIFXOctreeCollection.obj
 0002:00001ce6       B41.EH                     10056ce6 f   Culling:CIFXOctreeCollection.obj
 0002:00001d2c       B7.EH                      10056d2c f   Culling:CIFXOctreeCollection.obj
 0002:00001d50       B3.EH                      10056d50 f   Culling:CIFXScenegraphCuller.obj
 0002:00001dd8       B11.EH                     10056dd8 f   Culling:CIFXScenegraphCuller.obj
 0002:00001dfc       B5.EH                      10056dfc f   Culling:CIFXOctreeCuller.obj
 0002:00001e66       B18.EH                     10056e66 f   Culling:CIFXOctreeCuller.obj
 0002:00001eec       B16.EH                     10056eec f   Rendering:CIFXDeviceTexture.obj
 0002:00001fbc       B2.EH                      10056fbc f   Rendering:CIFXRender.obj
 0002:00002002       B69.EH                     10057002 f   Rendering:CIFXRender.obj
 0002:000020ac       B125.EH                    100570ac f   Rendering:CIFXRender.obj
 0002:000020d4       B141.EH                    100570d4 f   Rendering:CIFXRender.obj
 0002:000020fc       B142.EH                    100570fc f   Rendering:CIFXRender.obj
 0002:00002118       B4.EH                      10057118 f   Rendering:CIFXRender.obj
 0002:00002134       B13.EH                     10057134 f   Rendering:CIFXRender.obj
 0002:00002150       B16.EH                     10057150 f   Rendering:CIFXRender.obj
 0002:0000216c       B17.EH                     1005716c f   Rendering:CIFXRender.obj
 0002:00002188       B71.EH                     10057188 f   Rendering:CIFXRender.obj
 0002:000021a4       B72.EH                     100571a4 f   Rendering:CIFXRender.obj
 0002:000021fc       B3.EH                      100571fc f   Rendering:IFXVector4.obj
