 IDTFConverter

 Timestamp is 458c05c1 (Fri Dec 22 19:20:17 2006)

 Preferred load address is 00400000

 Start         Length     Name                   Class
 0001:00000000 000c1448H .text                   CODE
 0002:00000000 0006279bH .rdata                  DATA
 0002:0006279c 000001a9H .rdata$debug            DATA
 0002:00062948 00000151H .rdata$r                DATA
 0002:00062aa0 00000b33H .rdata$sxdata           DATA
 0002:000635d4 00000104H .rtc$IAA                DATA
 0002:000636d8 00000104H .rtc$IZZ                DATA
 0002:000637dc 00000104H .rtc$TAA                DATA
 0002:000638e0 00000104H .rtc$TZZ                DATA
 0002:000639e4 00000000H .edata                  DATA
 0003:00000000 00000104H .CRT$XCA                DATA
 0003:00000104 00000104H .CRT$XCAA               DATA
 0003:00000208 00000109H .CRT$XCU                DATA
 0003:00000314 00000104H .CRT$XCZ                DATA
 0003:00000418 00000104H .CRT$XIA                DATA
 0003:0000051c 0000010eH .CRT$XIC                DATA
 0003:0000062c 00000104H .CRT$XIY                DATA
 0003:00000730 00000104H .CRT$XIZ                DATA
 0003:00000834 00000104H .CRT$XPA                DATA
 0003:00000938 00000104H .CRT$XPX                DATA
 0003:00000a3c 00000104H .CRT$XPZ                DATA
 0003:00000b40 00000104H .CRT$XTA                DATA
 0003:00000c44 00000104H .CRT$XTB                DATA
 0003:00000d48 00000104H .CRT$XTZ                DATA
 0003:00000e50 0000719aH .data                   DATA
 0003:00008000 00002fa0H .bss                    DATA
 0004:00000000 00000050H .idata$2                DATA
 0004:00000050 00000014H .idata$3                DATA
 0004:00000064 0000029cH .idata$4                DATA
 0004:00000300 0000029cH .idata$5                DATA
 0004:0000059c 0000095cH .idata$6                DATA
 0005:00000000 00023ca7H .data1                  DATA
 0006:00000000 00000faeH _RDATA                  DATA
 0007:00000000 00000250H .rsrc$01                DATA
 0007:00000250 000010dcH .rsrc$02                DATA

  Address         Publics by Value              Rva+Base     Lib:Object

 0000:00000000       __except_list              00000000     <absolute>
 0000:00000220       ___safe_se_handler_count   00000220     <absolute>
 0001:00002bf0       ??_EBlockParser@U3D_IDTF@@UAEPAXI@Z 00403bf0 f i BlockParser.obj
 0001:00002bf0       ??_GBlockParser@U3D_IDTF@@UAEPAXI@Z 00403bf0 f i BlockParser.obj
 0001:00002c28       ??0BlockParser@U3D_IDTF@@QAE@PAVFileScanner@1@@Z 00403c28 f   BlockParser.obj
 0001:00002cc4       ??1BlockParser@U3D_IDTF@@UAE@XZ 00403cc4 f   BlockParser.obj
 0001:00002d56       ?ParseStarter@BlockParser@U3D_IDTF@@QAEHXZ 00403d56 f   BlockParser.obj
 0001:00002d74       ?ParseTerminator@BlockParser@U3D_IDTF@@QAEHXZ 00403d74 f   BlockParser.obj
 0001:00002d92       ?BlockEnd@BlockParser@U3D_IDTF@@QAEHXZ 00403d92 f   BlockParser.obj
 0001:00002db0       ?BlockBegin@BlockParser@U3D_IDTF@@QAEHPBG@Z 00403db0 f   BlockParser.obj
 0001:00002e02       ?BlockBegin@BlockParser@U3D_IDTF@@QAEHPBGPAVIFXString@@@Z 00403e02 f   BlockParser.obj
 0001:00002e5c       ?BlockBegin@BlockParser@U3D_IDTF@@QAEHPBGPAH@Z 00403e5c f   BlockParser.obj
 0001:00002f5c       ??BIFXString@@QBEPBGXZ     00403f5c f i ConverterDriver.obj
 0001:00002f80       ?Raw@IFXString@@QBEPBGXZ   00403f80 f i ConverterDriver.obj
 0001:00002f94       ??0FileOptions@U3D_IDTF@@QAE@XZ 00403f94 f i ConverterDriver.obj
 0001:00003080       ??1FileOptions@U3D_IDTF@@QAE@XZ 00404080 f i ConverterDriver.obj
 0001:0000316c       _wmain                     0040416c f   ConverterDriver.obj
 0001:00003510       ?mbs_to_wcs@@YAPAGPBD@Z    00404510 f   ConverterDriver.obj
 0001:000036a8       ??_EFile@U3D_IDTF@@UAEPAXI@Z 004046a8 f i File.obj
 0001:000036a8       ??_GFile@U3D_IDTF@@UAEPAXI@Z 004046a8 f i File.obj
 0001:000036e0       ??0File@U3D_IDTF@@QAE@XZ   004046e0 f   File.obj
 0001:00003712       ??1File@U3D_IDTF@@UAE@XZ   00404712 f   File.obj
 0001:00003746       ?Initialize@File@U3D_IDTF@@QAEHPBG@Z 00404746 f   File.obj
 0001:0000378a       ?Open@File@U3D_IDTF@@QAEHXZ 0040478a f   File.obj
 0001:000037ea       ?Close@File@U3D_IDTF@@QAEHXZ 004047ea f   File.obj
 0001:0000382a       ?IsEndOfFile@File@U3D_IDTF@@QAEHXZ 0040482a f   File.obj
 0001:00003840       ?ReadCharacter@File@U3D_IDTF@@QAEEXZ 00404840 f   File.obj
 0001:00003864       ?GetPosition@File@U3D_IDTF@@QAEHPAI@Z 00404864 f   File.obj
 0001:000038a8       ?SetPosition@File@U3D_IDTF@@QAEHI@Z 004048a8 f   File.obj
 0001:0000397c       ??_EIFXCoreArray@@UAEPAXI@Z 0040497c f i FileParser.obj
 0001:0000397c       ??_GIFXCoreArray@@UAEPAXI@Z 0040497c f i FileParser.obj
 0001:000039b4       ??_GFileParser@U3D_IDTF@@UAEPAXI@Z 004049b4 f i FileParser.obj
 0001:000039b4       ??_EFileParser@U3D_IDTF@@UAEPAXI@Z 004049b4 f i FileParser.obj
 0001:000039ec       ??_GLightNode@U3D_IDTF@@UAEPAXI@Z 004049ec f i FileParser.obj
 0001:00003a24       ??_GViewNodeData@U3D_IDTF@@UAEPAXI@Z 00404a24 f i FileParser.obj
 0001:00003a24       ??_EViewNodeData@U3D_IDTF@@UAEPAXI@Z 00404a24 f i FileParser.obj
 0001:00003a5c       ??_GViewNode@U3D_IDTF@@UAEPAXI@Z 00404a5c f i FileParser.obj
 0001:00003a94       ??_GModelNode@U3D_IDTF@@UAEPAXI@Z 00404a94 f i FileParser.obj
 0001:00003acc       ??_GShadingModifier@U3D_IDTF@@UAEPAXI@Z 00404acc f i FileParser.obj
 0001:00003b04       ??_GAnimationModifier@U3D_IDTF@@UAEPAXI@Z 00404b04 f i FileParser.obj
 0001:00003b3c       ??_EBoneWeightList@U3D_IDTF@@UAEPAXI@Z 00404b3c f i FileParser.obj
 0001:00003bd0       ??_GBoneWeightModifier@U3D_IDTF@@UAEPAXI@Z 00404bd0 f i FileParser.obj
 0001:00003c08       ??_GCLODModifier@U3D_IDTF@@UAEPAXI@Z 00404c08 f i FileParser.obj
 0001:00003c40       ??_GSubdivisionModifier@U3D_IDTF@@UAEPAXI@Z 00404c40 f i FileParser.obj
 0001:00003c78       ??_EGlyphCommand@U3D_IDTF@@UAEPAXI@Z 00404c78 f i FileParser.obj
 0001:00003d0c       ??_EEndGlyph@U3D_IDTF@@UAEPAXI@Z 00404d0c f i FileParser.obj
 0001:00003da0       ??_EMoveTo@U3D_IDTF@@UAEPAXI@Z 00404da0 f i FileParser.obj
 0001:00003e34       ??_ELineTo@U3D_IDTF@@UAEPAXI@Z 00404e34 f i FileParser.obj
 0001:00003ec8       ??_ECurveTo@U3D_IDTF@@UAEPAXI@Z 00404ec8 f i FileParser.obj
 0001:00003f5c       ??_GGlyphCommandList@U3D_IDTF@@UAEPAXI@Z 00404f5c f i FileParser.obj
 0001:00003f5c       ??_EGlyphCommandList@U3D_IDTF@@UAEPAXI@Z 00404f5c f i FileParser.obj
 0001:00003f94       ??_GGlyphModifier@U3D_IDTF@@UAEPAXI@Z 00404f94 f i FileParser.obj
 0001:00003fcc       ??_G?$IFXArray@UViewTexture@U3D_IDTF@@@@UAEPAXI@Z 00404fcc f i FileParser.obj
 0001:00003fcc       ??_E?$IFXArray@UViewTexture@U3D_IDTF@@@@UAEPAXI@Z 00404fcc f i FileParser.obj
 0001:00004004       ??_G?$IFXArray@VIFXString@@@@UAEPAXI@Z 00405004 f i FileParser.obj
 0001:00004004       ??_E?$IFXArray@VIFXString@@@@UAEPAXI@Z 00405004 f i FileParser.obj
 0001:0000403c       ??_G?$IFXArray@VShaderList@U3D_IDTF@@@@UAEPAXI@Z 0040503c f i FileParser.obj
 0001:0000403c       ??_E?$IFXArray@VShaderList@U3D_IDTF@@@@UAEPAXI@Z 0040503c f i FileParser.obj
 0001:00004074       ??_E?$IFXArray@UMotionInfo@U3D_IDTF@@@@UAEPAXI@Z 00405074 f i FileParser.obj
 0001:00004074       ??_G?$IFXArray@UMotionInfo@U3D_IDTF@@@@UAEPAXI@Z 00405074 f i FileParser.obj
 0001:000040ac       ??_G?$IFXArray@H@@UAEPAXI@Z 004050ac f i FileParser.obj
 0001:000040ac       ??_E?$IFXArray@H@@UAEPAXI@Z 004050ac f i FileParser.obj
 0001:000040e4       ??_G?$IFXArray@VBoneWeightList@U3D_IDTF@@@@UAEPAXI@Z 004050e4 f i FileParser.obj
 0001:000040e4       ??_E?$IFXArray@VBoneWeightList@U3D_IDTF@@@@UAEPAXI@Z 004050e4 f i FileParser.obj
 0001:0000411c       ??_E?$IFXArray@PAVGlyphCommand@U3D_IDTF@@@@UAEPAXI@Z 0040511c f i FileParser.obj
 0001:0000411c       ??_G?$IFXArray@PAVGlyphCommand@U3D_IDTF@@@@UAEPAXI@Z 0040511c f i FileParser.obj
 0001:00004154       ??_E?$IFXArray@VGlyphCommand@U3D_IDTF@@@@UAEPAXI@Z 00405154 f i FileParser.obj
 0001:00004154       ??_G?$IFXArray@VGlyphCommand@U3D_IDTF@@@@UAEPAXI@Z 00405154 f i FileParser.obj
 0001:0000418c       ??_E?$IFXArray@VEndGlyph@U3D_IDTF@@@@UAEPAXI@Z 0040518c f i FileParser.obj
 0001:0000418c       ??_G?$IFXArray@VEndGlyph@U3D_IDTF@@@@UAEPAXI@Z 0040518c f i FileParser.obj
 0001:000041c4       ??_E?$IFXArray@VMoveTo@U3D_IDTF@@@@UAEPAXI@Z 004051c4 f i FileParser.obj
 0001:000041c4       ??_G?$IFXArray@VMoveTo@U3D_IDTF@@@@UAEPAXI@Z 004051c4 f i FileParser.obj
 0001:000041fc       ??_G?$IFXArray@VLineTo@U3D_IDTF@@@@UAEPAXI@Z 004051fc f i FileParser.obj
 0001:000041fc       ??_E?$IFXArray@VLineTo@U3D_IDTF@@@@UAEPAXI@Z 004051fc f i FileParser.obj
 0001:00004234       ??_E?$IFXArray@VCurveTo@U3D_IDTF@@@@UAEPAXI@Z 00405234 f i FileParser.obj
 0001:00004234       ??_G?$IFXArray@VCurveTo@U3D_IDTF@@@@UAEPAXI@Z 00405234 f i FileParser.obj
 0001:0000426c       ??4IFXString@@QAEAAV0@ABV0@@Z 0040526c f i FileParser.obj
 0001:00004294       ??8IFXString@@QBEHPBG@Z    00405294 f i FileParser.obj
 0001:000042d0       ??1IFXCoreArray@@UAE@XZ    004052d0 f i FileParser.obj
 0001:000042ec       ?GetElementName@IFXCoreArray@@UAE?AVIFXString@@I@Z 004052ec f i FileParser.obj
 0001:00004314       ?GetElementSize@IFXCoreArray@@UAEII@Z 00405314 f i FileParser.obj
 0001:00004328       ??0IFXMatrix4x4@@QAE@XZ    00405328 f i FileParser.obj
 0001:00004338       ??0Node@U3D_IDTF@@QAE@XZ   00405338 f i FileParser.obj
 0001:00004510       ??1Node@U3D_IDTF@@UAE@XZ   00405510 f i FileParser.obj
 0001:000046e4       ?SetType@Node@U3D_IDTF@@QAEXABVIFXString@@@Z 004056e4 f i FileParser.obj
 0001:0000470c       ??0LightNode@U3D_IDTF@@QAE@XZ 0040570c f i FileParser.obj
 0001:000047bc       ??1LightNode@U3D_IDTF@@UAE@XZ 004057bc f i FileParser.obj
 0001:00004868       ??0ViewTexture@U3D_IDTF@@QAE@XZ 00405868 f i FileParser.obj
 0001:00004910       ??1ViewTexture@U3D_IDTF@@QAE@XZ 00405910 f i FileParser.obj
 0001:000049b0       ??0ViewNodeData@U3D_IDTF@@QAE@XZ 004059b0 f i FileParser.obj
 0001:00004b5c       ??1ViewNodeData@U3D_IDTF@@UAE@XZ 00405b5c f i FileParser.obj
 0001:00004cec       ??0?$IFXArray@UViewTexture@U3D_IDTF@@@@QAE@I@Z 00405cec f i FileParser.obj
 0001:00004df8       ??1?$IFXArray@UViewTexture@U3D_IDTF@@@@UAE@XZ 00405df8 f i FileParser.obj
 0001:00004f90       ?ResetElement@?$IFXArray@UViewTexture@U3D_IDTF@@@@UAEXAAUViewTexture@U3D_IDTF@@@Z 00405f90 f i FileParser.obj
 0001:00004fa0       ?Construct@?$IFXArray@UViewTexture@U3D_IDTF@@@@EAEXI@Z 00405fa0 f i FileParser.obj
 0001:00005118       ?Destruct@?$IFXArray@UViewTexture@U3D_IDTF@@@@EAEXI@Z 00406118 f i FileParser.obj
 0001:0000517c       ?DestructAll@?$IFXArray@UViewTexture@U3D_IDTF@@@@EAEXXZ 0040617c f i FileParser.obj
 0001:000052bc       ?Preallocate@?$IFXArray@UViewTexture@U3D_IDTF@@@@EAEXI@Z 004062bc f i FileParser.obj
 0001:00005474       ?Resize@?$IFXArray@UViewTexture@U3D_IDTF@@@@EAEXI@Z 00406474 f i FileParser.obj
 0001:00005588       ??0ViewNode@U3D_IDTF@@QAE@XZ 00406588 f i FileParser.obj
 0001:00005684       ??1ViewNode@U3D_IDTF@@UAE@XZ 00406684 f i FileParser.obj
 0001:0000577c       ??0ModelNode@U3D_IDTF@@QAE@XZ 0040677c f i FileParser.obj
 0001:00005880       ??1ModelNode@U3D_IDTF@@UAE@XZ 00406880 f i FileParser.obj
 0001:00005978       ??0Modifier@U3D_IDTF@@QAE@XZ 00406978 f i FileParser.obj
 0001:00005b04       ??1Modifier@U3D_IDTF@@UAE@XZ 00406b04 f i FileParser.obj
 0001:00005c8c       ?SetType@Modifier@U3D_IDTF@@QAEXABVIFXString@@@Z 00406c8c f i FileParser.obj
 0001:00005cb4       ??0ShaderList@U3D_IDTF@@QAE@XZ 00406cb4 f i FileParser.obj
 0001:00005d64       ??1ShaderList@U3D_IDTF@@QAE@XZ 00406d64 f i FileParser.obj
 0001:00005e04       ??0?$IFXArray@VIFXString@@@@QAE@I@Z 00406e04 f i FileParser.obj
 0001:00005f10       ??1?$IFXArray@VIFXString@@@@UAE@XZ 00406f10 f i FileParser.obj
 0001:000060a8       ?ResetElement@?$IFXArray@VIFXString@@@@UAEXAAVIFXString@@@Z 004070a8 f i FileParser.obj
 0001:000060b8       ?Construct@?$IFXArray@VIFXString@@@@EAEXI@Z 004070b8 f i FileParser.obj
 0001:00006240       ?Destruct@?$IFXArray@VIFXString@@@@EAEXI@Z 00407240 f i FileParser.obj
 0001:000062b4       ?DestructAll@?$IFXArray@VIFXString@@@@EAEXXZ 004072b4 f i FileParser.obj
 0001:000063f4       ?Preallocate@?$IFXArray@VIFXString@@@@EAEXI@Z 004073f4 f i FileParser.obj
 0001:000065b4       ?Resize@?$IFXArray@VIFXString@@@@EAEXI@Z 004075b4 f i FileParser.obj
 0001:000066c8       ??0ShadingModifier@U3D_IDTF@@QAE@XZ 004076c8 f i FileParser.obj
 0001:000067cc       ??1ShadingModifier@U3D_IDTF@@UAE@XZ 004077cc f i FileParser.obj
 0001:000068c4       ??0?$IFXArray@VShaderList@U3D_IDTF@@@@QAE@I@Z 004078c4 f i FileParser.obj
 0001:000069d0       ??1?$IFXArray@VShaderList@U3D_IDTF@@@@UAE@XZ 004079d0 f i FileParser.obj
 0001:00006b68       ?ResetElement@?$IFXArray@VShaderList@U3D_IDTF@@@@UAEXAAVShaderList@U3D_IDTF@@@Z 00407b68 f i FileParser.obj
 0001:00006b78       ?Construct@?$IFXArray@VShaderList@U3D_IDTF@@@@EAEXI@Z 00407b78 f i FileParser.obj
 0001:00006d00       ?Destruct@?$IFXArray@VShaderList@U3D_IDTF@@@@EAEXI@Z 00407d00 f i FileParser.obj
 0001:00006d64       ?DestructAll@?$IFXArray@VShaderList@U3D_IDTF@@@@EAEXXZ 00407d64 f i FileParser.obj
 0001:00006ea4       ?Preallocate@?$IFXArray@VShaderList@U3D_IDTF@@@@EAEXI@Z 00407ea4 f i FileParser.obj
 0001:00007068       ?Resize@?$IFXArray@VShaderList@U3D_IDTF@@@@EAEXI@Z 00408068 f i FileParser.obj
 0001:0000717c       ??0MotionInfo@U3D_IDTF@@QAE@XZ 0040817c f i FileParser.obj
 0001:00007224       ??1MotionInfo@U3D_IDTF@@QAE@XZ 00408224 f i FileParser.obj
 0001:000072c4       ??0AnimationModifier@U3D_IDTF@@QAE@XZ 004082c4 f i FileParser.obj
 0001:000073c8       ??1AnimationModifier@U3D_IDTF@@UAE@XZ 004083c8 f i FileParser.obj
 0001:000074c0       ??0?$IFXArray@UMotionInfo@U3D_IDTF@@@@QAE@I@Z 004084c0 f i FileParser.obj
 0001:000075cc       ??1?$IFXArray@UMotionInfo@U3D_IDTF@@@@UAE@XZ 004085cc f i FileParser.obj
 0001:00007764       ?ResetElement@?$IFXArray@UMotionInfo@U3D_IDTF@@@@UAEXAAUMotionInfo@U3D_IDTF@@@Z 00408764 f i FileParser.obj
 0001:00007774       ?Construct@?$IFXArray@UMotionInfo@U3D_IDTF@@@@EAEXI@Z 00408774 f i FileParser.obj
 0001:000078fc       ?Destruct@?$IFXArray@UMotionInfo@U3D_IDTF@@@@EAEXI@Z 004088fc f i FileParser.obj
 0001:00007960       ?DestructAll@?$IFXArray@UMotionInfo@U3D_IDTF@@@@EAEXXZ 00408960 f i FileParser.obj
 0001:00007aa0       ?Preallocate@?$IFXArray@UMotionInfo@U3D_IDTF@@@@EAEXI@Z 00408aa0 f i FileParser.obj
 0001:00007c64       ?Resize@?$IFXArray@UMotionInfo@U3D_IDTF@@@@EAEXI@Z 00408c64 f i FileParser.obj
 0001:00007d78       ??0BoneWeightList@U3D_IDTF@@QAE@XZ 00408d78 f i FileParser.obj
 0001:00007e8c       ??1BoneWeightList@U3D_IDTF@@UAE@XZ 00408e8c f i FileParser.obj
 0001:00007f88       ??0?$IFXArray@H@@QAE@I@Z   00408f88 f i FileParser.obj
 0001:00008094       ??1?$IFXArray@H@@UAE@XZ    00409094 f i FileParser.obj
 0001:0000822c       ?ResetElement@?$IFXArray@H@@UAEXAAH@Z 0040922c f i FileParser.obj
 0001:0000823c       ?Construct@?$IFXArray@H@@EAEXI@Z 0040923c f i FileParser.obj
 0001:000082dc       ?Destruct@?$IFXArray@H@@EAEXI@Z 004092dc f i FileParser.obj
 0001:0000832c       ?DestructAll@?$IFXArray@H@@EAEXXZ 0040932c f i FileParser.obj
 0001:00008458       ?Preallocate@?$IFXArray@H@@EAEXI@Z 00409458 f i FileParser.obj
 0001:000084d8       ?Resize@?$IFXArray@H@@EAEXI@Z 004094d8 f i FileParser.obj
 0001:000085ec       ??0BoneWeightModifier@U3D_IDTF@@QAE@XZ 004095ec f i FileParser.obj
 0001:00008738       ??1BoneWeightModifier@U3D_IDTF@@UAE@XZ 00409738 f i FileParser.obj
 0001:00008878       ??0?$IFXArray@VBoneWeightList@U3D_IDTF@@@@QAE@I@Z 00409878 f i FileParser.obj
 0001:00008984       ??1?$IFXArray@VBoneWeightList@U3D_IDTF@@@@UAE@XZ 00409984 f i FileParser.obj
 0001:00008b1c       ?ResetElement@?$IFXArray@VBoneWeightList@U3D_IDTF@@@@UAEXAAVBoneWeightList@U3D_IDTF@@@Z 00409b1c f i FileParser.obj
 0001:00008b2c       ?Construct@?$IFXArray@VBoneWeightList@U3D_IDTF@@@@EAEXI@Z 00409b2c f i FileParser.obj
 0001:00008cb4       ?Destruct@?$IFXArray@VBoneWeightList@U3D_IDTF@@@@EAEXI@Z 00409cb4 f i FileParser.obj
 0001:00008d28       ?DestructAll@?$IFXArray@VBoneWeightList@U3D_IDTF@@@@EAEXXZ 00409d28 f i FileParser.obj
 0001:00008e68       ?Preallocate@?$IFXArray@VBoneWeightList@U3D_IDTF@@@@EAEXI@Z 00409e68 f i FileParser.obj
 0001:0000902c       ?Resize@?$IFXArray@VBoneWeightList@U3D_IDTF@@@@EAEXI@Z 0040a02c f i FileParser.obj
 0001:00009140       ??0CLODModifier@U3D_IDTF@@QAE@XZ 0040a140 f i FileParser.obj
 0001:0000923c       ??1CLODModifier@U3D_IDTF@@UAE@XZ 0040a23c f i FileParser.obj
 0001:00009334       ??0SubdivisionModifier@U3D_IDTF@@QAE@XZ 0040a334 f i FileParser.obj
 0001:00009474       ??1SubdivisionModifier@U3D_IDTF@@UAE@XZ 0040a474 f i FileParser.obj
 0001:000095b4       ??0GlyphCommand@U3D_IDTF@@QAE@XZ 0040a5b4 f i FileParser.obj
 0001:00009668       ??1GlyphCommand@U3D_IDTF@@UAE@XZ 0040a668 f i FileParser.obj
 0001:0000971c       ??0EndGlyph@U3D_IDTF@@QAE@XZ 0040a71c f i FileParser.obj
 0001:000097cc       ??1EndGlyph@U3D_IDTF@@UAE@XZ 0040a7cc f i FileParser.obj
 0001:00009878       ??0MoveTo@U3D_IDTF@@QAE@XZ 0040a878 f i FileParser.obj
 0001:00009928       ??1MoveTo@U3D_IDTF@@UAE@XZ 0040a928 f i FileParser.obj
 0001:000099d4       ??0LineTo@U3D_IDTF@@QAE@XZ 0040a9d4 f i FileParser.obj
 0001:00009a84       ??1LineTo@U3D_IDTF@@UAE@XZ 0040aa84 f i FileParser.obj
 0001:00009b30       ??0CurveTo@U3D_IDTF@@QAE@XZ 0040ab30 f i FileParser.obj
 0001:00009be0       ??1CurveTo@U3D_IDTF@@UAE@XZ 0040abe0 f i FileParser.obj
 0001:00009c8c       ??0GlyphCommandList@U3D_IDTF@@QAE@XZ 0040ac8c f i FileParser.obj
 0001:00009ef4       ??1GlyphCommandList@U3D_IDTF@@UAE@XZ 0040aef4 f i FileParser.obj
 0001:0000a11c       ??0?$IFXArray@PAVGlyphCommand@U3D_IDTF@@@@QAE@I@Z 0040b11c f i FileParser.obj
 0001:0000a228       ??1?$IFXArray@PAVGlyphCommand@U3D_IDTF@@@@UAE@XZ 0040b228 f i FileParser.obj
 0001:0000a3c0       ?ResetElement@?$IFXArray@PAVGlyphCommand@U3D_IDTF@@@@UAEXAAPAVGlyphCommand@U3D_IDTF@@@Z 0040b3c0 f i FileParser.obj
 0001:0000a3d0       ?Construct@?$IFXArray@PAVGlyphCommand@U3D_IDTF@@@@EAEXI@Z 0040b3d0 f i FileParser.obj
 0001:0000a470       ?Destruct@?$IFXArray@PAVGlyphCommand@U3D_IDTF@@@@EAEXI@Z 0040b470 f i FileParser.obj
 0001:0000a4c0       ?DestructAll@?$IFXArray@PAVGlyphCommand@U3D_IDTF@@@@EAEXXZ 0040b4c0 f i FileParser.obj
 0001:0000a5ec       ?Preallocate@?$IFXArray@PAVGlyphCommand@U3D_IDTF@@@@EAEXI@Z 0040b5ec f i FileParser.obj
 0001:0000a66c       ?Resize@?$IFXArray@PAVGlyphCommand@U3D_IDTF@@@@EAEXI@Z 0040b66c f i FileParser.obj
 0001:0000a780       ??0?$IFXArray@VGlyphCommand@U3D_IDTF@@@@QAE@I@Z 0040b780 f i FileParser.obj
 0001:0000a88c       ??1?$IFXArray@VGlyphCommand@U3D_IDTF@@@@UAE@XZ 0040b88c f i FileParser.obj
 0001:0000aa24       ?ResetElement@?$IFXArray@VGlyphCommand@U3D_IDTF@@@@UAEXAAVGlyphCommand@U3D_IDTF@@@Z 0040ba24 f i FileParser.obj
 0001:0000aa34       ?Construct@?$IFXArray@VGlyphCommand@U3D_IDTF@@@@EAEXI@Z 0040ba34 f i FileParser.obj
 0001:0000abac       ?Destruct@?$IFXArray@VGlyphCommand@U3D_IDTF@@@@EAEXI@Z 0040bbac f i FileParser.obj
 0001:0000ac20       ?DestructAll@?$IFXArray@VGlyphCommand@U3D_IDTF@@@@EAEXXZ 0040bc20 f i FileParser.obj
 0001:0000ad60       ?Preallocate@?$IFXArray@VGlyphCommand@U3D_IDTF@@@@EAEXI@Z 0040bd60 f i FileParser.obj
 0001:0000af18       ?Resize@?$IFXArray@VGlyphCommand@U3D_IDTF@@@@EAEXI@Z 0040bf18 f i FileParser.obj
 0001:0000b02c       ??0?$IFXArray@VEndGlyph@U3D_IDTF@@@@QAE@I@Z 0040c02c f i FileParser.obj
 0001:0000b138       ??1?$IFXArray@VEndGlyph@U3D_IDTF@@@@UAE@XZ 0040c138 f i FileParser.obj
 0001:0000b2d0       ?ResetElement@?$IFXArray@VEndGlyph@U3D_IDTF@@@@UAEXAAVEndGlyph@U3D_IDTF@@@Z 0040c2d0 f i FileParser.obj
 0001:0000b2e0       ?Construct@?$IFXArray@VEndGlyph@U3D_IDTF@@@@EAEXI@Z 0040c2e0 f i FileParser.obj
 0001:0000b45c       ?Destruct@?$IFXArray@VEndGlyph@U3D_IDTF@@@@EAEXI@Z 0040c45c f i FileParser.obj
 0001:0000b4d0       ?DestructAll@?$IFXArray@VEndGlyph@U3D_IDTF@@@@EAEXXZ 0040c4d0 f i FileParser.obj
 0001:0000b610       ?Preallocate@?$IFXArray@VEndGlyph@U3D_IDTF@@@@EAEXI@Z 0040c610 f i FileParser.obj
 0001:0000b7d0       ?Resize@?$IFXArray@VEndGlyph@U3D_IDTF@@@@EAEXI@Z 0040c7d0 f i FileParser.obj
 0001:0000b8e4       ??0?$IFXArray@VMoveTo@U3D_IDTF@@@@QAE@I@Z 0040c8e4 f i FileParser.obj
 0001:0000b9f0       ??1?$IFXArray@VMoveTo@U3D_IDTF@@@@UAE@XZ 0040c9f0 f i FileParser.obj
 0001:0000bb88       ?ResetElement@?$IFXArray@VMoveTo@U3D_IDTF@@@@UAEXAAVMoveTo@U3D_IDTF@@@Z 0040cb88 f i FileParser.obj
 0001:0000bb98       ?Construct@?$IFXArray@VMoveTo@U3D_IDTF@@@@EAEXI@Z 0040cb98 f i FileParser.obj
 0001:0000bd14       ?Destruct@?$IFXArray@VMoveTo@U3D_IDTF@@@@EAEXI@Z 0040cd14 f i FileParser.obj
 0001:0000bd88       ?DestructAll@?$IFXArray@VMoveTo@U3D_IDTF@@@@EAEXXZ 0040cd88 f i FileParser.obj
 0001:0000bec8       ?Preallocate@?$IFXArray@VMoveTo@U3D_IDTF@@@@EAEXI@Z 0040cec8 f i FileParser.obj
 0001:0000c088       ?Resize@?$IFXArray@VMoveTo@U3D_IDTF@@@@EAEXI@Z 0040d088 f i FileParser.obj
 0001:0000c19c       ??0?$IFXArray@VLineTo@U3D_IDTF@@@@QAE@I@Z 0040d19c f i FileParser.obj
 0001:0000c2a8       ??1?$IFXArray@VLineTo@U3D_IDTF@@@@UAE@XZ 0040d2a8 f i FileParser.obj
 0001:0000c440       ?ResetElement@?$IFXArray@VLineTo@U3D_IDTF@@@@UAEXAAVLineTo@U3D_IDTF@@@Z 0040d440 f i FileParser.obj
 0001:0000c450       ?Construct@?$IFXArray@VLineTo@U3D_IDTF@@@@EAEXI@Z 0040d450 f i FileParser.obj
 0001:0000c5cc       ?Destruct@?$IFXArray@VLineTo@U3D_IDTF@@@@EAEXI@Z 0040d5cc f i FileParser.obj
 0001:0000c640       ?DestructAll@?$IFXArray@VLineTo@U3D_IDTF@@@@EAEXXZ 0040d640 f i FileParser.obj
 0001:0000c780       ?Preallocate@?$IFXArray@VLineTo@U3D_IDTF@@@@EAEXI@Z 0040d780 f i FileParser.obj
 0001:0000c940       ?Resize@?$IFXArray@VLineTo@U3D_IDTF@@@@EAEXI@Z 0040d940 f i FileParser.obj
 0001:0000ca54       ??0?$IFXArray@VCurveTo@U3D_IDTF@@@@QAE@I@Z 0040da54 f i FileParser.obj
 0001:0000cb60       ??1?$IFXArray@VCurveTo@U3D_IDTF@@@@UAE@XZ 0040db60 f i FileParser.obj
 0001:0000ccf8       ?ResetElement@?$IFXArray@VCurveTo@U3D_IDTF@@@@UAEXAAVCurveTo@U3D_IDTF@@@Z 0040dcf8 f i FileParser.obj
 0001:0000cd08       ?Construct@?$IFXArray@VCurveTo@U3D_IDTF@@@@EAEXI@Z 0040dd08 f i FileParser.obj
 0001:0000ce84       ?Destruct@?$IFXArray@VCurveTo@U3D_IDTF@@@@EAEXI@Z 0040de84 f i FileParser.obj
 0001:0000cef8       ?DestructAll@?$IFXArray@VCurveTo@U3D_IDTF@@@@EAEXXZ 0040def8 f i FileParser.obj
 0001:0000d038       ?Preallocate@?$IFXArray@VCurveTo@U3D_IDTF@@@@EAEXI@Z 0040e038 f i FileParser.obj
 0001:0000d1f8       ?Resize@?$IFXArray@VCurveTo@U3D_IDTF@@@@EAEXI@Z 0040e1f8 f i FileParser.obj
 0001:0000d30c       ??0GlyphModifier@U3D_IDTF@@QAE@XZ 0040e30c f i FileParser.obj
 0001:0000d4ac       ??1GlyphModifier@U3D_IDTF@@UAE@XZ 0040e4ac f i FileParser.obj
 0001:0000d634       ??_GNode@U3D_IDTF@@UAEPAXI@Z 0040e634 f i FileParser.obj
 0001:0000d66c       ??_GModifier@U3D_IDTF@@UAEPAXI@Z 0040e66c f i FileParser.obj
 0001:0000d66c       ??_EModifier@U3D_IDTF@@UAEPAXI@Z 0040e66c f i FileParser.obj
 0001:0000d6a4       ??_EViewTexture@U3D_IDTF@@QAEPAXI@Z 0040e6a4 f i FileParser.obj
 0001:0000d738       ??_EIFXString@@UAEPAXI@Z   0040e738 f i FileParser.obj
 0001:0000d7cc       ??_EShaderList@U3D_IDTF@@QAEPAXI@Z 0040e7cc f i FileParser.obj
 0001:0000d860       ??_EMotionInfo@U3D_IDTF@@QAEPAXI@Z 0040e860 f i FileParser.obj
 0001:0000d8f4       ??0FileParser@U3D_IDTF@@QAE@XZ 0040e8f4 f   FileParser.obj
 0001:0000d9c4       ??1FileParser@U3D_IDTF@@UAE@XZ 0040e9c4 f   FileParser.obj
 0001:0000da86       ?Initialize@FileParser@U3D_IDTF@@QAEHPBG@Z 0040ea86 f   FileParser.obj
 0001:0000daae       ?ParseFileHeader@FileParser@U3D_IDTF@@QAEHPAVIFXString@@PAH@Z 0040eaae f   FileParser.obj
 0001:0000dc54       ?ParseSceneData@FileParser@U3D_IDTF@@QAEHPAVSceneData@2@@Z 0040ec54 f   FileParser.obj
 0001:0000dd0a       ?ParseFileReference@FileParser@U3D_IDTF@@QAEHPAVFileReference@2@@Z 0040ed0a f   FileParser.obj
 0001:0000de12       ?ParseNodes@FileParser@U3D_IDTF@@QAEHPAVNodeList@2@@Z 0040ee12 f   FileParser.obj
 0001:0000dff0       ?ParseResources@FileParser@U3D_IDTF@@QAEHPAVSceneResources@2@@Z 0040eff0 f   FileParser.obj
 0001:0000e192       ?ParseModifiers@FileParser@U3D_IDTF@@QAEHPAVModifierList@2@@Z 0040f192 f   FileParser.obj
 0001:0000e396       ?Parse@FileParser@U3D_IDTF@@QAEHXZ 0040f396 f   FileParser.obj
 0001:0000e3a2       ?ParseNode@FileParser@U3D_IDTF@@IAEHPAVNode@2@@Z 0040f3a2 f   FileParser.obj
 0001:0000e462       ?ParseResourceList@FileParser@U3D_IDTF@@IAEHPAVResourceList@2@@Z 0040f462 f   FileParser.obj
 0001:0000e522       ?ParseModifier@FileParser@U3D_IDTF@@IAEHPAVModifier@2@@Z 0040f522 f   FileParser.obj
 0001:0000e5e2       ?MakeNode@U3D_IDTF@@YAPAVNode@1@ABVIFXString@@@Z 0040f5e2 f   FileParser.obj
 0001:0000e960       ?MakeModifier@U3D_IDTF@@YAPAVModifier@1@ABVIFXString@@@Z 0040f960 f   FileParser.obj
 0001:0000f45c       ??_GIFXException@@UAEPAXI@Z 0041045c f i FileReferenceConverter.obj
 0001:0000f45c       ??_EIFXException@@UAEPAXI@Z 0041045c f i FileReferenceConverter.obj
 0001:0000f494       ??_EFileReferenceConverter@U3D_IDTF@@UAEPAXI@Z 00410494 f i FileReferenceConverter.obj
 0001:0000f494       ??_GFileReferenceConverter@U3D_IDTF@@UAEPAXI@Z 00410494 f i FileReferenceConverter.obj
 0001:0000f4cc       ??_E?$IFXArray@UIFXObjectFilter@@@@UAEPAXI@Z 004104cc f i FileReferenceConverter.obj
 0001:0000f4cc       ??_G?$IFXArray@UIFXObjectFilter@@@@UAEPAXI@Z 004104cc f i FileReferenceConverter.obj
 0001:0000f504       ??8IFXString@@QBEHABV0@@Z  00410504 f i FileReferenceConverter.obj
 0001:0000f540       ??0IFXObjectFilter@@QAE@XZ 00410540 f i FileReferenceConverter.obj
 0001:0000f5ec       ??1IFXObjectFilter@@QAE@XZ 004105ec f i FileReferenceConverter.obj
 0001:0000f694       ??0?$IFXArray@UIFXObjectFilter@@@@QAE@I@Z 00410694 f i FileReferenceConverter.obj
 0001:0000f7a0       ??1?$IFXArray@UIFXObjectFilter@@@@UAE@XZ 004107a0 f i FileReferenceConverter.obj
 0001:0000f938       ?ResetElement@?$IFXArray@UIFXObjectFilter@@@@UAEXAAUIFXObjectFilter@@@Z 00410938 f i FileReferenceConverter.obj
 0001:0000f948       ?CreateNewElement@?$IFXArray@UIFXObjectFilter@@@@QAEAAUIFXObjectFilter@@XZ 00410948 f i FileReferenceConverter.obj
 0001:0000f994       ?GetElement@?$IFXArray@UIFXObjectFilter@@@@QAEAAUIFXObjectFilter@@I@Z 00410994 f i FileReferenceConverter.obj
 0001:0000fa00       ?Construct@?$IFXArray@UIFXObjectFilter@@@@EAEXI@Z 00410a00 f i FileReferenceConverter.obj
 0001:0000fb7c       ?Destruct@?$IFXArray@UIFXObjectFilter@@@@EAEXI@Z 00410b7c f i FileReferenceConverter.obj
 0001:0000fbe0       ?DestructAll@?$IFXArray@UIFXObjectFilter@@@@EAEXXZ 00410be0 f i FileReferenceConverter.obj
 0001:0000fd20       ?Preallocate@?$IFXArray@UIFXObjectFilter@@@@EAEXI@Z 00410d20 f i FileReferenceConverter.obj
 0001:0000fee0       ?Resize@?$IFXArray@UIFXObjectFilter@@@@EAEXI@Z 00410ee0 f i FileReferenceConverter.obj
 0001:0000fff4       ??0IFXException@@QAE@H@Z   00410ff4 f i FileReferenceConverter.obj
 0001:000100b8       ??0IFXException@@QAE@ABV0@@Z 004110b8 f i FileReferenceConverter.obj
 0001:00010188       ??1IFXException@@UAE@XZ    00411188 f i FileReferenceConverter.obj
 0001:0001023c       ??4IFXException@@QAEAAV0@ABV0@@Z 0041123c f i FileReferenceConverter.obj
 0001:00010288       ??0?$IFXAutoRelease@VIFXFileReference@@@@QAE@AAPAVIFXFileReference@@@Z 00411288 f i FileReferenceConverter.obj
 0001:000102fc       ??1?$IFXAutoRelease@VIFXFileReference@@@@QAE@XZ 004112fc f i FileReferenceConverter.obj
 0001:000103a4       ??0IConverter@U3D_IDTF@@QAE@XZ 004113a4 f i FileReferenceConverter.obj
 0001:000103c4       ??_EIFXObjectFilter@@QAEPAXI@Z 004113c4 f i FileReferenceConverter.obj
 0001:00010458       ??0FileReferenceConverter@U3D_IDTF@@QAE@PAVSceneUtilities@1@PBVFileReference@1@@Z 00411458 f   FileReferenceConverter.obj
 0001:0001055e       ??1FileReferenceConverter@U3D_IDTF@@UAE@XZ 0041155e f   FileReferenceConverter.obj
 0001:0001057e       ?Convert@FileReferenceConverter@U3D_IDTF@@UAEHXZ 0041157e f   FileReferenceConverter.obj
 0001:00010f04       ??_EFileReferenceParser@U3D_IDTF@@UAEPAXI@Z 00411f04 f i FileReferenceParser.obj
 0001:00010f04       ??_GFileReferenceParser@U3D_IDTF@@UAEPAXI@Z 00411f04 f i FileReferenceParser.obj
 0001:00010f3c       ??_EUrlList@U3D_IDTF@@UAEPAXI@Z 00411f3c f i FileReferenceParser.obj
 0001:00010f3c       ??_GUrlList@U3D_IDTF@@UAEPAXI@Z 00411f3c f i FileReferenceParser.obj
 0001:00010f74       ??0UrlList@U3D_IDTF@@QAE@XZ 00411f74 f i FileReferenceParser.obj
 0001:00011034       ??1UrlList@U3D_IDTF@@UAE@XZ 00412034 f i FileReferenceParser.obj
 0001:000110e8       ??0FileReferenceParser@U3D_IDTF@@QAE@PAVFileScanner@1@PAVFileReference@1@@Z 004120e8 f   FileReferenceParser.obj
 0001:0001125e       ??1FileReferenceParser@U3D_IDTF@@UAE@XZ 0041225e f   FileReferenceParser.obj
 0001:000112f4       ?Parse@FileReferenceParser@U3D_IDTF@@QAEHXZ 004122f4 f   FileReferenceParser.obj
 0001:00011642       ?ParseFilter@FileReferenceParser@U3D_IDTF@@AAEHAAVFilter@2@@Z 00412642 f   FileReferenceParser.obj
 0001:00011870       ?ParseFilterList@FileReferenceParser@U3D_IDTF@@AAEHXZ 00412870 f   FileReferenceParser.obj
 0001:00011ce4       ??_EFileScanner@U3D_IDTF@@UAEPAXI@Z 00412ce4 f i FileScanner.obj
 0001:00011ce4       ??_GFileScanner@U3D_IDTF@@UAEPAXI@Z 00412ce4 f i FileScanner.obj
 0001:00011d1c       ??9IFXString@@QBEHABV0@@Z  00412d1c f i FileScanner.obj
 0001:00011d58       ??0IFXVector3@@QAE@MMM@Z   00412d58 f i FileScanner.obj
 0001:00011d94       ?Set@IFXVector3@@QAEXMMM@Z 00412d94 f i FileScanner.obj
 0001:00011dc8       ??4IFXVector3@@QAEAAV0@ABV0@@Z 00412dc8 f i FileScanner.obj
 0001:00011e04       ??0IFXVector4@@QAE@MMM@Z   00412e04 f i FileScanner.obj
 0001:00011e4c       ??0IFXVector4@@QAE@MMMM@Z  00412e4c f i FileScanner.obj
 0001:00011e94       ??4IFXVector4@@QAEAAV0@ABV0@@Z 00412e94 f i FileScanner.obj
 0001:00011ee0       ?Set@IFXVector4@@QAEXMMMM@Z 00412ee0 f i FileScanner.obj
 0001:00011f1c       ??4IFXMatrix4x4@@QAEAAV0@PBM@Z 00412f1c f i FileScanner.obj
 0001:00011f58       ?GetCurrentCharacter@FileScanner@U3D_IDTF@@IBEEXZ 00412f58 f i FileScanner.obj
 0001:00011f6c       ?SetColor@Color@U3D_IDTF@@QAEXABVIFXVector4@@@Z 00412f6c f i FileScanner.obj
 0001:00011f94       ?SetQuat@Quat@U3D_IDTF@@QAEXABVIFXVector4@@@Z 00412f94 f i FileScanner.obj
 0001:00011fbc       ?SetPoint@Point@U3D_IDTF@@QAEXABVIFXVector3@@@Z 00412fbc f i FileScanner.obj
 0001:00011fe4       ?SetData@Int3@U3D_IDTF@@QAEXABH00@Z 00412fe4 f i FileScanner.obj
 0001:0001201c       ?SetData@Int2@U3D_IDTF@@QAEXABH0@Z 0041301c f i FileScanner.obj
 0001:0001204c       ??0FileScanner@U3D_IDTF@@QAE@XZ 0041304c f   FileScanner.obj
 0001:00012130       ??1FileScanner@U3D_IDTF@@UAE@XZ 00413130 f   FileScanner.obj
 0001:000121f8       ?Initialize@FileScanner@U3D_IDTF@@QAEHPBG@Z 004131f8 f   FileScanner.obj
 0001:0001224c       ?ScanStringToken@FileScanner@U3D_IDTF@@QAEHPBGPAVIFXString@@@Z 0041324c f   FileScanner.obj
 0001:000122b6       ?ScanIntegerToken@FileScanner@U3D_IDTF@@QAEHPBGPAH@Z 004132b6 f   FileScanner.obj
 0001:00012320       ?ScanHexToken@FileScanner@U3D_IDTF@@QAEHPBGPAH@Z 00413320 f   FileScanner.obj
 0001:0001238a       ?ScanFloatToken@FileScanner@U3D_IDTF@@QAEHPBGPAM@Z 0041338a f   FileScanner.obj
 0001:000123f4       ?ScanTMToken@FileScanner@U3D_IDTF@@QAEHPBGPAVIFXMatrix4x4@@@Z 004133f4 f   FileScanner.obj
 0001:00012492       ?ScanColorToken@FileScanner@U3D_IDTF@@QAEHPBGPAVColor@2@@Z 00413492 f   FileScanner.obj
 0001:000124fc       ?ScanQuatToken@FileScanner@U3D_IDTF@@QAEHPBGPAVQuat@2@@Z 004134fc f   FileScanner.obj
 0001:00012566       ?ScanPointToken@FileScanner@U3D_IDTF@@QAEHPBGPAVPoint@2@@Z 00413566 f   FileScanner.obj
 0001:000125d0       ?Scan@FileScanner@U3D_IDTF@@QAEHPAVIFXString@@I@Z 004135d0 f   FileScanner.obj
 0001:00012740       ?ScanToken@FileScanner@U3D_IDTF@@QAEHPBG@Z 00413740 f   FileScanner.obj
 0001:00012974       ?ScanString@FileScanner@U3D_IDTF@@QAEHPAVIFXString@@@Z 00413974 f   FileScanner.obj
 0001:00012a80       ?ScanFloat@FileScanner@U3D_IDTF@@QAEHPAM@Z 00413a80 f   FileScanner.obj
 0001:00012c18       ?ScanInteger@FileScanner@U3D_IDTF@@QAEHPAH@Z 00413c18 f   FileScanner.obj
 0001:00012dc0       ?ScanHex@FileScanner@U3D_IDTF@@QAEHPAH@Z 00413dc0 f   FileScanner.obj
 0001:00012ef0       ?ScanTM@FileScanner@U3D_IDTF@@QAEHPAVIFXMatrix4x4@@@Z 00413ef0 f   FileScanner.obj
 0001:00012f7a       ?ScanColor@FileScanner@U3D_IDTF@@QAEHPAVColor@2@@Z 00413f7a f   FileScanner.obj
 0001:000130b6       ?ScanQuat@FileScanner@U3D_IDTF@@QAEHPAVQuat@2@@Z 004140b6 f   FileScanner.obj
 0001:000131a8       ?ScanPoint@FileScanner@U3D_IDTF@@QAEHPAVPoint@2@@Z 004141a8 f   FileScanner.obj
 0001:0001326e       ?ScanInt3@FileScanner@U3D_IDTF@@QAEHPAVInt3@2@@Z 0041426e f   FileScanner.obj
 0001:0001331a       ?ScanInt2@FileScanner@U3D_IDTF@@QAEHPAVInt2@2@@Z 0041431a f   FileScanner.obj
 0001:0001339c       ?ScanVector4@FileScanner@U3D_IDTF@@QAEHPAVIFXVector4@@@Z 0041439c f   FileScanner.obj
 0001:0001347e       ?FindBlockStarter@FileScanner@U3D_IDTF@@QAEHXZ 0041447e f   FileScanner.obj
 0001:000134f0       ?FindBlockTerminator@FileScanner@U3D_IDTF@@QAEHXZ 004144f0 f   FileScanner.obj
 0001:00013562       ?IsEndOfFile@FileScanner@U3D_IDTF@@QAEHXZ 00414562 f   FileScanner.obj
 0001:00013580       ?SkipSpaces@FileScanner@U3D_IDTF@@IAEXXZ 00414580 f   FileScanner.obj
 0001:00013614       ?SkipBlanks@FileScanner@U3D_IDTF@@IAEXXZ 00414614 f   FileScanner.obj
 0001:00013672       ?NextCharacter@FileScanner@U3D_IDTF@@IAEEXZ 00414672 f   FileScanner.obj
 0001:0001369a       ?IsSpace@FileScanner@U3D_IDTF@@IAEHD@Z 0041469a f   FileScanner.obj
 0001:00013c60       ??_ELineSetConverter@U3D_IDTF@@UAEPAXI@Z 00414c60 f i LineSetConverter.obj
 0001:00013c60       ??_GLineSetConverter@U3D_IDTF@@UAEPAXI@Z 00414c60 f i LineSetConverter.obj
 0001:00013c98       ?GetNumberElements@IFXCoreArray@@QBEABIXZ 00414c98 f i LineSetConverter.obj
 0001:00013cac       ??0IFXVector4@@QAE@ABV0@@Z 00414cac f i LineSetConverter.obj
 0001:00013cd4       ?BGR@IFXVector4@@QAEXXZ    00414cd4 f i LineSetConverter.obj
 0001:00013d08       ?Set@?$IFXLineT@I@@QAIXII@Z 00414d08 f i LineSetConverter.obj
 0001:00013d38       ??0IFXAuthorLineSetDesc@@QAE@XZ 00414d38 f i LineSetConverter.obj
 0001:00013d84       ??0?$IFXAutoRelease@VIFXAuthorLineSet@@@@QAE@AAPAVIFXAuthorLineSet@@@Z 00414d84 f i LineSetConverter.obj
 0001:00013df8       ??1?$IFXAutoRelease@VIFXAuthorLineSet@@@@QAE@XZ 00414df8 f i LineSetConverter.obj
 0001:00013ea0       ??0?$IFXAutoRelease@VIFXAuthorLineSetResource@@@@QAE@AAPAVIFXAuthorLineSetResource@@@Z 00414ea0 f i LineSetConverter.obj
 0001:00013f14       ??1?$IFXAutoRelease@VIFXAuthorLineSetResource@@@@QAE@XZ 00414f14 f i LineSetConverter.obj
 0001:00013fbc       ??0?$IFXAutoRelease@VIFXMetaDataX@@@@QAE@AAPAVIFXMetaDataX@@@Z 00414fbc f i LineSetConverter.obj
 0001:00014030       ??1?$IFXAutoRelease@VIFXMetaDataX@@@@QAE@XZ 00415030 f i LineSetConverter.obj
 0001:000140d8       ?GetTextureLayerCount@ShadingDescription@U3D_IDTF@@QBEIXZ 004150d8 f i LineSetConverter.obj
 0001:00014100       ?GetShadingDescription@ShadingDescriptionList@U3D_IDTF@@QBEABVShadingDescription@2@I@Z 00415100 f i LineSetConverter.obj
 0001:00014134       ?GetElementConst@?$IFXArray@VShadingDescription@U3D_IDTF@@@@QBEABVShadingDescription@U3D_IDTF@@I@Z 00415134 f i LineSetConverter.obj
 0001:000141a0       ?GetName@Resource@U3D_IDTF@@QBEABVIFXString@@XZ 004151a0 f i LineSetConverter.obj
 0001:000141b4       ?GetPoint@Point@U3D_IDTF@@QBEABVIFXVector3@@XZ 004151b4 f i LineSetConverter.obj
 0001:000141c8       ?GetColor@Color@U3D_IDTF@@QBEABVIFXVector4@@XZ 004151c8 f i LineSetConverter.obj
 0001:000141dc       ?GetElementConst@?$IFXArray@VPoint@U3D_IDTF@@@@QBEABVPoint@U3D_IDTF@@I@Z 004151dc f i LineSetConverter.obj
 0001:00014248       ?GetElementConst@?$IFXArray@VColor@U3D_IDTF@@@@QBEABVColor@U3D_IDTF@@I@Z 00415248 f i LineSetConverter.obj
 0001:000142b4       ?GetElementConst@?$IFXArray@VIFXVector4@@@@QBEABVIFXVector4@@I@Z 004152b4 f i LineSetConverter.obj
 0001:00014320       ?GetElementConst@?$IFXArray@H@@QBEABHI@Z 00415320 f i LineSetConverter.obj
 0001:0001438c       ?GetA@Int2@U3D_IDTF@@QBEABHXZ 0041538c f i LineSetConverter.obj
 0001:000143a0       ?GetB@Int2@U3D_IDTF@@QBEABHXZ 004153a0 f i LineSetConverter.obj
 0001:000143b4       ?GetElementConst@?$IFXArray@VInt2@U3D_IDTF@@@@QBEABVInt2@U3D_IDTF@@I@Z 004153b4 f i LineSetConverter.obj
 0001:00014420       ?GetElementConst@?$IFXArray@ULineTexCoords@U3D_IDTF@@@@QBEABULineTexCoords@U3D_IDTF@@I@Z 00415420 f i LineSetConverter.obj
 0001:0001448c       ??0LineSetConverter@U3D_IDTF@@QAE@PBVLineSetResource@1@PAVSceneUtilities@1@@Z 0041548c f   LineSetConverter.obj
 0001:00014528       ??1LineSetConverter@U3D_IDTF@@UAE@XZ 00415528 f   LineSetConverter.obj
 0001:000145ba       ?Convert@LineSetConverter@U3D_IDTF@@UAEHXZ 004155ba f   LineSetConverter.obj
 0001:0001483a       ?ConvertLineSetFormat@LineSetConverter@U3D_IDTF@@IAEHPAUIFXAuthorLineSetDesc@@@Z 0041583a f   LineSetConverter.obj
 0001:00014902       ?ConvertLineSet@LineSetConverter@U3D_IDTF@@IAEHPAPAVIFXAuthorLineSet@@@Z 00415902 f   LineSetConverter.obj
 0001:00015b5c       ??_EInt2@U3D_IDTF@@UAEPAXI@Z 00416b5c f i LineSetResourceParser.obj
 0001:00015bf0       ??_GLineSetResourceParser@U3D_IDTF@@UAEPAXI@Z 00416bf0 f i LineSetResourceParser.obj
 0001:00015bf0       ??_ELineSetResourceParser@U3D_IDTF@@UAEPAXI@Z 00416bf0 f i LineSetResourceParser.obj
 0001:00015c28       ??0Int2@U3D_IDTF@@QAE@XZ   00416c28 f i LineSetResourceParser.obj
 0001:00015c48       ??1Int2@U3D_IDTF@@UAE@XZ   00416c48 f i LineSetResourceParser.obj
 0001:00015c64       ??4Int2@U3D_IDTF@@QAEAAV01@ABV01@@Z 00416c64 f i LineSetResourceParser.obj
 0001:00015c98       ?CreateNewElement@?$IFXArray@VInt2@U3D_IDTF@@@@QAEAAVInt2@U3D_IDTF@@XZ 00416c98 f i LineSetResourceParser.obj
 0001:00015ce4       ?GetElement@?$IFXArray@VInt2@U3D_IDTF@@@@QAEAAVInt2@U3D_IDTF@@I@Z 00416ce4 f i LineSetResourceParser.obj
 0001:00015d50       ?CreateNewElement@?$IFXArray@ULineTexCoords@U3D_IDTF@@@@QAEAAULineTexCoords@U3D_IDTF@@XZ 00416d50 f i LineSetResourceParser.obj
 0001:00015d9c       ?GetElement@?$IFXArray@ULineTexCoords@U3D_IDTF@@@@QAEAAULineTexCoords@U3D_IDTF@@I@Z 00416d9c f i LineSetResourceParser.obj
 0001:00015e08       ??0LineSetResourceParser@U3D_IDTF@@QAE@PAVFileScanner@1@PAVLineSetResource@1@@Z 00416e08 f   LineSetResourceParser.obj
 0001:00015eae       ??1LineSetResourceParser@U3D_IDTF@@UAE@XZ 00416eae f   LineSetResourceParser.obj
 0001:00015f36       ?Parse@LineSetResourceParser@U3D_IDTF@@QAEHXZ 00416f36 f   LineSetResourceParser.obj
 0001:00016288       ?ParseLineSetDescription@LineSetResourceParser@U3D_IDTF@@IAEHXZ 00417288 f   LineSetResourceParser.obj
 0001:00016488       ?ParseLineTextureCoords@LineSetResourceParser@U3D_IDTF@@IAEHXZ 00417488 f   LineSetResourceParser.obj
 0001:00016a4c       ??_GMaterialParser@U3D_IDTF@@UAEPAXI@Z 00417a4c f i MaterialParser.obj
 0001:00016a4c       ??_EMaterialParser@U3D_IDTF@@UAEPAXI@Z 00417a4c f i MaterialParser.obj
 0001:00016a84       ??0MaterialParser@U3D_IDTF@@QAE@PAVFileScanner@1@PAVMaterial@1@@Z 00417a84 f   MaterialParser.obj
 0001:00016bfa       ??1MaterialParser@U3D_IDTF@@UAE@XZ 00417bfa f   MaterialParser.obj
 0001:00016c90       ?Parse@MaterialParser@U3D_IDTF@@QAEHXZ 00417c90 f   MaterialParser.obj
 0001:00017138       ??$IFXInitStruct@UIFXAuthorMeshDesc@@@@YAXPAUIFXAuthorMeshDesc@@I@Z 00418138 f i MeshConverter.obj
 0001:000171a4       ??_EMeshConverter@U3D_IDTF@@UAEPAXI@Z 004181a4 f i MeshConverter.obj
 0001:000171a4       ??_GMeshConverter@U3D_IDTF@@UAEPAXI@Z 004181a4 f i MeshConverter.obj
 0001:000171dc       ?VertexA@IFXAuthorFace@@QAEAAIXZ 004181dc f i MeshConverter.obj
 0001:000171ec       ?VertexB@IFXAuthorFace@@QAEAAIXZ 004181ec f i MeshConverter.obj
 0001:00017200       ?VertexC@IFXAuthorFace@@QAEAAIXZ 00418200 f i MeshConverter.obj
 0001:00017214       ??0IFXAuthorMeshDesc@@QAE@XZ 00418214 f i MeshConverter.obj
 0001:00017248       ??0IFXAuthorCLODGenParam@@QAE@XZ 00418248 f i MeshConverter.obj
 0001:00017290       ??0IFXAuthorMeshScrubParams@@QAE@XZ 00418290 f i MeshConverter.obj
 0001:00017308       ??0IFXAuthorCLODCompressionParams@@QAE@XZ 00418308 f i MeshConverter.obj
 0001:000173f0       ??0IFXAuthorGeomCompilerParams@@QAE@XZ 004183f0 f i MeshConverter.obj
 0001:00017460       ??0?$IFXAutoRelease@VIFXAuthorCLODResource@@@@QAE@AAPAVIFXAuthorCLODResource@@@Z 00418460 f i MeshConverter.obj
 0001:000174d4       ??1?$IFXAutoRelease@VIFXAuthorCLODResource@@@@QAE@XZ 004184d4 f i MeshConverter.obj
 0001:0001757c       ??0?$IFXAutoRelease@VIFXAuthorMesh@@@@QAE@AAPAVIFXAuthorMesh@@@Z 0041857c f i MeshConverter.obj
 0001:000175f0       ??1?$IFXAutoRelease@VIFXAuthorMesh@@@@QAE@XZ 004185f0 f i MeshConverter.obj
 0001:00017688       ??0?$IFXAutoRelease@VIFXSkeleton@@@@QAE@AAPAVIFXSkeleton@@@Z 00418688 f i MeshConverter.obj
 0001:000176fc       ??1?$IFXAutoRelease@VIFXSkeleton@@@@QAE@XZ 004186fc f i MeshConverter.obj
 0001:000177a4       ?GetA@Int3@U3D_IDTF@@QBEABHXZ 004187a4 f i MeshConverter.obj
 0001:000177b8       ?GetB@Int3@U3D_IDTF@@QBEABHXZ 004187b8 f i MeshConverter.obj
 0001:000177cc       ?GetC@Int3@U3D_IDTF@@QBEABHXZ 004187cc f i MeshConverter.obj
 0001:000177e0       ?GetElementConst@?$IFXArray@VInt3@U3D_IDTF@@@@QBEABVInt3@U3D_IDTF@@I@Z 004187e0 f i MeshConverter.obj
 0001:0001784c       ?GetElementConst@?$IFXArray@UFaceTexCoords@U3D_IDTF@@@@QBEABUFaceTexCoords@U3D_IDTF@@I@Z 0041884c f i MeshConverter.obj
 0001:000178b8       ??0MeshConverter@U3D_IDTF@@QAE@PBVMeshResource@1@PAVSceneUtilities@1@@Z 004188b8 f   MeshConverter.obj
 0001:00017954       ??1MeshConverter@U3D_IDTF@@UAE@XZ 00418954 f   MeshConverter.obj
 0001:000179dc       ?Convert@MeshConverter@U3D_IDTF@@UAEHXZ 004189dc f   MeshConverter.obj
 0001:00018066       ?ConvertMeshFormat@MeshConverter@U3D_IDTF@@IAEHPAUIFXAuthorMeshDesc@@PAI@Z 00419066 f   MeshConverter.obj
 0001:0001819c       ?ConvertMesh@MeshConverter@U3D_IDTF@@IAEHPAPAVIFXAuthorMesh@@PAI@Z 0041919c f   MeshConverter.obj
 0001:00019bec       ??_EInt3@U3D_IDTF@@UAEPAXI@Z 0041abec f i MeshResourceParser.obj
 0001:00019c80       ??_EMeshResourceParser@U3D_IDTF@@UAEPAXI@Z 0041ac80 f i MeshResourceParser.obj
 0001:00019c80       ??_GMeshResourceParser@U3D_IDTF@@UAEPAXI@Z 0041ac80 f i MeshResourceParser.obj
 0001:00019cb8       ??0Int3@U3D_IDTF@@QAE@XZ   0041acb8 f i MeshResourceParser.obj
 0001:00019cd8       ??1Int3@U3D_IDTF@@UAE@XZ   0041acd8 f i MeshResourceParser.obj
 0001:00019cf4       ??4Int3@U3D_IDTF@@QAEAAV01@ABV01@@Z 0041acf4 f i MeshResourceParser.obj
 0001:00019d38       ?CreateNewElement@?$IFXArray@VInt3@U3D_IDTF@@@@QAEAAVInt3@U3D_IDTF@@XZ 0041ad38 f i MeshResourceParser.obj
 0001:00019d84       ?GetElement@?$IFXArray@VInt3@U3D_IDTF@@@@QAEAAVInt3@U3D_IDTF@@I@Z 0041ad84 f i MeshResourceParser.obj
 0001:00019df0       ?CreateNewElement@?$IFXArray@UFaceTexCoords@U3D_IDTF@@@@QAEAAUFaceTexCoords@U3D_IDTF@@XZ 0041adf0 f i MeshResourceParser.obj
 0001:00019e3c       ?GetElement@?$IFXArray@UFaceTexCoords@U3D_IDTF@@@@QAEAAUFaceTexCoords@U3D_IDTF@@I@Z 0041ae3c f i MeshResourceParser.obj
 0001:00019ea8       ??0MeshResourceParser@U3D_IDTF@@QAE@PAVFileScanner@1@PAVMeshResource@1@@Z 0041aea8 f   MeshResourceParser.obj
 0001:00019f4e       ??1MeshResourceParser@U3D_IDTF@@UAE@XZ 0041af4e f   MeshResourceParser.obj
 0001:00019fd6       ?Parse@MeshResourceParser@U3D_IDTF@@QAEHXZ 0041afd6 f   MeshResourceParser.obj
 0001:0001a394       ?ParseMeshDescription@MeshResourceParser@U3D_IDTF@@QAEHXZ 0041b394 f   MeshResourceParser.obj
 0001:0001a620       ?ParseFaceTextureCoords@MeshResourceParser@U3D_IDTF@@QAEHXZ 0041b620 f   MeshResourceParser.obj
 0001:0001ac2c       ??_GMetaDataConverter@U3D_IDTF@@UAEPAXI@Z 0041bc2c f i MetaDataConverter.obj
 0001:0001ac2c       ??_EMetaDataConverter@U3D_IDTF@@UAEPAXI@Z 0041bc2c f i MetaDataConverter.obj
 0001:0001ac64       ??0MetaDataConverter@U3D_IDTF@@QAE@PBVMetaDataList@1@PAVIFXMetaDataX@@@Z 0041bc64 f   MetaDataConverter.obj
 0001:0001ac98       ??1MetaDataConverter@U3D_IDTF@@UAE@XZ 0041bc98 f   MetaDataConverter.obj
 0001:0001acb8       ?Convert@MetaDataConverter@U3D_IDTF@@UAEHXZ 0041bcb8 f   MetaDataConverter.obj
 0001:0001af6c       ??_EMetaDataParser@U3D_IDTF@@UAEPAXI@Z 0041bf6c f i MetaDataParser.obj
 0001:0001af6c       ??_GMetaDataParser@U3D_IDTF@@UAEPAXI@Z 0041bf6c f i MetaDataParser.obj
 0001:0001afa4       ??0MetaDataParser@U3D_IDTF@@QAE@PAVFileScanner@1@@Z 0041bfa4 f   MetaDataParser.obj
 0001:0001afc4       ??1MetaDataParser@U3D_IDTF@@UAE@XZ 0041bfc4 f   MetaDataParser.obj
 0001:0001afd6       ?ParseMetaData@MetaDataParser@U3D_IDTF@@QAEHPAVMetaDataList@2@@Z 0041bfd6 f   MetaDataParser.obj
 0001:0001b254       ?ParseMetaDataItem@MetaDataParser@U3D_IDTF@@AAEHPAVMetaData@2@@Z 0041c254 f   MetaDataParser.obj
 0001:0001b568       ??_EModelConverter@U3D_IDTF@@UAEPAXI@Z 0041c568 f i ModelConverter.obj
 0001:0001b568       ??_GModelConverter@U3D_IDTF@@UAEPAXI@Z 0041c568 f i ModelConverter.obj
 0001:0001b5a0       ??4IFXString@@QAEAAV0@PBG@Z 0041c5a0 f i ModelConverter.obj
 0001:0001b5c8       ?Compare@IFXString@@QBEHABV1@@Z 0041c5c8 f i ModelConverter.obj
 0001:0001b5fc       ??0IFXVector2@@QAE@XZ      0041c5fc f i ModelConverter.obj
 0001:0001b60c       ?Reset@IFXVector2@@QAEXXZ  0041c60c f i ModelConverter.obj
 0001:0001b62c       ??0IFXVector3@@QAE@XZ      0041c62c f i ModelConverter.obj
 0001:0001b63c       ?Reset@IFXVector3@@QAEXXZ  0041c63c f i ModelConverter.obj
 0001:0001b664       ??0IFXVector4@@QAE@XZ      0041c664 f i ModelConverter.obj
 0001:0001b674       ??0IFXBoneInfo@@QAE@XZ     0041c674 f i ModelConverter.obj
 0001:0001b8f4       ??1IFXBoneInfo@@QAE@XZ     0041c8f4 f i ModelConverter.obj
 0001:0001b9e0       ?GetTextureCoordDimention@ShadingDescription@U3D_IDTF@@QBEABII@Z 0041c9e0 f i ModelConverter.obj
 0001:0001ba14       ?GetElementConst@?$IFXArray@I@@QBEABII@Z 0041ca14 f i ModelConverter.obj
 0001:0001ba80       ?GetQuat@Quat@U3D_IDTF@@QBEABVIFXVector4@@XZ 0041ca80 f i ModelConverter.obj
 0001:0001ba94       ?GetBoneInfo@ModelSkeleton@U3D_IDTF@@QBEABUBoneInfo@2@I@Z 0041ca94 f i ModelConverter.obj
 0001:0001bac4       ?GetBoneInfoCount@ModelSkeleton@U3D_IDTF@@QBEIXZ 0041cac4 f i ModelConverter.obj
 0001:0001baec       ?GetElementConst@?$IFXArray@UBoneInfo@U3D_IDTF@@@@QBEABUBoneInfo@U3D_IDTF@@I@Z 0041caec f i ModelConverter.obj
 0001:0001bb58       ??0ModelConverter@U3D_IDTF@@QAE@PAVSceneUtilities@1@@Z 0041cb58 f   ModelConverter.obj
 0001:0001bbb6       ??1ModelConverter@U3D_IDTF@@UAE@XZ 0041cbb6 f   ModelConverter.obj
 0001:0001bbd2       ?Convert@ModelConverter@U3D_IDTF@@UAEHXZ 0041cbd2 f   ModelConverter.obj
 0001:0001bbde       ?SetDefaultQuality@ModelConverter@U3D_IDTF@@QAEXI@Z 0041cbde f   ModelConverter.obj
 0001:0001bbf2       ?SetPositionQuality@ModelConverter@U3D_IDTF@@QAEXI@Z 0041cbf2 f   ModelConverter.obj
 0001:0001bc06       ?SetTexCoordQuality@ModelConverter@U3D_IDTF@@QAEXI@Z 0041cc06 f   ModelConverter.obj
 0001:0001bc1a       ?SetNormalQuality@ModelConverter@U3D_IDTF@@QAEXI@Z 0041cc1a f   ModelConverter.obj
 0001:0001bc2e       ?SetDiffuseColorQuality@ModelConverter@U3D_IDTF@@QAEXI@Z 0041cc2e f   ModelConverter.obj
 0001:0001bc42       ?SetSpecularColorQuality@ModelConverter@U3D_IDTF@@QAEXI@Z 0041cc42 f   ModelConverter.obj
 0001:0001bc56       ?SetZeroAreaFacesRemoval@ModelConverter@U3D_IDTF@@QAEXH@Z 0041cc56 f   ModelConverter.obj
 0001:0001bc6a       ?SetZeroAreaFaceTolerance@ModelConverter@U3D_IDTF@@QAEXM@Z 0041cc6a f   ModelConverter.obj
 0001:0001bc7e       ?SetNormalsExclusion@ModelConverter@U3D_IDTF@@QAEXH@Z 0041cc7e f   ModelConverter.obj
 0001:0001bc92       ?ConvertShadingDescriptions@ModelConverter@U3D_IDTF@@IAEHABVShadingDescriptionList@2@IPAUIFXAuthorMaterial@@@Z 0041cc92 f   ModelConverter.obj
 0001:0001be2a       ?ConvertSkeleton@ModelConverter@U3D_IDTF@@IAEHABVModelSkeleton@2@PAPAVIFXSkeleton@@@Z 0041ce2a f   ModelConverter.obj
 0001:0001bff8       ?ConvertBone@ModelConverter@U3D_IDTF@@IAEHPAVIFXSkeleton@@IABUBoneInfo@2@@Z 0041cff8 f   ModelConverter.obj
 0001:0001c206       ?GetBoneIdx@ModelConverter@U3D_IDTF@@IAEHPAVIFXSkeleton@@ABVIFXString@@@Z 0041d206 f   ModelConverter.obj
 0001:0001c6ac       ??_GInt2@U3D_IDTF@@UAEPAXI@Z 0041d6ac f i ModelResourceParser.obj
 0001:0001c6e4       ??_GInt3@U3D_IDTF@@UAEPAXI@Z 0041d6e4 f i ModelResourceParser.obj
 0001:0001c71c       ??_GPoint@U3D_IDTF@@UAEPAXI@Z 0041d71c f i ModelResourceParser.obj
 0001:0001c754       ??_GColor@U3D_IDTF@@UAEPAXI@Z 0041d754 f i ModelResourceParser.obj
 0001:0001c78c       ??_GModelResourceParser@U3D_IDTF@@UAEPAXI@Z 0041d78c f i ModelResourceParser.obj
 0001:0001c78c       ??_EModelResourceParser@U3D_IDTF@@UAEPAXI@Z 0041d78c f i ModelResourceParser.obj
 0001:0001c7c4       ??_GQuat@U3D_IDTF@@UAEPAXI@Z 0041d7c4 f i ModelResourceParser.obj
 0001:0001c7c4       ??_EQuat@U3D_IDTF@@UAEPAXI@Z 0041d7c4 f i ModelResourceParser.obj
 0001:0001c7fc       ??_G?$IFXArray@I@@UAEPAXI@Z 0041d7fc f i ModelResourceParser.obj
 0001:0001c7fc       ??_E?$IFXArray@I@@UAEPAXI@Z 0041d7fc f i ModelResourceParser.obj
 0001:0001c834       ??0Point@U3D_IDTF@@QAE@XZ  0041d834 f i ModelResourceParser.obj
 0001:0001c864       ??1Point@U3D_IDTF@@UAE@XZ  0041d864 f i ModelResourceParser.obj
 0001:0001c880       ??4Point@U3D_IDTF@@QAEAAV01@ABV01@@Z 0041d880 f i ModelResourceParser.obj
 0001:0001c8b4       ??0Color@U3D_IDTF@@QAE@XZ  0041d8b4 f i ModelResourceParser.obj
 0001:0001c8e4       ??1Color@U3D_IDTF@@UAE@XZ  0041d8e4 f i ModelResourceParser.obj
 0001:0001c900       ??4Color@U3D_IDTF@@QAEAAV01@ABV01@@Z 0041d900 f i ModelResourceParser.obj
 0001:0001c934       ??0ShadingDescription@U3D_IDTF@@QAE@XZ 0041d934 f i ModelResourceParser.obj
 0001:0001c9e8       ??1ShadingDescription@U3D_IDTF@@QAE@XZ 0041d9e8 f i ModelResourceParser.obj
 0001:0001ca90       ?AddTextureCoordDimension@ShadingDescription@U3D_IDTF@@QAEXABI@Z 0041da90 f i ModelResourceParser.obj
 0001:0001cacc       ??4ShadingDescription@U3D_IDTF@@QAEAAV01@ABV01@@Z 0041dacc f i ModelResourceParser.obj
 0001:0001cb18       ??0?$IFXArray@I@@QAE@I@Z   0041db18 f i ModelResourceParser.obj
 0001:0001cc24       ??1?$IFXArray@I@@UAE@XZ    0041dc24 f i ModelResourceParser.obj
 0001:0001cdbc       ?ResetElement@?$IFXArray@I@@UAEXAAI@Z 0041ddbc f i ModelResourceParser.obj
 0001:0001cdcc       ?CreateNewElement@?$IFXArray@I@@QAEAAIXZ 0041ddcc f i ModelResourceParser.obj
 0001:0001ce18       ?GetElement@?$IFXArray@I@@QAEAAII@Z 0041de18 f i ModelResourceParser.obj
 0001:0001ce84       ??4?$IFXArray@I@@QAEXABV0@@Z 0041de84 f i ModelResourceParser.obj
 0001:0001ced0       ?Append@?$IFXArray@I@@QAEXABV1@@Z 0041ded0 f i ModelResourceParser.obj
 0001:0001cfa0       ?Construct@?$IFXArray@I@@EAEXI@Z 0041dfa0 f i ModelResourceParser.obj
 0001:0001d040       ?Destruct@?$IFXArray@I@@EAEXI@Z 0041e040 f i ModelResourceParser.obj
 0001:0001d090       ?DestructAll@?$IFXArray@I@@EAEXXZ 0041e090 f i ModelResourceParser.obj
 0001:0001d1bc       ?Preallocate@?$IFXArray@I@@EAEXI@Z 0041e1bc f i ModelResourceParser.obj
 0001:0001d23c       ?Resize@?$IFXArray@I@@EAEXI@Z 0041e23c f i ModelResourceParser.obj
 0001:0001d350       ?AddShadingDescription@ShadingDescriptionList@U3D_IDTF@@QAEXABVShadingDescription@2@@Z 0041e350 f i ModelResourceParser.obj
 0001:0001d394       ?CreateNewElement@?$IFXArray@VShadingDescription@U3D_IDTF@@@@QAEAAVShadingDescription@U3D_IDTF@@XZ 0041e394 f i ModelResourceParser.obj
 0001:0001d3e0       ?GetElement@?$IFXArray@VShadingDescription@U3D_IDTF@@@@QAEAAVShadingDescription@U3D_IDTF@@I@Z 0041e3e0 f i ModelResourceParser.obj
 0001:0001d44c       ??0Quat@U3D_IDTF@@QAE@XZ   0041e44c f i ModelResourceParser.obj
 0001:0001d47c       ??1Quat@U3D_IDTF@@UAE@XZ   0041e47c f i ModelResourceParser.obj
 0001:0001d498       ??4Quat@U3D_IDTF@@QAEAAV01@ABV01@@Z 0041e498 f i ModelResourceParser.obj
 0001:0001d4cc       ??0BoneInfo@U3D_IDTF@@QAE@XZ 0041e4cc f i ModelResourceParser.obj
 0001:0001d650       ??1BoneInfo@U3D_IDTF@@QAE@XZ 0041e650 f i ModelResourceParser.obj
 0001:0001d7cc       ??4BoneInfo@U3D_IDTF@@QAEAAU01@ABU01@@Z 0041e7cc f i ModelResourceParser.obj
 0001:0001d858       ?AddBoneInfo@ModelSkeleton@U3D_IDTF@@QAEXABUBoneInfo@2@@Z 0041e858 f i ModelResourceParser.obj
 0001:0001d89c       ?CreateNewElement@?$IFXArray@UBoneInfo@U3D_IDTF@@@@QAEAAUBoneInfo@U3D_IDTF@@XZ 0041e89c f i ModelResourceParser.obj
 0001:0001d8e8       ?GetElement@?$IFXArray@UBoneInfo@U3D_IDTF@@@@QAEAAUBoneInfo@U3D_IDTF@@I@Z 0041e8e8 f i ModelResourceParser.obj
 0001:0001d954       ?CreateNewElement@?$IFXArray@VPoint@U3D_IDTF@@@@QAEAAVPoint@U3D_IDTF@@XZ 0041e954 f i ModelResourceParser.obj
 0001:0001d9a0       ?GetElement@?$IFXArray@VPoint@U3D_IDTF@@@@QAEAAVPoint@U3D_IDTF@@I@Z 0041e9a0 f i ModelResourceParser.obj
 0001:0001da0c       ?CreateNewElement@?$IFXArray@VColor@U3D_IDTF@@@@QAEAAVColor@U3D_IDTF@@XZ 0041ea0c f i ModelResourceParser.obj
 0001:0001da58       ?GetElement@?$IFXArray@VColor@U3D_IDTF@@@@QAEAAVColor@U3D_IDTF@@I@Z 0041ea58 f i ModelResourceParser.obj
 0001:0001dac4       ?CreateNewElement@?$IFXArray@VIFXVector4@@@@QAEAAVIFXVector4@@XZ 0041eac4 f i ModelResourceParser.obj
 0001:0001db10       ?GetElement@?$IFXArray@VIFXVector4@@@@QAEAAVIFXVector4@@I@Z 0041eb10 f i ModelResourceParser.obj
 0001:0001db7c       ?CreateNewElement@?$IFXArray@H@@QAEAAHXZ 0041eb7c f i ModelResourceParser.obj
 0001:0001dbc8       ?GetElement@?$IFXArray@H@@QAEAAHI@Z 0041ebc8 f i ModelResourceParser.obj
 0001:0001dc34       ??0ModelResourceParser@U3D_IDTF@@QAE@PAVFileScanner@1@PAVModelResource@1@@Z 0041ec34 f   ModelResourceParser.obj
 0001:0001dcda       ??1ModelResourceParser@U3D_IDTF@@UAE@XZ 0041ecda f   ModelResourceParser.obj
 0001:0001dd62       ?ParseShadingDescriptions@ModelResourceParser@U3D_IDTF@@QAEHXZ 0041ed62 f   ModelResourceParser.obj
 0001:0001e108       ?ParseTextureCoords@ModelResourceParser@U3D_IDTF@@QAEHXZ 0041f108 f   ModelResourceParser.obj
 0001:0001e23e       ?ParseSkeleton@ModelResourceParser@U3D_IDTF@@QAEHXZ 0041f23e f   ModelResourceParser.obj
 0001:0001e53c       ?ParseInt2List@ModelResourceParser@U3D_IDTF@@IAEHPBGHAAV?$IFXArray@VInt2@U3D_IDTF@@@@@Z 0041f53c f   ModelResourceParser.obj
 0001:0001e6d6       ?ParseInt3List@ModelResourceParser@U3D_IDTF@@IAEHPBGHAAV?$IFXArray@VInt3@U3D_IDTF@@@@@Z 0041f6d6 f   ModelResourceParser.obj
 0001:0001e870       ?ParsePointList@ModelResourceParser@U3D_IDTF@@IAEHPBGHAAV?$IFXArray@VPoint@U3D_IDTF@@@@@Z 0041f870 f   ModelResourceParser.obj
 0001:0001ea0a       ?ParseColorList@ModelResourceParser@U3D_IDTF@@IAEHPBGHAAV?$IFXArray@VColor@U3D_IDTF@@@@@Z 0041fa0a f   ModelResourceParser.obj
 0001:0001eba4       ?ParseIntList@ModelResourceParser@U3D_IDTF@@IAEHPBGHAAV?$IFXArray@H@@@Z 0041fba4 f   ModelResourceParser.obj
 0001:0001f0d0       ??_GModifierConverter@U3D_IDTF@@UAEPAXI@Z 004200d0 f i ModifierConverter.obj
 0001:0001f0d0       ??_EModifierConverter@U3D_IDTF@@UAEPAXI@Z 004200d0 f i ModifierConverter.obj
 0001:0001f108       ?GetElementConst@?$IFXArray@VIFXString@@@@QBEABVIFXString@@I@Z 00420108 f i ModifierConverter.obj
 0001:0001f174       ?GetNumVertexCopies@IFXVertexMap@@QAEII@Z 00420174 f i ModifierConverter.obj
 0001:0001f200       ?GetVertexCopy@IFXVertexMap@@QAEHIIPAI0@Z 00420200 f i ModifierConverter.obj
 0001:0001f3d8       ??0?$IFXAutoRelease@VIFXShadingModifier@@@@QAE@AAPAVIFXShadingModifier@@@Z 004203d8 f i ModifierConverter.obj
 0001:0001f44c       ??1?$IFXAutoRelease@VIFXShadingModifier@@@@QAE@XZ 0042044c f i ModifierConverter.obj
 0001:0001f4f4       ??0?$IFXAutoRelease@VIFXShaderList@@@@QAE@AAPAVIFXShaderList@@@Z 004204f4 f i ModifierConverter.obj
 0001:0001f568       ??1?$IFXAutoRelease@VIFXShaderList@@@@QAE@XZ 00420568 f i ModifierConverter.obj
 0001:0001f610       ??0?$IFXAutoRelease@VIFXShaderLitTexture@@@@QAE@AAPAVIFXShaderLitTexture@@@Z 00420610 f i ModifierConverter.obj
 0001:0001f684       ??1?$IFXAutoRelease@VIFXShaderLitTexture@@@@QAE@XZ 00420684 f i ModifierConverter.obj
 0001:0001f72c       ??0?$IFXAutoRelease@VIFXAnimationModifier@@@@QAE@AAPAVIFXAnimationModifier@@@Z 0042072c f i ModifierConverter.obj
 0001:0001f7a0       ??1?$IFXAutoRelease@VIFXAnimationModifier@@@@QAE@XZ 004207a0 f i ModifierConverter.obj
 0001:0001f848       ??0?$IFXAutoRelease@VIFXBoneWeightsModifier@@@@QAE@AAPAVIFXBoneWeightsModifier@@@Z 00420848 f i ModifierConverter.obj
 0001:0001f8bc       ??1?$IFXAutoRelease@VIFXBoneWeightsModifier@@@@QAE@XZ 004208bc f i ModifierConverter.obj
 0001:0001f964       ??0?$IFXAutoRelease@VIFXMeshMap@@@@QAE@AAPAVIFXMeshMap@@@Z 00420964 f i ModifierConverter.obj
 0001:0001f9d8       ??1?$IFXAutoRelease@VIFXMeshMap@@@@QAE@XZ 004209d8 f i ModifierConverter.obj
 0001:0001fa70       ??0?$IFXAutoRelease@VIFXGenerator@@@@QAE@AAPAVIFXGenerator@@@Z 00420a70 f i ModifierConverter.obj
 0001:0001fae4       ??1?$IFXAutoRelease@VIFXGenerator@@@@QAE@XZ 00420ae4 f i ModifierConverter.obj
 0001:0001fb8c       ??0?$IFXAutoRelease@VIFXAuthorCLODMesh@@@@QAE@AAPAVIFXAuthorCLODMesh@@@Z 00420b8c f i ModifierConverter.obj
 0001:0001fc00       ??1?$IFXAutoRelease@VIFXAuthorCLODMesh@@@@QAE@XZ 00420c00 f i ModifierConverter.obj
 0001:0001fc98       ??0?$IFXAutoRelease@VIFXCLODModifier@@@@QAE@AAPAVIFXCLODModifier@@@Z 00420c98 f i ModifierConverter.obj
 0001:0001fd0c       ??1?$IFXAutoRelease@VIFXCLODModifier@@@@QAE@XZ 00420d0c f i ModifierConverter.obj
 0001:0001fdb4       ??0?$IFXAutoRelease@VIFXSubdivModifier@@@@QAE@AAPAVIFXSubdivModifier@@@Z 00420db4 f i ModifierConverter.obj
 0001:0001fe28       ??1?$IFXAutoRelease@VIFXSubdivModifier@@@@QAE@XZ 00420e28 f i ModifierConverter.obj
 0001:0001fed0       ??0?$IFXAutoRelease@VIFXGlyph2DModifier@@@@QAE@AAPAVIFXGlyph2DModifier@@@Z 00420ed0 f i ModifierConverter.obj
 0001:0001ff44       ??1?$IFXAutoRelease@VIFXGlyph2DModifier@@@@QAE@XZ 00420f44 f i ModifierConverter.obj
 0001:0001ffec       ?GetType@Modifier@U3D_IDTF@@QBEABVIFXString@@XZ 00420fec f i ModifierConverter.obj
 0001:00020000       ?GetChainType@Modifier@U3D_IDTF@@QBEABVIFXString@@XZ 00421000 f i ModifierConverter.obj
 0001:00020014       ?GetName@Modifier@U3D_IDTF@@QBEABVIFXString@@XZ 00421014 f i ModifierConverter.obj
 0001:00020028       ?GetShaderName@ShaderList@U3D_IDTF@@QBEABVIFXString@@I@Z 00421028 f i ModifierConverter.obj
 0001:00020058       ?GetShaderCount@ShaderList@U3D_IDTF@@QBEIXZ 00421058 f i ModifierConverter.obj
 0001:00020080       ?GetShaderList@ShadingModifier@U3D_IDTF@@QBEABVShaderList@2@I@Z 00421080 f i ModifierConverter.obj
 0001:000200b4       ?GetShaderListCount@ShadingModifier@U3D_IDTF@@QBEIXZ 004210b4 f i ModifierConverter.obj
 0001:000200dc       ?GetAttributes@ShadingModifier@U3D_IDTF@@QBEIXZ 004210dc f i ModifierConverter.obj
 0001:000200f0       ?GetElementConst@?$IFXArray@VShaderList@U3D_IDTF@@@@QBEABVShaderList@U3D_IDTF@@I@Z 004210f0 f i ModifierConverter.obj
 0001:0002015c       ?GetMotionInfo@AnimationModifier@U3D_IDTF@@QBEABUMotionInfo@2@I@Z 0042115c f i ModifierConverter.obj
 0001:00020190       ?GetMotionInfoCount@AnimationModifier@U3D_IDTF@@QBEIXZ 00421190 f i ModifierConverter.obj
 0001:000201b8       ?GetElementConst@?$IFXArray@UMotionInfo@U3D_IDTF@@@@QBEABUMotionInfo@U3D_IDTF@@I@Z 004211b8 f i ModifierConverter.obj
 0001:00020224       ?GetBoneWeight@BoneWeightList@U3D_IDTF@@QBEABHI@Z 00421224 f i ModifierConverter.obj
 0001:00020258       ?GetBoneIndex@BoneWeightList@U3D_IDTF@@QBEABHI@Z 00421258 f i ModifierConverter.obj
 0001:0002028c       ?GetBoneIndexCount@BoneWeightList@U3D_IDTF@@QBEIXZ 0042128c f i ModifierConverter.obj
 0001:000202b4       ?GetInverseQuant@BoneWeightModifier@U3D_IDTF@@QBEABMXZ 004212b4 f i ModifierConverter.obj
 0001:000202c8       ?GetBoneWeightList@BoneWeightModifier@U3D_IDTF@@QBEABVBoneWeightList@2@I@Z 004212c8 f i ModifierConverter.obj
 0001:000202fc       ?GetBoneWeightListCount@BoneWeightModifier@U3D_IDTF@@QBEIXZ 004212fc f i ModifierConverter.obj
 0001:00020324       ?GetElementConst@?$IFXArray@VBoneWeightList@U3D_IDTF@@@@QBEABVBoneWeightList@U3D_IDTF@@I@Z 00421324 f i ModifierConverter.obj
 0001:00020390       ?GetAutoLODControl@CLODModifier@U3D_IDTF@@QBEABVIFXString@@XZ 00421390 f i ModifierConverter.obj
 0001:000203a4       ?GetLODBias@CLODModifier@U3D_IDTF@@QBEABMXZ 004213a4 f i ModifierConverter.obj
 0001:000203b8       ?GetCLODLevel@CLODModifier@U3D_IDTF@@QBEABMXZ 004213b8 f i ModifierConverter.obj
 0001:000203cc       ?GetEnabled@SubdivisionModifier@U3D_IDTF@@QBEABVIFXString@@XZ 004213cc f i ModifierConverter.obj
 0001:000203e0       ?GetAdaptive@SubdivisionModifier@U3D_IDTF@@QBEABVIFXString@@XZ 004213e0 f i ModifierConverter.obj
 0001:000203f4       ?GetDepth@SubdivisionModifier@U3D_IDTF@@QBEABHXZ 004213f4 f i ModifierConverter.obj
 0001:00020408       ?GetTension@SubdivisionModifier@U3D_IDTF@@QBEABMXZ 00421408 f i ModifierConverter.obj
 0001:0002041c       ?GetError@SubdivisionModifier@U3D_IDTF@@QBEABMXZ 0042141c f i ModifierConverter.obj
 0001:00020430       ?GetType@GlyphCommand@U3D_IDTF@@QBEABVIFXString@@XZ 00421430 f i ModifierConverter.obj
 0001:00020444       ??0ModifierConverter@U3D_IDTF@@QAE@PAVModifierList@1@PAVSceneUtilities@1@@Z 00421444 f   ModifierConverter.obj
 0001:00020540       ??1ModifierConverter@U3D_IDTF@@UAE@XZ 00421540 f   ModifierConverter.obj
 0001:00020552       ?Convert@ModifierConverter@U3D_IDTF@@UAEHXZ 00421552 f   ModifierConverter.obj
 0001:000208d2       ?ConvertShadingModifier@ModifierConverter@U3D_IDTF@@IAEHPBVShadingModifier@2@@Z 004218d2 f   ModifierConverter.obj
 0001:00020e7a       ?ConvertAnimationModifier@ModifierConverter@U3D_IDTF@@IAEHPBVAnimationModifier@2@@Z 00421e7a f   ModifierConverter.obj
 0001:00021284       ?ConvertBoneWeightModifier@ModifierConverter@U3D_IDTF@@IAEHPBVBoneWeightModifier@2@@Z 00422284 f   ModifierConverter.obj
 0001:00021dbc       ?ConvertCLODModifier@ModifierConverter@U3D_IDTF@@IAEHPBVCLODModifier@2@@Z 00422dbc f   ModifierConverter.obj
 0001:00022168       ?ConvertSubdivisionModifier@ModifierConverter@U3D_IDTF@@IAEHPBVSubdivisionModifier@2@@Z 00423168 f   ModifierConverter.obj
 0001:0002264a       ?ConvertGlyphModifier@ModifierConverter@U3D_IDTF@@IAEHPBVGlyphModifier@2@@Z 0042364a f   ModifierConverter.obj
 0001:000239bc       ??_EModifierParser@U3D_IDTF@@UAEPAXI@Z 004249bc f i ModifierParser.obj
 0001:000239bc       ??_GModifierParser@U3D_IDTF@@UAEPAXI@Z 004249bc f i ModifierParser.obj
 0001:000239f4       ?SetChainType@Modifier@U3D_IDTF@@QAEXABVIFXString@@@Z 004249f4 f i ModifierParser.obj
 0001:00023a1c       ?SetName@Modifier@U3D_IDTF@@QAEXABVIFXString@@@Z 00424a1c f i ModifierParser.obj
 0001:00023a44       ?AddShaderName@ShaderList@U3D_IDTF@@QAEXABVIFXString@@@Z 00424a44 f i ModifierParser.obj
 0001:00023a88       ??4ShaderList@U3D_IDTF@@QAEAAV01@ABV01@@Z 00424a88 f i ModifierParser.obj
 0001:00023ab0       ?CreateNewElement@?$IFXArray@VIFXString@@@@QAEAAVIFXString@@XZ 00424ab0 f i ModifierParser.obj
 0001:00023afc       ?GetElement@?$IFXArray@VIFXString@@@@QAEAAVIFXString@@I@Z 00424afc f i ModifierParser.obj
 0001:00023b68       ??4?$IFXArray@VIFXString@@@@QAEXABV0@@Z 00424b68 f i ModifierParser.obj
 0001:00023bb4       ?Append@?$IFXArray@VIFXString@@@@QAEXABV1@@Z 00424bb4 f i ModifierParser.obj
 0001:00023c88       ?AddShaderList@ShadingModifier@U3D_IDTF@@QAEXABVShaderList@2@@Z 00424c88 f i ModifierParser.obj
 0001:00023ccc       ?SetAttributes@ShadingModifier@U3D_IDTF@@QAEXI@Z 00424ccc f i ModifierParser.obj
 0001:00023ce8       ?CreateNewElement@?$IFXArray@VShaderList@U3D_IDTF@@@@QAEAAVShaderList@U3D_IDTF@@XZ 00424ce8 f i ModifierParser.obj
 0001:00023d34       ?GetElement@?$IFXArray@VShaderList@U3D_IDTF@@@@QAEAAVShaderList@U3D_IDTF@@I@Z 00424d34 f i ModifierParser.obj
 0001:00023da0       ??4MotionInfo@U3D_IDTF@@QAEAAU01@ABU01@@Z 00424da0 f i ModifierParser.obj
 0001:00023e04       ?SetTimeScale@AnimationModifier@U3D_IDTF@@QAEXABM@Z 00424e04 f i ModifierParser.obj
 0001:00023e24       ?SetBlendTime@AnimationModifier@U3D_IDTF@@QAEXABM@Z 00424e24 f i ModifierParser.obj
 0001:00023e44       ?AddMotionInfo@AnimationModifier@U3D_IDTF@@QAEXABUMotionInfo@2@@Z 00424e44 f i ModifierParser.obj
 0001:00023e88       ?CreateNewElement@?$IFXArray@UMotionInfo@U3D_IDTF@@@@QAEAAUMotionInfo@U3D_IDTF@@XZ 00424e88 f i ModifierParser.obj
 0001:00023ed4       ?GetElement@?$IFXArray@UMotionInfo@U3D_IDTF@@@@QAEAAUMotionInfo@U3D_IDTF@@I@Z 00424ed4 f i ModifierParser.obj
 0001:00023f40       ?AddBoneWeight@BoneWeightList@U3D_IDTF@@QAEXABH@Z 00424f40 f i ModifierParser.obj
 0001:00023f7c       ?AddBoneIndex@BoneWeightList@U3D_IDTF@@QAEXABH@Z 00424f7c f i ModifierParser.obj
 0001:00023fb8       ??4BoneWeightList@U3D_IDTF@@QAEAAV01@ABV01@@Z 00424fb8 f i ModifierParser.obj
 0001:00024004       ??4?$IFXArray@H@@QAEXABV0@@Z 00425004 f i ModifierParser.obj
 0001:00024050       ?Append@?$IFXArray@H@@QAEXABV1@@Z 00425050 f i ModifierParser.obj
 0001:00024120       ?SetInverseQuant@BoneWeightModifier@U3D_IDTF@@QAEXABM@Z 00425120 f i ModifierParser.obj
 0001:00024140       ?AddBoneWeightList@BoneWeightModifier@U3D_IDTF@@QAEXABVBoneWeightList@2@@Z 00425140 f i ModifierParser.obj
 0001:00024184       ?CreateNewElement@?$IFXArray@VBoneWeightList@U3D_IDTF@@@@QAEAAVBoneWeightList@U3D_IDTF@@XZ 00425184 f i ModifierParser.obj
 0001:000241d0       ?GetElement@?$IFXArray@VBoneWeightList@U3D_IDTF@@@@QAEAAVBoneWeightList@U3D_IDTF@@I@Z 004251d0 f i ModifierParser.obj
 0001:0002423c       ?SetAutoLODControl@CLODModifier@U3D_IDTF@@QAEXABVIFXString@@@Z 0042523c f i ModifierParser.obj
 0001:00024264       ?SetLODBias@CLODModifier@U3D_IDTF@@QAEXABM@Z 00425264 f i ModifierParser.obj
 0001:00024284       ?SetCLODLevel@CLODModifier@U3D_IDTF@@QAEXABM@Z 00425284 f i ModifierParser.obj
 0001:000242a4       ?SetEnabled@SubdivisionModifier@U3D_IDTF@@QAEXABVIFXString@@@Z 004252a4 f i ModifierParser.obj
 0001:000242cc       ?SetAdaptive@SubdivisionModifier@U3D_IDTF@@QAEXABVIFXString@@@Z 004252cc f i ModifierParser.obj
 0001:000242f4       ?SetDepth@SubdivisionModifier@U3D_IDTF@@QAEXABH@Z 004252f4 f i ModifierParser.obj
 0001:00024314       ?SetTension@SubdivisionModifier@U3D_IDTF@@QAEXABM@Z 00425314 f i ModifierParser.obj
 0001:00024334       ?SetError@SubdivisionModifier@U3D_IDTF@@QAEXABM@Z 00425334 f i ModifierParser.obj
 0001:00024354       ?SetType@GlyphCommand@U3D_IDTF@@QAEXABVIFXString@@@Z 00425354 f i ModifierParser.obj
 0001:0002437c       ??0ModifierParser@U3D_IDTF@@QAE@PAVFileScanner@1@PAVModifier@1@@Z 0042537c f   ModifierParser.obj
 0001:000244f2       ??1ModifierParser@U3D_IDTF@@UAE@XZ 004254f2 f   ModifierParser.obj
 0001:00024588       ?Parse@ModifierParser@U3D_IDTF@@QAEHXZ 00425588 f   ModifierParser.obj
 0001:00024822       ?ParseCommonModifierData@ModifierParser@U3D_IDTF@@IAEHXZ 00425822 f   ModifierParser.obj
 0001:00024a1e       ?ParseAnimationModifier@ModifierParser@U3D_IDTF@@IAEHXZ 00425a1e f   ModifierParser.obj
 0001:000253b6       ?ParseBoneWeightModifier@ModifierParser@U3D_IDTF@@IAEHXZ 004263b6 f   ModifierParser.obj
 0001:00025838       ?ParseShadingModifier@ModifierParser@U3D_IDTF@@IAEHXZ 00426838 f   ModifierParser.obj
 0001:00025f30       ?ParseCLODModifier@ModifierParser@U3D_IDTF@@IAEHXZ 00426f30 f   ModifierParser.obj
 0001:000261ae       ?ParseSubdivisionModifier@ModifierParser@U3D_IDTF@@IAEHXZ 004271ae f   ModifierParser.obj
 0001:000264c2       ?ParseGlyphModifier@ModifierParser@U3D_IDTF@@IAEHXZ 004274c2 f   ModifierParser.obj
 0001:00027088       ?ParseShaderList@ModifierParser@U3D_IDTF@@AAEHPAVShaderList@2@@Z 00428088 f   ModifierParser.obj
 0001:00027ec4       ?IFXCheckX_Inline@@YAXHPAG@Z 00428ec4 f i NodeConverter.obj
 0001:00027f74       ??_EIFXViewLayer@@UAEPAXI@Z 00428f74 f i NodeConverter.obj
 0001:00027f74       ??_GIFXViewLayer@@UAEPAXI@Z 00428f74 f i NodeConverter.obj
 0001:00027fac       ??_ENodeConverter@U3D_IDTF@@UAEPAXI@Z 00428fac f i NodeConverter.obj
 0001:00027fac       ??_GNodeConverter@U3D_IDTF@@UAEPAXI@Z 00428fac f i NodeConverter.obj
 0001:00027fe4       ?Set@IFXVector2@@QAEXMM@Z  00428fe4 f i NodeConverter.obj
 0001:00028008       ?X@IFXVector2@@QAEAAMXZ    00429008 f i NodeConverter.obj
 0001:00028018       ?Y@IFXVector2@@QAEAAMXZ    00429018 f i NodeConverter.obj
 0001:0002802c       ??0IFXMatrix4x4@@QAE@ABV0@@Z 0042902c f i NodeConverter.obj
 0001:00028054       ??4IFXMatrix4x4@@QAEAAV0@ABV0@@Z 00429054 f i NodeConverter.obj
 0001:00028090       ??0?$IFXRectT@H@@QAE@HHHH@Z 00429090 f i NodeConverter.obj
 0001:000280d4       ??0?$IFXRectT@M@@QAE@XZ    004290d4 f i NodeConverter.obj
 0001:00028120       ??0?$IFXRectT@M@@QAE@MMMM@Z 00429120 f i NodeConverter.obj
 0001:00028164       ??0IFXViewLayer@@QAE@XZ    00429164 f i NodeConverter.obj
 0001:000281f8       ??1IFXViewLayer@@UAE@XZ    004291f8 f i NodeConverter.obj
 0001:00028214       ??0IFXException@@QAA@HPBGZZ 00429214 f i NodeConverter.obj
 0001:00028304       ??0?$IFXAutoRelease@VIFXNode@@@@QAE@AAPAVIFXNode@@@Z 00429304 f i NodeConverter.obj
 0001:00028378       ??1?$IFXAutoRelease@VIFXNode@@@@QAE@XZ 00429378 f i NodeConverter.obj
 0001:00028420       ??0?$IFXAutoRelease@VIFXModel@@@@QAE@AAPAVIFXModel@@@Z 00429420 f i NodeConverter.obj
 0001:00028494       ??1?$IFXAutoRelease@VIFXModel@@@@QAE@XZ 00429494 f i NodeConverter.obj
 0001:0002853c       ??0?$IFXAutoRelease@VIFXLight@@@@QAE@AAPAVIFXLight@@@Z 0042953c f i NodeConverter.obj
 0001:000285b0       ??1?$IFXAutoRelease@VIFXLight@@@@QAE@XZ 004295b0 f i NodeConverter.obj
 0001:00028658       ??0?$IFXAutoRelease@VIFXView@@@@QAE@AAPAVIFXView@@@Z 00429658 f i NodeConverter.obj
 0001:000286cc       ??1?$IFXAutoRelease@VIFXView@@@@QAE@XZ 004296cc f i NodeConverter.obj
 0001:00028774       ?GetParentName@ParentData@U3D_IDTF@@QBEABVIFXString@@XZ 00429774 f i NodeConverter.obj
 0001:00028788       ?GetParentTM@ParentData@U3D_IDTF@@QBEABVIFXMatrix4x4@@XZ 00429788 f i NodeConverter.obj
 0001:0002879c       ?GetType@Node@U3D_IDTF@@QBEABVIFXString@@XZ 0042979c f i NodeConverter.obj
 0001:000287b0       ?GetName@Node@U3D_IDTF@@QBEABVIFXString@@XZ 004297b0 f i NodeConverter.obj
 0001:000287c4       ?GetParentList@Node@U3D_IDTF@@QBEABVParentList@2@XZ 004297c4 f i NodeConverter.obj
 0001:000287d8       ?GetResourceName@Node@U3D_IDTF@@QBEABVIFXString@@XZ 004297d8 f i NodeConverter.obj
 0001:000287ec       ?GetUnitType@ViewNodeData@U3D_IDTF@@QBEABVIFXString@@XZ 004297ec f i NodeConverter.obj
 0001:00028800       ?GetType@ViewNodeData@U3D_IDTF@@QBEABVIFXString@@XZ 00429800 f i NodeConverter.obj
 0001:00028814       ?GetClipping@ViewNodeData@U3D_IDTF@@QBEHPAM0@Z 00429814 f i NodeConverter.obj
 0001:0002886c       ?GetProjection@ViewNodeData@U3D_IDTF@@QBEABMXZ 0042986c f i NodeConverter.obj
 0001:00028880       ?GetViewPort@ViewNodeData@U3D_IDTF@@QBEHPAM000@Z 00429880 f i NodeConverter.obj
 0001:00028904       ?GetBackdrop@ViewNodeData@U3D_IDTF@@QBEABUViewTexture@2@I@Z 00429904 f i NodeConverter.obj
 0001:00028938       ?GetBackdropCount@ViewNodeData@U3D_IDTF@@QBEABIXZ 00429938 f i NodeConverter.obj
 0001:00028960       ?GetOverlay@ViewNodeData@U3D_IDTF@@QBEABUViewTexture@2@I@Z 00429960 f i NodeConverter.obj
 0001:00028994       ?GetOverlayCount@ViewNodeData@U3D_IDTF@@QBEABIXZ 00429994 f i NodeConverter.obj
 0001:000289bc       ?GetElementConst@?$IFXArray@UViewTexture@U3D_IDTF@@@@QBEABUViewTexture@U3D_IDTF@@I@Z 004299bc f i NodeConverter.obj
 0001:00028a28       ?GetViewData@ViewNode@U3D_IDTF@@QBEABVViewNodeData@2@XZ 00429a28 f i NodeConverter.obj
 0001:00028a3c       ?GetVisibility@ModelNode@U3D_IDTF@@QBEABVIFXString@@XZ 00429a3c f i NodeConverter.obj
 0001:00028a50       ??0NodeConverter@U3D_IDTF@@QAE@PAVNodeList@1@PAVSceneUtilities@1@@Z 00429a50 f   NodeConverter.obj
 0001:00028ac4       ??1NodeConverter@U3D_IDTF@@UAE@XZ 00429ac4 f   NodeConverter.obj
 0001:00028ad6       ?Convert@NodeConverter@U3D_IDTF@@UAEHXZ 00429ad6 f   NodeConverter.obj
 0001:00028ec2       ?ConvertModel@NodeConverter@U3D_IDTF@@AAEHPBVModelNode@2@@Z 00429ec2 f   NodeConverter.obj
 0001:00029168       ?ConvertLight@NodeConverter@U3D_IDTF@@AAEHPBVLightNode@2@@Z 0042a168 f   NodeConverter.obj
 0001:000292e2       ?ConvertView@NodeConverter@U3D_IDTF@@AAEHPBVViewNode@2@@Z 0042a2e2 f   NodeConverter.obj
 0001:00029ca2       ?ConvertGroup@NodeConverter@U3D_IDTF@@AAEHPBVNode@2@@Z 0042aca2 f   NodeConverter.obj
 0001:00029de4       ?ConvertParentList@NodeConverter@U3D_IDTF@@AAEHPAVIFXNode@@ABVParentList@2@@Z 0042ade4 f   NodeConverter.obj
 0001:0002a568       ??_GNodeParser@U3D_IDTF@@UAEPAXI@Z 0042b568 f i NodeParser.obj
 0001:0002a568       ??_ENodeParser@U3D_IDTF@@UAEPAXI@Z 0042b568 f i NodeParser.obj
 0001:0002a5a0       ??_GParentData@U3D_IDTF@@UAEPAXI@Z 0042b5a0 f i NodeParser.obj
 0001:0002a5d8       ??9IFXString@@QBEHPBG@Z    0042b5d8 f i NodeParser.obj
 0001:0002a614       ??0ParentData@U3D_IDTF@@QAE@XZ 0042b614 f i NodeParser.obj
 0001:0002a6dc       ??1ParentData@U3D_IDTF@@UAE@XZ 0042b6dc f i NodeParser.obj
 0001:0002a790       ?SetParentName@ParentData@U3D_IDTF@@QAEXABVIFXString@@@Z 0042b790 f i NodeParser.obj
 0001:0002a7b8       ?SetParentTM@ParentData@U3D_IDTF@@QAEXABVIFXMatrix4x4@@@Z 0042b7b8 f i NodeParser.obj
 0001:0002a7e0       ??4ParentData@U3D_IDTF@@QAEAAV01@ABV01@@Z 0042b7e0 f i NodeParser.obj
 0001:0002a82c       ??4ParentList@U3D_IDTF@@QAEAAV01@ABV01@@Z 0042b82c f i NodeParser.obj
 0001:0002a860       ?GetElement@?$IFXArray@VParentData@U3D_IDTF@@@@QAEAAVParentData@U3D_IDTF@@I@Z 0042b860 f i NodeParser.obj
 0001:0002a8cc       ?GetElementConst@?$IFXArray@VParentData@U3D_IDTF@@@@QBEABVParentData@U3D_IDTF@@I@Z 0042b8cc f i NodeParser.obj
 0001:0002a938       ??4?$IFXArray@VParentData@U3D_IDTF@@@@QAEXABV0@@Z 0042b938 f i NodeParser.obj
 0001:0002a984       ?Append@?$IFXArray@VParentData@U3D_IDTF@@@@QAEXABV1@@Z 0042b984 f i NodeParser.obj
 0001:0002aa58       ?SetName@Node@U3D_IDTF@@QAEXABVIFXString@@@Z 0042ba58 f i NodeParser.obj
 0001:0002aa80       ?SetParentList@Node@U3D_IDTF@@QAEXABVParentList@2@@Z 0042ba80 f i NodeParser.obj
 0001:0002aaa8       ?SetResourceName@Node@U3D_IDTF@@QAEXABVIFXString@@@Z 0042baa8 f i NodeParser.obj
 0001:0002aad0       ??4ViewTexture@U3D_IDTF@@QAEAAU01@ABU01@@Z 0042bad0 f i NodeParser.obj
 0001:0002ab70       ?SetUnitType@ViewNodeData@U3D_IDTF@@QAEXABVIFXString@@@Z 0042bb70 f i NodeParser.obj
 0001:0002ab98       ?SetType@ViewNodeData@U3D_IDTF@@QAEXABVIFXString@@@Z 0042bb98 f i NodeParser.obj
 0001:0002abc0       ?SetClipping@ViewNodeData@U3D_IDTF@@QAEXABM0@Z 0042bbc0 f i NodeParser.obj
 0001:0002abf0       ?SetProjection@ViewNodeData@U3D_IDTF@@QAEXABM@Z 0042bbf0 f i NodeParser.obj
 0001:0002ac10       ?SetViewPort@ViewNodeData@U3D_IDTF@@QAEXABM000@Z 0042bc10 f i NodeParser.obj
 0001:0002ac58       ?AddBackdrop@ViewNodeData@U3D_IDTF@@QAEXABUViewTexture@2@@Z 0042bc58 f i NodeParser.obj
 0001:0002ac9c       ?AddOverlay@ViewNodeData@U3D_IDTF@@QAEXABUViewTexture@2@@Z 0042bc9c f i NodeParser.obj
 0001:0002ace0       ??4ViewNodeData@U3D_IDTF@@QAEAAV01@ABV01@@Z 0042bce0 f i NodeParser.obj
 0001:0002add0       ?CreateNewElement@?$IFXArray@UViewTexture@U3D_IDTF@@@@QAEAAUViewTexture@U3D_IDTF@@XZ 0042bdd0 f i NodeParser.obj
 0001:0002ae1c       ?GetElement@?$IFXArray@UViewTexture@U3D_IDTF@@@@QAEAAUViewTexture@U3D_IDTF@@I@Z 0042be1c f i NodeParser.obj
 0001:0002ae88       ??4?$IFXArray@UViewTexture@U3D_IDTF@@@@QAEXABV0@@Z 0042be88 f i NodeParser.obj
 0001:0002aed4       ?Append@?$IFXArray@UViewTexture@U3D_IDTF@@@@QAEXABV1@@Z 0042bed4 f i NodeParser.obj
 0001:0002afa8       ?SetViewData@ViewNode@U3D_IDTF@@QAEXABVViewNodeData@2@@Z 0042bfa8 f i NodeParser.obj
 0001:0002afd0       ?SetVisibility@ModelNode@U3D_IDTF@@QAEXABVIFXString@@@Z 0042bfd0 f i NodeParser.obj
 0001:0002aff8       ??0NodeParser@U3D_IDTF@@QAE@PAVFileScanner@1@PAVNode@1@@Z 0042bff8 f   NodeParser.obj
 0001:0002b16e       ??1NodeParser@U3D_IDTF@@UAE@XZ 0042c16e f   NodeParser.obj
 0001:0002b204       ?Parse@NodeParser@U3D_IDTF@@QAEHXZ 0042c204 f   NodeParser.obj
 0001:0002b51a       ?ParseParentList@NodeParser@U3D_IDTF@@IAEHPAVParentList@2@@Z 0042c51a f   NodeParser.obj
 0001:0002b73c       ?ParseParentData@NodeParser@U3D_IDTF@@IAEHPAVParentData@2@@Z 0042c73c f   NodeParser.obj
 0001:0002b8e8       ?ParseNodeData@NodeParser@U3D_IDTF@@IAEHXZ 0042c8e8 f   NodeParser.obj
 0001:0002b9ec       ?ParseViewTexture@NodeParser@U3D_IDTF@@IAEHPAUViewTexture@2@@Z 0042c9ec f   NodeParser.obj
 0001:0002bcb4       ?ParseViewNodeData@NodeParser@U3D_IDTF@@IAEHXZ 0042ccb4 f   NodeParser.obj
 0001:0002c530       ?ParseModelNodeData@NodeParser@U3D_IDTF@@IAEHXZ 0042d530 f   NodeParser.obj
 0001:0002cbd4       ??_EPointSetConverter@U3D_IDTF@@UAEPAXI@Z 0042dbd4 f i PointSetConverter.obj
 0001:0002cbd4       ??_GPointSetConverter@U3D_IDTF@@UAEPAXI@Z 0042dbd4 f i PointSetConverter.obj
 0001:0002cc0c       ??0IFXAuthorPointSetDesc@@QAE@XZ 0042dc0c f i PointSetConverter.obj
 0001:0002cc58       ??0?$IFXAutoRelease@VIFXAuthorPointSet@@@@QAE@AAPAVIFXAuthorPointSet@@@Z 0042dc58 f i PointSetConverter.obj
 0001:0002cccc       ??1?$IFXAutoRelease@VIFXAuthorPointSet@@@@QAE@XZ 0042dccc f i PointSetConverter.obj
 0001:0002cd74       ??0?$IFXAutoRelease@VIFXAuthorPointSetResource@@@@QAE@AAPAVIFXAuthorPointSetResource@@@Z 0042dd74 f i PointSetConverter.obj
 0001:0002cde8       ??1?$IFXAutoRelease@VIFXAuthorPointSetResource@@@@QAE@XZ 0042dde8 f i PointSetConverter.obj
 0001:0002ce90       ?GetElementConst@?$IFXArray@UPointTexCoords@U3D_IDTF@@@@QBEABUPointTexCoords@U3D_IDTF@@I@Z 0042de90 f i PointSetConverter.obj
 0001:0002cefc       ??0PointSetConverter@U3D_IDTF@@QAE@PBVPointSetResource@1@PAVSceneUtilities@1@@Z 0042defc f   PointSetConverter.obj
 0001:0002cf98       ??1PointSetConverter@U3D_IDTF@@UAE@XZ 0042df98 f   PointSetConverter.obj
 0001:0002d02a       ?Convert@PointSetConverter@U3D_IDTF@@UAEHXZ 0042e02a f   PointSetConverter.obj
 0001:0002d2aa       ?ConvertPointSetFormat@PointSetConverter@U3D_IDTF@@IAEHPAUIFXAuthorPointSetDesc@@@Z 0042e2aa f   PointSetConverter.obj
 0001:0002d372       ?ConvertPointSet@PointSetConverter@U3D_IDTF@@IAEHPAPAVIFXAuthorPointSet@@@Z 0042e372 f   PointSetConverter.obj
 0001:0002e420       ??_EPointSetResourceParser@U3D_IDTF@@UAEPAXI@Z 0042f420 f i PointSetResourceParser.obj
 0001:0002e420       ??_GPointSetResourceParser@U3D_IDTF@@UAEPAXI@Z 0042f420 f i PointSetResourceParser.obj
 0001:0002e458       ?CreateNewElement@?$IFXArray@UPointTexCoords@U3D_IDTF@@@@QAEAAUPointTexCoords@U3D_IDTF@@XZ 0042f458 f i PointSetResourceParser.obj
 0001:0002e4a4       ?GetElement@?$IFXArray@UPointTexCoords@U3D_IDTF@@@@QAEAAUPointTexCoords@U3D_IDTF@@I@Z 0042f4a4 f i PointSetResourceParser.obj
 0001:0002e510       ??0PointSetResourceParser@U3D_IDTF@@QAE@PAVFileScanner@1@PAVPointSetResource@1@@Z 0042f510 f   PointSetResourceParser.obj
 0001:0002e5b6       ??1PointSetResourceParser@U3D_IDTF@@UAE@XZ 0042f5b6 f   PointSetResourceParser.obj
 0001:0002e63e       ?Parse@PointSetResourceParser@U3D_IDTF@@QAEHXZ 0042f63e f   PointSetResourceParser.obj
 0001:0002e990       ?ParsePointSetDescription@PointSetResourceParser@U3D_IDTF@@IAEHXZ 0042f990 f   PointSetResourceParser.obj
 0001:0002eb90       ?ParsePointTextureCoords@PointSetResourceParser@U3D_IDTF@@IAEHXZ 0042fb90 f   PointSetResourceParser.obj
 0001:0002f088       ??_GResourceConverter@U3D_IDTF@@UAEPAXI@Z 00430088 f i ResourceConverter.obj
 0001:0002f088       ??_EResourceConverter@U3D_IDTF@@UAEPAXI@Z 00430088 f i ResourceConverter.obj
 0001:0002f0c0       ?RawConst@IFXVector3@@QBEPBMXZ 004300c0 f i ResourceConverter.obj
 0001:0002f0d0       ?RawConst@IFXVector4@@QBEPBMXZ 004300d0 f i ResourceConverter.obj
 0001:0002f0e0       ?SetReference@IFXRenderBlend@@QAIHM@Z 004300e0 f i ResourceConverter.obj
 0001:0002f140       ?SetTestFunc@IFXRenderBlend@@QAIHI@Z 00430140 f i ResourceConverter.obj
 0001:0002f198       ?SetBlendFunc@IFXRenderBlend@@QAIHI@Z 00430198 f i ResourceConverter.obj
 0001:0002f208       ?SetUseVertexColors@IFXRenderMaterial@@QAIHH@Z 00430208 f i ResourceConverter.obj
 0001:0002f238       ??0IFXQuaternion@@QAE@XZ   00430238 f i ResourceConverter.obj
 0001:0002f270       ??4IFXQuaternion@@QAEAAV0@ABVIFXVector4@@@Z 00430270 f i ResourceConverter.obj
 0001:0002f2dc       ?MakeIdentity@IFXQuaternion@@QAEXXZ 004302dc f i ResourceConverter.obj
 0001:0002f310       ??0IFXInstant@@QAE@XZ      00430310 f i ResourceConverter.obj
 0001:0002f35c       ?Reset@IFXInstant@@QAEXXZ  0043035c f i ResourceConverter.obj
 0001:0002f3b4       ?Location@IFXInstant@@QAEAAVIFXVector3@@XZ 004303b4 f i ResourceConverter.obj
 0001:0002f3c4       ?Rotation@IFXInstant@@QAEAAVIFXQuaternion@@XZ 004303c4 f i ResourceConverter.obj
 0001:0002f3d8       ?Scale@IFXInstant@@QAEAAVIFXVector3@@XZ 004303d8 f i ResourceConverter.obj
 0001:0002f3ec       ??0IFXKeyFrame@@QAE@XZ     004303ec f i ResourceConverter.obj
 0001:0002f414       ?Time@IFXKeyFrame@@QAEAAMXZ 00430414 f i ResourceConverter.obj
 0001:0002f428       ?GetIFXResult@IFXException@@QAEHXZ 00430428 f i ResourceConverter.obj
 0001:0002f43c       ??0?$IFXAutoRelease@VIFXMotionResource@@@@QAE@AAPAVIFXMotionResource@@@Z 0043043c f i ResourceConverter.obj
 0001:0002f4b0       ??1?$IFXAutoRelease@VIFXMotionResource@@@@QAE@XZ 004304b0 f i ResourceConverter.obj
 0001:0002f558       ??0?$IFXAutoRelease@VIFXLightResource@@@@QAE@AAPAVIFXLightResource@@@Z 00430558 f i ResourceConverter.obj
 0001:0002f5cc       ??1?$IFXAutoRelease@VIFXLightResource@@@@QAE@XZ 004305cc f i ResourceConverter.obj
 0001:0002f674       ??0?$IFXAutoRelease@VIFXViewResource@@@@QAE@AAPAVIFXViewResource@@@Z 00430674 f i ResourceConverter.obj
 0001:0002f6e8       ??1?$IFXAutoRelease@VIFXViewResource@@@@QAE@XZ 004306e8 f i ResourceConverter.obj
 0001:0002f790       ??0?$IFXAutoRelease@VIFXMaterialResource@@@@QAE@AAPAVIFXMaterialResource@@@Z 00430790 f i ResourceConverter.obj
 0001:0002f804       ??1?$IFXAutoRelease@VIFXMaterialResource@@@@QAE@XZ 00430804 f i ResourceConverter.obj
 0001:0002f8ac       ??0?$IFXAutoRelease@VIFXTextureObject@@@@QAE@AAPAVIFXTextureObject@@@Z 004308ac f i ResourceConverter.obj
 0001:0002f920       ??1?$IFXAutoRelease@VIFXTextureObject@@@@QAE@XZ 00430920 f i ResourceConverter.obj
 0001:0002f9c8       ?GetResource@LightResourceList@U3D_IDTF@@QBEABVLightResource@2@I@Z 004309c8 f i ResourceConverter.obj
 0001:0002f9fc       ?GetResourceCount@LightResourceList@U3D_IDTF@@QBEIXZ 004309fc f i ResourceConverter.obj
 0001:0002fa24       ?GetElementConst@?$IFXArray@VLightResource@U3D_IDTF@@@@QBEABVLightResource@U3D_IDTF@@I@Z 00430a24 f i ResourceConverter.obj
 0001:0002fa90       ?GetRootNode@ViewResource@U3D_IDTF@@QBEABVIFXString@@I@Z 00430a90 f i ResourceConverter.obj
 0001:0002fac4       ?GetRootNodeCount@ViewResource@U3D_IDTF@@QBEIXZ 00430ac4 f i ResourceConverter.obj
 0001:0002faec       ?GetResource@ViewResourceList@U3D_IDTF@@QBEABVViewResource@2@I@Z 00430aec f i ResourceConverter.obj
 0001:0002fb20       ?GetResourceCount@ViewResourceList@U3D_IDTF@@QBEIXZ 00430b20 f i ResourceConverter.obj
 0001:0002fb48       ?GetElementConst@?$IFXArray@VViewResource@U3D_IDTF@@@@QBEABVViewResource@U3D_IDTF@@I@Z 00430b48 f i ResourceConverter.obj
 0001:0002fbb4       ?GetTextureLayer@Shader@U3D_IDTF@@QBEABVTextureLayer@2@I@Z 00430bb4 f i ResourceConverter.obj
 0001:0002fbe8       ?GetTextureLayerCount@Shader@U3D_IDTF@@QBEIXZ 00430be8 f i ResourceConverter.obj
 0001:0002fc10       ?GetElementConst@?$IFXArray@VTextureLayer@U3D_IDTF@@@@QBEABVTextureLayer@U3D_IDTF@@I@Z 00430c10 f i ResourceConverter.obj
 0001:0002fc7c       ?GetResource@ShaderResourceList@U3D_IDTF@@QBEABVShader@2@I@Z 00430c7c f i ResourceConverter.obj
 0001:0002fcb0       ?GetResourceCount@ShaderResourceList@U3D_IDTF@@QBEIXZ 00430cb0 f i ResourceConverter.obj
 0001:0002fcd8       ?GetElementConst@?$IFXArray@VShader@U3D_IDTF@@@@QBEABVShader@U3D_IDTF@@I@Z 00430cd8 f i ResourceConverter.obj
 0001:0002fd44       ?GetKeyFrame@MotionTrack@U3D_IDTF@@QBEABUKeyFrame@2@I@Z 00430d44 f i ResourceConverter.obj
 0001:0002fd78       ?GetKeyFrameCount@MotionTrack@U3D_IDTF@@QBEIXZ 00430d78 f i ResourceConverter.obj
 0001:0002fda0       ?GetElementConst@?$IFXArray@UKeyFrame@U3D_IDTF@@@@QBEABUKeyFrame@U3D_IDTF@@I@Z 00430da0 f i ResourceConverter.obj
 0001:0002fe0c       ?GetMotionTrack@MotionResource@U3D_IDTF@@QBEABVMotionTrack@2@I@Z 00430e0c f i ResourceConverter.obj
 0001:0002fe40       ?GetMotionTrackCount@MotionResource@U3D_IDTF@@QBEIXZ 00430e40 f i ResourceConverter.obj
 0001:0002fe68       ?GetElementConst@?$IFXArray@VMotionTrack@U3D_IDTF@@@@QBEABVMotionTrack@U3D_IDTF@@I@Z 00430e68 f i ResourceConverter.obj
 0001:0002fed4       ?GetResource@MotionResourceList@U3D_IDTF@@QBEABVMotionResource@2@I@Z 00430ed4 f i ResourceConverter.obj
 0001:0002ff08       ?GetResourceCount@MotionResourceList@U3D_IDTF@@QBEIXZ 00430f08 f i ResourceConverter.obj
 0001:0002ff30       ?GetElementConst@?$IFXArray@VMotionResource@U3D_IDTF@@@@QBEABVMotionResource@U3D_IDTF@@I@Z 00430f30 f i ResourceConverter.obj
 0001:0002ff9c       ?GetResource@MaterialResourceList@U3D_IDTF@@QBEABVMaterial@2@I@Z 00430f9c f i ResourceConverter.obj
 0001:0002ffd0       ?GetResourceCount@MaterialResourceList@U3D_IDTF@@QBEIXZ 00430fd0 f i ResourceConverter.obj
 0001:0002fff8       ?GetElementConst@?$IFXArray@VMaterial@U3D_IDTF@@@@QBEABVMaterial@U3D_IDTF@@I@Z 00430ff8 f i ResourceConverter.obj
 0001:00030064       ?GetResource@TextureResourceList@U3D_IDTF@@QBEABVTexture@2@I@Z 00431064 f i ResourceConverter.obj
 0001:00030098       ?GetResourceCount@TextureResourceList@U3D_IDTF@@QBEIXZ 00431098 f i ResourceConverter.obj
 0001:000300c0       ?GetElementConst@?$IFXArray@VTexture@U3D_IDTF@@@@QBEABVTexture@U3D_IDTF@@I@Z 004310c0 f i ResourceConverter.obj
 0001:0003012c       ??_HIFXKeyFrame@@QAEPAV0@I@Z 0043112c f i ResourceConverter.obj
 0001:00030174       ??0ResourceConverter@U3D_IDTF@@QAE@PAVSceneResources@1@PAVSceneUtilities@1@PAUConverterOptions@1@@Z 00431174 f   ResourceConverter.obj
 0001:000302ea       ??1ResourceConverter@U3D_IDTF@@UAE@XZ 004312ea f   ResourceConverter.obj
 0001:00030310       ?Convert@ResourceConverter@U3D_IDTF@@UAEHXZ 00431310 f   ResourceConverter.obj
 0001:000304da       ?ConvertMotionResources@ResourceConverter@U3D_IDTF@@AAEHXZ 004314da f   ResourceConverter.obj
 0001:00030900       ?ConvertShaderResources@ResourceConverter@U3D_IDTF@@AAEHXZ 00431900 f   ResourceConverter.obj
 0001:00030a22       ?ConvertMaterialResources@ResourceConverter@U3D_IDTF@@AAEHXZ 00431a22 f   ResourceConverter.obj
 0001:00030b44       ?ConvertTextureResources@ResourceConverter@U3D_IDTF@@AAEHXZ 00431b44 f   ResourceConverter.obj
 0001:00030d28       ?ConvertModelResources@ResourceConverter@U3D_IDTF@@AAEHXZ 00431d28 f   ResourceConverter.obj
 0001:0003114c       ?ConvertLightResources@ResourceConverter@U3D_IDTF@@AAEHXZ 0043214c f   ResourceConverter.obj
 0001:0003167c       ?ConvertViewResources@ResourceConverter@U3D_IDTF@@AAEHXZ 0043267c f   ResourceConverter.obj
 0001:00031b60       ?ConvertKeyFrames@ResourceConverter@U3D_IDTF@@AAEHIPAVIFXMotionResource@@ABVMotionTrack@2@@Z 00432b60 f   ResourceConverter.obj
 0001:00031e9e       ?ConvertMaterial@ResourceConverter@U3D_IDTF@@AAEHABVMaterial@2@@Z 00432e9e f   ResourceConverter.obj
 0001:000323d6       ?ConvertShader@ResourceConverter@U3D_IDTF@@AAEHABVShader@2@@Z 004333d6 f   ResourceConverter.obj
 0001:00032c96       ?ConvertTextureLayer@ResourceConverter@U3D_IDTF@@AAEHABVTextureLayer@2@PAVIFXShaderLitTexture@@@Z 00433c96 f   ResourceConverter.obj
 0001:00033fe8       ??_EResource@U3D_IDTF@@UAEPAXI@Z 00434fe8 f i ResourceListParser.obj
 0001:00033fe8       ??_GResource@U3D_IDTF@@UAEPAXI@Z 00434fe8 f i ResourceListParser.obj
 0001:00034020       ??_GResourceListParser@U3D_IDTF@@UAEPAXI@Z 00435020 f i ResourceListParser.obj
 0001:00034020       ??_EResourceListParser@U3D_IDTF@@UAEPAXI@Z 00435020 f i ResourceListParser.obj
 0001:00034058       ??_EViewResource@U3D_IDTF@@UAEPAXI@Z 00435058 f i ResourceListParser.obj
 0001:000340ec       ??_ELightResource@U3D_IDTF@@UAEPAXI@Z 004350ec f i ResourceListParser.obj
 0001:00034180       ??_GMeshResource@U3D_IDTF@@UAEPAXI@Z 00435180 f i ResourceListParser.obj
 0001:000341b8       ??_GLineSetResource@U3D_IDTF@@UAEPAXI@Z 004351b8 f i ResourceListParser.obj
 0001:000341f0       ??_GPointSetResource@U3D_IDTF@@UAEPAXI@Z 004351f0 f i ResourceListParser.obj
 0001:00034228       ??_ETextureLayer@U3D_IDTF@@UAEPAXI@Z 00435228 f i ResourceListParser.obj
 0001:000342bc       ??_EShader@U3D_IDTF@@UAEPAXI@Z 004352bc f i ResourceListParser.obj
 0001:00034350       ??_EMaterial@U3D_IDTF@@UAEPAXI@Z 00435350 f i ResourceListParser.obj
 0001:000343e4       ??_EImageFormat@U3D_IDTF@@UAEPAXI@Z 004353e4 f i ResourceListParser.obj
 0001:00034478       ??_ETexture@U3D_IDTF@@UAEPAXI@Z 00435478 f i ResourceListParser.obj
 0001:0003450c       ??_EMotionResource@U3D_IDTF@@UAEPAXI@Z 0043550c f i ResourceListParser.obj
 0001:000345a0       ??_G?$IFXArray@VInt3@U3D_IDTF@@@@UAEPAXI@Z 004355a0 f i ResourceListParser.obj
 0001:000345a0       ??_E?$IFXArray@VInt3@U3D_IDTF@@@@UAEPAXI@Z 004355a0 f i ResourceListParser.obj
 0001:000345d8       ??_G?$IFXArray@UFaceTexCoords@U3D_IDTF@@@@UAEPAXI@Z 004355d8 f i ResourceListParser.obj
 0001:000345d8       ??_E?$IFXArray@UFaceTexCoords@U3D_IDTF@@@@UAEPAXI@Z 004355d8 f i ResourceListParser.obj
 0001:00034610       ??_E?$IFXArray@VInt2@U3D_IDTF@@@@UAEPAXI@Z 00435610 f i ResourceListParser.obj
 0001:00034610       ??_G?$IFXArray@VInt2@U3D_IDTF@@@@UAEPAXI@Z 00435610 f i ResourceListParser.obj
 0001:00034648       ??_E?$IFXArray@ULineTexCoords@U3D_IDTF@@@@UAEPAXI@Z 00435648 f i ResourceListParser.obj
 0001:00034648       ??_G?$IFXArray@ULineTexCoords@U3D_IDTF@@@@UAEPAXI@Z 00435648 f i ResourceListParser.obj
 0001:00034680       ??_E?$IFXArray@UPointTexCoords@U3D_IDTF@@@@UAEPAXI@Z 00435680 f i ResourceListParser.obj
 0001:00034680       ??_G?$IFXArray@UPointTexCoords@U3D_IDTF@@@@UAEPAXI@Z 00435680 f i ResourceListParser.obj
 0001:000346b8       ??_E?$IFXArray@VTextureLayer@U3D_IDTF@@@@UAEPAXI@Z 004356b8 f i ResourceListParser.obj
 0001:000346b8       ??_G?$IFXArray@VTextureLayer@U3D_IDTF@@@@UAEPAXI@Z 004356b8 f i ResourceListParser.obj
 0001:000346f0       ??_G?$IFXArray@VImageFormat@U3D_IDTF@@@@UAEPAXI@Z 004356f0 f i ResourceListParser.obj
 0001:000346f0       ??_E?$IFXArray@VImageFormat@U3D_IDTF@@@@UAEPAXI@Z 004356f0 f i ResourceListParser.obj
 0001:00034728       ??_G?$IFXArray@UKeyFrame@U3D_IDTF@@@@UAEPAXI@Z 00435728 f i ResourceListParser.obj
 0001:00034728       ??_E?$IFXArray@UKeyFrame@U3D_IDTF@@@@UAEPAXI@Z 00435728 f i ResourceListParser.obj
 0001:00034760       ??_G?$IFXArray@VMotionTrack@U3D_IDTF@@@@UAEPAXI@Z 00435760 f i ResourceListParser.obj
 0001:00034760       ??_E?$IFXArray@VMotionTrack@U3D_IDTF@@@@UAEPAXI@Z 00435760 f i ResourceListParser.obj
 0001:00034798       ??4StringMetaData@U3D_IDTF@@QAEAAV01@ABV01@@Z 00435798 f i ResourceListParser.obj
 0001:000347cc       ??4MetaData@U3D_IDTF@@QAEAAV01@ABV01@@Z 004357cc f i ResourceListParser.obj
 0001:00034868       ??4MetaDataList@U3D_IDTF@@QAEAAV01@ABV01@@Z 00435868 f i ResourceListParser.obj
 0001:0003489c       ?GetElement@?$IFXArray@VMetaData@U3D_IDTF@@@@QAEAAVMetaData@U3D_IDTF@@I@Z 0043589c f i ResourceListParser.obj
 0001:00034908       ?GetElementConst@?$IFXArray@VMetaData@U3D_IDTF@@@@QBEABVMetaData@U3D_IDTF@@I@Z 00435908 f i ResourceListParser.obj
 0001:00034974       ??4?$IFXArray@VMetaData@U3D_IDTF@@@@QAEXABV0@@Z 00435974 f i ResourceListParser.obj
 0001:000349c0       ?Append@?$IFXArray@VMetaData@U3D_IDTF@@@@QAEXABV1@@Z 004359c0 f i ResourceListParser.obj
 0001:00034a94       ?SetName@Resource@U3D_IDTF@@QAEXABVIFXString@@@Z 00435a94 f i ResourceListParser.obj
 0001:00034abc       ??0Resource@U3D_IDTF@@QAE@XZ 00435abc f i ResourceListParser.obj
 0001:00034bb8       ??1Resource@U3D_IDTF@@UAE@XZ 00435bb8 f i ResourceListParser.obj
 0001:00034ca4       ??4Resource@U3D_IDTF@@QAEAAV01@ABV01@@Z 00435ca4 f i ResourceListParser.obj
 0001:00034cec       ?AddRootNode@ViewResource@U3D_IDTF@@QAEXABVIFXString@@@Z 00435cec f i ResourceListParser.obj
 0001:00034d30       ??0ViewResource@U3D_IDTF@@QAE@XZ 00435d30 f i ResourceListParser.obj
 0001:00034e34       ??1ViewResource@U3D_IDTF@@UAE@XZ 00435e34 f i ResourceListParser.obj
 0001:00034f20       ??4ViewResource@U3D_IDTF@@QAEAAV01@ABV01@@Z 00435f20 f i ResourceListParser.obj
 0001:00034f68       ?AddResource@ViewResourceList@U3D_IDTF@@QAEXABVViewResource@2@@Z 00435f68 f i ResourceListParser.obj
 0001:00034fac       ?CreateNewElement@?$IFXArray@VViewResource@U3D_IDTF@@@@QAEAAVViewResource@U3D_IDTF@@XZ 00435fac f i ResourceListParser.obj
 0001:00034ff8       ?GetElement@?$IFXArray@VViewResource@U3D_IDTF@@@@QAEAAVViewResource@U3D_IDTF@@I@Z 00435ff8 f i ResourceListParser.obj
 0001:00035064       ??0LightResource@U3D_IDTF@@QAE@XZ 00436064 f i ResourceListParser.obj
 0001:000351f0       ??1LightResource@U3D_IDTF@@UAE@XZ 004361f0 f i ResourceListParser.obj
 0001:0003536c       ??4LightResource@U3D_IDTF@@QAEAAV01@ABV01@@Z 0043636c f i ResourceListParser.obj
 0001:00035408       ?AddResource@LightResourceList@U3D_IDTF@@QAEXABVLightResource@2@@Z 00436408 f i ResourceListParser.obj
 0001:0003544c       ?CreateNewElement@?$IFXArray@VLightResource@U3D_IDTF@@@@QAEAAVLightResource@U3D_IDTF@@XZ 0043644c f i ResourceListParser.obj
 0001:00035498       ?GetElement@?$IFXArray@VLightResource@U3D_IDTF@@@@QAEAAVLightResource@U3D_IDTF@@I@Z 00436498 f i ResourceListParser.obj
 0001:00035504       ??0FaceTexCoords@U3D_IDTF@@QAE@XZ 00436504 f i ResourceListParser.obj
 0001:000355b4       ??1FaceTexCoords@U3D_IDTF@@QAE@XZ 004365b4 f i ResourceListParser.obj
 0001:00035654       ??0?$IFXArray@VInt3@U3D_IDTF@@@@QAE@I@Z 00436654 f i ResourceListParser.obj
 0001:00035760       ??1?$IFXArray@VInt3@U3D_IDTF@@@@UAE@XZ 00436760 f i ResourceListParser.obj
 0001:000358f8       ?ResetElement@?$IFXArray@VInt3@U3D_IDTF@@@@UAEXAAVInt3@U3D_IDTF@@@Z 004368f8 f i ResourceListParser.obj
 0001:00035908       ?Construct@?$IFXArray@VInt3@U3D_IDTF@@@@EAEXI@Z 00436908 f i ResourceListParser.obj
 0001:00035a80       ?Destruct@?$IFXArray@VInt3@U3D_IDTF@@@@EAEXI@Z 00436a80 f i ResourceListParser.obj
 0001:00035af4       ?DestructAll@?$IFXArray@VInt3@U3D_IDTF@@@@EAEXXZ 00436af4 f i ResourceListParser.obj
 0001:00035c34       ?Preallocate@?$IFXArray@VInt3@U3D_IDTF@@@@EAEXI@Z 00436c34 f i ResourceListParser.obj
 0001:00035dec       ?Resize@?$IFXArray@VInt3@U3D_IDTF@@@@EAEXI@Z 00436dec f i ResourceListParser.obj
 0001:00035f00       ??0MeshResource@U3D_IDTF@@QAE@XZ 00436f00 f i ResourceListParser.obj
 0001:000361c4       ??1MeshResource@U3D_IDTF@@UAE@XZ 004371c4 f i ResourceListParser.obj
 0001:0003644c       ??0?$IFXArray@UFaceTexCoords@U3D_IDTF@@@@QAE@I@Z 0043744c f i ResourceListParser.obj
 0001:00036558       ??1?$IFXArray@UFaceTexCoords@U3D_IDTF@@@@UAE@XZ 00437558 f i ResourceListParser.obj
 0001:000366f0       ?ResetElement@?$IFXArray@UFaceTexCoords@U3D_IDTF@@@@UAEXAAUFaceTexCoords@U3D_IDTF@@@Z 004376f0 f i ResourceListParser.obj
 0001:00036700       ?Construct@?$IFXArray@UFaceTexCoords@U3D_IDTF@@@@EAEXI@Z 00437700 f i ResourceListParser.obj
 0001:00036888       ?Destruct@?$IFXArray@UFaceTexCoords@U3D_IDTF@@@@EAEXI@Z 00437888 f i ResourceListParser.obj
 0001:000368ec       ?DestructAll@?$IFXArray@UFaceTexCoords@U3D_IDTF@@@@EAEXXZ 004378ec f i ResourceListParser.obj
 0001:00036a2c       ?Preallocate@?$IFXArray@UFaceTexCoords@U3D_IDTF@@@@EAEXI@Z 00437a2c f i ResourceListParser.obj
 0001:00036bf0       ?Resize@?$IFXArray@UFaceTexCoords@U3D_IDTF@@@@EAEXI@Z 00437bf0 f i ResourceListParser.obj
 0001:00036d04       ??0LineTexCoords@U3D_IDTF@@QAE@XZ 00437d04 f i ResourceListParser.obj
 0001:00036db4       ??1LineTexCoords@U3D_IDTF@@QAE@XZ 00437db4 f i ResourceListParser.obj
 0001:00036e54       ??0?$IFXArray@VInt2@U3D_IDTF@@@@QAE@I@Z 00437e54 f i ResourceListParser.obj
 0001:00036f60       ??1?$IFXArray@VInt2@U3D_IDTF@@@@UAE@XZ 00437f60 f i ResourceListParser.obj
 0001:000370f8       ?ResetElement@?$IFXArray@VInt2@U3D_IDTF@@@@UAEXAAVInt2@U3D_IDTF@@@Z 004380f8 f i ResourceListParser.obj
 0001:00037108       ?Construct@?$IFXArray@VInt2@U3D_IDTF@@@@EAEXI@Z 00438108 f i ResourceListParser.obj
 0001:00037290       ?Destruct@?$IFXArray@VInt2@U3D_IDTF@@@@EAEXI@Z 00438290 f i ResourceListParser.obj
 0001:00037304       ?DestructAll@?$IFXArray@VInt2@U3D_IDTF@@@@EAEXXZ 00438304 f i ResourceListParser.obj
 0001:00037444       ?Preallocate@?$IFXArray@VInt2@U3D_IDTF@@@@EAEXI@Z 00438444 f i ResourceListParser.obj
 0001:00037604       ?Resize@?$IFXArray@VInt2@U3D_IDTF@@@@EAEXI@Z 00438604 f i ResourceListParser.obj
 0001:00037718       ??0LineSetResource@U3D_IDTF@@QAE@XZ 00438718 f i ResourceListParser.obj
 0001:000379dc       ??1LineSetResource@U3D_IDTF@@UAE@XZ 004389dc f i ResourceListParser.obj
 0001:00037c64       ??0?$IFXArray@ULineTexCoords@U3D_IDTF@@@@QAE@I@Z 00438c64 f i ResourceListParser.obj
 0001:00037d70       ??1?$IFXArray@ULineTexCoords@U3D_IDTF@@@@UAE@XZ 00438d70 f i ResourceListParser.obj
 0001:00037f08       ?ResetElement@?$IFXArray@ULineTexCoords@U3D_IDTF@@@@UAEXAAULineTexCoords@U3D_IDTF@@@Z 00438f08 f i ResourceListParser.obj
 0001:00037f18       ?Construct@?$IFXArray@ULineTexCoords@U3D_IDTF@@@@EAEXI@Z 00438f18 f i ResourceListParser.obj
 0001:000380a0       ?Destruct@?$IFXArray@ULineTexCoords@U3D_IDTF@@@@EAEXI@Z 004390a0 f i ResourceListParser.obj
 0001:00038104       ?DestructAll@?$IFXArray@ULineTexCoords@U3D_IDTF@@@@EAEXXZ 00439104 f i ResourceListParser.obj
 0001:00038244       ?Preallocate@?$IFXArray@ULineTexCoords@U3D_IDTF@@@@EAEXI@Z 00439244 f i ResourceListParser.obj
 0001:00038408       ?Resize@?$IFXArray@ULineTexCoords@U3D_IDTF@@@@EAEXI@Z 00439408 f i ResourceListParser.obj
 0001:0003851c       ??0PointTexCoords@U3D_IDTF@@QAE@XZ 0043951c f i ResourceListParser.obj
 0001:000385cc       ??1PointTexCoords@U3D_IDTF@@QAE@XZ 004395cc f i ResourceListParser.obj
 0001:0003866c       ??0PointSetResource@U3D_IDTF@@QAE@XZ 0043966c f i ResourceListParser.obj
 0001:00038930       ??1PointSetResource@U3D_IDTF@@UAE@XZ 00439930 f i ResourceListParser.obj
 0001:00038bb8       ??0?$IFXArray@UPointTexCoords@U3D_IDTF@@@@QAE@I@Z 00439bb8 f i ResourceListParser.obj
 0001:00038cc4       ??1?$IFXArray@UPointTexCoords@U3D_IDTF@@@@UAE@XZ 00439cc4 f i ResourceListParser.obj
 0001:00038e5c       ?ResetElement@?$IFXArray@UPointTexCoords@U3D_IDTF@@@@UAEXAAUPointTexCoords@U3D_IDTF@@@Z 00439e5c f i ResourceListParser.obj
 0001:00038e6c       ?Construct@?$IFXArray@UPointTexCoords@U3D_IDTF@@@@EAEXI@Z 00439e6c f i ResourceListParser.obj
 0001:00038ff4       ?Destruct@?$IFXArray@UPointTexCoords@U3D_IDTF@@@@EAEXI@Z 00439ff4 f i ResourceListParser.obj
 0001:00039058       ?DestructAll@?$IFXArray@UPointTexCoords@U3D_IDTF@@@@EAEXXZ 0043a058 f i ResourceListParser.obj
 0001:00039198       ?Preallocate@?$IFXArray@UPointTexCoords@U3D_IDTF@@@@EAEXI@Z 0043a198 f i ResourceListParser.obj
 0001:0003935c       ?Resize@?$IFXArray@UPointTexCoords@U3D_IDTF@@@@EAEXI@Z 0043a35c f i ResourceListParser.obj
 0001:00039470       ??0TextureLayer@U3D_IDTF@@QAE@XZ 0043a470 f i ResourceListParser.obj
 0001:00039694       ??1TextureLayer@U3D_IDTF@@UAE@XZ 0043a694 f i ResourceListParser.obj
 0001:00039870       ??4TextureLayer@U3D_IDTF@@QAEAAV01@ABV01@@Z 0043a870 f i ResourceListParser.obj
 0001:00039944       ??0Shader@U3D_IDTF@@QAE@XZ 0043a944 f i ResourceListParser.obj
 0001:00039c44       ??1Shader@U3D_IDTF@@UAE@XZ 0043ac44 f i ResourceListParser.obj
 0001:00039ef4       ??4Shader@U3D_IDTF@@QAEAAV01@ABV01@@Z 0043aef4 f i ResourceListParser.obj
 0001:00039ff4       ??0?$IFXArray@VTextureLayer@U3D_IDTF@@@@QAE@I@Z 0043aff4 f i ResourceListParser.obj
 0001:0003a100       ??1?$IFXArray@VTextureLayer@U3D_IDTF@@@@UAE@XZ 0043b100 f i ResourceListParser.obj
 0001:0003a298       ?ResetElement@?$IFXArray@VTextureLayer@U3D_IDTF@@@@UAEXAAVTextureLayer@U3D_IDTF@@@Z 0043b298 f i ResourceListParser.obj
 0001:0003a2a8       ?GetElement@?$IFXArray@VTextureLayer@U3D_IDTF@@@@QAEAAVTextureLayer@U3D_IDTF@@I@Z 0043b2a8 f i ResourceListParser.obj
 0001:0003a314       ??4?$IFXArray@VTextureLayer@U3D_IDTF@@@@QAEXABV0@@Z 0043b314 f i ResourceListParser.obj
 0001:0003a360       ?Append@?$IFXArray@VTextureLayer@U3D_IDTF@@@@QAEXABV1@@Z 0043b360 f i ResourceListParser.obj
 0001:0003a434       ?Construct@?$IFXArray@VTextureLayer@U3D_IDTF@@@@EAEXI@Z 0043b434 f i ResourceListParser.obj
 0001:0003a5ac       ?Destruct@?$IFXArray@VTextureLayer@U3D_IDTF@@@@EAEXI@Z 0043b5ac f i ResourceListParser.obj
 0001:0003a620       ?DestructAll@?$IFXArray@VTextureLayer@U3D_IDTF@@@@EAEXXZ 0043b620 f i ResourceListParser.obj
 0001:0003a760       ?Preallocate@?$IFXArray@VTextureLayer@U3D_IDTF@@@@EAEXI@Z 0043b760 f i ResourceListParser.obj
 0001:0003a918       ?Resize@?$IFXArray@VTextureLayer@U3D_IDTF@@@@EAEXI@Z 0043b918 f i ResourceListParser.obj
 0001:0003aa2c       ?AddResource@ShaderResourceList@U3D_IDTF@@QAEXABVShader@2@@Z 0043ba2c f i ResourceListParser.obj
 0001:0003aa70       ?CreateNewElement@?$IFXArray@VShader@U3D_IDTF@@@@QAEAAVShader@U3D_IDTF@@XZ 0043ba70 f i ResourceListParser.obj
 0001:0003aabc       ?GetElement@?$IFXArray@VShader@U3D_IDTF@@@@QAEAAVShader@U3D_IDTF@@I@Z 0043babc f i ResourceListParser.obj
 0001:0003ab28       ??0Material@U3D_IDTF@@QAE@XZ 0043bb28 f i ResourceListParser.obj
 0001:0003af04       ??1Material@U3D_IDTF@@UAE@XZ 0043bf04 f i ResourceListParser.obj
 0001:0003b2a4       ??4Material@U3D_IDTF@@QAEAAV01@ABV01@@Z 0043c2a4 f i ResourceListParser.obj
 0001:0003b42c       ?AddResource@MaterialResourceList@U3D_IDTF@@QAEXABVMaterial@2@@Z 0043c42c f i ResourceListParser.obj
 0001:0003b470       ?CreateNewElement@?$IFXArray@VMaterial@U3D_IDTF@@@@QAEAAVMaterial@U3D_IDTF@@XZ 0043c470 f i ResourceListParser.obj
 0001:0003b4bc       ?GetElement@?$IFXArray@VMaterial@U3D_IDTF@@@@QAEAAVMaterial@U3D_IDTF@@I@Z 0043c4bc f i ResourceListParser.obj
 0001:0003b528       ??4UrlList@U3D_IDTF@@QAEAAV01@ABV01@@Z 0043c528 f i ResourceListParser.obj
 0001:0003b55c       ??0ImageFormat@U3D_IDTF@@QAE@XZ 0043c55c f i ResourceListParser.obj
 0001:0003b80c       ??1ImageFormat@U3D_IDTF@@UAE@XZ 0043c80c f i ResourceListParser.obj
 0001:0003ba78       ??4ImageFormat@U3D_IDTF@@QAEAAV01@ABV01@@Z 0043ca78 f i ResourceListParser.obj
 0001:0003bb54       ??0Texture@U3D_IDTF@@QAE@XZ 0043cb54 f i ResourceListParser.obj
 0001:0003bd14       ??1Texture@U3D_IDTF@@UAE@XZ 0043cd14 f i ResourceListParser.obj
 0001:0003be9c       ??4Texture@U3D_IDTF@@QAEAAV01@ABV01@@Z 0043ce9c f i ResourceListParser.obj
 0001:0003bf48       ??0?$IFXArray@VImageFormat@U3D_IDTF@@@@QAE@I@Z 0043cf48 f i ResourceListParser.obj
 0001:0003c054       ??1?$IFXArray@VImageFormat@U3D_IDTF@@@@UAE@XZ 0043d054 f i ResourceListParser.obj
 0001:0003c1ec       ?ResetElement@?$IFXArray@VImageFormat@U3D_IDTF@@@@UAEXAAVImageFormat@U3D_IDTF@@@Z 0043d1ec f i ResourceListParser.obj
 0001:0003c1fc       ?GetElement@?$IFXArray@VImageFormat@U3D_IDTF@@@@QAEAAVImageFormat@U3D_IDTF@@I@Z 0043d1fc f i ResourceListParser.obj
 0001:0003c268       ?GetElementConst@?$IFXArray@VImageFormat@U3D_IDTF@@@@QBEABVImageFormat@U3D_IDTF@@I@Z 0043d268 f i ResourceListParser.obj
 0001:0003c2d4       ??4?$IFXArray@VImageFormat@U3D_IDTF@@@@QAEXABV0@@Z 0043d2d4 f i ResourceListParser.obj
 0001:0003c320       ?Append@?$IFXArray@VImageFormat@U3D_IDTF@@@@QAEXABV1@@Z 0043d320 f i ResourceListParser.obj
 0001:0003c3f4       ?Construct@?$IFXArray@VImageFormat@U3D_IDTF@@@@EAEXI@Z 0043d3f4 f i ResourceListParser.obj
 0001:0003c56c       ?Destruct@?$IFXArray@VImageFormat@U3D_IDTF@@@@EAEXI@Z 0043d56c f i ResourceListParser.obj
 0001:0003c5e0       ?DestructAll@?$IFXArray@VImageFormat@U3D_IDTF@@@@EAEXXZ 0043d5e0 f i ResourceListParser.obj
 0001:0003c720       ?Preallocate@?$IFXArray@VImageFormat@U3D_IDTF@@@@EAEXI@Z 0043d720 f i ResourceListParser.obj
 0001:0003c8d8       ?Resize@?$IFXArray@VImageFormat@U3D_IDTF@@@@EAEXI@Z 0043d8d8 f i ResourceListParser.obj
 0001:0003c9ec       ?AddResource@TextureResourceList@U3D_IDTF@@QAEXABVTexture@2@@Z 0043d9ec f i ResourceListParser.obj
 0001:0003ca30       ?CreateNewElement@?$IFXArray@VTexture@U3D_IDTF@@@@QAEAAVTexture@U3D_IDTF@@XZ 0043da30 f i ResourceListParser.obj
 0001:0003ca7c       ?GetElement@?$IFXArray@VTexture@U3D_IDTF@@@@QAEAAVTexture@U3D_IDTF@@I@Z 0043da7c f i ResourceListParser.obj
 0001:0003cae8       ??0KeyFrame@U3D_IDTF@@QAE@XZ 0043dae8 f i ResourceListParser.obj
 0001:0003cc28       ??1KeyFrame@U3D_IDTF@@QAE@XZ 0043dc28 f i ResourceListParser.obj
 0001:0003cd64       ??4KeyFrame@U3D_IDTF@@QAEAAU01@ABU01@@Z 0043dd64 f i ResourceListParser.obj
 0001:0003cddc       ??0MotionTrack@U3D_IDTF@@QAE@XZ 0043dddc f i ResourceListParser.obj
 0001:0003ced4       ??1MotionTrack@U3D_IDTF@@QAE@XZ 0043ded4 f i ResourceListParser.obj
 0001:0003cfc0       ?AddKeyFrame@MotionTrack@U3D_IDTF@@QAEXABUKeyFrame@2@@Z 0043dfc0 f i ResourceListParser.obj
 0001:0003d004       ??4MotionTrack@U3D_IDTF@@QAEAAV01@ABV01@@Z 0043e004 f i ResourceListParser.obj
 0001:0003d04c       ??0?$IFXArray@UKeyFrame@U3D_IDTF@@@@QAE@I@Z 0043e04c f i ResourceListParser.obj
 0001:0003d158       ??1?$IFXArray@UKeyFrame@U3D_IDTF@@@@UAE@XZ 0043e158 f i ResourceListParser.obj
 0001:0003d2f0       ?ResetElement@?$IFXArray@UKeyFrame@U3D_IDTF@@@@UAEXAAUKeyFrame@U3D_IDTF@@@Z 0043e2f0 f i ResourceListParser.obj
 0001:0003d300       ?CreateNewElement@?$IFXArray@UKeyFrame@U3D_IDTF@@@@QAEAAUKeyFrame@U3D_IDTF@@XZ 0043e300 f i ResourceListParser.obj
 0001:0003d34c       ?GetElement@?$IFXArray@UKeyFrame@U3D_IDTF@@@@QAEAAUKeyFrame@U3D_IDTF@@I@Z 0043e34c f i ResourceListParser.obj
 0001:0003d3b8       ??4?$IFXArray@UKeyFrame@U3D_IDTF@@@@QAEXABV0@@Z 0043e3b8 f i ResourceListParser.obj
 0001:0003d404       ?Append@?$IFXArray@UKeyFrame@U3D_IDTF@@@@QAEXABV1@@Z 0043e404 f i ResourceListParser.obj
 0001:0003d4d8       ?Construct@?$IFXArray@UKeyFrame@U3D_IDTF@@@@EAEXI@Z 0043e4d8 f i ResourceListParser.obj
 0001:0003d660       ?Destruct@?$IFXArray@UKeyFrame@U3D_IDTF@@@@EAEXI@Z 0043e660 f i ResourceListParser.obj
 0001:0003d6c4       ?DestructAll@?$IFXArray@UKeyFrame@U3D_IDTF@@@@EAEXXZ 0043e6c4 f i ResourceListParser.obj
 0001:0003d804       ?Preallocate@?$IFXArray@UKeyFrame@U3D_IDTF@@@@EAEXI@Z 0043e804 f i ResourceListParser.obj
 0001:0003d9c8       ?Resize@?$IFXArray@UKeyFrame@U3D_IDTF@@@@EAEXI@Z 0043e9c8 f i ResourceListParser.obj
 0001:0003dadc       ??0MotionResource@U3D_IDTF@@QAE@XZ 0043eadc f i ResourceListParser.obj
 0001:0003dbe0       ??1MotionResource@U3D_IDTF@@UAE@XZ 0043ebe0 f i ResourceListParser.obj
 0001:0003dcd8       ?AddMotionTrack@MotionResource@U3D_IDTF@@QAEXABVMotionTrack@2@@Z 0043ecd8 f i ResourceListParser.obj
 0001:0003dd1c       ??4MotionResource@U3D_IDTF@@QAEAAV01@ABV01@@Z 0043ed1c f i ResourceListParser.obj
 0001:0003dd64       ??0?$IFXArray@VMotionTrack@U3D_IDTF@@@@QAE@I@Z 0043ed64 f i ResourceListParser.obj
 0001:0003de70       ??1?$IFXArray@VMotionTrack@U3D_IDTF@@@@UAE@XZ 0043ee70 f i ResourceListParser.obj
 0001:0003e008       ?ResetElement@?$IFXArray@VMotionTrack@U3D_IDTF@@@@UAEXAAVMotionTrack@U3D_IDTF@@@Z 0043f008 f i ResourceListParser.obj
 0001:0003e018       ?CreateNewElement@?$IFXArray@VMotionTrack@U3D_IDTF@@@@QAEAAVMotionTrack@U3D_IDTF@@XZ 0043f018 f i ResourceListParser.obj
 0001:0003e064       ?GetElement@?$IFXArray@VMotionTrack@U3D_IDTF@@@@QAEAAVMotionTrack@U3D_IDTF@@I@Z 0043f064 f i ResourceListParser.obj
 0001:0003e0d0       ??4?$IFXArray@VMotionTrack@U3D_IDTF@@@@QAEXABV0@@Z 0043f0d0 f i ResourceListParser.obj
 0001:0003e11c       ?Append@?$IFXArray@VMotionTrack@U3D_IDTF@@@@QAEXABV1@@Z 0043f11c f i ResourceListParser.obj
 0001:0003e1f0       ?Construct@?$IFXArray@VMotionTrack@U3D_IDTF@@@@EAEXI@Z 0043f1f0 f i ResourceListParser.obj
 0001:0003e36c       ?Destruct@?$IFXArray@VMotionTrack@U3D_IDTF@@@@EAEXI@Z 0043f36c f i ResourceListParser.obj
 0001:0003e3d0       ?DestructAll@?$IFXArray@VMotionTrack@U3D_IDTF@@@@EAEXXZ 0043f3d0 f i ResourceListParser.obj
 0001:0003e510       ?Preallocate@?$IFXArray@VMotionTrack@U3D_IDTF@@@@EAEXI@Z 0043f510 f i ResourceListParser.obj
 0001:0003e6d0       ?Resize@?$IFXArray@VMotionTrack@U3D_IDTF@@@@EAEXI@Z 0043f6d0 f i ResourceListParser.obj
 0001:0003e7e4       ?AddResource@MotionResourceList@U3D_IDTF@@QAEXABVMotionResource@2@@Z 0043f7e4 f i ResourceListParser.obj
 0001:0003e828       ?CreateNewElement@?$IFXArray@VMotionResource@U3D_IDTF@@@@QAEAAVMotionResource@U3D_IDTF@@XZ 0043f828 f i ResourceListParser.obj
 0001:0003e874       ?GetElement@?$IFXArray@VMotionResource@U3D_IDTF@@@@QAEAAVMotionResource@U3D_IDTF@@I@Z 0043f874 f i ResourceListParser.obj
 0001:0003e8e0       ??_EFaceTexCoords@U3D_IDTF@@QAEPAXI@Z 0043f8e0 f i ResourceListParser.obj
 0001:0003e974       ??_ELineTexCoords@U3D_IDTF@@QAEPAXI@Z 0043f974 f i ResourceListParser.obj
 0001:0003ea08       ??_EPointTexCoords@U3D_IDTF@@QAEPAXI@Z 0043fa08 f i ResourceListParser.obj
 0001:0003ea9c       ??_EKeyFrame@U3D_IDTF@@QAEPAXI@Z 0043fa9c f i ResourceListParser.obj
 0001:0003eb30       ??_EMotionTrack@U3D_IDTF@@QAEPAXI@Z 0043fb30 f i ResourceListParser.obj
 0001:0003ebc4       ??0ResourceListParser@U3D_IDTF@@QAE@PAVFileScanner@1@PAVResourceList@1@@Z 0043fbc4 f   ResourceListParser.obj
 0001:0003ed74       ??1ResourceListParser@U3D_IDTF@@UAE@XZ 0043fd74 f   ResourceListParser.obj
 0001:0003ee44       ?Parse@ResourceListParser@U3D_IDTF@@QAEHXZ 0043fe44 f   ResourceListParser.obj
 0001:0003efdc       ?ParseResourceList@ResourceListParser@U3D_IDTF@@IAEHP812@AEHXZ@Z 0043ffdc f   ResourceListParser.obj
 0001:0003f170       ?ParseLightResource@ResourceListParser@U3D_IDTF@@IAEHXZ 00440170 f   ResourceListParser.obj
 0001:0003f55c       ?ParseViewResource@ResourceListParser@U3D_IDTF@@IAEHXZ 0044055c f   ResourceListParser.obj
 0001:0003f946       ?ParseModelResource@ResourceListParser@U3D_IDTF@@IAEHXZ 00440946 f   ResourceListParser.obj
 0001:0003fae2       ?ParseMeshResource@ResourceListParser@U3D_IDTF@@IAEHXZ 00440ae2 f   ResourceListParser.obj
 0001:0003fcdc       ?ParsePointSetResource@ResourceListParser@U3D_IDTF@@IAEHXZ 00440cdc f   ResourceListParser.obj
 0001:0003fed6       ?ParseLineSetResource@ResourceListParser@U3D_IDTF@@IAEHXZ 00440ed6 f   ResourceListParser.obj
 0001:000400d0       ?ParseShaderResource@ResourceListParser@U3D_IDTF@@IAEHXZ 004410d0 f   ResourceListParser.obj
 0001:0004024e       ?ParseMaterialResource@ResourceListParser@U3D_IDTF@@IAEHXZ 0044124e f   ResourceListParser.obj
 0001:000403cc       ?ParseTextureResource@ResourceListParser@U3D_IDTF@@IAEHXZ 004413cc f   ResourceListParser.obj
 0001:0004054a       ?ParseMotionResource@ResourceListParser@U3D_IDTF@@IAEHXZ 0044154a f   ResourceListParser.obj
 0001:00041250       ??_ESceneConverter@U3D_IDTF@@UAEPAXI@Z 00442250 f i SceneConverter.obj
 0001:00041250       ??_GSceneConverter@U3D_IDTF@@UAEPAXI@Z 00442250 f i SceneConverter.obj
 0001:00041288       ??_GSceneData@U3D_IDTF@@UAEPAXI@Z 00442288 f i SceneConverter.obj
 0001:00041288       ??_ESceneData@U3D_IDTF@@UAEPAXI@Z 00442288 f i SceneConverter.obj
 0001:000412c0       ??0SceneData@U3D_IDTF@@QAE@XZ 004422c0 f i SceneConverter.obj
 0001:000413bc       ??1SceneData@U3D_IDTF@@UAE@XZ 004423bc f i SceneConverter.obj
 0001:000414b4       ??0SceneConverter@U3D_IDTF@@QAE@PAVFileParser@1@PAVSceneUtilities@1@PAUConverterOptions@1@@Z 004424b4 f   SceneConverter.obj
 0001:0004172a       ??1SceneConverter@U3D_IDTF@@UAE@XZ 0044272a f   SceneConverter.obj
 0001:00041836       ?Convert@SceneConverter@U3D_IDTF@@UAEHXZ 00442836 f   SceneConverter.obj
 0001:000418ac       ?CheckFileHeader@SceneConverter@U3D_IDTF@@IAEHXZ 004428ac f   SceneConverter.obj
 0001:00041a00       ?ConvertSceneData@SceneConverter@U3D_IDTF@@IAEHXZ 00442a00 f   SceneConverter.obj
 0001:00041bce       ?ConvertFileReference@SceneConverter@U3D_IDTF@@IAEHXZ 00442bce f   SceneConverter.obj
 0001:00041d52       ?ConvertScene@SceneConverter@U3D_IDTF@@IAEHXZ 00442d52 f   SceneConverter.obj
 0001:000422d4       ??_GShaderParser@U3D_IDTF@@UAEPAXI@Z 004432d4 f i ShaderParser.obj
 0001:000422d4       ??_EShaderParser@U3D_IDTF@@UAEPAXI@Z 004432d4 f i ShaderParser.obj
 0001:0004230c       ?AddTextureLayer@Shader@U3D_IDTF@@QAEXABVTextureLayer@2@@Z 0044330c f i ShaderParser.obj
 0001:00042350       ?CreateNewElement@?$IFXArray@VTextureLayer@U3D_IDTF@@@@QAEAAVTextureLayer@U3D_IDTF@@XZ 00443350 f i ShaderParser.obj
 0001:0004239c       ??0ShaderParser@U3D_IDTF@@QAE@PAVFileScanner@1@PAVShader@1@@Z 0044339c f   ShaderParser.obj
 0001:00042442       ??1ShaderParser@U3D_IDTF@@UAE@XZ 00443442 f   ShaderParser.obj
 0001:000424d8       ?Parse@ShaderParser@U3D_IDTF@@QAEHXZ 004434d8 f   ShaderParser.obj
 0001:00042c48       ??_F?$IFXArray@PAVIFXString@@@@QAEXXZ 00443c48 f i TextureConverter.obj
 0001:00042c6c       ??_GTextureConverter@U3D_IDTF@@UAEPAXI@Z 00443c6c f i TextureConverter.obj
 0001:00042c6c       ??_ETextureConverter@U3D_IDTF@@UAEPAXI@Z 00443c6c f i TextureConverter.obj
 0001:00042ca4       ??0STextureSourceInfo@@QAE@XZ 00443ca4 f i TextureConverter.obj
 0001:00042eb8       ??1STextureSourceInfo@@QAE@XZ 00443eb8 f i TextureConverter.obj
 0001:00043148       ??0?$IFXArray@PAVIFXString@@@@QAE@I@Z 00444148 f i TextureConverter.obj
 0001:00043254       ??1?$IFXArray@PAVIFXString@@@@UAE@XZ 00444254 f i TextureConverter.obj
 0001:000433ec       ?ResetElement@?$IFXArray@PAVIFXString@@@@UAEXAAPAVIFXString@@@Z 004443ec f i TextureConverter.obj
 0001:000433fc       ?CreateNewElement@?$IFXArray@PAVIFXString@@@@QAEAAPAVIFXString@@XZ 004443fc f i TextureConverter.obj
 0001:00043448       ?GetElement@?$IFXArray@PAVIFXString@@@@QAEAAPAVIFXString@@I@Z 00444448 f i TextureConverter.obj
 0001:000434b4       ??A?$IFXArray@PAVIFXString@@@@QAEAAPAVIFXString@@I@Z 004444b4 f i TextureConverter.obj
 0001:000434e4       ?Construct@?$IFXArray@PAVIFXString@@@@EAEXI@Z 004444e4 f i TextureConverter.obj
 0001:00043584       ?Destruct@?$IFXArray@PAVIFXString@@@@EAEXI@Z 00444584 f i TextureConverter.obj
 0001:000435d4       ?DestructAll@?$IFXArray@PAVIFXString@@@@EAEXXZ 004445d4 f i TextureConverter.obj
 0001:00043700       ?Preallocate@?$IFXArray@PAVIFXString@@@@EAEXI@Z 00444700 f i TextureConverter.obj
 0001:00043780       ?Resize@?$IFXArray@PAVIFXString@@@@EAEXI@Z 00444780 f i TextureConverter.obj
 0001:00043894       ?GetUrlCount@UrlList@U3D_IDTF@@QBEABIXZ 00444894 f i TextureConverter.obj
 0001:000438bc       ?GetUrlList@UrlList@U3D_IDTF@@QBEABV?$IFXArray@VIFXString@@@@XZ 004448bc f i TextureConverter.obj
 0001:000438d0       ?GetUrlList@ImageFormat@U3D_IDTF@@QBEABV?$IFXArray@VIFXString@@@@XZ 004448d0 f i TextureConverter.obj
 0001:000438f8       ?GetHeight@Texture@U3D_IDTF@@QBEABHXZ 004448f8 f i TextureConverter.obj
 0001:0004390c       ?GetWidth@Texture@U3D_IDTF@@QBEABHXZ 0044490c f i TextureConverter.obj
 0001:00043920       ?GetImageType@Texture@U3D_IDTF@@QBEABVIFXString@@XZ 00444920 f i TextureConverter.obj
 0001:00043934       ?GetImageFormat@Texture@U3D_IDTF@@QBEABVImageFormat@2@I@Z 00444934 f i TextureConverter.obj
 0001:00043968       ?GetImageFormatCount@Texture@U3D_IDTF@@QBEABIXZ 00444968 f i TextureConverter.obj
 0001:00043990       ?GetPath@Texture@U3D_IDTF@@QBEABVIFXString@@XZ 00444990 f i TextureConverter.obj
 0001:000439a4       ?IsExternal@Texture@U3D_IDTF@@QBEHXZ 004449a4 f i TextureConverter.obj
 0001:000439b8       ?GetData@TGAImage@U3D_IDTF@@QAEPAEXZ 004449b8 f i TextureConverter.obj
 0001:000439cc       ?GetWidth@TGAImage@U3D_IDTF@@QAEIXZ 004449cc f i TextureConverter.obj
 0001:000439e0       ?GetHeight@TGAImage@U3D_IDTF@@QAEIXZ 004449e0 f i TextureConverter.obj
 0001:000439f4       ?GetChannels@TGAImage@U3D_IDTF@@QAEIXZ 004449f4 f i TextureConverter.obj
 0001:00043a08       ??_G?$IFXArray@PAVIFXString@@@@UAEPAXI@Z 00444a08 f i TextureConverter.obj
 0001:00043a08       ??_E?$IFXArray@PAVIFXString@@@@UAEPAXI@Z 00444a08 f i TextureConverter.obj
 0001:00043a40       ??0TextureConverter@U3D_IDTF@@QAE@PBVTexture@1@PAVSceneUtilities@1@@Z 00444a40 f   TextureConverter.obj
 0001:00043b5a       ??1TextureConverter@U3D_IDTF@@UAE@XZ 00444b5a f   TextureConverter.obj
 0001:00043b7a       ?Convert@TextureConverter@U3D_IDTF@@UAEHXZ 00444b7a f   TextureConverter.obj
 0001:000444cc       ?SetQuality@TextureConverter@U3D_IDTF@@QAEXII@Z 004454cc f   TextureConverter.obj
 0001:000444ea       ?SetImageProperties@TextureConverter@U3D_IDTF@@AAEHPAVIFXTextureObject@@@Z 004454ea f   TextureConverter.obj
 0001:00044ff8       ??_GTextureParser@U3D_IDTF@@UAEPAXI@Z 00445ff8 f i TextureParser.obj
 0001:00044ff8       ??_ETextureParser@U3D_IDTF@@UAEPAXI@Z 00445ff8 f i TextureParser.obj
 0001:00045030       ?AddUrlList@ImageFormat@U3D_IDTF@@QAEXABVUrlList@2@@Z 00446030 f i TextureParser.obj
 0001:00045058       ?SetHeight@Texture@U3D_IDTF@@QAEXABH@Z 00446058 f i TextureParser.obj
 0001:00045078       ?SetWidth@Texture@U3D_IDTF@@QAEXABH@Z 00446078 f i TextureParser.obj
 0001:00045098       ?SetImageType@Texture@U3D_IDTF@@QAEXABVIFXString@@@Z 00446098 f i TextureParser.obj
 0001:000450c0       ?AddImageFormat@Texture@U3D_IDTF@@QAEXABVImageFormat@2@@Z 004460c0 f i TextureParser.obj
 0001:00045104       ?SetPath@Texture@U3D_IDTF@@QAEXABVIFXString@@@Z 00446104 f i TextureParser.obj
 0001:0004512c       ?SetExternal@Texture@U3D_IDTF@@QAEXH@Z 0044612c f i TextureParser.obj
 0001:00045148       ?CreateNewElement@?$IFXArray@VImageFormat@U3D_IDTF@@@@QAEAAVImageFormat@U3D_IDTF@@XZ 00446148 f i TextureParser.obj
 0001:00045194       ??0TextureParser@U3D_IDTF@@QAE@PAVFileScanner@1@PAVTexture@1@@Z 00446194 f   TextureParser.obj
 0001:0004530a       ??1TextureParser@U3D_IDTF@@UAE@XZ 0044630a f   TextureParser.obj
 0001:000453a0       ?Parse@TextureParser@U3D_IDTF@@QAEHXZ 004463a0 f   TextureParser.obj
 0001:00045930       ?ParseImageFormat@TextureParser@U3D_IDTF@@AAEHXZ 00446930 f   TextureParser.obj
 0001:00045cb8       ?ParseUrlList@TextureParser@U3D_IDTF@@AAEHXZ 00446cb8 f   TextureParser.obj
 0001:00045fe0       ??_EUrlListParser@U3D_IDTF@@UAEPAXI@Z 00446fe0 f i UrlListParser.obj
 0001:00045fe0       ??_GUrlListParser@U3D_IDTF@@UAEPAXI@Z 00446fe0 f i UrlListParser.obj
 0001:00046018       ?AddUrl@UrlList@U3D_IDTF@@QAEXABVIFXString@@@Z 00447018 f i UrlListParser.obj
 0001:0004605c       ??0UrlListParser@U3D_IDTF@@QAE@PAVFileScanner@1@PAVUrlList@1@@Z 0044705c f   UrlListParser.obj
 0001:000461d2       ??1UrlListParser@U3D_IDTF@@UAE@XZ 004471d2 f   UrlListParser.obj
 0001:00046268       ?Parse@UrlListParser@U3D_IDTF@@QAEHXZ 00447268 f   UrlListParser.obj
 0001:0004651c       ??_GIFXString@@UAEPAXI@Z   0044751c f i IFXCoreStatic:IFXString.obj
 0001:00046548       ?Concatenate@IFXString@@QAEHPBV1@@Z 00447548 f i IFXCoreStatic:IFXString.obj
 0001:00046588       ?Concatenate@IFXString@@QAEHPBE@Z 00447588 f i IFXCoreStatic:IFXString.obj
 0001:00046650       ?NewBuffer@IFXString@@AAEXI@Z 00447650 f i IFXCoreStatic:IFXString.obj
 0001:0004669c       ?DeleteBuffer@IFXString@@AAEXXZ 0044769c f i IFXCoreStatic:IFXString.obj
 0001:000466d0       ??0IFXString@@QAE@XZ       004476d0 f   IFXCoreStatic:IFXString.obj
 0001:000466f4       ??0IFXString@@QAE@ABV0@@Z  004476f4 f   IFXCoreStatic:IFXString.obj
 0001:00046760       ??0IFXString@@QAE@PBV0@@Z  00447760 f   IFXCoreStatic:IFXString.obj
 0001:000467de       ??0IFXString@@QAE@PBD@Z    004477de f   IFXCoreStatic:IFXString.obj
 0001:00046878       ??0IFXString@@QAE@PBE@Z    00447878 f   IFXCoreStatic:IFXString.obj
 0001:00046912       ??0IFXString@@QAE@PBG@Z    00447912 f   IFXCoreStatic:IFXString.obj
 0001:00046994       ??0IFXString@@QAE@I@Z      00447994 f   IFXCoreStatic:IFXString.obj
 0001:000469e0       ??1IFXString@@UAE@XZ       004479e0 f   IFXCoreStatic:IFXString.obj
 0001:000469fc       ?Clear@IFXString@@QAEHXZ   004479fc f   IFXCoreStatic:IFXString.obj
 0001:00046a12       ?Length@IFXString@@QBEIXZ  00447a12 f   IFXCoreStatic:IFXString.obj
 0001:00046a4a       ?LengthU8@IFXString@@QBEIXZ 00447a4a f   IFXCoreStatic:IFXString.obj
 0001:00046a7a       ?GetLengthU8@IFXString@@QAEHPAI@Z 00447a7a f   IFXCoreStatic:IFXString.obj
 0001:00046ad0       ?IsEmpty@IFXString@@QAEHXZ 00447ad0 f   IFXCoreStatic:IFXString.obj
 0001:00046b04       ?Assign@IFXString@@QAEHPBV1@@Z 00447b04 f   IFXCoreStatic:IFXString.obj
 0001:00046b7e       ?Assign@IFXString@@QAEHPBE@Z 00447b7e f   IFXCoreStatic:IFXString.obj
 0001:00046c24       ?Assign@IFXString@@QAEHPBG@Z 00447c24 f   IFXCoreStatic:IFXString.obj
 0001:00046c9e       ?Compare@IFXString@@QBEHPBG@Z 00447c9e f   IFXCoreStatic:IFXString.obj
 0001:00046d06       ?CompareNoCase@IFXString@@QBEHPBG@Z 00447d06 f   IFXCoreStatic:IFXString.obj
 0001:00046ea2       ?ForceUppercase@IFXString@@QAEXXZ 00447ea2 f   IFXCoreStatic:IFXString.obj
 0001:00046f14       ?ForceLowercase@IFXString@@QAEXXZ 00447f14 f   IFXCoreStatic:IFXString.obj
 0001:00046f86       ?ConvertToRawU8@IFXString@@QAEHPAEI@Z 00447f86 f   IFXCoreStatic:IFXString.obj
 0001:00047008       ?Substring@IFXString@@QBEHPAV1@II@Z 00448008 f   IFXCoreStatic:IFXString.obj
 0001:0004709e       ?Substring@IFXString@@QBEHPAGIII@Z 0044809e f   IFXCoreStatic:IFXString.obj
 0001:00047122       ?FindSubstring@IFXString@@QBEHPBGPAI@Z 00448122 f   IFXCoreStatic:IFXString.obj
 0001:0004726a       ?SetAt@IFXString@@QAEHIPAG@Z 0044826a f   IFXCoreStatic:IFXString.obj
 0001:000472ce       ?GetAt@IFXString@@QAEHIPAG@Z 004482ce f   IFXCoreStatic:IFXString.obj
 0001:00047332       ?IsDigit@IFXString@@QAEHI@Z 00448332 f   IFXCoreStatic:IFXString.obj
 0001:00047396       ?ToString@IFXString@@QAEHID@Z 00448396 f   IFXCoreStatic:IFXString.obj
 0001:000474b2       ?ToValue@IFXString@@QAEHPAID@Z 004484b2 f   IFXCoreStatic:IFXString.obj
 0001:00047528       ?Concatenate@IFXString@@QAEHPBG@Z 00448528 f   IFXCoreStatic:IFXString.obj
 0001:00047680       ??HIFXString@@QBE?AV0@ABV0@@Z 00448680 f   IFXCoreStatic:IFXString.obj
 0001:0004771e       ??HIFXString@@QBE?AV0@PBE@Z 0044871e f   IFXCoreStatic:IFXString.obj
 0001:000477ba       ??HIFXString@@QBE?AV0@PBG@Z 004487ba f   IFXCoreStatic:IFXString.obj
 0001:00047856       ?VSPrintf@IFXString@@QAEAAV1@PBGPAD@Z 00448856 f   IFXCoreStatic:IFXString.obj
 0001:00047928       ?Match@IFXString@@QAEIPBGI@Z 00448928 f   IFXCoreStatic:IFXString.obj
 0001:000479ac       @IFXGetSystemDefaultLangID@0 004489ac f   IFXCoreStatic:IFXOSUtilities.obj
 0001:000479c0       @IFXOSCheckCPUFeature@4    004489c0 f   IFXCoreStatic:IFXOSUtilities.obj
 0001:00047a34       @IFXOSInitialize@0         00448a34 f   IFXCoreStatic:IFXOSUtilities.obj
 0001:00047ac2       @IFXOSUninitialize@0       00448ac2 f   IFXCoreStatic:IFXOSUtilities.obj
 0001:00047aea       @IFXOSGetTime@0            00448aea f   IFXCoreStatic:IFXOSUtilities.obj
 0001:00047b7e       @IFXOSSleep@4              00448b7e f   IFXCoreStatic:IFXOSUtilities.obj
 0001:00047baa       @IFXOSControlFP@8          00448baa f   IFXCoreStatic:IFXOSUtilities.obj
 0001:00047bd6       @IFXOSGetDebugLevel@0      00448bd6 f   IFXCoreStatic:IFXOSUtilities.obj
 0001:00047c80       @IFXOSOutputDebugString@4  00448c80 f   IFXCoreStatic:IFXOSUtilities.obj
 0001:00047c98       @IFXOSGetUtf8StrSize@8     00448c98 f   IFXCoreStatic:IFXOSUtilities.obj
 0001:00047d2e       @IFXOSGetWideCharStrSize@8 00448d2e f   IFXCoreStatic:IFXOSUtilities.obj
 0001:00047dbc       @IFXOSConvertWideCharStrToUtf8@12 00448dbc f   IFXCoreStatic:IFXOSUtilities.obj
 0001:00047e54       @IFXOSConvertUtf8StrToWideChar@12 00448e54 f   IFXCoreStatic:IFXOSUtilities.obj
 0001:00047ee6       @IFXOSDebugOutput@16       00448ee6 f   IFXCoreStatic:IFXOSUtilities.obj
 0001:00047fc2       @IFXSetDefaultLocale@0     00448fc2 f   IFXCoreStatic:IFXOSUtilities.obj
 0001:00048008       ?IFXAssert@@YAHHPADI00H@Z  00449008 f   IFXCoreStatic:IFXDebug.obj
 0001:0004823e       @IFXDebugAssertBox@24      0044923e f   IFXCoreStatic:IFXDebug.obj
 0001:000482c6       @IFXDebugStartUp@0         004492c6 f   IFXCoreStatic:IFXDebug.obj
 0001:000482dc       @IFXDebugShutDown@0        004492dc f   IFXCoreStatic:IFXDebug.obj
 0001:000482ec       _IFXDebugTraceCustom       004492ec f   IFXCoreStatic:IFXDebug.obj
 0001:000483de       _IFXDebugTraceGeneric      004493de f   IFXCoreStatic:IFXDebug.obj
 0001:000484ce       ?_GetStringFromIFXRESULT@@YAPBDH@Z 004494ce f   IFXCoreStatic:IFXDebug.obj
 0001:000486a0       ?_GetStringFromIFXRESULT_Component@@YAPBGI@Z 004496a0 f   IFXCoreStatic:IFXDebug.obj
 0001:0004878c       ??0IFXCoreLib@@QAE@XZ      0044978c f i IFXCoreStatic:IFXCoreStatic.obj
 0001:000487a4       ??1IFXCoreLib@@QAE@XZ      004497a4 f i IFXCoreStatic:IFXCoreStatic.obj
 0001:000487b8       ?Load@IFXCoreLib@@QAEHXZ   004497b8 f i IFXCoreStatic:IFXCoreStatic.obj
 0001:00048800       ?Unload@IFXCoreLib@@QAEHXZ 00449800 f i IFXCoreStatic:IFXCoreStatic.obj
 0001:00048848       ?GetFuncPtr@IFXCoreLib@@QBEP6AHXZPBD@Z 00449848 f i IFXCoreStatic:IFXCoreStatic.obj
 0001:0004886c       @IFXCOMInitialize@0        0044986c f   IFXCoreStatic:IFXCoreStatic.obj
 0001:00048b54       @IFXCOMUninitialize@0      00449b54 f   IFXCoreStatic:IFXCoreStatic.obj
 0001:00048bd2       @IFXCreateComponent@12     00449bd2 f   IFXCoreStatic:IFXCoreStatic.obj
 0001:00048c62       @IFXRegisterComponent@4    00449c62 f   IFXCoreStatic:IFXCoreStatic.obj
 0001:00048cd8       @IFXAllocate@4             00449cd8 f   IFXCoreStatic:IFXCoreStatic.obj
 0001:00048d48       @IFXDeallocate@4           00449d48 f   IFXCoreStatic:IFXCoreStatic.obj
 0001:00048da2       @IFXReallocate@8           00449da2 f   IFXCoreStatic:IFXCoreStatic.obj
 0001:00048e20       @IFXGetMemoryFunctions@12  00449e20 f   IFXCoreStatic:IFXCoreStatic.obj
 0001:00048eb0       @IFXSetMemoryFunctions@12  00449eb0 f   IFXCoreStatic:IFXCoreStatic.obj
 0001:00048f74       @IFXLoadLibrary@4          00449f74 f   IFXCoreStatic:IFXOSLoader.obj
 0001:00048f9a       @IFXLoadCoreLibrary@0      00449f9a f   IFXCoreStatic:IFXOSLoader.obj
 0001:00048fb2       @IFXLoadOpenGLLibrary@0    00449fb2 f   IFXCoreStatic:IFXOSLoader.obj
 0001:00048fca       @IFXOSGetCoreLibraryPath@4 00449fca f   IFXCoreStatic:IFXOSLoader.obj
 0001:00049188       @IFXGetAddress@8           0044a188 f   IFXCoreStatic:IFXOSLoader.obj
 0001:000491b4       @IFXReleaseLibrary@4       0044a1b4 f   IFXCoreStatic:IFXOSLoader.obj
 0001:000491e8       @IFXOSFileOpen@8           0044a1e8 f   IFXCoreStatic:IFXOSLoader.obj
 0001:00049224       ??0IFXCoreArray@@QAE@I@Z   0044a224 f   IFXCoreStatic:IFXCoreArray.obj
 0001:00049262       ?Clear@IFXCoreArray@@UAEXI@Z 0044a262 f   IFXCoreStatic:IFXCoreArray.obj
 0001:000492ce       ?ResizeToExactly@IFXCoreArray@@QAEXI@Z 0044a2ce f   IFXCoreStatic:IFXCoreArray.obj
 0001:00049382       ?ResizeToAtLeast@IFXCoreArray@@QAEXI@Z 0044a382 f   IFXCoreStatic:IFXCoreArray.obj
 0001:0004940c       ??0IFXVertexMap@@QAE@XZ    0044a40c f   IFXCoreStatic:IFXVertexMap.obj
 0001:00049432       ??1IFXVertexMap@@QAE@XZ    0044a432 f   IFXCoreStatic:IFXVertexMap.obj
 0001:00049510       ?GetNumMapEntries@IFXVertexMap@@QAEIXZ 0044a510 f   IFXCoreStatic:IFXVertexMap.obj
 0001:0004951e       ?Concatenate@IFXVertexMap@@QAEHPAII@Z 0044a51e f   IFXCoreStatic:IFXVertexMap.obj
 0001:00049932       ?ConcatenateVertexMap@IFXVertexMap@@QAEHPAV1@PAPAV1@@Z 0044a932 f   IFXCoreStatic:IFXVertexMap.obj
 0001:00049dca       ?AllocateMap@IFXVertexMap@@QAEHI@Z 0044adca f   IFXCoreStatic:IFXVertexMap.obj
 0001:00049fdc       ?AddVertex@IFXVertexMap@@QAEHIII@Z 0044afdc f   IFXCoreStatic:IFXVertexMap.obj
 0001:0004a1ec       ?_wc_specialchar@@YAHH@Z   0044b1ec f   IFXCoreStatic:wcmatch.obj
 0001:0004a212       ?_wc_ci_strchr@@YAPBGPBGGH@Z 0044b212 f   IFXCoreStatic:wcmatch.obj
 0001:0004a2ae       _WCPossible                0044b2ae f   IFXCoreStatic:wcmatch.obj
 0001:0004a330       ?_equal_chars@@YAHHHH@Z    0044b330 f   IFXCoreStatic:wcmatch.obj
 0001:0004a398       ?_wc_match@@YAPBGPBG0H@Z   0044b398 f   IFXCoreStatic:wcmatch.obj
 0001:0004a5e2       _WCMatchPos                0044b5e2 f   IFXCoreStatic:wcmatch.obj
 0001:0004a69e       _WCMatch                   0044b69e f   IFXCoreStatic:wcmatch.obj
 0001:0004a6dc       ??_GStringMetaData@U3D_IDTF@@UAEPAXI@Z 0044b6dc f i IDTFCommon:MetaDataList.obj
 0001:0004a6dc       ??_EStringMetaData@U3D_IDTF@@UAEPAXI@Z 0044b6dc f i IDTFCommon:MetaDataList.obj
 0001:0004a708       ??_EMetaData@U3D_IDTF@@UAEPAXI@Z 0044b708 f i IDTFCommon:MetaDataList.obj
 0001:0004a77c       ??_GMetaDataList@U3D_IDTF@@UAEPAXI@Z 0044b77c f i IDTFCommon:MetaDataList.obj
 0001:0004a77c       ??_EMetaDataList@U3D_IDTF@@UAEPAXI@Z 0044b77c f i IDTFCommon:MetaDataList.obj
 0001:0004a7a8       ??_G?$IFXArray@VMetaData@U3D_IDTF@@@@UAEPAXI@Z 0044b7a8 f i IDTFCommon:MetaDataList.obj
 0001:0004a7a8       ??_E?$IFXArray@VMetaData@U3D_IDTF@@@@UAEPAXI@Z 0044b7a8 f i IDTFCommon:MetaDataList.obj
 0001:0004a7d4       ??0?$IFXArray@VMetaData@U3D_IDTF@@@@QAE@I@Z 0044b7d4 f i IDTFCommon:MetaDataList.obj
 0001:0004a8a8       ??1?$IFXArray@VMetaData@U3D_IDTF@@@@UAE@XZ 0044b8a8 f i IDTFCommon:MetaDataList.obj
 0001:0004a9ec       ?ResetElement@?$IFXArray@VMetaData@U3D_IDTF@@@@UAEXAAVMetaData@U3D_IDTF@@@Z 0044b9ec f i IDTFCommon:MetaDataList.obj
 0001:0004a9f8       ?CreateNewElement@?$IFXArray@VMetaData@U3D_IDTF@@@@QAEAAVMetaData@U3D_IDTF@@XZ 0044b9f8 f i IDTFCommon:MetaDataList.obj
 0001:0004aa34       ?Construct@?$IFXArray@VMetaData@U3D_IDTF@@@@EAEXI@Z 0044ba34 f i IDTFCommon:MetaDataList.obj
 0001:0004ab64       ?Destruct@?$IFXArray@VMetaData@U3D_IDTF@@@@EAEXI@Z 0044bb64 f i IDTFCommon:MetaDataList.obj
 0001:0004abc0       ?DestructAll@?$IFXArray@VMetaData@U3D_IDTF@@@@EAEXXZ 0044bbc0 f i IDTFCommon:MetaDataList.obj
 0001:0004acc0       ?Preallocate@?$IFXArray@VMetaData@U3D_IDTF@@@@EAEXI@Z 0044bcc0 f i IDTFCommon:MetaDataList.obj
 0001:0004ae24       ?Resize@?$IFXArray@VMetaData@U3D_IDTF@@@@EAEXI@Z 0044be24 f i IDTFCommon:MetaDataList.obj
 0001:0004af00       ??0BinaryMetaData@U3D_IDTF@@QAE@XZ 0044bf00 f   IDTFCommon:MetaDataList.obj
 0001:0004af1a       ??1BinaryMetaData@U3D_IDTF@@QAE@XZ 0044bf1a f   IDTFCommon:MetaDataList.obj
 0001:0004af32       ??0BinaryMetaData@U3D_IDTF@@QAE@AAV01@@Z 0044bf32 f   IDTFCommon:MetaDataList.obj
 0001:0004af82       ?GetBinaryValue@BinaryMetaData@U3D_IDTF@@QBEPBEXZ 0044bf82 f   IDTFCommon:MetaDataList.obj
 0001:0004af90       ?SetBinaryValue@BinaryMetaData@U3D_IDTF@@QAEHPBEI@Z 0044bf90 f   IDTFCommon:MetaDataList.obj
 0001:0004b032       ?GetBinarySize@BinaryMetaData@U3D_IDTF@@QBEABIXZ 0044c032 f   IDTFCommon:MetaDataList.obj
 0001:0004b042       ??4BinaryMetaData@U3D_IDTF@@QAEAAV01@ABV01@@Z 0044c042 f   IDTFCommon:MetaDataList.obj
 0001:0004b08e       ??0StringMetaData@U3D_IDTF@@QAE@XZ 0044c08e f   IDTFCommon:MetaDataList.obj
 0001:0004b11e       ??1StringMetaData@U3D_IDTF@@UAE@XZ 0044c11e f   IDTFCommon:MetaDataList.obj
 0001:0004b1ac       ?GetStringValue@StringMetaData@U3D_IDTF@@QBEABVIFXString@@XZ 0044c1ac f   IDTFCommon:MetaDataList.obj
 0001:0004b1bc       ?SetStringValue@StringMetaData@U3D_IDTF@@QAEXABVIFXString@@@Z 0044c1bc f   IDTFCommon:MetaDataList.obj
 0001:0004b1dc       ??0MetaData@U3D_IDTF@@QAE@XZ 0044c1dc f   IDTFCommon:MetaDataList.obj
 0001:0004b318       ??1MetaData@U3D_IDTF@@UAE@XZ 0044c318 f   IDTFCommon:MetaDataList.obj
 0001:0004b450       ?SetKey@MetaData@U3D_IDTF@@QAEXABVIFXString@@@Z 0044c450 f   IDTFCommon:MetaDataList.obj
 0001:0004b470       ?GetKey@MetaData@U3D_IDTF@@QBEABVIFXString@@XZ 0044c470 f   IDTFCommon:MetaDataList.obj
 0001:0004b480       ?SetAttribute@MetaData@U3D_IDTF@@QAEXABVIFXString@@@Z 0044c480 f   IDTFCommon:MetaDataList.obj
 0001:0004b4a0       ?GetAttribute@MetaData@U3D_IDTF@@QBEABVIFXString@@XZ 0044c4a0 f   IDTFCommon:MetaDataList.obj
 0001:0004b4b0       ??0MetaDataList@U3D_IDTF@@QAE@XZ 0044c4b0 f   IDTFCommon:MetaDataList.obj
 0001:0004b548       ??1MetaDataList@U3D_IDTF@@UAE@XZ 0044c548 f   IDTFCommon:MetaDataList.obj
 0001:0004b5d6       ?SetMetaData@MetaDataList@U3D_IDTF@@QAEHPBVMetaData@2@@Z 0044c5d6 f   IDTFCommon:MetaDataList.obj
 0001:0004b614       ?GetMetaData@MetaDataList@U3D_IDTF@@QBEABVMetaData@2@I@Z 0044c614 f   IDTFCommon:MetaDataList.obj
 0001:0004b63c       ?GetMetaDataCount@MetaDataList@U3D_IDTF@@QBEABIXZ 0044c63c f   IDTFCommon:MetaDataList.obj
 0001:0004b65c       ??_GParentList@U3D_IDTF@@UAEPAXI@Z 0044c65c f i IDTFCommon:ParentList.obj
 0001:0004b65c       ??_EParentList@U3D_IDTF@@UAEPAXI@Z 0044c65c f i IDTFCommon:ParentList.obj
 0001:0004b688       ??_E?$IFXArray@VParentData@U3D_IDTF@@@@UAEPAXI@Z 0044c688 f i IDTFCommon:ParentList.obj
 0001:0004b688       ??_G?$IFXArray@VParentData@U3D_IDTF@@@@UAEPAXI@Z 0044c688 f i IDTFCommon:ParentList.obj
 0001:0004b6b4       ??0?$IFXArray@VParentData@U3D_IDTF@@@@QAE@I@Z 0044c6b4 f i IDTFCommon:ParentList.obj
 0001:0004b788       ??1?$IFXArray@VParentData@U3D_IDTF@@@@UAE@XZ 0044c788 f i IDTFCommon:ParentList.obj
 0001:0004b8cc       ?ResetElement@?$IFXArray@VParentData@U3D_IDTF@@@@UAEXAAVParentData@U3D_IDTF@@@Z 0044c8cc f i IDTFCommon:ParentList.obj
 0001:0004b8d8       ?CreateNewElement@?$IFXArray@VParentData@U3D_IDTF@@@@QAEAAVParentData@U3D_IDTF@@XZ 0044c8d8 f i IDTFCommon:ParentList.obj
 0001:0004b914       ?Construct@?$IFXArray@VParentData@U3D_IDTF@@@@EAEXI@Z 0044c914 f i IDTFCommon:ParentList.obj
 0001:0004ba44       ?Destruct@?$IFXArray@VParentData@U3D_IDTF@@@@EAEXI@Z 0044ca44 f i IDTFCommon:ParentList.obj
 0001:0004baa0       ?DestructAll@?$IFXArray@VParentData@U3D_IDTF@@@@EAEXXZ 0044caa0 f i IDTFCommon:ParentList.obj
 0001:0004bba0       ?Preallocate@?$IFXArray@VParentData@U3D_IDTF@@@@EAEXI@Z 0044cba0 f i IDTFCommon:ParentList.obj
 0001:0004bd04       ?Resize@?$IFXArray@VParentData@U3D_IDTF@@@@EAEXI@Z 0044cd04 f i IDTFCommon:ParentList.obj
 0001:0004bde0       ??_EParentData@U3D_IDTF@@UAEPAXI@Z 0044cde0 f i IDTFCommon:ParentList.obj
 0001:0004be54       ??0ParentList@U3D_IDTF@@QAE@XZ 0044ce54 f   IDTFCommon:ParentList.obj
 0001:0004beec       ??1ParentList@U3D_IDTF@@UAE@XZ 0044ceec f   IDTFCommon:ParentList.obj
 0001:0004bf7a       ?AddParentData@ParentList@U3D_IDTF@@QAEXABVParentData@2@@Z 0044cf7a f   IDTFCommon:ParentList.obj
 0001:0004bfe6       ?GetParentData@ParentList@U3D_IDTF@@QBEABVParentData@2@I@Z 0044cfe6 f   IDTFCommon:ParentList.obj
 0001:0004c00e       ?GetParentCount@ParentList@U3D_IDTF@@QBEIXZ 0044d00e f   IDTFCommon:ParentList.obj
 0001:0004c030       ??_ENode@U3D_IDTF@@UAEPAXI@Z 0044d030 f i IDTFCommon:NodeList.obj
 0001:0004c0a4       ??_ELightNode@U3D_IDTF@@UAEPAXI@Z 0044d0a4 f i IDTFCommon:NodeList.obj
 0001:0004c118       ??_EViewNode@U3D_IDTF@@UAEPAXI@Z 0044d118 f i IDTFCommon:NodeList.obj
 0001:0004c18c       ??_EModelNode@U3D_IDTF@@UAEPAXI@Z 0044d18c f i IDTFCommon:NodeList.obj
 0001:0004c200       ??_ENodeList@U3D_IDTF@@UAEPAXI@Z 0044d200 f i IDTFCommon:NodeList.obj
 0001:0004c200       ??_GNodeList@U3D_IDTF@@UAEPAXI@Z 0044d200 f i IDTFCommon:NodeList.obj
 0001:0004c22c       ??_E?$IFXArray@PAVNode@U3D_IDTF@@@@UAEPAXI@Z 0044d22c f i IDTFCommon:NodeList.obj
 0001:0004c22c       ??_G?$IFXArray@PAVNode@U3D_IDTF@@@@UAEPAXI@Z 0044d22c f i IDTFCommon:NodeList.obj
 0001:0004c258       ??_G?$IFXArray@VLightNode@U3D_IDTF@@@@UAEPAXI@Z 0044d258 f i IDTFCommon:NodeList.obj
 0001:0004c258       ??_E?$IFXArray@VLightNode@U3D_IDTF@@@@UAEPAXI@Z 0044d258 f i IDTFCommon:NodeList.obj
 0001:0004c284       ??_E?$IFXArray@VViewNode@U3D_IDTF@@@@UAEPAXI@Z 0044d284 f i IDTFCommon:NodeList.obj
 0001:0004c284       ??_G?$IFXArray@VViewNode@U3D_IDTF@@@@UAEPAXI@Z 0044d284 f i IDTFCommon:NodeList.obj
 0001:0004c2b0       ??_G?$IFXArray@VModelNode@U3D_IDTF@@@@UAEPAXI@Z 0044d2b0 f i IDTFCommon:NodeList.obj
 0001:0004c2b0       ??_E?$IFXArray@VModelNode@U3D_IDTF@@@@UAEPAXI@Z 0044d2b0 f i IDTFCommon:NodeList.obj
 0001:0004c2dc       ??_G?$IFXArray@VNode@U3D_IDTF@@@@UAEPAXI@Z 0044d2dc f i IDTFCommon:NodeList.obj
 0001:0004c2dc       ??_E?$IFXArray@VNode@U3D_IDTF@@@@UAEPAXI@Z 0044d2dc f i IDTFCommon:NodeList.obj
 0001:0004c308       ??4Node@U3D_IDTF@@QAEAAV01@ABV01@@Z 0044d308 f i IDTFCommon:NodeList.obj
 0001:0004c384       ??4LightNode@U3D_IDTF@@QAEAAV01@ABV01@@Z 0044d384 f i IDTFCommon:NodeList.obj
 0001:0004c3a4       ??4ViewNode@U3D_IDTF@@QAEAAV01@ABV01@@Z 0044d3a4 f i IDTFCommon:NodeList.obj
 0001:0004c3dc       ??4ModelNode@U3D_IDTF@@QAEAAV01@ABV01@@Z 0044d3dc f i IDTFCommon:NodeList.obj
 0001:0004c414       ??0?$IFXArray@PAVNode@U3D_IDTF@@@@QAE@I@Z 0044d414 f i IDTFCommon:NodeList.obj
 0001:0004c4e8       ??1?$IFXArray@PAVNode@U3D_IDTF@@@@UAE@XZ 0044d4e8 f i IDTFCommon:NodeList.obj
 0001:0004c62c       ?ResetElement@?$IFXArray@PAVNode@U3D_IDTF@@@@UAEXAAPAVNode@U3D_IDTF@@@Z 0044d62c f i IDTFCommon:NodeList.obj
 0001:0004c638       ?CreateNewElement@?$IFXArray@PAVNode@U3D_IDTF@@@@QAEAAPAVNode@U3D_IDTF@@XZ 0044d638 f i IDTFCommon:NodeList.obj
 0001:0004c674       ?GetElement@?$IFXArray@PAVNode@U3D_IDTF@@@@QAEAAPAVNode@U3D_IDTF@@I@Z 0044d674 f i IDTFCommon:NodeList.obj
 0001:0004c6c8       ?GetElementConst@?$IFXArray@PAVNode@U3D_IDTF@@@@QBEABQAVNode@U3D_IDTF@@I@Z 0044d6c8 f i IDTFCommon:NodeList.obj
 0001:0004c71c       ?Construct@?$IFXArray@PAVNode@U3D_IDTF@@@@EAEXI@Z 0044d71c f i IDTFCommon:NodeList.obj
 0001:0004c79c       ?Destruct@?$IFXArray@PAVNode@U3D_IDTF@@@@EAEXI@Z 0044d79c f i IDTFCommon:NodeList.obj
 0001:0004c7dc       ?DestructAll@?$IFXArray@PAVNode@U3D_IDTF@@@@EAEXXZ 0044d7dc f i IDTFCommon:NodeList.obj
 0001:0004c8cc       ?Preallocate@?$IFXArray@PAVNode@U3D_IDTF@@@@EAEXI@Z 0044d8cc f i IDTFCommon:NodeList.obj
 0001:0004c930       ?Resize@?$IFXArray@PAVNode@U3D_IDTF@@@@EAEXI@Z 0044d930 f i IDTFCommon:NodeList.obj
 0001:0004ca0c       ??0?$IFXArray@VLightNode@U3D_IDTF@@@@QAE@I@Z 0044da0c f i IDTFCommon:NodeList.obj
 0001:0004cae0       ??1?$IFXArray@VLightNode@U3D_IDTF@@@@UAE@XZ 0044dae0 f i IDTFCommon:NodeList.obj
 0001:0004cc24       ?ResetElement@?$IFXArray@VLightNode@U3D_IDTF@@@@UAEXAAVLightNode@U3D_IDTF@@@Z 0044dc24 f i IDTFCommon:NodeList.obj
 0001:0004cc30       ?CreateNewElement@?$IFXArray@VLightNode@U3D_IDTF@@@@QAEAAVLightNode@U3D_IDTF@@XZ 0044dc30 f i IDTFCommon:NodeList.obj
 0001:0004cc6c       ?GetElement@?$IFXArray@VLightNode@U3D_IDTF@@@@QAEAAVLightNode@U3D_IDTF@@I@Z 0044dc6c f i IDTFCommon:NodeList.obj
 0001:0004ccc0       ?Construct@?$IFXArray@VLightNode@U3D_IDTF@@@@EAEXI@Z 0044dcc0 f i IDTFCommon:NodeList.obj
 0001:0004cdec       ?Destruct@?$IFXArray@VLightNode@U3D_IDTF@@@@EAEXI@Z 0044ddec f i IDTFCommon:NodeList.obj
 0001:0004ce48       ?DestructAll@?$IFXArray@VLightNode@U3D_IDTF@@@@EAEXXZ 0044de48 f i IDTFCommon:NodeList.obj
 0001:0004cf48       ?Preallocate@?$IFXArray@VLightNode@U3D_IDTF@@@@EAEXI@Z 0044df48 f i IDTFCommon:NodeList.obj
 0001:0004d0a8       ?Resize@?$IFXArray@VLightNode@U3D_IDTF@@@@EAEXI@Z 0044e0a8 f i IDTFCommon:NodeList.obj
 0001:0004d184       ??0?$IFXArray@VViewNode@U3D_IDTF@@@@QAE@I@Z 0044e184 f i IDTFCommon:NodeList.obj
 0001:0004d258       ??1?$IFXArray@VViewNode@U3D_IDTF@@@@UAE@XZ 0044e258 f i IDTFCommon:NodeList.obj
 0001:0004d39c       ?ResetElement@?$IFXArray@VViewNode@U3D_IDTF@@@@UAEXAAVViewNode@U3D_IDTF@@@Z 0044e39c f i IDTFCommon:NodeList.obj
 0001:0004d3a8       ?CreateNewElement@?$IFXArray@VViewNode@U3D_IDTF@@@@QAEAAVViewNode@U3D_IDTF@@XZ 0044e3a8 f i IDTFCommon:NodeList.obj
 0001:0004d3e4       ?GetElement@?$IFXArray@VViewNode@U3D_IDTF@@@@QAEAAVViewNode@U3D_IDTF@@I@Z 0044e3e4 f i IDTFCommon:NodeList.obj
 0001:0004d438       ?Construct@?$IFXArray@VViewNode@U3D_IDTF@@@@EAEXI@Z 0044e438 f i IDTFCommon:NodeList.obj
 0001:0004d568       ?Destruct@?$IFXArray@VViewNode@U3D_IDTF@@@@EAEXI@Z 0044e568 f i IDTFCommon:NodeList.obj
 0001:0004d5c4       ?DestructAll@?$IFXArray@VViewNode@U3D_IDTF@@@@EAEXXZ 0044e5c4 f i IDTFCommon:NodeList.obj
 0001:0004d6c4       ?Preallocate@?$IFXArray@VViewNode@U3D_IDTF@@@@EAEXI@Z 0044e6c4 f i IDTFCommon:NodeList.obj
 0001:0004d828       ?Resize@?$IFXArray@VViewNode@U3D_IDTF@@@@EAEXI@Z 0044e828 f i IDTFCommon:NodeList.obj
 0001:0004d904       ??0?$IFXArray@VModelNode@U3D_IDTF@@@@QAE@I@Z 0044e904 f i IDTFCommon:NodeList.obj
 0001:0004d9d8       ??1?$IFXArray@VModelNode@U3D_IDTF@@@@UAE@XZ 0044e9d8 f i IDTFCommon:NodeList.obj
 0001:0004db1c       ?ResetElement@?$IFXArray@VModelNode@U3D_IDTF@@@@UAEXAAVModelNode@U3D_IDTF@@@Z 0044eb1c f i IDTFCommon:NodeList.obj
 0001:0004db28       ?CreateNewElement@?$IFXArray@VModelNode@U3D_IDTF@@@@QAEAAVModelNode@U3D_IDTF@@XZ 0044eb28 f i IDTFCommon:NodeList.obj
 0001:0004db64       ?GetElement@?$IFXArray@VModelNode@U3D_IDTF@@@@QAEAAVModelNode@U3D_IDTF@@I@Z 0044eb64 f i IDTFCommon:NodeList.obj
 0001:0004dbb8       ?Construct@?$IFXArray@VModelNode@U3D_IDTF@@@@EAEXI@Z 0044ebb8 f i IDTFCommon:NodeList.obj
 0001:0004dcf0       ?Destruct@?$IFXArray@VModelNode@U3D_IDTF@@@@EAEXI@Z 0044ecf0 f i IDTFCommon:NodeList.obj
 0001:0004dd4c       ?DestructAll@?$IFXArray@VModelNode@U3D_IDTF@@@@EAEXXZ 0044ed4c f i IDTFCommon:NodeList.obj
 0001:0004de4c       ?Preallocate@?$IFXArray@VModelNode@U3D_IDTF@@@@EAEXI@Z 0044ee4c f i IDTFCommon:NodeList.obj
 0001:0004dfb4       ?Resize@?$IFXArray@VModelNode@U3D_IDTF@@@@EAEXI@Z 0044efb4 f i IDTFCommon:NodeList.obj
 0001:0004e090       ??0?$IFXArray@VNode@U3D_IDTF@@@@QAE@I@Z 0044f090 f i IDTFCommon:NodeList.obj
 0001:0004e164       ??1?$IFXArray@VNode@U3D_IDTF@@@@UAE@XZ 0044f164 f i IDTFCommon:NodeList.obj
 0001:0004e2a8       ?ResetElement@?$IFXArray@VNode@U3D_IDTF@@@@UAEXAAVNode@U3D_IDTF@@@Z 0044f2a8 f i IDTFCommon:NodeList.obj
 0001:0004e2b4       ?CreateNewElement@?$IFXArray@VNode@U3D_IDTF@@@@QAEAAVNode@U3D_IDTF@@XZ 0044f2b4 f i IDTFCommon:NodeList.obj
 0001:0004e2f0       ?GetElement@?$IFXArray@VNode@U3D_IDTF@@@@QAEAAVNode@U3D_IDTF@@I@Z 0044f2f0 f i IDTFCommon:NodeList.obj
 0001:0004e344       ?Construct@?$IFXArray@VNode@U3D_IDTF@@@@EAEXI@Z 0044f344 f i IDTFCommon:NodeList.obj
 0001:0004e470       ?Destruct@?$IFXArray@VNode@U3D_IDTF@@@@EAEXI@Z 0044f470 f i IDTFCommon:NodeList.obj
 0001:0004e4cc       ?DestructAll@?$IFXArray@VNode@U3D_IDTF@@@@EAEXXZ 0044f4cc f i IDTFCommon:NodeList.obj
 0001:0004e5cc       ?Preallocate@?$IFXArray@VNode@U3D_IDTF@@@@EAEXI@Z 0044f5cc f i IDTFCommon:NodeList.obj
 0001:0004e72c       ?Resize@?$IFXArray@VNode@U3D_IDTF@@@@EAEXI@Z 0044f72c f i IDTFCommon:NodeList.obj
 0001:0004e808       ??0NodeList@U3D_IDTF@@QAE@XZ 0044f808 f   IDTFCommon:NodeList.obj
 0001:0004e9ac       ??1NodeList@U3D_IDTF@@UAE@XZ 0044f9ac f   IDTFCommon:NodeList.obj
 0001:0004eb26       ?AddNode@NodeList@U3D_IDTF@@QAEHPBVNode@2@@Z 0044fb26 f   IDTFCommon:NodeList.obj
 0001:0004ecb0       ?GetNode@NodeList@U3D_IDTF@@QBEPBVNode@2@I@Z 0044fcb0 f   IDTFCommon:NodeList.obj
 0001:0004ecda       ?GetNodeCount@NodeList@U3D_IDTF@@QBEIXZ 0044fcda f   IDTFCommon:NodeList.obj
 0001:0004ecfc       ??_GLightResourceList@U3D_IDTF@@UAEPAXI@Z 0044fcfc f i IDTFCommon:SceneResources.obj
 0001:0004ecfc       ??_ELightResourceList@U3D_IDTF@@UAEPAXI@Z 0044fcfc f i IDTFCommon:SceneResources.obj
 0001:0004ed28       ??_EViewResourceList@U3D_IDTF@@UAEPAXI@Z 0044fd28 f i IDTFCommon:SceneResources.obj
 0001:0004ed28       ??_GViewResourceList@U3D_IDTF@@UAEPAXI@Z 0044fd28 f i IDTFCommon:SceneResources.obj
 0001:0004ed54       ??_EShaderResourceList@U3D_IDTF@@UAEPAXI@Z 0044fd54 f i IDTFCommon:SceneResources.obj
 0001:0004ed54       ??_GShaderResourceList@U3D_IDTF@@UAEPAXI@Z 0044fd54 f i IDTFCommon:SceneResources.obj
 0001:0004ed80       ??_GMotionResourceList@U3D_IDTF@@UAEPAXI@Z 0044fd80 f i IDTFCommon:SceneResources.obj
 0001:0004ed80       ??_EMotionResourceList@U3D_IDTF@@UAEPAXI@Z 0044fd80 f i IDTFCommon:SceneResources.obj
 0001:0004edac       ??_GMaterialResourceList@U3D_IDTF@@UAEPAXI@Z 0044fdac f i IDTFCommon:SceneResources.obj
 0001:0004edac       ??_EMaterialResourceList@U3D_IDTF@@UAEPAXI@Z 0044fdac f i IDTFCommon:SceneResources.obj
 0001:0004edd8       ??_GTextureResourceList@U3D_IDTF@@UAEPAXI@Z 0044fdd8 f i IDTFCommon:SceneResources.obj
 0001:0004edd8       ??_ETextureResourceList@U3D_IDTF@@UAEPAXI@Z 0044fdd8 f i IDTFCommon:SceneResources.obj
 0001:0004ee04       ??_ESceneResources@U3D_IDTF@@UAEPAXI@Z 0044fe04 f i IDTFCommon:SceneResources.obj
 0001:0004ee04       ??_GSceneResources@U3D_IDTF@@UAEPAXI@Z 0044fe04 f i IDTFCommon:SceneResources.obj
 0001:0004ee30       ??_E?$IFXArray@VLightResource@U3D_IDTF@@@@UAEPAXI@Z 0044fe30 f i IDTFCommon:SceneResources.obj
 0001:0004ee30       ??_G?$IFXArray@VLightResource@U3D_IDTF@@@@UAEPAXI@Z 0044fe30 f i IDTFCommon:SceneResources.obj
 0001:0004ee5c       ??_G?$IFXArray@VViewResource@U3D_IDTF@@@@UAEPAXI@Z 0044fe5c f i IDTFCommon:SceneResources.obj
 0001:0004ee5c       ??_E?$IFXArray@VViewResource@U3D_IDTF@@@@UAEPAXI@Z 0044fe5c f i IDTFCommon:SceneResources.obj
 0001:0004ee88       ??_G?$IFXArray@VShader@U3D_IDTF@@@@UAEPAXI@Z 0044fe88 f i IDTFCommon:SceneResources.obj
 0001:0004ee88       ??_E?$IFXArray@VShader@U3D_IDTF@@@@UAEPAXI@Z 0044fe88 f i IDTFCommon:SceneResources.obj
 0001:0004eeb4       ??_G?$IFXArray@VMotionResource@U3D_IDTF@@@@UAEPAXI@Z 0044feb4 f i IDTFCommon:SceneResources.obj
 0001:0004eeb4       ??_E?$IFXArray@VMotionResource@U3D_IDTF@@@@UAEPAXI@Z 0044feb4 f i IDTFCommon:SceneResources.obj
 0001:0004eee0       ??_E?$IFXArray@VMaterial@U3D_IDTF@@@@UAEPAXI@Z 0044fee0 f i IDTFCommon:SceneResources.obj
 0001:0004eee0       ??_G?$IFXArray@VMaterial@U3D_IDTF@@@@UAEPAXI@Z 0044fee0 f i IDTFCommon:SceneResources.obj
 0001:0004ef0c       ??_G?$IFXArray@VTexture@U3D_IDTF@@@@UAEPAXI@Z 0044ff0c f i IDTFCommon:SceneResources.obj
 0001:0004ef0c       ??_E?$IFXArray@VTexture@U3D_IDTF@@@@UAEPAXI@Z 0044ff0c f i IDTFCommon:SceneResources.obj
 0001:0004ef38       ??0LightResourceList@U3D_IDTF@@QAE@XZ 0044ff38 f i IDTFCommon:SceneResources.obj
 0001:0004f008       ??1LightResourceList@U3D_IDTF@@UAE@XZ 00450008 f i IDTFCommon:SceneResources.obj
 0001:0004f0cc       ??0?$IFXArray@VLightResource@U3D_IDTF@@@@QAE@I@Z 004500cc f i IDTFCommon:SceneResources.obj
 0001:0004f1a0       ??1?$IFXArray@VLightResource@U3D_IDTF@@@@UAE@XZ 004501a0 f i IDTFCommon:SceneResources.obj
 0001:0004f2e4       ?ResetElement@?$IFXArray@VLightResource@U3D_IDTF@@@@UAEXAAVLightResource@U3D_IDTF@@@Z 004502e4 f i IDTFCommon:SceneResources.obj
 0001:0004f2f0       ?Construct@?$IFXArray@VLightResource@U3D_IDTF@@@@EAEXI@Z 004502f0 f i IDTFCommon:SceneResources.obj
 0001:0004f41c       ?Destruct@?$IFXArray@VLightResource@U3D_IDTF@@@@EAEXI@Z 0045041c f i IDTFCommon:SceneResources.obj
 0001:0004f478       ?DestructAll@?$IFXArray@VLightResource@U3D_IDTF@@@@EAEXXZ 00450478 f i IDTFCommon:SceneResources.obj
 0001:0004f578       ?Preallocate@?$IFXArray@VLightResource@U3D_IDTF@@@@EAEXI@Z 00450578 f i IDTFCommon:SceneResources.obj
 0001:0004f6d8       ?Resize@?$IFXArray@VLightResource@U3D_IDTF@@@@EAEXI@Z 004506d8 f i IDTFCommon:SceneResources.obj
 0001:0004f7b4       ??0ViewResourceList@U3D_IDTF@@QAE@XZ 004507b4 f i IDTFCommon:SceneResources.obj
 0001:0004f884       ??1ViewResourceList@U3D_IDTF@@UAE@XZ 00450884 f i IDTFCommon:SceneResources.obj
 0001:0004f948       ??0?$IFXArray@VViewResource@U3D_IDTF@@@@QAE@I@Z 00450948 f i IDTFCommon:SceneResources.obj
 0001:0004fa1c       ??1?$IFXArray@VViewResource@U3D_IDTF@@@@UAE@XZ 00450a1c f i IDTFCommon:SceneResources.obj
 0001:0004fb60       ?ResetElement@?$IFXArray@VViewResource@U3D_IDTF@@@@UAEXAAVViewResource@U3D_IDTF@@@Z 00450b60 f i IDTFCommon:SceneResources.obj
 0001:0004fb6c       ?Construct@?$IFXArray@VViewResource@U3D_IDTF@@@@EAEXI@Z 00450b6c f i IDTFCommon:SceneResources.obj
 0001:0004fc9c       ?Destruct@?$IFXArray@VViewResource@U3D_IDTF@@@@EAEXI@Z 00450c9c f i IDTFCommon:SceneResources.obj
 0001:0004fcf8       ?DestructAll@?$IFXArray@VViewResource@U3D_IDTF@@@@EAEXXZ 00450cf8 f i IDTFCommon:SceneResources.obj
 0001:0004fdf8       ?Preallocate@?$IFXArray@VViewResource@U3D_IDTF@@@@EAEXI@Z 00450df8 f i IDTFCommon:SceneResources.obj
 0001:0004ff5c       ?Resize@?$IFXArray@VViewResource@U3D_IDTF@@@@EAEXI@Z 00450f5c f i IDTFCommon:SceneResources.obj
 0001:00050038       ??0ShaderResourceList@U3D_IDTF@@QAE@XZ 00451038 f i IDTFCommon:SceneResources.obj
 0001:00050108       ??1ShaderResourceList@U3D_IDTF@@UAE@XZ 00451108 f i IDTFCommon:SceneResources.obj
 0001:000501cc       ??0?$IFXArray@VShader@U3D_IDTF@@@@QAE@I@Z 004511cc f i IDTFCommon:SceneResources.obj
 0001:000502a0       ??1?$IFXArray@VShader@U3D_IDTF@@@@UAE@XZ 004512a0 f i IDTFCommon:SceneResources.obj
 0001:000503e4       ?ResetElement@?$IFXArray@VShader@U3D_IDTF@@@@UAEXAAVShader@U3D_IDTF@@@Z 004513e4 f i IDTFCommon:SceneResources.obj
 0001:000503f0       ?Construct@?$IFXArray@VShader@U3D_IDTF@@@@EAEXI@Z 004513f0 f i IDTFCommon:SceneResources.obj
 0001:00050520       ?Destruct@?$IFXArray@VShader@U3D_IDTF@@@@EAEXI@Z 00451520 f i IDTFCommon:SceneResources.obj
 0001:0005057c       ?DestructAll@?$IFXArray@VShader@U3D_IDTF@@@@EAEXXZ 0045157c f i IDTFCommon:SceneResources.obj
 0001:0005067c       ?Preallocate@?$IFXArray@VShader@U3D_IDTF@@@@EAEXI@Z 0045167c f i IDTFCommon:SceneResources.obj
 0001:000507e0       ?Resize@?$IFXArray@VShader@U3D_IDTF@@@@EAEXI@Z 004517e0 f i IDTFCommon:SceneResources.obj
 0001:000508bc       ??0MotionResourceList@U3D_IDTF@@QAE@XZ 004518bc f i IDTFCommon:SceneResources.obj
 0001:0005098c       ??1MotionResourceList@U3D_IDTF@@UAE@XZ 0045198c f i IDTFCommon:SceneResources.obj
 0001:00050a50       ??0?$IFXArray@VMotionResource@U3D_IDTF@@@@QAE@I@Z 00451a50 f i IDTFCommon:SceneResources.obj
 0001:00050b24       ??1?$IFXArray@VMotionResource@U3D_IDTF@@@@UAE@XZ 00451b24 f i IDTFCommon:SceneResources.obj
 0001:00050c68       ?ResetElement@?$IFXArray@VMotionResource@U3D_IDTF@@@@UAEXAAVMotionResource@U3D_IDTF@@@Z 00451c68 f i IDTFCommon:SceneResources.obj
 0001:00050c74       ?Construct@?$IFXArray@VMotionResource@U3D_IDTF@@@@EAEXI@Z 00451c74 f i IDTFCommon:SceneResources.obj
 0001:00050da4       ?Destruct@?$IFXArray@VMotionResource@U3D_IDTF@@@@EAEXI@Z 00451da4 f i IDTFCommon:SceneResources.obj
 0001:00050e00       ?DestructAll@?$IFXArray@VMotionResource@U3D_IDTF@@@@EAEXXZ 00451e00 f i IDTFCommon:SceneResources.obj
 0001:00050f00       ?Preallocate@?$IFXArray@VMotionResource@U3D_IDTF@@@@EAEXI@Z 00451f00 f i IDTFCommon:SceneResources.obj
 0001:00051064       ?Resize@?$IFXArray@VMotionResource@U3D_IDTF@@@@EAEXI@Z 00452064 f i IDTFCommon:SceneResources.obj
 0001:00051140       ??0MaterialResourceList@U3D_IDTF@@QAE@XZ 00452140 f i IDTFCommon:SceneResources.obj
 0001:00051210       ??1MaterialResourceList@U3D_IDTF@@UAE@XZ 00452210 f i IDTFCommon:SceneResources.obj
 0001:000512d4       ??0?$IFXArray@VMaterial@U3D_IDTF@@@@QAE@I@Z 004522d4 f i IDTFCommon:SceneResources.obj
 0001:000513a8       ??1?$IFXArray@VMaterial@U3D_IDTF@@@@UAE@XZ 004523a8 f i IDTFCommon:SceneResources.obj
 0001:000514ec       ?ResetElement@?$IFXArray@VMaterial@U3D_IDTF@@@@UAEXAAVMaterial@U3D_IDTF@@@Z 004524ec f i IDTFCommon:SceneResources.obj
 0001:000514f8       ?Construct@?$IFXArray@VMaterial@U3D_IDTF@@@@EAEXI@Z 004524f8 f i IDTFCommon:SceneResources.obj
 0001:00051628       ?Destruct@?$IFXArray@VMaterial@U3D_IDTF@@@@EAEXI@Z 00452628 f i IDTFCommon:SceneResources.obj
 0001:00051684       ?DestructAll@?$IFXArray@VMaterial@U3D_IDTF@@@@EAEXXZ 00452684 f i IDTFCommon:SceneResources.obj
 0001:00051784       ?Preallocate@?$IFXArray@VMaterial@U3D_IDTF@@@@EAEXI@Z 00452784 f i IDTFCommon:SceneResources.obj
 0001:000518e8       ?Resize@?$IFXArray@VMaterial@U3D_IDTF@@@@EAEXI@Z 004528e8 f i IDTFCommon:SceneResources.obj
 0001:000519c4       ??0TextureResourceList@U3D_IDTF@@QAE@XZ 004529c4 f i IDTFCommon:SceneResources.obj
 0001:00051a94       ??1TextureResourceList@U3D_IDTF@@UAE@XZ 00452a94 f i IDTFCommon:SceneResources.obj
 0001:00051b58       ??0?$IFXArray@VTexture@U3D_IDTF@@@@QAE@I@Z 00452b58 f i IDTFCommon:SceneResources.obj
 0001:00051c2c       ??1?$IFXArray@VTexture@U3D_IDTF@@@@UAE@XZ 00452c2c f i IDTFCommon:SceneResources.obj
 0001:00051d70       ?ResetElement@?$IFXArray@VTexture@U3D_IDTF@@@@UAEXAAVTexture@U3D_IDTF@@@Z 00452d70 f i IDTFCommon:SceneResources.obj
 0001:00051d7c       ?Construct@?$IFXArray@VTexture@U3D_IDTF@@@@EAEXI@Z 00452d7c f i IDTFCommon:SceneResources.obj
 0001:00051ea8       ?Destruct@?$IFXArray@VTexture@U3D_IDTF@@@@EAEXI@Z 00452ea8 f i IDTFCommon:SceneResources.obj
 0001:00051f04       ?DestructAll@?$IFXArray@VTexture@U3D_IDTF@@@@EAEXXZ 00452f04 f i IDTFCommon:SceneResources.obj
 0001:00052004       ?Preallocate@?$IFXArray@VTexture@U3D_IDTF@@@@EAEXI@Z 00453004 f i IDTFCommon:SceneResources.obj
 0001:00052164       ?Resize@?$IFXArray@VTexture@U3D_IDTF@@@@EAEXI@Z 00453164 f i IDTFCommon:SceneResources.obj
 0001:00052240       ??0SceneResources@U3D_IDTF@@QAE@XZ 00453240 f   IDTFCommon:SceneResources.obj
 0001:00052442       ??1SceneResources@U3D_IDTF@@UAE@XZ 00453442 f   IDTFCommon:SceneResources.obj
 0001:00052642       ?GetResourceList@SceneResources@U3D_IDTF@@QAEPAVResourceList@2@ABVIFXString@@@Z 00453642 f   IDTFCommon:SceneResources.obj
 0001:00052786       ?GetLightResourceList@SceneResources@U3D_IDTF@@QBEABVLightResourceList@2@XZ 00453786 f   IDTFCommon:SceneResources.obj
 0001:00052796       ?GetViewResourceList@SceneResources@U3D_IDTF@@QBEABVViewResourceList@2@XZ 00453796 f   IDTFCommon:SceneResources.obj
 0001:000527a6       ?GetModelResourceList@SceneResources@U3D_IDTF@@QBEABVModelResourceList@2@XZ 004537a6 f   IDTFCommon:SceneResources.obj
 0001:000527b6       ?GetShaderResourceList@SceneResources@U3D_IDTF@@QBEABVShaderResourceList@2@XZ 004537b6 f   IDTFCommon:SceneResources.obj
 0001:000527c8       ?GetTextureResourceList@SceneResources@U3D_IDTF@@QBEABVTextureResourceList@2@XZ 004537c8 f   IDTFCommon:SceneResources.obj
 0001:000527da       ?GetMaterialResourceList@SceneResources@U3D_IDTF@@QBEABVMaterialResourceList@2@XZ 004537da f   IDTFCommon:SceneResources.obj
 0001:000527ec       ?GetMotionResourceList@SceneResources@U3D_IDTF@@QBEABVMotionResourceList@2@XZ 004537ec f   IDTFCommon:SceneResources.obj
 0001:00052800       ??_EResourceList@U3D_IDTF@@UAEPAXI@Z 00453800 f i IDTFCommon:ResourceList.obj
 0001:00052800       ??_GResourceList@U3D_IDTF@@UAEPAXI@Z 00453800 f i IDTFCommon:ResourceList.obj
 0001:0005282c       ??0ResourceList@U3D_IDTF@@QAE@XZ 0045382c f   IDTFCommon:ResourceList.obj
 0001:000528bc       ??1ResourceList@U3D_IDTF@@UAE@XZ 004538bc f   IDTFCommon:ResourceList.obj
 0001:0005294a       ?SetType@ResourceList@U3D_IDTF@@QAEXABVIFXString@@@Z 0045394a f   IDTFCommon:ResourceList.obj
 0001:0005296a       ?GetType@ResourceList@U3D_IDTF@@QBEABVIFXString@@XZ 0045396a f   IDTFCommon:ResourceList.obj
 0001:0005297c       ??_EShadingModifier@U3D_IDTF@@UAEPAXI@Z 0045397c f i IDTFCommon:ModifierList.obj
 0001:000529f0       ??_EAnimationModifier@U3D_IDTF@@UAEPAXI@Z 004539f0 f i IDTFCommon:ModifierList.obj
 0001:00052a64       ??_EBoneWeightModifier@U3D_IDTF@@UAEPAXI@Z 00453a64 f i IDTFCommon:ModifierList.obj
 0001:00052ad8       ??_ECLODModifier@U3D_IDTF@@UAEPAXI@Z 00453ad8 f i IDTFCommon:ModifierList.obj
 0001:00052b4c       ??_ESubdivisionModifier@U3D_IDTF@@UAEPAXI@Z 00453b4c f i IDTFCommon:ModifierList.obj
 0001:00052bc0       ??_EGlyphModifier@U3D_IDTF@@UAEPAXI@Z 00453bc0 f i IDTFCommon:ModifierList.obj
 0001:00052c34       ??_EModifierList@U3D_IDTF@@UAEPAXI@Z 00453c34 f i IDTFCommon:ModifierList.obj
 0001:00052c34       ??_GModifierList@U3D_IDTF@@UAEPAXI@Z 00453c34 f i IDTFCommon:ModifierList.obj
 0001:00052c60       ??_G?$IFXArray@PAVModifier@U3D_IDTF@@@@UAEPAXI@Z 00453c60 f i IDTFCommon:ModifierList.obj
 0001:00052c60       ??_E?$IFXArray@PAVModifier@U3D_IDTF@@@@UAEPAXI@Z 00453c60 f i IDTFCommon:ModifierList.obj
 0001:00052c8c       ??_E?$IFXArray@VShadingModifier@U3D_IDTF@@@@UAEPAXI@Z 00453c8c f i IDTFCommon:ModifierList.obj
 0001:00052c8c       ??_G?$IFXArray@VShadingModifier@U3D_IDTF@@@@UAEPAXI@Z 00453c8c f i IDTFCommon:ModifierList.obj
 0001:00052cb8       ??_E?$IFXArray@VAnimationModifier@U3D_IDTF@@@@UAEPAXI@Z 00453cb8 f i IDTFCommon:ModifierList.obj
 0001:00052cb8       ??_G?$IFXArray@VAnimationModifier@U3D_IDTF@@@@UAEPAXI@Z 00453cb8 f i IDTFCommon:ModifierList.obj
 0001:00052ce4       ??_E?$IFXArray@VBoneWeightModifier@U3D_IDTF@@@@UAEPAXI@Z 00453ce4 f i IDTFCommon:ModifierList.obj
 0001:00052ce4       ??_G?$IFXArray@VBoneWeightModifier@U3D_IDTF@@@@UAEPAXI@Z 00453ce4 f i IDTFCommon:ModifierList.obj
 0001:00052d10       ??_G?$IFXArray@VCLODModifier@U3D_IDTF@@@@UAEPAXI@Z 00453d10 f i IDTFCommon:ModifierList.obj
 0001:00052d10       ??_E?$IFXArray@VCLODModifier@U3D_IDTF@@@@UAEPAXI@Z 00453d10 f i IDTFCommon:ModifierList.obj
 0001:00052d3c       ??_G?$IFXArray@VSubdivisionModifier@U3D_IDTF@@@@UAEPAXI@Z 00453d3c f i IDTFCommon:ModifierList.obj
 0001:00052d3c       ??_E?$IFXArray@VSubdivisionModifier@U3D_IDTF@@@@UAEPAXI@Z 00453d3c f i IDTFCommon:ModifierList.obj
 0001:00052d68       ??_G?$IFXArray@VGlyphModifier@U3D_IDTF@@@@UAEPAXI@Z 00453d68 f i IDTFCommon:ModifierList.obj
 0001:00052d68       ??_E?$IFXArray@VGlyphModifier@U3D_IDTF@@@@UAEPAXI@Z 00453d68 f i IDTFCommon:ModifierList.obj
 0001:00052d94       ??4Modifier@U3D_IDTF@@QAEAAV01@ABV01@@Z 00453d94 f i IDTFCommon:ModifierList.obj
 0001:00052df8       ??4ShadingModifier@U3D_IDTF@@QAEAAV01@ABV01@@Z 00453df8 f i IDTFCommon:ModifierList.obj
 0001:00052e3c       ??4?$IFXArray@VShaderList@U3D_IDTF@@@@QAEXABV0@@Z 00453e3c f i IDTFCommon:ModifierList.obj
 0001:00052e78       ?Append@?$IFXArray@VShaderList@U3D_IDTF@@@@QAEXABV1@@Z 00453e78 f i IDTFCommon:ModifierList.obj
 0001:00052f20       ??4AnimationModifier@U3D_IDTF@@QAEAAV01@ABV01@@Z 00453f20 f i IDTFCommon:ModifierList.obj
 0001:00052fa0       ??4?$IFXArray@UMotionInfo@U3D_IDTF@@@@QAEXABV0@@Z 00453fa0 f i IDTFCommon:ModifierList.obj
 0001:00052fdc       ?Append@?$IFXArray@UMotionInfo@U3D_IDTF@@@@QAEXABV1@@Z 00453fdc f i IDTFCommon:ModifierList.obj
 0001:00053084       ??4BoneWeightModifier@U3D_IDTF@@QAEAAV01@ABV01@@Z 00454084 f i IDTFCommon:ModifierList.obj
 0001:000530e0       ??4?$IFXArray@VBoneWeightList@U3D_IDTF@@@@QAEXABV0@@Z 004540e0 f i IDTFCommon:ModifierList.obj
 0001:0005311c       ?Append@?$IFXArray@VBoneWeightList@U3D_IDTF@@@@QAEXABV1@@Z 0045411c f i IDTFCommon:ModifierList.obj
 0001:000531c4       ??4CLODModifier@U3D_IDTF@@QAEAAV01@ABV01@@Z 004541c4 f i IDTFCommon:ModifierList.obj
 0001:00053214       ??4SubdivisionModifier@U3D_IDTF@@QAEAAV01@ABV01@@Z 00454214 f i IDTFCommon:ModifierList.obj
 0001:00053288       ??0?$IFXArray@PAVModifier@U3D_IDTF@@@@QAE@I@Z 00454288 f i IDTFCommon:ModifierList.obj
 0001:0005335c       ??1?$IFXArray@PAVModifier@U3D_IDTF@@@@UAE@XZ 0045435c f i IDTFCommon:ModifierList.obj
 0001:000534a0       ?ResetElement@?$IFXArray@PAVModifier@U3D_IDTF@@@@UAEXAAPAVModifier@U3D_IDTF@@@Z 004544a0 f i IDTFCommon:ModifierList.obj
 0001:000534ac       ?CreateNewElement@?$IFXArray@PAVModifier@U3D_IDTF@@@@QAEAAPAVModifier@U3D_IDTF@@XZ 004544ac f i IDTFCommon:ModifierList.obj
 0001:000534e8       ?GetElement@?$IFXArray@PAVModifier@U3D_IDTF@@@@QAEAAPAVModifier@U3D_IDTF@@I@Z 004544e8 f i IDTFCommon:ModifierList.obj
 0001:0005353c       ?GetElementConst@?$IFXArray@PAVModifier@U3D_IDTF@@@@QBEABQAVModifier@U3D_IDTF@@I@Z 0045453c f i IDTFCommon:ModifierList.obj
 0001:00053590       ?Construct@?$IFXArray@PAVModifier@U3D_IDTF@@@@EAEXI@Z 00454590 f i IDTFCommon:ModifierList.obj
 0001:00053610       ?Destruct@?$IFXArray@PAVModifier@U3D_IDTF@@@@EAEXI@Z 00454610 f i IDTFCommon:ModifierList.obj
 0001:00053650       ?DestructAll@?$IFXArray@PAVModifier@U3D_IDTF@@@@EAEXXZ 00454650 f i IDTFCommon:ModifierList.obj
 0001:00053740       ?Preallocate@?$IFXArray@PAVModifier@U3D_IDTF@@@@EAEXI@Z 00454740 f i IDTFCommon:ModifierList.obj
 0001:000537a4       ?Resize@?$IFXArray@PAVModifier@U3D_IDTF@@@@EAEXI@Z 004547a4 f i IDTFCommon:ModifierList.obj
 0001:00053880       ??0?$IFXArray@VShadingModifier@U3D_IDTF@@@@QAE@I@Z 00454880 f i IDTFCommon:ModifierList.obj
 0001:00053954       ??1?$IFXArray@VShadingModifier@U3D_IDTF@@@@UAE@XZ 00454954 f i IDTFCommon:ModifierList.obj
 0001:00053a98       ?ResetElement@?$IFXArray@VShadingModifier@U3D_IDTF@@@@UAEXAAVShadingModifier@U3D_IDTF@@@Z 00454a98 f i IDTFCommon:ModifierList.obj
 0001:00053aa4       ?CreateNewElement@?$IFXArray@VShadingModifier@U3D_IDTF@@@@QAEAAVShadingModifier@U3D_IDTF@@XZ 00454aa4 f i IDTFCommon:ModifierList.obj
 0001:00053ae0       ?GetElement@?$IFXArray@VShadingModifier@U3D_IDTF@@@@QAEAAVShadingModifier@U3D_IDTF@@I@Z 00454ae0 f i IDTFCommon:ModifierList.obj
 0001:00053b34       ?Construct@?$IFXArray@VShadingModifier@U3D_IDTF@@@@EAEXI@Z 00454b34 f i IDTFCommon:ModifierList.obj
 0001:00053c60       ?Destruct@?$IFXArray@VShadingModifier@U3D_IDTF@@@@EAEXI@Z 00454c60 f i IDTFCommon:ModifierList.obj
 0001:00053cbc       ?DestructAll@?$IFXArray@VShadingModifier@U3D_IDTF@@@@EAEXXZ 00454cbc f i IDTFCommon:ModifierList.obj
 0001:00053dbc       ?Preallocate@?$IFXArray@VShadingModifier@U3D_IDTF@@@@EAEXI@Z 00454dbc f i IDTFCommon:ModifierList.obj
 0001:00053f1c       ?Resize@?$IFXArray@VShadingModifier@U3D_IDTF@@@@EAEXI@Z 00454f1c f i IDTFCommon:ModifierList.obj
 0001:00053ff8       ??0?$IFXArray@VAnimationModifier@U3D_IDTF@@@@QAE@I@Z 00454ff8 f i IDTFCommon:ModifierList.obj
 0001:000540cc       ??1?$IFXArray@VAnimationModifier@U3D_IDTF@@@@UAE@XZ 004550cc f i IDTFCommon:ModifierList.obj
 0001:00054210       ?ResetElement@?$IFXArray@VAnimationModifier@U3D_IDTF@@@@UAEXAAVAnimationModifier@U3D_IDTF@@@Z 00455210 f i IDTFCommon:ModifierList.obj
 0001:0005421c       ?CreateNewElement@?$IFXArray@VAnimationModifier@U3D_IDTF@@@@QAEAAVAnimationModifier@U3D_IDTF@@XZ 0045521c f i IDTFCommon:ModifierList.obj
 0001:00054258       ?GetElement@?$IFXArray@VAnimationModifier@U3D_IDTF@@@@QAEAAVAnimationModifier@U3D_IDTF@@I@Z 00455258 f i IDTFCommon:ModifierList.obj
 0001:000542ac       ?Construct@?$IFXArray@VAnimationModifier@U3D_IDTF@@@@EAEXI@Z 004552ac f i IDTFCommon:ModifierList.obj
 0001:000543e4       ?Destruct@?$IFXArray@VAnimationModifier@U3D_IDTF@@@@EAEXI@Z 004553e4 f i IDTFCommon:ModifierList.obj
 0001:00054440       ?DestructAll@?$IFXArray@VAnimationModifier@U3D_IDTF@@@@EAEXXZ 00455440 f i IDTFCommon:ModifierList.obj
 0001:00054540       ?Preallocate@?$IFXArray@VAnimationModifier@U3D_IDTF@@@@EAEXI@Z 00455540 f i IDTFCommon:ModifierList.obj
 0001:000546a8       ?Resize@?$IFXArray@VAnimationModifier@U3D_IDTF@@@@EAEXI@Z 004556a8 f i IDTFCommon:ModifierList.obj
 0001:00054784       ??0?$IFXArray@VBoneWeightModifier@U3D_IDTF@@@@QAE@I@Z 00455784 f i IDTFCommon:ModifierList.obj
 0001:00054858       ??1?$IFXArray@VBoneWeightModifier@U3D_IDTF@@@@UAE@XZ 00455858 f i IDTFCommon:ModifierList.obj
 0001:0005499c       ?ResetElement@?$IFXArray@VBoneWeightModifier@U3D_IDTF@@@@UAEXAAVBoneWeightModifier@U3D_IDTF@@@Z 0045599c f i IDTFCommon:ModifierList.obj
 0001:000549a8       ?CreateNewElement@?$IFXArray@VBoneWeightModifier@U3D_IDTF@@@@QAEAAVBoneWeightModifier@U3D_IDTF@@XZ 004559a8 f i IDTFCommon:ModifierList.obj
 0001:000549e4       ?GetElement@?$IFXArray@VBoneWeightModifier@U3D_IDTF@@@@QAEAAVBoneWeightModifier@U3D_IDTF@@I@Z 004559e4 f i IDTFCommon:ModifierList.obj
 0001:00054a38       ?Construct@?$IFXArray@VBoneWeightModifier@U3D_IDTF@@@@EAEXI@Z 00455a38 f i IDTFCommon:ModifierList.obj
 0001:00054b70       ?Destruct@?$IFXArray@VBoneWeightModifier@U3D_IDTF@@@@EAEXI@Z 00455b70 f i IDTFCommon:ModifierList.obj
 0001:00054bcc       ?DestructAll@?$IFXArray@VBoneWeightModifier@U3D_IDTF@@@@EAEXXZ 00455bcc f i IDTFCommon:ModifierList.obj
 0001:00054ccc       ?Preallocate@?$IFXArray@VBoneWeightModifier@U3D_IDTF@@@@EAEXI@Z 00455ccc f i IDTFCommon:ModifierList.obj
 0001:00054e34       ?Resize@?$IFXArray@VBoneWeightModifier@U3D_IDTF@@@@EAEXI@Z 00455e34 f i IDTFCommon:ModifierList.obj
 0001:00054f10       ??0?$IFXArray@VCLODModifier@U3D_IDTF@@@@QAE@I@Z 00455f10 f i IDTFCommon:ModifierList.obj
 0001:00054fe4       ??1?$IFXArray@VCLODModifier@U3D_IDTF@@@@UAE@XZ 00455fe4 f i IDTFCommon:ModifierList.obj
 0001:00055128       ?ResetElement@?$IFXArray@VCLODModifier@U3D_IDTF@@@@UAEXAAVCLODModifier@U3D_IDTF@@@Z 00456128 f i IDTFCommon:ModifierList.obj
 0001:00055134       ?CreateNewElement@?$IFXArray@VCLODModifier@U3D_IDTF@@@@QAEAAVCLODModifier@U3D_IDTF@@XZ 00456134 f i IDTFCommon:ModifierList.obj
 0001:00055170       ?GetElement@?$IFXArray@VCLODModifier@U3D_IDTF@@@@QAEAAVCLODModifier@U3D_IDTF@@I@Z 00456170 f i IDTFCommon:ModifierList.obj
 0001:000551c4       ?Construct@?$IFXArray@VCLODModifier@U3D_IDTF@@@@EAEXI@Z 004561c4 f i IDTFCommon:ModifierList.obj
 0001:000552f0       ?Destruct@?$IFXArray@VCLODModifier@U3D_IDTF@@@@EAEXI@Z 004562f0 f i IDTFCommon:ModifierList.obj
 0001:0005534c       ?DestructAll@?$IFXArray@VCLODModifier@U3D_IDTF@@@@EAEXXZ 0045634c f i IDTFCommon:ModifierList.obj
 0001:0005544c       ?Preallocate@?$IFXArray@VCLODModifier@U3D_IDTF@@@@EAEXI@Z 0045644c f i IDTFCommon:ModifierList.obj
 0001:000555ac       ?Resize@?$IFXArray@VCLODModifier@U3D_IDTF@@@@EAEXI@Z 004565ac f i IDTFCommon:ModifierList.obj
 0001:00055688       ??0?$IFXArray@VSubdivisionModifier@U3D_IDTF@@@@QAE@I@Z 00456688 f i IDTFCommon:ModifierList.obj
 0001:0005575c       ??1?$IFXArray@VSubdivisionModifier@U3D_IDTF@@@@UAE@XZ 0045675c f i IDTFCommon:ModifierList.obj
 0001:000558a0       ?ResetElement@?$IFXArray@VSubdivisionModifier@U3D_IDTF@@@@UAEXAAVSubdivisionModifier@U3D_IDTF@@@Z 004568a0 f i IDTFCommon:ModifierList.obj
 0001:000558ac       ?CreateNewElement@?$IFXArray@VSubdivisionModifier@U3D_IDTF@@@@QAEAAVSubdivisionModifier@U3D_IDTF@@XZ 004568ac f i IDTFCommon:ModifierList.obj
 0001:000558e8       ?GetElement@?$IFXArray@VSubdivisionModifier@U3D_IDTF@@@@QAEAAVSubdivisionModifier@U3D_IDTF@@I@Z 004568e8 f i IDTFCommon:ModifierList.obj
 0001:0005593c       ?Construct@?$IFXArray@VSubdivisionModifier@U3D_IDTF@@@@EAEXI@Z 0045693c f i IDTFCommon:ModifierList.obj
 0001:00055a68       ?Destruct@?$IFXArray@VSubdivisionModifier@U3D_IDTF@@@@EAEXI@Z 00456a68 f i IDTFCommon:ModifierList.obj
 0001:00055ac4       ?DestructAll@?$IFXArray@VSubdivisionModifier@U3D_IDTF@@@@EAEXXZ 00456ac4 f i IDTFCommon:ModifierList.obj
 0001:00055bc4       ?Preallocate@?$IFXArray@VSubdivisionModifier@U3D_IDTF@@@@EAEXI@Z 00456bc4 f i IDTFCommon:ModifierList.obj
 0001:00055d24       ?Resize@?$IFXArray@VSubdivisionModifier@U3D_IDTF@@@@EAEXI@Z 00456d24 f i IDTFCommon:ModifierList.obj
 0001:00055e00       ??0?$IFXArray@VGlyphModifier@U3D_IDTF@@@@QAE@I@Z 00456e00 f i IDTFCommon:ModifierList.obj
 0001:00055ed4       ??1?$IFXArray@VGlyphModifier@U3D_IDTF@@@@UAE@XZ 00456ed4 f i IDTFCommon:ModifierList.obj
 0001:00056018       ?ResetElement@?$IFXArray@VGlyphModifier@U3D_IDTF@@@@UAEXAAVGlyphModifier@U3D_IDTF@@@Z 00457018 f i IDTFCommon:ModifierList.obj
 0001:00056024       ?CreateNewElement@?$IFXArray@VGlyphModifier@U3D_IDTF@@@@QAEAAVGlyphModifier@U3D_IDTF@@XZ 00457024 f i IDTFCommon:ModifierList.obj
 0001:00056060       ?GetElement@?$IFXArray@VGlyphModifier@U3D_IDTF@@@@QAEAAVGlyphModifier@U3D_IDTF@@I@Z 00457060 f i IDTFCommon:ModifierList.obj
 0001:000560b4       ?Construct@?$IFXArray@VGlyphModifier@U3D_IDTF@@@@EAEXI@Z 004570b4 f i IDTFCommon:ModifierList.obj
 0001:000561e4       ?Destruct@?$IFXArray@VGlyphModifier@U3D_IDTF@@@@EAEXI@Z 004571e4 f i IDTFCommon:ModifierList.obj
 0001:00056240       ?DestructAll@?$IFXArray@VGlyphModifier@U3D_IDTF@@@@EAEXXZ 00457240 f i IDTFCommon:ModifierList.obj
 0001:00056340       ?Preallocate@?$IFXArray@VGlyphModifier@U3D_IDTF@@@@EAEXI@Z 00457340 f i IDTFCommon:ModifierList.obj
 0001:000564a4       ?Resize@?$IFXArray@VGlyphModifier@U3D_IDTF@@@@EAEXI@Z 004574a4 f i IDTFCommon:ModifierList.obj
 0001:00056580       ??0ModifierList@U3D_IDTF@@QAE@XZ 00457580 f   IDTFCommon:ModifierList.obj
 0001:000567b2       ??1ModifierList@U3D_IDTF@@UAE@XZ 004577b2 f   IDTFCommon:ModifierList.obj
 0001:000569aa       ?AddModifier@ModifierList@U3D_IDTF@@QAEHPBVModifier@2@@Z 004579aa f   IDTFCommon:ModifierList.obj
 0001:00056bd4       ?GetModifier@ModifierList@U3D_IDTF@@QBEPBVModifier@2@I@Z 00457bd4 f   IDTFCommon:ModifierList.obj
 0001:00056bfe       ?GetModifierCount@ModifierList@U3D_IDTF@@QBEIXZ 00457bfe f   IDTFCommon:ModifierList.obj
 0001:00056c20       ??_EFilter@U3D_IDTF@@UAEPAXI@Z 00457c20 f i IDTFCommon:FileReference.obj
 0001:00056c94       ??_GFileReference@U3D_IDTF@@UAEPAXI@Z 00457c94 f i IDTFCommon:FileReference.obj
 0001:00056c94       ??_EFileReference@U3D_IDTF@@UAEPAXI@Z 00457c94 f i IDTFCommon:FileReference.obj
 0001:00056cc0       ??_G?$IFXArray@VFilter@U3D_IDTF@@@@UAEPAXI@Z 00457cc0 f i IDTFCommon:FileReference.obj
 0001:00056cc0       ??_E?$IFXArray@VFilter@U3D_IDTF@@@@UAEPAXI@Z 00457cc0 f i IDTFCommon:FileReference.obj
 0001:00056cec       ??0?$IFXArray@VFilter@U3D_IDTF@@@@QAE@I@Z 00457cec f i IDTFCommon:FileReference.obj
 0001:00056dc0       ??1?$IFXArray@VFilter@U3D_IDTF@@@@UAE@XZ 00457dc0 f i IDTFCommon:FileReference.obj
 0001:00056f04       ?ResetElement@?$IFXArray@VFilter@U3D_IDTF@@@@UAEXAAVFilter@U3D_IDTF@@@Z 00457f04 f i IDTFCommon:FileReference.obj
 0001:00056f10       ?CreateNewElement@?$IFXArray@VFilter@U3D_IDTF@@@@QAEAAVFilter@U3D_IDTF@@XZ 00457f10 f i IDTFCommon:FileReference.obj
 0001:00056f4c       ?GetElement@?$IFXArray@VFilter@U3D_IDTF@@@@QAEAAVFilter@U3D_IDTF@@I@Z 00457f4c f i IDTFCommon:FileReference.obj
 0001:00056fa0       ?GetElementConst@?$IFXArray@VFilter@U3D_IDTF@@@@QBEABVFilter@U3D_IDTF@@I@Z 00457fa0 f i IDTFCommon:FileReference.obj
 0001:00056ff4       ?Construct@?$IFXArray@VFilter@U3D_IDTF@@@@EAEXI@Z 00457ff4 f i IDTFCommon:FileReference.obj
 0001:00057120       ?Destruct@?$IFXArray@VFilter@U3D_IDTF@@@@EAEXI@Z 00458120 f i IDTFCommon:FileReference.obj
 0001:0005717c       ?DestructAll@?$IFXArray@VFilter@U3D_IDTF@@@@EAEXXZ 0045817c f i IDTFCommon:FileReference.obj
 0001:0005727c       ?Preallocate@?$IFXArray@VFilter@U3D_IDTF@@@@EAEXI@Z 0045827c f i IDTFCommon:FileReference.obj
 0001:000573dc       ?Resize@?$IFXArray@VFilter@U3D_IDTF@@@@EAEXI@Z 004583dc f i IDTFCommon:FileReference.obj
 0001:000574b8       ??0Filter@U3D_IDTF@@QAE@XZ 004584b8 f   IDTFCommon:FileReference.obj
 0001:0005758e       ??1Filter@U3D_IDTF@@UAE@XZ 0045858e f   IDTFCommon:FileReference.obj
 0001:00057656       ?SetType@Filter@U3D_IDTF@@QAEXABVIFXString@@@Z 00458656 f   IDTFCommon:FileReference.obj
 0001:00057676       ?GetType@Filter@U3D_IDTF@@QBEABVIFXString@@XZ 00458676 f   IDTFCommon:FileReference.obj
 0001:00057686       ?SetObjectName@Filter@U3D_IDTF@@QAEXABVIFXString@@@Z 00458686 f   IDTFCommon:FileReference.obj
 0001:000576a6       ?GetObjectName@Filter@U3D_IDTF@@QBEABVIFXString@@XZ 004586a6 f   IDTFCommon:FileReference.obj
 0001:000576b6       ?SetObjectType@Filter@U3D_IDTF@@QAEXH@Z 004586b6 f   IDTFCommon:FileReference.obj
 0001:000576ca       ?GetObjectType@Filter@U3D_IDTF@@QBEABHXZ 004586ca f   IDTFCommon:FileReference.obj
 0001:000576da       ??0FileReference@U3D_IDTF@@QAE@XZ 004586da f   IDTFCommon:FileReference.obj
 0001:0005785e       ??1FileReference@U3D_IDTF@@UAE@XZ 0045885e f   IDTFCommon:FileReference.obj
 0001:000579d8       ?SetScopeName@FileReference@U3D_IDTF@@QAEXABVIFXString@@@Z 004589d8 f   IDTFCommon:FileReference.obj
 0001:000579f8       ?GetScopeName@FileReference@U3D_IDTF@@QBEABVIFXString@@XZ 004589f8 f   IDTFCommon:FileReference.obj
 0001:00057a08       ?AddUrlList@FileReference@U3D_IDTF@@QAEXABVUrlList@2@@Z 00458a08 f   IDTFCommon:FileReference.obj
 0001:00057a28       ?GetUrlList@FileReference@U3D_IDTF@@QBEABV?$IFXArray@VIFXString@@@@XZ 00458a28 f   IDTFCommon:FileReference.obj
 0001:00057a46       ?AddFilter@FileReference@U3D_IDTF@@QAEHABVFilter@2@@Z 00458a46 f   IDTFCommon:FileReference.obj
 0001:00057bf8       ?GetFilter@FileReference@U3D_IDTF@@QBEABVFilter@2@I@Z 00458bf8 f   IDTFCommon:FileReference.obj
 0001:00057c20       ?GetFilterCount@FileReference@U3D_IDTF@@QBEABIXZ 00458c20 f   IDTFCommon:FileReference.obj
 0001:00057c3e       ?SetCollisionPolicy@FileReference@U3D_IDTF@@QAEXABVIFXString@@@Z 00458c3e f   IDTFCommon:FileReference.obj
 0001:00057c5e       ?GetCollisionPolicy@FileReference@U3D_IDTF@@QBEABVIFXString@@XZ 00458c5e f   IDTFCommon:FileReference.obj
 0001:00057c6e       ?SetWorldAlias@FileReference@U3D_IDTF@@QAEXABVIFXString@@@Z 00458c6e f   IDTFCommon:FileReference.obj
 0001:00057c8e       ?GetWorldAlias@FileReference@U3D_IDTF@@QBEABVIFXString@@XZ 00458c8e f   IDTFCommon:FileReference.obj
 0001:00057ca0       ??_EPoint@U3D_IDTF@@UAEPAXI@Z 00458ca0 f i IDTFCommon:ModelResource.obj
 0001:00057d14       ??_EColor@U3D_IDTF@@UAEPAXI@Z 00458d14 f i IDTFCommon:ModelResource.obj
 0001:00057d88       ??_EShadingDescriptionList@U3D_IDTF@@UAEPAXI@Z 00458d88 f i IDTFCommon:ModelResource.obj
 0001:00057d88       ??_GShadingDescriptionList@U3D_IDTF@@UAEPAXI@Z 00458d88 f i IDTFCommon:ModelResource.obj
 0001:00057db4       ??_GModelResource@U3D_IDTF@@UAEPAXI@Z 00458db4 f i IDTFCommon:ModelResource.obj
 0001:00057db4       ??_EModelResource@U3D_IDTF@@UAEPAXI@Z 00458db4 f i IDTFCommon:ModelResource.obj
 0001:00057de0       ??_HIFXVector4@@QAEPAV0@I@Z 00458de0 f i IDTFCommon:ModelResource.obj
 0001:00057e18       ??_G?$IFXArray@VShadingDescription@U3D_IDTF@@@@UAEPAXI@Z 00458e18 f i IDTFCommon:ModelResource.obj
 0001:00057e18       ??_E?$IFXArray@VShadingDescription@U3D_IDTF@@@@UAEPAXI@Z 00458e18 f i IDTFCommon:ModelResource.obj
 0001:00057e44       ??_G?$IFXArray@UBoneInfo@U3D_IDTF@@@@UAEPAXI@Z 00458e44 f i IDTFCommon:ModelResource.obj
 0001:00057e44       ??_E?$IFXArray@UBoneInfo@U3D_IDTF@@@@UAEPAXI@Z 00458e44 f i IDTFCommon:ModelResource.obj
 0001:00057e70       ??_G?$IFXArray@VPoint@U3D_IDTF@@@@UAEPAXI@Z 00458e70 f i IDTFCommon:ModelResource.obj
 0001:00057e70       ??_E?$IFXArray@VPoint@U3D_IDTF@@@@UAEPAXI@Z 00458e70 f i IDTFCommon:ModelResource.obj
 0001:00057e9c       ??_E?$IFXArray@VColor@U3D_IDTF@@@@UAEPAXI@Z 00458e9c f i IDTFCommon:ModelResource.obj
 0001:00057e9c       ??_G?$IFXArray@VColor@U3D_IDTF@@@@UAEPAXI@Z 00458e9c f i IDTFCommon:ModelResource.obj
 0001:00057ec8       ??_G?$IFXArray@VIFXVector4@@@@UAEPAXI@Z 00458ec8 f i IDTFCommon:ModelResource.obj
 0001:00057ec8       ??_E?$IFXArray@VIFXVector4@@@@UAEPAXI@Z 00458ec8 f i IDTFCommon:ModelResource.obj
 0001:00057ef4       ??0ShadingDescriptionList@U3D_IDTF@@QAE@XZ 00458ef4 f i IDTFCommon:ModelResource.obj
 0001:00057f8c       ??1ShadingDescriptionList@U3D_IDTF@@UAE@XZ 00458f8c f i IDTFCommon:ModelResource.obj
 0001:0005801c       ??0?$IFXArray@VShadingDescription@U3D_IDTF@@@@QAE@I@Z 0045901c f i IDTFCommon:ModelResource.obj
 0001:000580f0       ??1?$IFXArray@VShadingDescription@U3D_IDTF@@@@UAE@XZ 004590f0 f i IDTFCommon:ModelResource.obj
 0001:00058234       ?ResetElement@?$IFXArray@VShadingDescription@U3D_IDTF@@@@UAEXAAVShadingDescription@U3D_IDTF@@@Z 00459234 f i IDTFCommon:ModelResource.obj
 0001:00058240       ?Construct@?$IFXArray@VShadingDescription@U3D_IDTF@@@@EAEXI@Z 00459240 f i IDTFCommon:ModelResource.obj
 0001:00058370       ?Destruct@?$IFXArray@VShadingDescription@U3D_IDTF@@@@EAEXI@Z 00459370 f i IDTFCommon:ModelResource.obj
 0001:000583c0       ?DestructAll@?$IFXArray@VShadingDescription@U3D_IDTF@@@@EAEXXZ 004593c0 f i IDTFCommon:ModelResource.obj
 0001:000584c0       ?Preallocate@?$IFXArray@VShadingDescription@U3D_IDTF@@@@EAEXI@Z 004594c0 f i IDTFCommon:ModelResource.obj
 0001:00058620       ?Resize@?$IFXArray@VShadingDescription@U3D_IDTF@@@@EAEXI@Z 00459620 f i IDTFCommon:ModelResource.obj
 0001:000586fc       ??0ModelSkeleton@U3D_IDTF@@QAE@XZ 004596fc f i IDTFCommon:ModelResource.obj
 0001:00058788       ??1ModelSkeleton@U3D_IDTF@@QAE@XZ 00459788 f i IDTFCommon:ModelResource.obj
 0001:00058808       ??0?$IFXArray@UBoneInfo@U3D_IDTF@@@@QAE@I@Z 00459808 f i IDTFCommon:ModelResource.obj
 0001:000588dc       ??1?$IFXArray@UBoneInfo@U3D_IDTF@@@@UAE@XZ 004598dc f i IDTFCommon:ModelResource.obj
 0001:00058a20       ?ResetElement@?$IFXArray@UBoneInfo@U3D_IDTF@@@@UAEXAAUBoneInfo@U3D_IDTF@@@Z 00459a20 f i IDTFCommon:ModelResource.obj
 0001:00058a2c       ?Construct@?$IFXArray@UBoneInfo@U3D_IDTF@@@@EAEXI@Z 00459a2c f i IDTFCommon:ModelResource.obj
 0001:00058b58       ?Destruct@?$IFXArray@UBoneInfo@U3D_IDTF@@@@EAEXI@Z 00459b58 f i IDTFCommon:ModelResource.obj
 0001:00058ba8       ?DestructAll@?$IFXArray@UBoneInfo@U3D_IDTF@@@@EAEXXZ 00459ba8 f i IDTFCommon:ModelResource.obj
 0001:00058ca8       ?Preallocate@?$IFXArray@UBoneInfo@U3D_IDTF@@@@EAEXI@Z 00459ca8 f i IDTFCommon:ModelResource.obj
 0001:00058e08       ?Resize@?$IFXArray@UBoneInfo@U3D_IDTF@@@@EAEXI@Z 00459e08 f i IDTFCommon:ModelResource.obj
 0001:00058ee4       ??0?$IFXArray@VPoint@U3D_IDTF@@@@QAE@I@Z 00459ee4 f i IDTFCommon:ModelResource.obj
 0001:00058fb8       ??1?$IFXArray@VPoint@U3D_IDTF@@@@UAE@XZ 00459fb8 f i IDTFCommon:ModelResource.obj
 0001:000590fc       ?ResetElement@?$IFXArray@VPoint@U3D_IDTF@@@@UAEXAAVPoint@U3D_IDTF@@@Z 0045a0fc f i IDTFCommon:ModelResource.obj
 0001:00059108       ?Construct@?$IFXArray@VPoint@U3D_IDTF@@@@EAEXI@Z 0045a108 f i IDTFCommon:ModelResource.obj
 0001:00059234       ?Destruct@?$IFXArray@VPoint@U3D_IDTF@@@@EAEXI@Z 0045a234 f i IDTFCommon:ModelResource.obj
 0001:00059290       ?DestructAll@?$IFXArray@VPoint@U3D_IDTF@@@@EAEXXZ 0045a290 f i IDTFCommon:ModelResource.obj
 0001:00059390       ?Preallocate@?$IFXArray@VPoint@U3D_IDTF@@@@EAEXI@Z 0045a390 f i IDTFCommon:ModelResource.obj
 0001:000594f0       ?Resize@?$IFXArray@VPoint@U3D_IDTF@@@@EAEXI@Z 0045a4f0 f i IDTFCommon:ModelResource.obj
 0001:000595cc       ??0?$IFXArray@VColor@U3D_IDTF@@@@QAE@I@Z 0045a5cc f i IDTFCommon:ModelResource.obj
 0001:000596a0       ??1?$IFXArray@VColor@U3D_IDTF@@@@UAE@XZ 0045a6a0 f i IDTFCommon:ModelResource.obj
 0001:000597e4       ?ResetElement@?$IFXArray@VColor@U3D_IDTF@@@@UAEXAAVColor@U3D_IDTF@@@Z 0045a7e4 f i IDTFCommon:ModelResource.obj
 0001:000597f0       ?Construct@?$IFXArray@VColor@U3D_IDTF@@@@EAEXI@Z 0045a7f0 f i IDTFCommon:ModelResource.obj
 0001:00059920       ?Destruct@?$IFXArray@VColor@U3D_IDTF@@@@EAEXI@Z 0045a920 f i IDTFCommon:ModelResource.obj
 0001:0005997c       ?DestructAll@?$IFXArray@VColor@U3D_IDTF@@@@EAEXXZ 0045a97c f i IDTFCommon:ModelResource.obj
 0001:00059a7c       ?Preallocate@?$IFXArray@VColor@U3D_IDTF@@@@EAEXI@Z 0045aa7c f i IDTFCommon:ModelResource.obj
 0001:00059be0       ?Resize@?$IFXArray@VColor@U3D_IDTF@@@@EAEXI@Z 0045abe0 f i IDTFCommon:ModelResource.obj
 0001:00059cbc       ??0?$IFXArray@VIFXVector4@@@@QAE@I@Z 0045acbc f i IDTFCommon:ModelResource.obj
 0001:00059d90       ??1?$IFXArray@VIFXVector4@@@@UAE@XZ 0045ad90 f i IDTFCommon:ModelResource.obj
 0001:00059ed4       ?ResetElement@?$IFXArray@VIFXVector4@@@@UAEXAAVIFXVector4@@@Z 0045aed4 f i IDTFCommon:ModelResource.obj
 0001:00059ee0       ?Construct@?$IFXArray@VIFXVector4@@@@EAEXI@Z 0045aee0 f i IDTFCommon:ModelResource.obj
 0001:0005a00c       ?Destruct@?$IFXArray@VIFXVector4@@@@EAEXI@Z 0045b00c f i IDTFCommon:ModelResource.obj
 0001:0005a04c       ?DestructAll@?$IFXArray@VIFXVector4@@@@EAEXXZ 0045b04c f i IDTFCommon:ModelResource.obj
 0001:0005a148       ?Preallocate@?$IFXArray@VIFXVector4@@@@EAEXI@Z 0045b148 f i IDTFCommon:ModelResource.obj
 0001:0005a274       ?Resize@?$IFXArray@VIFXVector4@@@@EAEXI@Z 0045b274 f i IDTFCommon:ModelResource.obj
 0001:0005a350       ??_EShadingDescription@U3D_IDTF@@QAEPAXI@Z 0045b350 f i IDTFCommon:ModelResource.obj
 0001:0005a3c4       ??_EBoneInfo@U3D_IDTF@@QAEPAXI@Z 0045b3c4 f i IDTFCommon:ModelResource.obj
 0001:0005a438       ??0ModelResource@U3D_IDTF@@QAE@XZ 0045b438 f   IDTFCommon:ModelResource.obj
 0001:0005a790       ??1ModelResource@U3D_IDTF@@UAE@XZ 0045b790 f   IDTFCommon:ModelResource.obj
 0001:0005aa8c       ?ClearModelDescription@ModelResource@U3D_IDTF@@QAEXXZ 0045ba8c f   IDTFCommon:ModelResource.obj
 0001:0005aabc       ?SetBillboard@GlyphModifier@U3D_IDTF@@QAEXABVIFXString@@@Z 0045babc f   IDTFCommon:GlyphModifier.obj
 0001:0005aadc       ?SetSingleShader@GlyphModifier@U3D_IDTF@@QAEXABVIFXString@@@Z 0045badc f   IDTFCommon:GlyphModifier.obj
 0001:0005aafc       ?GetBillboard@GlyphModifier@U3D_IDTF@@QBEABVIFXString@@XZ 0045bafc f   IDTFCommon:GlyphModifier.obj
 0001:0005ab0c       ?GetSingleShader@GlyphModifier@U3D_IDTF@@QBEABVIFXString@@XZ 0045bb0c f   IDTFCommon:GlyphModifier.obj
 0001:0005ab1c       ?SetTM@GlyphModifier@U3D_IDTF@@QAEXABVIFXMatrix4x4@@@Z 0045bb1c f   IDTFCommon:GlyphModifier.obj
 0001:0005ab3e       ?GetTM@GlyphModifier@U3D_IDTF@@QBEABVIFXMatrix4x4@@XZ 0045bb3e f   IDTFCommon:GlyphModifier.obj
 0001:0005ab50       ?AddCommand@GlyphModifier@U3D_IDTF@@QAEHPBVGlyphCommand@2@@Z 0045bb50 f   IDTFCommon:GlyphModifier.obj
 0001:0005ab94       ?GetCommand@GlyphModifier@U3D_IDTF@@QBEPBVGlyphCommand@2@I@Z 0045bb94 f   IDTFCommon:GlyphModifier.obj
 0001:0005abbc       ?GetCommandCount@GlyphModifier@U3D_IDTF@@QBEIXZ 0045bbbc f   IDTFCommon:GlyphModifier.obj
 0001:0005abda       ??4GlyphModifier@U3D_IDTF@@QAEAAV01@ABV01@@Z 0045bbda f   IDTFCommon:GlyphModifier.obj
 0001:0005ad28       ??_EMeshResource@U3D_IDTF@@UAEPAXI@Z 0045bd28 f i IDTFCommon:ModelResourceList.obj
 0001:0005ad9c       ??_ELineSetResource@U3D_IDTF@@UAEPAXI@Z 0045bd9c f i IDTFCommon:ModelResourceList.obj
 0001:0005ae10       ??_EPointSetResource@U3D_IDTF@@UAEPAXI@Z 0045be10 f i IDTFCommon:ModelResourceList.obj
 0001:0005ae84       ??_EModelResourceList@U3D_IDTF@@UAEPAXI@Z 0045be84 f i IDTFCommon:ModelResourceList.obj
 0001:0005ae84       ??_GModelResourceList@U3D_IDTF@@UAEPAXI@Z 0045be84 f i IDTFCommon:ModelResourceList.obj
 0001:0005aeb0       ??_E?$IFXArray@PAVModelResource@U3D_IDTF@@@@UAEPAXI@Z 0045beb0 f i IDTFCommon:ModelResourceList.obj
 0001:0005aeb0       ??_G?$IFXArray@PAVModelResource@U3D_IDTF@@@@UAEPAXI@Z 0045beb0 f i IDTFCommon:ModelResourceList.obj
 0001:0005aedc       ??_G?$IFXArray@VMeshResource@U3D_IDTF@@@@UAEPAXI@Z 0045bedc f i IDTFCommon:ModelResourceList.obj
 0001:0005aedc       ??_E?$IFXArray@VMeshResource@U3D_IDTF@@@@UAEPAXI@Z 0045bedc f i IDTFCommon:ModelResourceList.obj
 0001:0005af08       ??_E?$IFXArray@VLineSetResource@U3D_IDTF@@@@UAEPAXI@Z 0045bf08 f i IDTFCommon:ModelResourceList.obj
 0001:0005af08       ??_G?$IFXArray@VLineSetResource@U3D_IDTF@@@@UAEPAXI@Z 0045bf08 f i IDTFCommon:ModelResourceList.obj
 0001:0005af34       ??_E?$IFXArray@VPointSetResource@U3D_IDTF@@@@UAEPAXI@Z 0045bf34 f i IDTFCommon:ModelResourceList.obj
 0001:0005af34       ??_G?$IFXArray@VPointSetResource@U3D_IDTF@@@@UAEPAXI@Z 0045bf34 f i IDTFCommon:ModelResourceList.obj
 0001:0005af60       ??4ShadingDescriptionList@U3D_IDTF@@QAEAAV01@ABV01@@Z 0045bf60 f i IDTFCommon:ModelResourceList.obj
 0001:0005af88       ??4?$IFXArray@VShadingDescription@U3D_IDTF@@@@QAEXABV0@@Z 0045bf88 f i IDTFCommon:ModelResourceList.obj
 0001:0005afc4       ?Append@?$IFXArray@VShadingDescription@U3D_IDTF@@@@QAEXABV1@@Z 0045bfc4 f i IDTFCommon:ModelResourceList.obj
 0001:0005b06c       ??4ModelSkeleton@U3D_IDTF@@QAEAAV01@ABV01@@Z 0045c06c f i IDTFCommon:ModelResourceList.obj
 0001:0005b08c       ??4?$IFXArray@UBoneInfo@U3D_IDTF@@@@QAEXABV0@@Z 0045c08c f i IDTFCommon:ModelResourceList.obj
 0001:0005b0c8       ?Append@?$IFXArray@UBoneInfo@U3D_IDTF@@@@QAEXABV1@@Z 0045c0c8 f i IDTFCommon:ModelResourceList.obj
 0001:0005b170       ??4ModelResource@U3D_IDTF@@QAEAAV01@ABV01@@Z 0045c170 f i IDTFCommon:ModelResourceList.obj
 0001:0005b2d0       ??4?$IFXArray@VPoint@U3D_IDTF@@@@QAEXABV0@@Z 0045c2d0 f i IDTFCommon:ModelResourceList.obj
 0001:0005b30c       ?Append@?$IFXArray@VPoint@U3D_IDTF@@@@QAEXABV1@@Z 0045c30c f i IDTFCommon:ModelResourceList.obj
 0001:0005b3b4       ??4?$IFXArray@VColor@U3D_IDTF@@@@QAEXABV0@@Z 0045c3b4 f i IDTFCommon:ModelResourceList.obj
 0001:0005b3f0       ?Append@?$IFXArray@VColor@U3D_IDTF@@@@QAEXABV1@@Z 0045c3f0 f i IDTFCommon:ModelResourceList.obj
 0001:0005b498       ??4?$IFXArray@VIFXVector4@@@@QAEXABV0@@Z 0045c498 f i IDTFCommon:ModelResourceList.obj
 0001:0005b4d4       ?Append@?$IFXArray@VIFXVector4@@@@QAEXABV1@@Z 0045c4d4 f i IDTFCommon:ModelResourceList.obj
 0001:0005b57c       ??4FaceTexCoords@U3D_IDTF@@QAEAAU01@ABU01@@Z 0045c57c f i IDTFCommon:ModelResourceList.obj
 0001:0005b59c       ??4?$IFXArray@VInt3@U3D_IDTF@@@@QAEXABV0@@Z 0045c59c f i IDTFCommon:ModelResourceList.obj
 0001:0005b5d8       ?Append@?$IFXArray@VInt3@U3D_IDTF@@@@QAEXABV1@@Z 0045c5d8 f i IDTFCommon:ModelResourceList.obj
 0001:0005b680       ??4MeshResource@U3D_IDTF@@QAEAAV01@ABV01@@Z 0045c680 f i IDTFCommon:ModelResourceList.obj
 0001:0005b75c       ??4?$IFXArray@UFaceTexCoords@U3D_IDTF@@@@QAEXABV0@@Z 0045c75c f i IDTFCommon:ModelResourceList.obj
 0001:0005b798       ?Append@?$IFXArray@UFaceTexCoords@U3D_IDTF@@@@QAEXABV1@@Z 0045c798 f i IDTFCommon:ModelResourceList.obj
 0001:0005b840       ??4LineTexCoords@U3D_IDTF@@QAEAAU01@ABU01@@Z 0045c840 f i IDTFCommon:ModelResourceList.obj
 0001:0005b860       ??4?$IFXArray@VInt2@U3D_IDTF@@@@QAEXABV0@@Z 0045c860 f i IDTFCommon:ModelResourceList.obj
 0001:0005b89c       ?Append@?$IFXArray@VInt2@U3D_IDTF@@@@QAEXABV1@@Z 0045c89c f i IDTFCommon:ModelResourceList.obj
 0001:0005b944       ??4LineSetResource@U3D_IDTF@@QAEAAV01@ABV01@@Z 0045c944 f i IDTFCommon:ModelResourceList.obj
 0001:0005ba20       ??4?$IFXArray@ULineTexCoords@U3D_IDTF@@@@QAEXABV0@@Z 0045ca20 f i IDTFCommon:ModelResourceList.obj
 0001:0005ba5c       ?Append@?$IFXArray@ULineTexCoords@U3D_IDTF@@@@QAEXABV1@@Z 0045ca5c f i IDTFCommon:ModelResourceList.obj
 0001:0005bb04       ??4PointTexCoords@U3D_IDTF@@QAEAAU01@ABU01@@Z 0045cb04 f i IDTFCommon:ModelResourceList.obj
 0001:0005bb24       ??4PointSetResource@U3D_IDTF@@QAEAAV01@ABV01@@Z 0045cb24 f i IDTFCommon:ModelResourceList.obj
 0001:0005bc00       ??4?$IFXArray@UPointTexCoords@U3D_IDTF@@@@QAEXABV0@@Z 0045cc00 f i IDTFCommon:ModelResourceList.obj
 0001:0005bc3c       ?Append@?$IFXArray@UPointTexCoords@U3D_IDTF@@@@QAEXABV1@@Z 0045cc3c f i IDTFCommon:ModelResourceList.obj
 0001:0005bce4       ??0?$IFXArray@PAVModelResource@U3D_IDTF@@@@QAE@I@Z 0045cce4 f i IDTFCommon:ModelResourceList.obj
 0001:0005bdb8       ??1?$IFXArray@PAVModelResource@U3D_IDTF@@@@UAE@XZ 0045cdb8 f i IDTFCommon:ModelResourceList.obj
 0001:0005befc       ?ResetElement@?$IFXArray@PAVModelResource@U3D_IDTF@@@@UAEXAAPAVModelResource@U3D_IDTF@@@Z 0045cefc f i IDTFCommon:ModelResourceList.obj
 0001:0005bf08       ?CreateNewElement@?$IFXArray@PAVModelResource@U3D_IDTF@@@@QAEAAPAVModelResource@U3D_IDTF@@XZ 0045cf08 f i IDTFCommon:ModelResourceList.obj
 0001:0005bf44       ?GetElement@?$IFXArray@PAVModelResource@U3D_IDTF@@@@QAEAAPAVModelResource@U3D_IDTF@@I@Z 0045cf44 f i IDTFCommon:ModelResourceList.obj
 0001:0005bf98       ?GetElementConst@?$IFXArray@PAVModelResource@U3D_IDTF@@@@QBEABQAVModelResource@U3D_IDTF@@I@Z 0045cf98 f i IDTFCommon:ModelResourceList.obj
 0001:0005bfec       ?Construct@?$IFXArray@PAVModelResource@U3D_IDTF@@@@EAEXI@Z 0045cfec f i IDTFCommon:ModelResourceList.obj
 0001:0005c06c       ?Destruct@?$IFXArray@PAVModelResource@U3D_IDTF@@@@EAEXI@Z 0045d06c f i IDTFCommon:ModelResourceList.obj
 0001:0005c0ac       ?DestructAll@?$IFXArray@PAVModelResource@U3D_IDTF@@@@EAEXXZ 0045d0ac f i IDTFCommon:ModelResourceList.obj
 0001:0005c19c       ?Preallocate@?$IFXArray@PAVModelResource@U3D_IDTF@@@@EAEXI@Z 0045d19c f i IDTFCommon:ModelResourceList.obj
 0001:0005c200       ?Resize@?$IFXArray@PAVModelResource@U3D_IDTF@@@@EAEXI@Z 0045d200 f i IDTFCommon:ModelResourceList.obj
 0001:0005c2dc       ??0?$IFXArray@VMeshResource@U3D_IDTF@@@@QAE@I@Z 0045d2dc f i IDTFCommon:ModelResourceList.obj
 0001:0005c3b0       ??1?$IFXArray@VMeshResource@U3D_IDTF@@@@UAE@XZ 0045d3b0 f i IDTFCommon:ModelResourceList.obj
 0001:0005c4f4       ?ResetElement@?$IFXArray@VMeshResource@U3D_IDTF@@@@UAEXAAVMeshResource@U3D_IDTF@@@Z 0045d4f4 f i IDTFCommon:ModelResourceList.obj
 0001:0005c500       ?CreateNewElement@?$IFXArray@VMeshResource@U3D_IDTF@@@@QAEAAVMeshResource@U3D_IDTF@@XZ 0045d500 f i IDTFCommon:ModelResourceList.obj
 0001:0005c53c       ?GetElement@?$IFXArray@VMeshResource@U3D_IDTF@@@@QAEAAVMeshResource@U3D_IDTF@@I@Z 0045d53c f i IDTFCommon:ModelResourceList.obj
 0001:0005c590       ?Construct@?$IFXArray@VMeshResource@U3D_IDTF@@@@EAEXI@Z 0045d590 f i IDTFCommon:ModelResourceList.obj
 0001:0005c6c0       ?Destruct@?$IFXArray@VMeshResource@U3D_IDTF@@@@EAEXI@Z 0045d6c0 f i IDTFCommon:ModelResourceList.obj
 0001:0005c71c       ?DestructAll@?$IFXArray@VMeshResource@U3D_IDTF@@@@EAEXXZ 0045d71c f i IDTFCommon:ModelResourceList.obj
 0001:0005c81c       ?Preallocate@?$IFXArray@VMeshResource@U3D_IDTF@@@@EAEXI@Z 0045d81c f i IDTFCommon:ModelResourceList.obj
 0001:0005c980       ?Resize@?$IFXArray@VMeshResource@U3D_IDTF@@@@EAEXI@Z 0045d980 f i IDTFCommon:ModelResourceList.obj
 0001:0005ca5c       ??0?$IFXArray@VLineSetResource@U3D_IDTF@@@@QAE@I@Z 0045da5c f i IDTFCommon:ModelResourceList.obj
 0001:0005cb30       ??1?$IFXArray@VLineSetResource@U3D_IDTF@@@@UAE@XZ 0045db30 f i IDTFCommon:ModelResourceList.obj
 0001:0005cc74       ?ResetElement@?$IFXArray@VLineSetResource@U3D_IDTF@@@@UAEXAAVLineSetResource@U3D_IDTF@@@Z 0045dc74 f i IDTFCommon:ModelResourceList.obj
 0001:0005cc80       ?CreateNewElement@?$IFXArray@VLineSetResource@U3D_IDTF@@@@QAEAAVLineSetResource@U3D_IDTF@@XZ 0045dc80 f i IDTFCommon:ModelResourceList.obj
 0001:0005ccbc       ?GetElement@?$IFXArray@VLineSetResource@U3D_IDTF@@@@QAEAAVLineSetResource@U3D_IDTF@@I@Z 0045dcbc f i IDTFCommon:ModelResourceList.obj
 0001:0005cd10       ?Construct@?$IFXArray@VLineSetResource@U3D_IDTF@@@@EAEXI@Z 0045dd10 f i IDTFCommon:ModelResourceList.obj
 0001:0005ce40       ?Destruct@?$IFXArray@VLineSetResource@U3D_IDTF@@@@EAEXI@Z 0045de40 f i IDTFCommon:ModelResourceList.obj
 0001:0005ce9c       ?DestructAll@?$IFXArray@VLineSetResource@U3D_IDTF@@@@EAEXXZ 0045de9c f i IDTFCommon:ModelResourceList.obj
 0001:0005cf9c       ?Preallocate@?$IFXArray@VLineSetResource@U3D_IDTF@@@@EAEXI@Z 0045df9c f i IDTFCommon:ModelResourceList.obj
 0001:0005d100       ?Resize@?$IFXArray@VLineSetResource@U3D_IDTF@@@@EAEXI@Z 0045e100 f i IDTFCommon:ModelResourceList.obj
 0001:0005d1dc       ??0?$IFXArray@VPointSetResource@U3D_IDTF@@@@QAE@I@Z 0045e1dc f i IDTFCommon:ModelResourceList.obj
 0001:0005d2b0       ??1?$IFXArray@VPointSetResource@U3D_IDTF@@@@UAE@XZ 0045e2b0 f i IDTFCommon:ModelResourceList.obj
 0001:0005d3f4       ?ResetElement@?$IFXArray@VPointSetResource@U3D_IDTF@@@@UAEXAAVPointSetResource@U3D_IDTF@@@Z 0045e3f4 f i IDTFCommon:ModelResourceList.obj
 0001:0005d400       ?CreateNewElement@?$IFXArray@VPointSetResource@U3D_IDTF@@@@QAEAAVPointSetResource@U3D_IDTF@@XZ 0045e400 f i IDTFCommon:ModelResourceList.obj
 0001:0005d43c       ?GetElement@?$IFXArray@VPointSetResource@U3D_IDTF@@@@QAEAAVPointSetResource@U3D_IDTF@@I@Z 0045e43c f i IDTFCommon:ModelResourceList.obj
 0001:0005d490       ?Construct@?$IFXArray@VPointSetResource@U3D_IDTF@@@@EAEXI@Z 0045e490 f i IDTFCommon:ModelResourceList.obj
 0001:0005d5c0       ?Destruct@?$IFXArray@VPointSetResource@U3D_IDTF@@@@EAEXI@Z 0045e5c0 f i IDTFCommon:ModelResourceList.obj
 0001:0005d61c       ?DestructAll@?$IFXArray@VPointSetResource@U3D_IDTF@@@@EAEXXZ 0045e61c f i IDTFCommon:ModelResourceList.obj
 0001:0005d71c       ?Preallocate@?$IFXArray@VPointSetResource@U3D_IDTF@@@@EAEXI@Z 0045e71c f i IDTFCommon:ModelResourceList.obj
 0001:0005d880       ?Resize@?$IFXArray@VPointSetResource@U3D_IDTF@@@@EAEXI@Z 0045e880 f i IDTFCommon:ModelResourceList.obj
 0001:0005d95c       ??0ModelResourceList@U3D_IDTF@@QAE@XZ 0045e95c f   IDTFCommon:ModelResourceList.obj
 0001:0005daf2       ??1ModelResourceList@U3D_IDTF@@UAE@XZ 0045eaf2 f   IDTFCommon:ModelResourceList.obj
 0001:0005dc66       ?AddResource@ModelResourceList@U3D_IDTF@@QAEHPBVModelResource@2@@Z 0045ec66 f   IDTFCommon:ModelResourceList.obj
 0001:0005dd98       ?GetResource@ModelResourceList@U3D_IDTF@@QBEPBVModelResource@2@I@Z 0045ed98 f   IDTFCommon:ModelResourceList.obj
 0001:0005ddc2       ?GetResourceCount@ModelResourceList@U3D_IDTF@@QBEIXZ 0045edc2 f   IDTFCommon:ModelResourceList.obj
 0001:0005dde4       ??4GlyphCommand@U3D_IDTF@@QAEAAV01@ABV01@@Z 0045ede4 f i IDTFCommon:GlyphCommandList.obj
 0001:0005de0c       ??4EndGlyph@U3D_IDTF@@QAEAAV01@ABV01@@Z 0045ee0c f i IDTFCommon:GlyphCommandList.obj
 0001:0005de44       ??4MoveTo@U3D_IDTF@@QAEAAV01@ABV01@@Z 0045ee44 f i IDTFCommon:GlyphCommandList.obj
 0001:0005de7c       ??4LineTo@U3D_IDTF@@QAEAAV01@ABV01@@Z 0045ee7c f i IDTFCommon:GlyphCommandList.obj
 0001:0005deb4       ??4CurveTo@U3D_IDTF@@QAEAAV01@ABV01@@Z 0045eeb4 f i IDTFCommon:GlyphCommandList.obj
 0001:0005df1c       ?CreateNewElement@?$IFXArray@PAVGlyphCommand@U3D_IDTF@@@@QAEAAPAVGlyphCommand@U3D_IDTF@@XZ 0045ef1c f i IDTFCommon:GlyphCommandList.obj
 0001:0005df58       ?GetElement@?$IFXArray@PAVGlyphCommand@U3D_IDTF@@@@QAEAAPAVGlyphCommand@U3D_IDTF@@I@Z 0045ef58 f i IDTFCommon:GlyphCommandList.obj
 0001:0005dfac       ?GetElementConst@?$IFXArray@PAVGlyphCommand@U3D_IDTF@@@@QBEABQAVGlyphCommand@U3D_IDTF@@I@Z 0045efac f i IDTFCommon:GlyphCommandList.obj
 0001:0005e000       ?CreateNewElement@?$IFXArray@VGlyphCommand@U3D_IDTF@@@@QAEAAVGlyphCommand@U3D_IDTF@@XZ 0045f000 f i IDTFCommon:GlyphCommandList.obj
 0001:0005e03c       ?GetElement@?$IFXArray@VGlyphCommand@U3D_IDTF@@@@QAEAAVGlyphCommand@U3D_IDTF@@I@Z 0045f03c f i IDTFCommon:GlyphCommandList.obj
 0001:0005e090       ?CreateNewElement@?$IFXArray@VEndGlyph@U3D_IDTF@@@@QAEAAVEndGlyph@U3D_IDTF@@XZ 0045f090 f i IDTFCommon:GlyphCommandList.obj
 0001:0005e0cc       ?GetElement@?$IFXArray@VEndGlyph@U3D_IDTF@@@@QAEAAVEndGlyph@U3D_IDTF@@I@Z 0045f0cc f i IDTFCommon:GlyphCommandList.obj
 0001:0005e120       ?CreateNewElement@?$IFXArray@VMoveTo@U3D_IDTF@@@@QAEAAVMoveTo@U3D_IDTF@@XZ 0045f120 f i IDTFCommon:GlyphCommandList.obj
 0001:0005e15c       ?GetElement@?$IFXArray@VMoveTo@U3D_IDTF@@@@QAEAAVMoveTo@U3D_IDTF@@I@Z 0045f15c f i IDTFCommon:GlyphCommandList.obj
 0001:0005e1b0       ?CreateNewElement@?$IFXArray@VLineTo@U3D_IDTF@@@@QAEAAVLineTo@U3D_IDTF@@XZ 0045f1b0 f i IDTFCommon:GlyphCommandList.obj
 0001:0005e1ec       ?GetElement@?$IFXArray@VLineTo@U3D_IDTF@@@@QAEAAVLineTo@U3D_IDTF@@I@Z 0045f1ec f i IDTFCommon:GlyphCommandList.obj
 0001:0005e240       ?CreateNewElement@?$IFXArray@VCurveTo@U3D_IDTF@@@@QAEAAVCurveTo@U3D_IDTF@@XZ 0045f240 f i IDTFCommon:GlyphCommandList.obj
 0001:0005e27c       ?GetElement@?$IFXArray@VCurveTo@U3D_IDTF@@@@QAEAAVCurveTo@U3D_IDTF@@I@Z 0045f27c f i IDTFCommon:GlyphCommandList.obj
 0001:0005e2d0       ?AddCommand@GlyphCommandList@U3D_IDTF@@QAEHPBVGlyphCommand@2@@Z 0045f2d0 f   IDTFCommon:GlyphCommandList.obj
 0001:0005e52e       ?GetCommand@GlyphCommandList@U3D_IDTF@@QBEPBVGlyphCommand@2@I@Z 0045f52e f   IDTFCommon:GlyphCommandList.obj
 0001:0005e558       ?GetCommandCount@GlyphCommandList@U3D_IDTF@@QBEIXZ 0045f558 f   IDTFCommon:GlyphCommandList.obj
 0001:0005e578       _SetDefaultOptionsX        0045f578 f   IDTFConverterHelpers:ConverterHelpers.obj
 0001:0005e62e       _ReadAndSetUserOptionsX    0045f62e f   IDTFConverterHelpers:ConverterHelpers.obj
 0001:0005f656       ?DumpHelpInfo@U3D_IDTF@@YAXQAPAG@Z 00460656 f   IDTFConverterHelpers:ConverterHelpers.obj
 0001:0005f8a6       ?ParseParameterFileX@U3D_IDTF@@YAXPBGPAUConverterOptions@1@PAUFileOptions@1@@Z 004608a6 f   IDTFConverterHelpers:ConverterHelpers.obj
 0001:00060610       ??8@YIHABUIFXGUID@@0@Z     00461610 f i IDTFConverterHelpers:SceneUtilities.obj
 0001:0006074c       ??_ESceneUtilities@U3D_IDTF@@UAEPAXI@Z 0046174c f i IDTFConverterHelpers:SceneUtilities.obj
 0001:0006074c       ??_GSceneUtilities@U3D_IDTF@@UAEPAXI@Z 0046174c f i IDTFConverterHelpers:SceneUtilities.obj
 0001:00060778       ??0?$IFXAutoRelease@VIFXMarker@@@@QAE@AAPAVIFXMarker@@@Z 00461778 f i IDTFConverterHelpers:SceneUtilities.obj
 0001:000607d4       ??1?$IFXAutoRelease@VIFXMarker@@@@QAE@XZ 004617d4 f i IDTFConverterHelpers:SceneUtilities.obj
 0001:00060858       ??0?$IFXAutoRelease@VIFXUnknown@@@@QAE@AAPAVIFXUnknown@@@Z 00461858 f i IDTFConverterHelpers:SceneUtilities.obj
 0001:000608b4       ??1?$IFXAutoRelease@VIFXUnknown@@@@QAE@XZ 004618b4 f i IDTFConverterHelpers:SceneUtilities.obj
 0001:0006092c       ??0?$IFXAutoRelease@VIFXMixerConstruct@@@@QAE@AAPAVIFXMixerConstruct@@@Z 0046192c f i IDTFConverterHelpers:SceneUtilities.obj
 0001:00060988       ??1?$IFXAutoRelease@VIFXMixerConstruct@@@@QAE@XZ 00461988 f i IDTFConverterHelpers:SceneUtilities.obj
 0001:00060a0c       ??0?$IFXAutoRelease@VIFXCoreServices@@@@QAE@AAPAVIFXCoreServices@@@Z 00461a0c f i IDTFConverterHelpers:SceneUtilities.obj
 0001:00060a68       ??1?$IFXAutoRelease@VIFXCoreServices@@@@QAE@XZ 00461a68 f i IDTFConverterHelpers:SceneUtilities.obj
 0001:00060ae0       ??0?$IFXAutoRelease@VIFXSceneGraph@@@@QAE@AAPAVIFXSceneGraph@@@Z 00461ae0 f i IDTFConverterHelpers:SceneUtilities.obj
 0001:00060b3c       ??1?$IFXAutoRelease@VIFXSceneGraph@@@@QAE@XZ 00461b3c f i IDTFConverterHelpers:SceneUtilities.obj
 0001:00060bc0       ??0?$IFXAutoRelease@VIFXPalette@@@@QAE@AAPAVIFXPalette@@@Z 00461bc0 f i IDTFConverterHelpers:SceneUtilities.obj
 0001:00060c1c       ??1?$IFXAutoRelease@VIFXPalette@@@@QAE@XZ 00461c1c f i IDTFConverterHelpers:SceneUtilities.obj
 0001:00060c94       ??0SceneUtilities@U3D_IDTF@@QAE@XZ 00461c94 f   IDTFConverterHelpers:SceneUtilities.obj
 0001:00060e92       ??1SceneUtilities@U3D_IDTF@@UAE@XZ 00461e92 f   IDTFConverterHelpers:SceneUtilities.obj
 0001:00061050       ?InitializeScene@SceneUtilities@U3D_IDTF@@QAEHIN@Z 00462050 f   IDTFConverterHelpers:SceneUtilities.obj
 0001:00061288       ?WriteDebugInfo@SceneUtilities@U3D_IDTF@@QAEHPBD@Z 00462288 f   IDTFConverterHelpers:SceneUtilities.obj
 0001:00061868       ?WriteSceneToFile@SceneUtilities@U3D_IDTF@@QAEHPBGI@Z 00462868 f   IDTFConverterHelpers:SceneUtilities.obj
 0001:00061b06       ?LoadU3DFile@SceneUtilities@U3D_IDTF@@QAEHPBG@Z 00462b06 f   IDTFConverterHelpers:SceneUtilities.obj
 0001:00061e2a       ?CreateFileReference@SceneUtilities@U3D_IDTF@@QAEHABVIFXString@@PAPAVIFXFileReference@@@Z 00462e2a f   IDTFConverterHelpers:SceneUtilities.obj
 0001:000620ec       ?CreateNodePlaceholder@SceneUtilities@U3D_IDTF@@QAEHABVIFXString@@PAI@Z 004630ec f   IDTFConverterHelpers:SceneUtilities.obj
 0001:000622c0       ?CreateNode@SceneUtilities@U3D_IDTF@@QAEHABVIFXString@@ABUIFXGUID@@PAPAVIFXNode@@PAI@Z 004632c0 f   IDTFConverterHelpers:SceneUtilities.obj
 0001:00062582       ?CreateViewNode@SceneUtilities@U3D_IDTF@@QAEHABVIFXString@@0PAPAVIFXView@@@Z 00463582 f   IDTFConverterHelpers:SceneUtilities.obj
 0001:00062882       ?CreateGroupNode@SceneUtilities@U3D_IDTF@@QAEHABVIFXString@@PAPAVIFXNode@@@Z 00463882 f   IDTFConverterHelpers:SceneUtilities.obj
 0001:0006292e       ?CreateLightNode@SceneUtilities@U3D_IDTF@@QAEHABVIFXString@@0PAPAVIFXLight@@@Z 0046392e f   IDTFConverterHelpers:SceneUtilities.obj
 0001:00062c2a       ?CreateModelNode@SceneUtilities@U3D_IDTF@@QAEHABVIFXString@@0PAPAVIFXModel@@@Z 00463c2a f   IDTFConverterHelpers:SceneUtilities.obj
 0001:00062f38       ?FindNode@SceneUtilities@U3D_IDTF@@QAEHABVIFXString@@PAPAVIFXNode@@PAI@Z 00463f38 f   IDTFConverterHelpers:SceneUtilities.obj
 0001:000631b2       ?CreateResourcePlaceholder@SceneUtilities@U3D_IDTF@@QAEHABVIFXString@@W4EIFXPalette@IFXSceneGraph@@PAI@Z 004641b2 f   IDTFConverterHelpers:SceneUtilities.obj
 0001:0006335c       ?CreateViewResource@SceneUtilities@U3D_IDTF@@QAEHABVIFXString@@PAPAVIFXViewResource@@@Z 0046435c f   IDTFConverterHelpers:SceneUtilities.obj
 0001:0006362e       ?CreateLightResource@SceneUtilities@U3D_IDTF@@QAEHABVIFXString@@PAPAVIFXLightResource@@@Z 0046462e f   IDTFConverterHelpers:SceneUtilities.obj
 0001:00063900       ?CreateMeshResource@SceneUtilities@U3D_IDTF@@QAEHABVIFXString@@PAVIFXAuthorMesh@@AAUIFXAuthorGeomCompilerParams@@PAPAVIFXAuthorCLODResource@@@Z 00464900 f   IDTFConverterHelpers:SceneUtilities.obj
 0001:00063d22       ?CreatePointSetResource@SceneUtilities@U3D_IDTF@@QAEHABVIFXString@@PAVIFXAuthorPointSet@@IPAPAVIFXAuthorPointSetResource@@@Z 00464d22 f   IDTFConverterHelpers:SceneUtilities.obj
 0001:00063eea       ?CreateLineSetResource@SceneUtilities@U3D_IDTF@@QAEHABVIFXString@@PAVIFXAuthorLineSet@@IPAPAVIFXAuthorLineSetResource@@@Z 00464eea f   IDTFConverterHelpers:SceneUtilities.obj
 0001:000640b2       ?CreateModelResource@SceneUtilities@U3D_IDTF@@QAEHABVIFXString@@ABUIFXGUID@@IPAPAVIFXGenerator@@@Z 004650b2 f   IDTFConverterHelpers:SceneUtilities.obj
 0001:0006449e       ?CreateMotionResource@SceneUtilities@U3D_IDTF@@QAEHABVIFXString@@IIPAIPAPAVIFXMotionResource@@@Z 0046549e f   IDTFConverterHelpers:SceneUtilities.obj
 0001:00064b9a       ?FindPaletteEntry@SceneUtilities@U3D_IDTF@@QAEHABVIFXString@@W4EIFXPalette@IFXSceneGraph@@PAPAVIFXUnknown@@PAI@Z 00465b9a f   IDTFConverterHelpers:SceneUtilities.obj
 0001:00064db0       ?FindTexture@SceneUtilities@U3D_IDTF@@QAEHABVIFXString@@PAPAVIFXTextureObject@@PAI@Z 00465db0 f   IDTFConverterHelpers:SceneUtilities.obj
 0001:00064f32       ?FindMaterial@SceneUtilities@U3D_IDTF@@QAEHABVIFXString@@PAPAVIFXMaterialResource@@PAI@Z 00465f32 f   IDTFConverterHelpers:SceneUtilities.obj
 0001:000650b4       ?FindShader@SceneUtilities@U3D_IDTF@@QAEHABVIFXString@@PAPAVIFXShaderLitTexture@@PAI@Z 004660b4 f   IDTFConverterHelpers:SceneUtilities.obj
 0001:00065236       ?FindMotionResource@SceneUtilities@U3D_IDTF@@QAEHABVIFXString@@PAPAVIFXMotionResource@@@Z 00466236 f   IDTFConverterHelpers:SceneUtilities.obj
 0001:00065400       ?FindResourceByModelName@SceneUtilities@U3D_IDTF@@QAEHABVIFXString@@PAPAVIFXAuthorCLODResource@@@Z 00466400 f   IDTFConverterHelpers:SceneUtilities.obj
 0001:000655d8       ?FindModelResource@SceneUtilities@U3D_IDTF@@QAEHABVIFXString@@PAPAVIFXGenerator@@@Z 004665d8 f   IDTFConverterHelpers:SceneUtilities.obj
 0001:00065788       ?FindModel@SceneUtilities@U3D_IDTF@@QAEHABVIFXString@@PAPAVIFXModel@@@Z 00466788 f   IDTFConverterHelpers:SceneUtilities.obj
 0001:00065980       ?CreateShader@SceneUtilities@U3D_IDTF@@QAEHABVIFXString@@0PAPAVIFXShaderLitTexture@@@Z 00466980 f   IDTFConverterHelpers:SceneUtilities.obj
 0001:00065d10       ?GetMaterialFromShader@SceneUtilities@U3D_IDTF@@QAEHPAVIFXShaderLitTexture@@PAPAVIFXMaterialResource@@@Z 00466d10 f   IDTFConverterHelpers:SceneUtilities.obj
 0001:00065f0c       ?GetTextureFromShader@SceneUtilities@U3D_IDTF@@QAEHPAVIFXShaderLitTexture@@PAPAVIFXTextureObject@@I@Z 00466f0c f   IDTFConverterHelpers:SceneUtilities.obj
 0001:0006613a       ?CreateMaterial@SceneUtilities@U3D_IDTF@@QAEHABVIFXString@@PAPAVIFXMaterialResource@@@Z 0046713a f   IDTFConverterHelpers:SceneUtilities.obj
 0001:000663c8       ?AddTexturePaletteEntry@SceneUtilities@U3D_IDTF@@QAEHABVIFXString@@PAI@Z 004673c8 f   IDTFConverterHelpers:SceneUtilities.obj
 0001:00066574       ?CreateTexture@SceneUtilities@U3D_IDTF@@QAEHABVIFXString@@IPAPAVIFXTextureObject@@@Z 00467574 f   IDTFConverterHelpers:SceneUtilities.obj
 0001:00066890       ?SetRenderWire@SceneUtilities@U3D_IDTF@@QAEHABVIFXString@@H@Z 00467890 f   IDTFConverterHelpers:SceneUtilities.obj
 0001:00066a36       ?GetSceneMetaData@SceneUtilities@U3D_IDTF@@QAEHPAPAVIFXMetaDataX@@@Z 00467a36 f   IDTFConverterHelpers:SceneUtilities.obj
 0001:00066af8       ??0?$IFXAutoRelease@VIFXModifierChain@@@@QAE@AAPAVIFXModifierChain@@@Z 00467af8 f i IDTFConverterHelpers:ModifierUtilities.obj
 0001:00066b54       ??1?$IFXAutoRelease@VIFXModifierChain@@@@QAE@XZ 00467b54 f i IDTFConverterHelpers:ModifierUtilities.obj
 0001:00066bd8       ??0?$IFXAutoRelease@VIFXSimpleList@@@@QAE@AAPAVIFXSimpleList@@@Z 00467bd8 f i IDTFConverterHelpers:ModifierUtilities.obj
 0001:00066c34       ??1?$IFXAutoRelease@VIFXSimpleList@@@@QAE@XZ 00467c34 f i IDTFConverterHelpers:ModifierUtilities.obj
 0001:00066cac       ?AddModifier@SceneUtilities@U3D_IDTF@@QAEHABVIFXString@@0PAVIFXModifier@@@Z 00467cac f   IDTFConverterHelpers:ModifierUtilities.obj
 0001:000670f8       ?AddBoneWeightModifier@SceneUtilities@U3D_IDTF@@QAEHABVIFXString@@0PAPAVIFXBoneWeightsModifier@@@Z 004680f8 f   IDTFConverterHelpers:ModifierUtilities.obj
 0001:000671ec       ?AddShadingModifier@SceneUtilities@U3D_IDTF@@QAEHABVIFXString@@0PAPAVIFXShadingModifier@@@Z 004681ec f   IDTFConverterHelpers:ModifierUtilities.obj
 0001:000672de       ?AddGlyphModifier@SceneUtilities@U3D_IDTF@@QAEHABVIFXString@@0NNNPAVIFXGlyphCommandList@@PAPAVIFXGlyph2DModifier@@@Z 004682de f   IDTFConverterHelpers:ModifierUtilities.obj
 0001:000674fe       ?AddCLODModifier@SceneUtilities@U3D_IDTF@@QAEHABVIFXString@@0PAPAVIFXCLODModifier@@@Z 004684fe f   IDTFConverterHelpers:ModifierUtilities.obj
 0001:000675f0       ?AddSubdivisionModifier@SceneUtilities@U3D_IDTF@@QAEHABVIFXString@@0PAPAVIFXSubdivModifier@@@Z 004685f0 f   IDTFConverterHelpers:ModifierUtilities.obj
 0001:000677fc       ?AddAnimationModifier@SceneUtilities@U3D_IDTF@@QAEHABVIFXString@@0HPAPAVIFXAnimationModifier@@@Z 004687fc f   IDTFConverterHelpers:ModifierUtilities.obj
 0001:00067928       ?AssignAnimationToModifier@SceneUtilities@U3D_IDTF@@QAEHPAVIFXAnimationModifier@@ABVIFXString@@MMHH@Z 00468928 f   IDTFConverterHelpers:ModifierUtilities.obj
 0001:00067a80       ??_ETGAImage@U3D_IDTF@@UAEPAXI@Z 00468a80 f i IDTFConverterHelpers:TGAImage.obj
 0001:00067a80       ??_GTGAImage@U3D_IDTF@@UAEPAXI@Z 00468a80 f i IDTFConverterHelpers:TGAImage.obj
 0001:00067aac       ??0TGAImage@U3D_IDTF@@QAE@XZ 00468aac f   IDTFConverterHelpers:TGAImage.obj
 0001:00067ae2       ??1TGAImage@U3D_IDTF@@UAE@XZ 00468ae2 f   IDTFConverterHelpers:TGAImage.obj
 0001:00067afe       ?Initialize@TGAImage@U3D_IDTF@@QAEHIII@Z 00468afe f   IDTFConverterHelpers:TGAImage.obj
 0001:00067b8c       ?Deallocate@TGAImage@U3D_IDTF@@QAEHXZ 00468b8c f   IDTFConverterHelpers:TGAImage.obj
 0001:00067bec       ?Write@TGAImage@U3D_IDTF@@QAEHPBG@Z 00468bec f   IDTFConverterHelpers:TGAImage.obj
 0001:00067ea4       ?Read@TGAImage@U3D_IDTF@@QAEHPBG@Z 00468ea4 f   IDTFConverterHelpers:TGAImage.obj
 0001:00068170       ??_EIFXRenderClear@@UAEPAXI@Z 00469170 f i IDTFConverterHelpers:DebugInfo.obj
 0001:00068170       ??_GIFXRenderClear@@UAEPAXI@Z 00469170 f i IDTFConverterHelpers:DebugInfo.obj
 0001:0006819c       ??_EIFXRenderFog@@UAEPAXI@Z 0046919c f i IDTFConverterHelpers:DebugInfo.obj
 0001:0006819c       ??_GIFXRenderFog@@UAEPAXI@Z 0046919c f i IDTFConverterHelpers:DebugInfo.obj
 0001:000681c8       ??_EIFXListContext@@UAEPAXI@Z 004691c8 f i IDTFConverterHelpers:DebugInfo.obj
 0001:000681c8       ??_GIFXListContext@@UAEPAXI@Z 004691c8 f i IDTFConverterHelpers:DebugInfo.obj
 0001:000681f4       ??_EDebugInfo@U3D_IDTF@@UAEPAXI@Z 004691f4 f i IDTFConverterHelpers:DebugInfo.obj
 0001:000681f4       ??_GDebugInfo@U3D_IDTF@@UAEPAXI@Z 004691f4 f i IDTFConverterHelpers:DebugInfo.obj
 0001:00068220       ?Value@IFXVector3@@QAEAAMI@Z 00469220 f i IDTFConverterHelpers:DebugInfo.obj
 0001:0006826c       ?X@IFXVector3@@QAEAAMXZ    0046926c f i IDTFConverterHelpers:DebugInfo.obj
 0001:00068278       ?Y@IFXVector3@@QAEAAMXZ    00469278 f i IDTFConverterHelpers:DebugInfo.obj
 0001:00068288       ?Z@IFXVector3@@QAEAAMXZ    00469288 f i IDTFConverterHelpers:DebugInfo.obj
 0001:00068298       ?Value@IFXVector4@@QAEAAMI@Z 00469298 f i IDTFConverterHelpers:DebugInfo.obj
 0001:000682e4       ?R@IFXVector4@@QAEAAMXZ    004692e4 f i IDTFConverterHelpers:DebugInfo.obj
 0001:000682f0       ?G@IFXVector4@@QAEAAMXZ    004692f0 f i IDTFConverterHelpers:DebugInfo.obj
 0001:00068300       ?B@IFXVector4@@QAEAAMXZ    00469300 f i IDTFConverterHelpers:DebugInfo.obj
 0001:00068310       ?A@IFXVector4@@QAEAAMXZ    00469310 f i IDTFConverterHelpers:DebugInfo.obj
 0001:00068320       ?X@IFXVector4@@QAEAAMXZ    00469320 f i IDTFConverterHelpers:DebugInfo.obj
 0001:0006832c       ?Y@IFXVector4@@QAEAAMXZ    0046932c f i IDTFConverterHelpers:DebugInfo.obj
 0001:0006833c       ?Z@IFXVector4@@QAEAAMXZ    0046933c f i IDTFConverterHelpers:DebugInfo.obj
 0001:0006834c       ?Reset@IFXMatrix4x4@@QAEXXZ 0046934c f i IDTFConverterHelpers:DebugInfo.obj
 0001:00068360       ?Raw@IFXMatrix4x4@@QAEPAMXZ 00469360 f i IDTFConverterHelpers:DebugInfo.obj
 0001:0006836c       ??0IFXVertexAttributes@@QAE@XZ 0046936c f i IDTFConverterHelpers:DebugInfo.obj
 0001:000684ac       ??0IFXRenderClear@@QAE@XZ  004694ac f i IDTFConverterHelpers:DebugInfo.obj
 0001:000684d8       ??1IFXRenderClear@@UAE@XZ  004694d8 f i IDTFConverterHelpers:DebugInfo.obj
 0001:000684ec       ?GetColorCleared@IFXRenderClear@@QBIHXZ 004694ec f i IDTFConverterHelpers:DebugInfo.obj
 0001:0006850c       ?GetDepthCleared@IFXRenderClear@@QBIHXZ 0046950c f i IDTFConverterHelpers:DebugInfo.obj
 0001:0006852c       ?GetStencilCleared@IFXRenderClear@@QBIHXZ 0046952c f i IDTFConverterHelpers:DebugInfo.obj
 0001:0006854c       ?GetColorValue@IFXRenderClear@@QBIABVIFXVector3@@XZ 0046954c f i IDTFConverterHelpers:DebugInfo.obj
 0001:0006855c       ?GetDepthValue@IFXRenderClear@@QBIMXZ 0046955c f i IDTFConverterHelpers:DebugInfo.obj
 0001:0006856c       ?GetStencilValue@IFXRenderClear@@QBIIXZ 0046956c f i IDTFConverterHelpers:DebugInfo.obj
 0001:0006857c       ?InitData@IFXRenderClear@@QAIXXZ 0046957c f i IDTFConverterHelpers:DebugInfo.obj
 0001:000685c4       ??4IFXRenderClear@@QAEAAV0@ABV0@@Z 004695c4 f i IDTFConverterHelpers:DebugInfo.obj
 0001:00068610       ??0IFXRenderFog@@QAE@XZ    00469610 f i IDTFConverterHelpers:DebugInfo.obj
 0001:0006863c       ??1IFXRenderFog@@UAE@XZ    0046963c f i IDTFConverterHelpers:DebugInfo.obj
 0001:00068650       ?GetMode@IFXRenderFog@@QBIIXZ 00469650 f i IDTFConverterHelpers:DebugInfo.obj
 0001:00068660       ?GetColor@IFXRenderFog@@QBIABVIFXVector4@@XZ 00469660 f i IDTFConverterHelpers:DebugInfo.obj
 0001:00068670       ?GetLinearNear@IFXRenderFog@@QBIMXZ 00469670 f i IDTFConverterHelpers:DebugInfo.obj
 0001:00068680       ?GetFar@IFXRenderFog@@QBIMXZ 00469680 f i IDTFConverterHelpers:DebugInfo.obj
 0001:00068690       ?InitData@IFXRenderFog@@QAIXXZ 00469690 f i IDTFConverterHelpers:DebugInfo.obj
 0001:000686e0       ??4IFXRenderFog@@QAEAAV0@ABV0@@Z 004696e0 f i IDTFConverterHelpers:DebugInfo.obj
 0001:0006872c       ?GetPointer@IFXListNode@@QBEPAXXZ 0046972c f i IDTFConverterHelpers:DebugInfo.obj
 0001:0006873c       ?GetNext@IFXListNode@@QBEPAV1@XZ 0046973c f i IDTFConverterHelpers:DebugInfo.obj
 0001:0006874c       ?GetHeir@IFXListNode@@QBEPAV1@XZ 0046974c f i IDTFConverterHelpers:DebugInfo.obj
 0001:0006875c       ?GetValid@IFXListNode@@QBE_NXZ 0046975c f i IDTFConverterHelpers:DebugInfo.obj
 0001:0006876c       ?IncReferences@IFXListNode@@QAEXXZ 0046976c f i IDTFConverterHelpers:DebugInfo.obj
 0001:00068780       ??0IFXListContext@@QAE@XZ  00469780 f i IDTFConverterHelpers:DebugInfo.obj
 0001:000687a0       ??1IFXListContext@@UAE@XZ  004697a0 f i IDTFConverterHelpers:DebugInfo.obj
 0001:000687cc       ?Init@IFXListContext@@QAEXXZ 004697cc f i IDTFConverterHelpers:DebugInfo.obj
 0001:000687ec       ?GetCurrent@IFXListContext@@QAEPAVIFXListNode@@XZ 004697ec f i IDTFConverterHelpers:DebugInfo.obj
 0001:00068808       ?SetCurrent@IFXListContext@@QAEXPAVIFXListNode@@@Z 00469808 f i IDTFConverterHelpers:DebugInfo.obj
 0001:00068890       ?SetAtTail@IFXListContext@@QAEX_N@Z 00469890 f i IDTFConverterHelpers:DebugInfo.obj
 0001:000688a8       ?GetAtTail@IFXListContext@@QAE_NXZ 004698a8 f i IDTFConverterHelpers:DebugInfo.obj
 0001:000688b8       ?CheckValid@IFXListContext@@AAEXXZ 004698b8 f i IDTFConverterHelpers:DebugInfo.obj
 0001:000689a4       ?SetCorePointer@IFXListContext@@QAEXPBVIFXCoreList@@@Z 004699a4 f i IDTFConverterHelpers:DebugInfo.obj
 0001:000689b8       ?CheckCorePointer@IFXListContext@@QBE_NPBVIFXCoreList@@@Z 004699b8 f i IDTFConverterHelpers:DebugInfo.obj
 0001:00068a74       ?GetNumberElements@IFXCoreList@@QBEJXZ 00469a74 f i IDTFConverterHelpers:DebugInfo.obj
 0001:00068a84       ?IsAtTail@IFXCoreList@@QBEHAAVIFXListContext@@@Z 00469a84 f i IDTFConverterHelpers:DebugInfo.obj
 0001:00068ad8       ??AIFXQuaternion@@QAEAAMH@Z 00469ad8 f i IDTFConverterHelpers:DebugInfo.obj
 0001:00068aec       ??0IFXTransform@@QAE@XZ    00469aec f i IDTFConverterHelpers:DebugInfo.obj
 0001:00068b38       ?Reset@IFXTransform@@QAEXXZ 00469b38 f i IDTFConverterHelpers:DebugInfo.obj
 0001:00068b7c       ??4IFXTransform@@QAEAAV0@ABVIFXMatrix4x4@@@Z 00469b7c f i IDTFConverterHelpers:DebugInfo.obj
 0001:00068bbc       ?MatrixConst@IFXTransform@@QAEABVIFXMatrix4x4@@XZ 00469bbc f i IDTFConverterHelpers:DebugInfo.obj
 0001:00068bd4       ?GetElement@?$IFXArray@VIFXMatrix4x4@@@@QAEAAVIFXMatrix4x4@@I@Z 00469bd4 f i IDTFConverterHelpers:DebugInfo.obj
 0001:00068c28       ??0?$IFXAutoRelease@VIFXBoundSphereDataElement@@@@QAE@AAPAVIFXBoundSphereDataElement@@@Z 00469c28 f i IDTFConverterHelpers:DebugInfo.obj
 0001:00068c84       ??1?$IFXAutoRelease@VIFXBoundSphereDataElement@@@@QAE@XZ 00469c84 f i IDTFConverterHelpers:DebugInfo.obj
 0001:00068d08       ??0?$IFXAutoRelease@VIFXCLODManager@@@@QAE@AAPAVIFXCLODManager@@@Z 00469d08 f i IDTFConverterHelpers:DebugInfo.obj
 0001:00068d64       ??1?$IFXAutoRelease@VIFXCLODManager@@@@QAE@XZ 00469d64 f i IDTFConverterHelpers:DebugInfo.obj
 0001:00068de8       ??0?$IFXAutoRelease@VIFXMeshGroup@@@@QAE@AAPAVIFXMeshGroup@@@Z 00469de8 f i IDTFConverterHelpers:DebugInfo.obj
 0001:00068e44       ??1?$IFXAutoRelease@VIFXMeshGroup@@@@QAE@XZ 00469e44 f i IDTFConverterHelpers:DebugInfo.obj
 0001:00068ec8       ??0?$IFXAttributes@$0BG@@@QAE@XZ 00469ec8 f i IDTFConverterHelpers:DebugInfo.obj
 0001:00068ef8       ??4?$IFXAttributes@$0BG@@@QAEAAV0@ABV0@@Z 00469ef8 f i IDTFConverterHelpers:DebugInfo.obj
 0001:00068f28       ??A?$IFXAttributes@$0BG@@@QBE_NI@Z 00469f28 f i IDTFConverterHelpers:DebugInfo.obj
 0001:00068f40       ??0?$IFXAutoRelease@VIFXRenderable@@@@QAE@AAPAVIFXRenderable@@@Z 00469f40 f i IDTFConverterHelpers:DebugInfo.obj
 0001:00068f9c       ??1?$IFXAutoRelease@VIFXRenderable@@@@QAE@XZ 00469f9c f i IDTFConverterHelpers:DebugInfo.obj
 0001:00069020       ??0?$IFXAutoRelease@VIFXModifierDataPacket@@@@QAE@AAPAVIFXModifierDataPacket@@@Z 0046a020 f i IDTFConverterHelpers:DebugInfo.obj
 0001:0006907c       ??1?$IFXAutoRelease@VIFXModifierDataPacket@@@@QAE@XZ 0046a07c f i IDTFConverterHelpers:DebugInfo.obj
 0001:00069100       ?ToHead@?$IFXList@VIFXMapEntry@@@@QBEPAVIFXMapEntry@@AAVIFXListContext@@@Z 0046a100 f i IDTFConverterHelpers:DebugInfo.obj
 0001:0006914c       ?PostIncrement@?$IFXList@VIFXMapEntry@@@@QBEPAVIFXMapEntry@@AAVIFXListContext@@@Z 0046a14c f i IDTFConverterHelpers:DebugInfo.obj
 0001:000691f4       ?GetCurrent@?$IFXList@VIFXMapEntry@@@@QBEPAVIFXMapEntry@@AAVIFXListContext@@@Z 0046a1f4 f i IDTFConverterHelpers:DebugInfo.obj
 0001:00069248       ??0DebugInfo@U3D_IDTF@@QAE@XZ 0046a248 f   IDTFConverterHelpers:DebugInfo.obj
 0001:0006928c       ??1DebugInfo@U3D_IDTF@@UAE@XZ 0046a28c f   IDTFConverterHelpers:DebugInfo.obj
 0001:000692b8       ?SetFlag@DebugInfo@U3D_IDTF@@QAEHII@Z 0046a2b8 f   IDTFConverterHelpers:DebugInfo.obj
 0001:000692ea       ?Init@DebugInfo@U3D_IDTF@@QAEHPBD@Z 0046a2ea f   IDTFConverterHelpers:DebugInfo.obj
 0001:00069446       ?Close@DebugInfo@U3D_IDTF@@QAEXXZ 0046a446 f   IDTFConverterHelpers:DebugInfo.obj
 0001:00069474       ?WriteIf@DebugInfo@U3D_IDTF@@QAAXIPBDZZ 0046a474 f   IDTFConverterHelpers:DebugInfo.obj
 0001:000694d8       ?Write@DebugInfo@U3D_IDTF@@QAAXPBDZZ 0046a4d8 f   IDTFConverterHelpers:DebugInfo.obj
 0001:0006952e       ?Write@DebugInfo@U3D_IDTF@@QAEXPAVIFXShaderLitTexture@@@Z 0046a52e f   IDTFConverterHelpers:DebugInfo.obj
 0001:00069de4       ?Write@DebugInfo@U3D_IDTF@@QAEXPAVIFXShaderLitTexture@@I@Z 0046ade4 f   IDTFConverterHelpers:DebugInfo.obj
 0001:0006a2ae       ?Write@DebugInfo@U3D_IDTF@@QAEXPAVIFXAnimationModifier@@@Z 0046b2ae f   IDTFConverterHelpers:DebugInfo.obj
 0001:0006a6d4       ?Write@DebugInfo@U3D_IDTF@@QAEXPAVIFXSubdivModifier@@@Z 0046b6d4 f   IDTFConverterHelpers:DebugInfo.obj
 0001:0006a88c       ?Write@DebugInfo@U3D_IDTF@@QAEXPAVIFXCLODModifier@@@Z 0046b88c f   IDTFConverterHelpers:DebugInfo.obj
 0001:0006a988       ?Write@DebugInfo@U3D_IDTF@@QAEXPAVIFXAuthorCLODResource@@@Z 0046b988 f   IDTFConverterHelpers:DebugInfo.obj
 0001:0006b222       ?Write@DebugInfo@U3D_IDTF@@QAEXPAVIFXAuthorLineSetResource@@@Z 0046c222 f   IDTFConverterHelpers:DebugInfo.obj
 0001:0006b716       ?Write@DebugInfo@U3D_IDTF@@QAEXPAVIFXGenerator@@@Z 0046c716 f   IDTFConverterHelpers:DebugInfo.obj
 0001:0006b82c       ?WriteBoneWeightGenerator@DebugInfo@U3D_IDTF@@QAEXPAVIFXSkeleton@@@Z 0046c82c f   IDTFConverterHelpers:DebugInfo.obj
 0001:0006bed4       ?Write@DebugInfo@U3D_IDTF@@QAEXPAVIFXMotionResource@@@Z 0046ced4 f   IDTFConverterHelpers:DebugInfo.obj
 0001:0006c3ba       ?Write@DebugInfo@U3D_IDTF@@QAEXPAVIFXMixerConstruct@@PAVIFXPalette@@1@Z 0046d3ba f   IDTFConverterHelpers:DebugInfo.obj
 0001:0006c9dc       ?Write@DebugInfo@U3D_IDTF@@QAEXPAVIFXMaterialResource@@@Z 0046d9dc f   IDTFConverterHelpers:DebugInfo.obj
 0001:0006cf10       ?Write@DebugInfo@U3D_IDTF@@QAEXPAUIFXBoneInfo@@@Z 0046df10 f   IDTFConverterHelpers:DebugInfo.obj
 0001:0006d076       ?Write@DebugInfo@U3D_IDTF@@QAEXPAVIFXQuaternion@@@Z 0046e076 f   IDTFConverterHelpers:DebugInfo.obj
 0001:0006d14c       ?Write@DebugInfo@U3D_IDTF@@QAEXPAVIFXKeyFrame@@@Z 0046e14c f   IDTFConverterHelpers:DebugInfo.obj
 0001:0006d18e       ?Write@DebugInfo@U3D_IDTF@@QAEXPAVIFXTextureObject@@@Z 0046e18e f   IDTFConverterHelpers:DebugInfo.obj
 0001:0006dedc       ?Write@DebugInfo@U3D_IDTF@@QAEXPAVIFXSimulationTask@@@Z 0046eedc f   IDTFConverterHelpers:DebugInfo.obj
 0001:0006df38       ?Write@DebugInfo@U3D_IDTF@@QAEXPAVIFXModifierChain@@@Z 0046ef38 f   IDTFConverterHelpers:DebugInfo.obj
 0001:0006e876       ?Write@DebugInfo@U3D_IDTF@@QAEXPAVIFXModifierDataPacket@@@Z 0046f876 f   IDTFConverterHelpers:DebugInfo.obj
 0001:0006fa04       ?Write@DebugInfo@U3D_IDTF@@QAEXPAVIFXRenderable@@@Z 00470a04 f   IDTFConverterHelpers:DebugInfo.obj
 0001:0006fc72       ?Write@DebugInfo@U3D_IDTF@@QAEXPAVIFXMeshGroup@@@Z 00470c72 f   IDTFConverterHelpers:DebugInfo.obj
 0001:0006fcb4       ?Write@DebugInfo@U3D_IDTF@@QAEXPAVIFXMesh@@@Z 00470cb4 f   IDTFConverterHelpers:DebugInfo.obj
 0001:0006fcf6       ?Write@DebugInfo@U3D_IDTF@@QAEXPAVIFXView@@@Z 00470cf6 f   IDTFConverterHelpers:DebugInfo.obj
 0001:000707c6       ?Write@DebugInfo@U3D_IDTF@@QAEXPAVIFXModel@@@Z 004717c6 f   IDTFConverterHelpers:DebugInfo.obj
 0001:00070808       ?Write@DebugInfo@U3D_IDTF@@QAEXPAVIFXLight@@@Z 00471808 f   IDTFConverterHelpers:DebugInfo.obj
 0001:00070c4c       ?Write@DebugInfo@U3D_IDTF@@QAEXPAVIFXNode@@@Z 00471c4c f   IDTFConverterHelpers:DebugInfo.obj
 0001:00070fb0       ?Write@DebugInfo@U3D_IDTF@@QAEXPAVIFXVector3@@@Z 00471fb0 f   IDTFConverterHelpers:DebugInfo.obj
 0001:00071050       ?Write@DebugInfo@U3D_IDTF@@QAEXPAVIFXVector4@@@Z 00472050 f   IDTFConverterHelpers:DebugInfo.obj
 0001:00071126       ?Write@DebugInfo@U3D_IDTF@@QAEXPAVIFXMatrix4x4@@PBD@Z 00472126 f   IDTFConverterHelpers:DebugInfo.obj
 0001:00071268       ?Write@DebugInfo@U3D_IDTF@@QAEXPAVIFXString@@@Z 00472268 f   IDTFConverterHelpers:DebugInfo.obj
 0001:00071336       ?Write@DebugInfo@U3D_IDTF@@QAEXPAM@Z 00472336 f   IDTFConverterHelpers:DebugInfo.obj
 0001:0007139a       ?WriteColor@DebugInfo@U3D_IDTF@@QAEXPAVIFXVector4@@@Z 0047239a f   IDTFConverterHelpers:DebugInfo.obj
 0001:00071470       ?WriteColor@DebugInfo@U3D_IDTF@@QAEXPAVIFXVector3@@@Z 00472470 f   IDTFConverterHelpers:DebugInfo.obj
 0001:00071528       ?Write@DebugInfo@U3D_IDTF@@QAEXPAVIFXPalette@@@Z 00472528 f   IDTFConverterHelpers:DebugInfo.obj
 0001:0007175c       ?WriteNodePalette@DebugInfo@U3D_IDTF@@QAEXPAVIFXPalette@@@Z 0047275c f   IDTFConverterHelpers:DebugInfo.obj
 0001:00072226       ?WriteLightPalette@DebugInfo@U3D_IDTF@@QAEXPAVIFXPalette@@@Z 00473226 f   IDTFConverterHelpers:DebugInfo.obj
 0001:000724fc       ?WriteViewPalette@DebugInfo@U3D_IDTF@@QAEXPAVIFXPalette@@@Z 004734fc f   IDTFConverterHelpers:DebugInfo.obj
 0001:000727d2       ?WriteModelPalette@DebugInfo@U3D_IDTF@@QAEXPAVIFXPalette@@@Z 004737d2 f   IDTFConverterHelpers:DebugInfo.obj
 0001:00072e7a       ?WriteMaterialPalette@DebugInfo@U3D_IDTF@@QAEXPAVIFXPalette@@@Z 00473e7a f   IDTFConverterHelpers:DebugInfo.obj
 0001:000731b0       ?WriteShaderPalette@DebugInfo@U3D_IDTF@@QAEXPAVIFXPalette@@@Z 004741b0 f   IDTFConverterHelpers:DebugInfo.obj
 0001:000734e6       ?WriteMotionPalette@DebugInfo@U3D_IDTF@@QAEXPAVIFXPalette@@@Z 004744e6 f   IDTFConverterHelpers:DebugInfo.obj
 0001:0007384c       ?WriteMixerPalette@DebugInfo@U3D_IDTF@@QAEXPAVIFXPalette@@0@Z 0047484c f   IDTFConverterHelpers:DebugInfo.obj
 0001:00073bb0       ?WriteTexturePalette@DebugInfo@U3D_IDTF@@QAEXPAVIFXPalette@@@Z 00474bb0 f   IDTFConverterHelpers:DebugInfo.obj
 0001:00073eea       ?WriteSimulationTaskPalette@DebugInfo@U3D_IDTF@@QAEXPAVIFXPalette@@@Z 00474eea f   IDTFConverterHelpers:DebugInfo.obj
 0001:00074214       ?DumpChildNodes@DebugInfo@U3D_IDTF@@QAEHPAVIFXPalette@@PAVIFXNode@@II@Z 00475214 f   IDTFConverterHelpers:DebugInfo.obj
 0001:0007455c       ?CompressMotionTracks@SceneUtilities@U3D_IDTF@@QAEHPAVIFXMotionResource@@@Z 0047555c f   IDTFConverterHelpers:MiscUtilities.obj
 0001:0007462c       ?TestModifierResourceChain@SceneUtilities@U3D_IDTF@@QAEHPAVIFXAuthorCLODResource@@ABUIFXGUID@@PAI@Z 0047562c f   IDTFConverterHelpers:MiscUtilities.obj
 0001:000748b2       ?TestModifierNodeChain@SceneUtilities@U3D_IDTF@@QAEHPAVIFXNode@@ABUIFXGUID@@PAI@Z 004758b2 f   IDTFConverterHelpers:MiscUtilities.obj
 0001:00074bc8       ?GetWorldTransform@SceneUtilities@U3D_IDTF@@QAEHPAVIFXNode@@PAVIFXMatrix4x4@@@Z 00475bc8 f   IDTFConverterHelpers:MiscUtilities.obj
 0001:00074d70       ??3@YAXPAX@Z               00475d70 f   LIBCMTD:dbgdel.obj
 0001:00074e48       __global_unwind2           00475e48 f   LIBCMTD:exsup.obj
 0001:00074e8a       __local_unwind2            00475e8a f   LIBCMTD:exsup.obj
 0001:00074ee2       __NLG_Return2              00475ee2     LIBCMTD:exsup.obj
 0001:00074ef2       __abnormal_termination     00475ef2 f   LIBCMTD:exsup.obj
 0001:00074f15       __NLG_Notify1              00475f15 f   LIBCMTD:exsup.obj
 0001:00074f1e       __NLG_Notify               00475f1e f   LIBCMTD:exsup.obj
 0001:00074f31       __NLG_Dispatch             00475f31     LIBCMTD:exsup.obj
 0001:00074f40       ?_JumpToContinuation@@YGXPAXPAUEHRegistrationNode@@@Z 00475f40 f   LIBCMTD:trnsctrl.obj
 0001:00074f80       ?_CallMemberFunction0@@YGXPAX0@Z 00475f80 f   LIBCMTD:trnsctrl.obj
 0001:00074f90       ?_CallMemberFunction1@@YGXPAX00@Z 00475f90 f   LIBCMTD:trnsctrl.obj
 0001:00074fa0       ?_CallMemberFunction2@@YGXPAX00H@Z 00475fa0 f   LIBCMTD:trnsctrl.obj
 0001:00074fb0       ?_UnwindNestedFrames@@YGXPAUEHRegistrationNode@@PAUEHExceptionRecord@@@Z 00475fb0 f   LIBCMTD:trnsctrl.obj
 0001:00075010       ___CxxFrameHandler         00476010 f   LIBCMTD:trnsctrl.obj
 0001:00075050       ___CxxLongjmpUnwind@4      00476050 f   LIBCMTD:trnsctrl.obj
 0001:00075080       ?_CallCatchBlock2@@YAPAXPAUEHRegistrationNode@@PBU_s_FuncInfo@@PAXHK@Z 00476080 f   LIBCMTD:trnsctrl.obj
 0001:00075150       ?_CallSETranslator@@YAHPAUEHExceptionRecord@@PAUEHRegistrationNode@@PAX2PBU_s_FuncInfo@@H1@Z 00476150 f   LIBCMTD:trnsctrl.obj
 0001:00075300       ?_GetRangeOfTrysToCheck@@YAPBU_s_TryBlockMapEntry@@PBU_s_FuncInfo@@HHPAI1@Z 00476300 f   LIBCMTD:trnsctrl.obj
 0001:00075390       ?_CreateFrameInfo@@YAPAUFrameInfo@@PAU1@PAX@Z 00476390 f   LIBCMTD:trnsctrl.obj
 0001:000753c0       ?IsExceptionObjectToBeDestroyed@@YAHPAX@Z 004763c0 f   LIBCMTD:trnsctrl.obj
 0001:000753f0       ?_FindAndUnlinkFrame@@YAXPAUFrameInfo@@@Z 004763f0 f   LIBCMTD:trnsctrl.obj
 0001:00075450       ??1type_info@@UAE@XZ       00476450 f   LIBCMTD:typinfo.obj
 0001:000754e0       ??_Gtype_info@@UAEPAXI@Z   004764e0 f i LIBCMTD:typinfo.obj
 0001:000754e0       ??_Etype_info@@UAEPAXI@Z   004764e0 f i LIBCMTD:typinfo.obj
 0001:00075510       ??8type_info@@QBEHABV0@@Z  00476510 f   LIBCMTD:typinfo.obj
 0001:00075540       ??9type_info@@QBEHABV0@@Z  00476540 f   LIBCMTD:typinfo.obj
 0001:00075570       ?before@type_info@@QBEHABV1@@Z 00476570 f   LIBCMTD:typinfo.obj
 0001:000755a0       ?raw_name@type_info@@QBEPBDXZ 004765a0 f   LIBCMTD:typinfo.obj
 0001:000755c0       ??0type_info@@AAE@ABV0@@Z  004765c0 f   LIBCMTD:typinfo.obj
 0001:000755e0       ??4type_info@@AAEAAV0@ABV0@@Z 004765e0 f   LIBCMTD:typinfo.obj
 0001:000755f0       __fpmath                   004765f0 f   LIBCMTD:fpinit.obj
 0001:00075620       __fpclear                  00476620 f   LIBCMTD:fpinit.obj
 0001:00075630       __cfltcvt_init             00476630 f   LIBCMTD:fpinit.obj
 0001:00075680       ___setfflag                00476680 f   LIBCMTD:fpinit.obj
 0001:000756a0       _printf                    004766a0 f   LIBCMTD:printf.obj
 0001:00075770       _strlen                    00476770 f   LIBCMTD:strlen.obj
 0001:00075800       _malloc                    00476800 f   LIBCMTD:dbgheap.obj
 0001:00075830       __malloc_dbg               00476830 f   LIBCMTD:dbgheap.obj
 0001:00075860       __nh_malloc                00476860 f   LIBCMTD:dbgheap.obj
 0001:00075880       __nh_malloc_dbg            00476880 f   LIBCMTD:dbgheap.obj
 0001:00075920       __heap_alloc               00476920 f   LIBCMTD:dbgheap.obj
 0001:00075940       __heap_alloc_dbg           00476940 f   LIBCMTD:dbgheap.obj
 0001:00075c60       _calloc                    00476c60 f   LIBCMTD:dbgheap.obj
 0001:00075c90       __calloc_dbg               00476c90 f   LIBCMTD:dbgheap.obj
 0001:00075cf0       _realloc                   00476cf0 f   LIBCMTD:dbgheap.obj
 0001:00075d20       __realloc_dbg              00476d20 f   LIBCMTD:dbgheap.obj
 0001:000762c0       __expand                   004772c0 f   LIBCMTD:dbgheap.obj
 0001:000762f0       __expand_dbg               004772f0 f   LIBCMTD:dbgheap.obj
 0001:00076380       _free                      00477380 f   LIBCMTD:dbgheap.obj
 0001:000763a0       __free_lk                  004773a0 f   LIBCMTD:dbgheap.obj
 0001:000763c0       __free_dbg                 004773c0 f   LIBCMTD:dbgheap.obj
 0001:00076430       __free_dbg_lk              00477430 f   LIBCMTD:dbgheap.obj
 0001:00076840       __msize                    00477840 f   LIBCMTD:dbgheap.obj
 0001:00076860       __msize_dbg                00477860 f   LIBCMTD:dbgheap.obj
 0001:000769d0       __CrtSetBreakAlloc         004779d0 f   LIBCMTD:dbgheap.obj
 0001:000769f0       __CrtSetDbgBlockType       004779f0 f   LIBCMTD:dbgheap.obj
 0001:00076ad0       __CrtSetAllocHook          00477ad0 f   LIBCMTD:dbgheap.obj
 0001:00076b40       __CrtCheckMemory           00477b40 f   LIBCMTD:dbgheap.obj
 0001:00076eb0       __CrtSetDbgFlag            00477eb0 f   LIBCMTD:dbgheap.obj
 0001:00076f60       __CrtDoForAllClientObjects 00477f60 f   LIBCMTD:dbgheap.obj
 0001:00077010       __CrtIsValidPointer        00478010 f   LIBCMTD:dbgheap.obj
 0001:00077060       __CrtIsValidHeapPointer    00478060 f   LIBCMTD:dbgheap.obj
 0001:00077110       __CrtIsMemoryBlock         00478110 f   LIBCMTD:dbgheap.obj
 0001:00077240       __CrtReportBlockType       00478240 f   LIBCMTD:dbgheap.obj
 0001:00077270       __CrtSetDumpClient         00478270 f   LIBCMTD:dbgheap.obj
 0001:00077290       __CrtMemCheckpoint         00478290 f   LIBCMTD:dbgheap.obj
 0001:00077430       __CrtMemDifference         00478430 f   LIBCMTD:dbgheap.obj
 0001:00077550       __CrtMemDumpAllObjectsSince 00478550 f   LIBCMTD:dbgheap.obj
 0001:00077950       __CrtDumpMemoryLeaks       00478950 f   LIBCMTD:dbgheap.obj
 0001:000779c0       __CrtMemDumpStatistics     004789c0 f   LIBCMTD:dbgheap.obj
 0001:00077a70       __aligned_malloc           00478a70 f   LIBCMTD:dbgheap.obj
 0001:00077a90       __aligned_malloc_dbg       00478a90 f   LIBCMTD:dbgheap.obj
 0001:00077ab0       __aligned_realloc          00478ab0 f   LIBCMTD:dbgheap.obj
 0001:00077ad0       __aligned_realloc_dbg      00478ad0 f   LIBCMTD:dbgheap.obj
 0001:00077b00       __aligned_offset_malloc    00478b00 f   LIBCMTD:dbgheap.obj
 0001:00077b20       __aligned_offset_malloc_dbg 00478b20 f   LIBCMTD:dbgheap.obj
 0001:00077c60       __aligned_offset_realloc   00478c60 f   LIBCMTD:dbgheap.obj
 0001:00077c90       __aligned_offset_realloc_dbg 00478c90 f   LIBCMTD:dbgheap.obj
 0001:00077ef0       __aligned_free             00478ef0 f   LIBCMTD:dbgheap.obj
 0001:00077f10       __aligned_free_dbg         00478f10 f   LIBCMTD:dbgheap.obj
 0001:00077fc0       _mbstowcs                  00478fc0 f   LIBCMTD:mbstowcs.obj
 0001:00078000       ___mbstowcs_mt             00479000 f   LIBCMTD:mbstowcs.obj
 0001:00078200       _fclose                    00479200 f   LIBCMTD:fclose.obj
 0001:000782c0       __fclose_lk                004792c0 f   LIBCMTD:fclose.obj
 0001:00078370       _fgetc                     00479370 f   LIBCMTD:fgetc.obj
 0001:00078450       _getc                      00479450 f   LIBCMTD:fgetc.obj
 0001:00078530       _ftell                     00479530 f   LIBCMTD:ftell.obj
 0001:000785d0       __ftell_lk                 004795d0 f   LIBCMTD:ftell.obj
 0001:00078850       _fseek                     00479850 f   LIBCMTD:fseek.obj
 0001:000788f0       __fseek_lk                 004798f0 f   LIBCMTD:fseek.obj
 0001:00078a00       ??_M@YGXPAXIHP6EX0@Z@Z     00479a00 f   LIBCMTD:ehvecdtr.obj
 0001:00078aa0       ?__ArrayUnwind@@YGXPAXIHP6EX0@Z@Z 00479aa0 f   LIBCMTD:ehvecdtr.obj
 0001:00078b50       ??_V@YAXPAX@Z              00479b50 f   LIBCMTD:delete2.obj
 0001:00078b70       ??2@YAPAXI@Z               00479b70 f   LIBCMTD:new.obj
 0001:00078b90       ??_U@YAPAXI@Z              00479b90 f   LIBCMTD:new2.obj
 0001:00078bb0       ??_L@YGXPAXIHP6EX0@Z1@Z    00479bb0 f   LIBCMTD:ehvecctr.obj
 0001:00078c50       __purecall                 00479c50 f   LIBCMTD:purevirt.obj
 0001:00078c70       __set_purecall_handler     00479c70 f   LIBCMTD:purevirt.obj
 0001:00078ca0       __CxxThrowException@8      00479ca0 f   LIBCMTD:throw.obj
 0001:00078cf0       _memcpy                    00479cf0 f   LIBCMTD:memcpy.obj
 0001:00079030       _swscanf                   0047a030 f   LIBCMTD:swscanf.obj
 0001:000790e0       _isalpha                   0047a0e0 f   LIBCMTD:_ctype.obj
 0001:00079150       _isupper                   0047a150 f   LIBCMTD:_ctype.obj
 0001:000791b0       _islower                   0047a1b0 f   LIBCMTD:_ctype.obj
 0001:00079210       _isdigit                   0047a210 f   LIBCMTD:_ctype.obj
 0001:00079270       _isxdigit                  0047a270 f   LIBCMTD:_ctype.obj
 0001:000792e0       _isspace                   0047a2e0 f   LIBCMTD:_ctype.obj
 0001:00079340       _ispunct                   0047a340 f   LIBCMTD:_ctype.obj
 0001:000793a0       _isalnum                   0047a3a0 f   LIBCMTD:_ctype.obj
 0001:00079410       _isprint                   0047a410 f   LIBCMTD:_ctype.obj
 0001:00079480       _isgraph                   0047a480 f   LIBCMTD:_ctype.obj
 0001:000794f0       _iscntrl                   0047a4f0 f   LIBCMTD:_ctype.obj
 0001:00079550       ___isascii                 0047a550 f   LIBCMTD:_ctype.obj
 0001:00079560       ___toascii                 0047a560 f   LIBCMTD:_ctype.obj
 0001:00079570       ___iscsymf                 0047a570 f   LIBCMTD:_ctype.obj
 0001:000795b0       ___iscsym                  0047a5b0 f   LIBCMTD:_ctype.obj
 0001:000795f0       _memset                    0047a5f0 f   LIBCMTD:memset.obj
 0001:00079650       _wprintf                   0047a650 f   LIBCMTD:wprintf.obj
 0001:00079720       _wmainCRTStartup           0047a720 f   LIBCMTD:wcrt0.obj
 0001:00079920       __amsg_exit                0047a920 f   LIBCMTD:wcrt0.obj
 0001:00079a40       _wcscat                    0047aa40 f   LIBCMTD:wcscat.obj
 0001:00079a90       _wcscpy                    0047aa90 f   LIBCMTD:wcscat.obj
 0001:00079ad0       _wcslen                    0047aad0 f   LIBCMTD:wcslen.obj
 0001:00079b00       _wcscmp                    0047ab00 f   LIBCMTD:wcscmp.obj
 0001:00079b60       _towupper                  0047ab60 f   LIBCMTD:towupper.obj
 0001:00079bd0       ___towupper_mt             0047abd0 f   LIBCMTD:towupper.obj
 0001:00079c50       _towlower                  0047ac50 f   LIBCMTD:towlower.obj
 0001:00079cd0       ___towlower_mt             0047acd0 f   LIBCMTD:towlower.obj
 0001:00079d50       _wcsncpy                   0047ad50 f   LIBCMTD:wcsncpy.obj
 0001:00079dc0       _wcsncmp                   0047adc0 f   LIBCMTD:wcsncmp.obj
 0001:00079e20       _isleadbyte                0047ae20 f   LIBCMTD:_wctype.obj
 0001:00079e40       _iswalpha                  0047ae40 f   LIBCMTD:_wctype.obj
 0001:00079e60       _iswupper                  0047ae60 f   LIBCMTD:_wctype.obj
 0001:00079e80       _iswlower                  0047ae80 f   LIBCMTD:_wctype.obj
 0001:00079ea0       _iswdigit                  0047aea0 f   LIBCMTD:_wctype.obj
 0001:00079ec0       _iswxdigit                 0047aec0 f   LIBCMTD:_wctype.obj
 0001:00079ee0       _iswspace                  0047aee0 f   LIBCMTD:_wctype.obj
 0001:00079f00       _iswpunct                  0047af00 f   LIBCMTD:_wctype.obj
 0001:00079f20       _iswalnum                  0047af20 f   LIBCMTD:_wctype.obj
 0001:00079f40       _iswprint                  0047af40 f   LIBCMTD:_wctype.obj
 0001:00079f60       _iswgraph                  0047af60 f   LIBCMTD:_wctype.obj
 0001:00079f80       _iswcntrl                  0047af80 f   LIBCMTD:_wctype.obj
 0001:00079fa0       _iswascii                  0047afa0 f   LIBCMTD:_wctype.obj
 0001:00079fc0       _wcstol                    0047afc0 f   LIBCMTD:wcstol.obj
 0001:0007a2e0       _wcstoul                   0047b2e0 f   LIBCMTD:wcstol.obj
 0001:0007a300       ?vswprintf@@YAHPAGIPBGPAD@Z 0047b300 f   LIBCMTD:vswprinn.obj
 0001:0007a320       ?vswprintf@@YAHPA_WIPB_WPAD@Z 0047b320 f   LIBCMTD:vswprinn.obj
 0001:0007a450       __allmul                   0047b450 f   LIBCMTD:llmul.obj
 0001:0007a490       __alldiv                   0047b490 f   LIBCMTD:lldiv.obj
 0001:0007a540       __statusfp                 0047b540 f   LIBCMTD:ieee87.obj
 0001:0007a560       __clearfp                  0047b560 f   LIBCMTD:ieee87.obj
 0001:0007a580       __control87                0047b580 f   LIBCMTD:ieee87.obj
 0001:0007a5d0       __controlfp                0047b5d0 f   LIBCMTD:ieee87.obj
 0001:0007a5f0       __fpreset                  0047b5f0 f   LIBCMTD:ieee87.obj
 0001:0007a980       _swprintf                  0047b980 f   LIBCMTD:swprintf.obj
 0001:0007aac0       __scwprintf                0047bac0 f   LIBCMTD:swprintf.obj
 0001:0007ab40       __cinit                    0047bb40 f   LIBCMTD:crt0dat.obj
 0001:0007aba0       _exit                      0047bba0 f   LIBCMTD:crt0dat.obj
 0001:0007abc0       __exit                     0047bbc0 f   LIBCMTD:crt0dat.obj
 0001:0007abe0       __cexit                    0047bbe0 f   LIBCMTD:crt0dat.obj
 0001:0007ac00       __c_exit                   0047bc00 f   LIBCMTD:crt0dat.obj
 0001:0007ad50       ___crtExitProcess          0047bd50 f   LIBCMTD:crt0dat.obj
 0001:0007ada0       __lockexit                 0047bda0 f   LIBCMTD:crt0dat.obj
 0001:0007adb0       __unlockexit               0047bdb0 f   LIBCMTD:crt0dat.obj
 0001:0007ae30       ____setlc_active_func      0047be30 f   LIBCMTD:setlocal.obj
 0001:0007ae40       ____unguarded_readlc_active_add_func 0047be40 f   LIBCMTD:setlocal.obj
 0001:0007ae50       ___freetlocinfo            0047be50 f   LIBCMTD:setlocal.obj
 0001:0007afd0       ___updatetlocinfo          0047bfd0 f   LIBCMTD:setlocal.obj
 0001:0007b210       _setlocale                 0047c210 f   LIBCMTD:setlocal.obj
 0001:0007bcc0       __expandlocale             0047ccc0 f   LIBCMTD:setlocal.obj
 0001:0007bea0       ___init_dummy              0047cea0 f   LIBCMTD:setlocal.obj
 0001:0007beb0       __strcats                  0047ceb0 f   LIBCMTD:setlocal.obj
 0001:0007bf00       ___lc_strtolc              0047cf00 f   LIBCMTD:setlocal.obj
 0001:0007c070       ___lc_lctostr              0047d070 f   LIBCMTD:setlocal.obj
 0001:0007c0e0       _abort                     0047d0e0 f   LIBCMTD:abort.obj
 0001:0007c100       ?swprintf@@YAHPAGIPBGZZ    0047d100 f   LIBCMTD:swprintn.obj
 0001:0007c120       ?swprintf@@YAHPA_WIPB_WZZ  0047d120 f   LIBCMTD:swprintn.obj
 0001:0007c260       __onexit                   0047d260 f   LIBCMTD:onexit.obj
 0001:0007c3c0       _atexit                    0047d3c0 f   LIBCMTD:onexit.obj
 0001:0007c3e0       ___onexitinit              0047d3e0 f   LIBCMTD:onexit.obj
 0001:0007c430       __wfsopen                  0047d430 f   LIBCMTD:wfopen.obj
 0001:0007c560       __wfopen                   0047d560 f   LIBCMTD:wfopen.obj
 0001:0007c580       _wcschr                    0047d580 f   LIBCMTD:wcschr.obj
 0001:0007c5c0       __toupper                  0047d5c0 f   LIBCMTD:toupper.obj
 0001:0007c5d0       _toupper                   0047d5d0 f   LIBCMTD:toupper.obj
 0001:0007c610       ___toupper_mt              0047d610 f   LIBCMTD:toupper.obj
 0001:0007c750       _fgets                     0047d750 f   LIBCMTD:fgets.obj
 0001:0007c8c0       _wcstok                    0047d8c0 f   LIBCMTD:wcstok.obj
 0001:0007c9b0       _fwrite                    0047d9b0 f   LIBCMTD:fwrite.obj
 0001:0007ca30       __fwrite_lk                0047da30 f   LIBCMTD:fwrite.obj
 0001:0007cc50       _fread                     0047dc50 f   LIBCMTD:fread.obj
 0001:0007ccd0       __fread_lk                 0047dcd0 f   LIBCMTD:fread.obj
 0001:0007cea0       _strcpy                    0047dea0 f   LIBCMTD:strcat.obj
 0001:0007ceb0       _strcat                    0047deb0 f   LIBCMTD:strcat.obj
 0001:0007cfa0       __fsopen                   0047dfa0 f   LIBCMTD:fopen.obj
 0001:0007d0d0       _fopen                     0047e0d0 f   LIBCMTD:fopen.obj
 0001:0007d0f0       _time                      0047e0f0 f   LIBCMTD:time.obj
 0001:0007d140       _localtime                 0047e140 f   LIBCMTD:localtim.obj
 0001:0007d3b0       _asctime                   0047e3b0 f   LIBCMTD:asctime.obj
 0001:0007d5b0       _vfprintf                  0047e5b0 f   LIBCMTD:vfprintf.obj
 0001:0007d6a0       __mtinitlocks              0047e6a0 f   LIBCMTD:mlock.obj
 0001:0007d730       __mtdeletelocks            0047e730 f   LIBCMTD:mlock.obj
 0001:0007d7f0       __mtinitlocknum            0047e7f0 f   LIBCMTD:mlock.obj
 0001:0007d910       __lock                     0047e910 f   LIBCMTD:mlock.obj
 0001:0007d950       __unlock                   0047e950 f   LIBCMTD:mlock.obj
 0001:0007d970       __lockerr_exit             0047e970 f   LIBCMTD:mlock.obj
 0001:0007d990       __CrtDbgBreak              0047e990 f   LIBCMTD:dbgrpt.obj
 0001:0007d9a0       __CrtSetReportMode         0047e9a0 f   LIBCMTD:dbgrpt.obj
 0001:0007da00       __CrtSetReportFile         0047ea00 f   LIBCMTD:dbgrpt.obj
 0001:0007da80       __CrtSetReportHook         0047ea80 f   LIBCMTD:dbgrpt.obj
 0001:0007daa0       __CrtSetReportHook2        0047eaa0 f   LIBCMTD:dbgrpt.obj
 0001:0007dcf0       __CrtDbgReport             0047ecf0 f   LIBCMTD:dbgrpt.obj
 0001:0007e468       __except_handler3          0047f468 f   LIBCMTD:exsup3.obj
 0001:0007e54e       __seh_longjmp_unwind@4     0047f54e f   LIBCMTD:exsup3.obj
 0001:0007e570       ___InternalCxxFrameHandler 0047f570 f   LIBCMTD:frame.obj
 0001:0007eae0       ___FrameUnwindToState      0047fae0 f   LIBCMTD:frame.obj
 0001:0007f250       ___DestructExceptionObject 00480250 f   LIBCMTD:frame.obj
 0001:0007f330       ?__uncaught_exception@@YA_NXZ 00480330 f   LIBCMTD:frame.obj
 0001:0007f350       ___CxxExceptionFilter      00480350 f   LIBCMTD:frame.obj
 0001:0007f500       ___CxxRegisterExceptionObject 00480500 f   LIBCMTD:frame.obj
 0001:0007f620       ___CxxDetectRethrow        00480620 f   LIBCMTD:frame.obj
 0001:0007f680       ___CxxUnregisterExceptionObject 00480680 f   LIBCMTD:frame.obj
 0001:0007f750       ___CxxQueryExceptionSize   00480750 f   LIBCMTD:frame.obj
 0001:0007f760       ___CxxCallUnwindDtor       00480760 f   LIBCMTD:frame.obj
 0001:0007f7d0       ___CxxCallUnwindVecDtor    004807d0 f   LIBCMTD:frame.obj
 0001:0007f850       __CallSettingFrame@12      00480850 f   LIBCMTD:lowhelpr.obj
 0001:0007f877       __NLG_Return               00480877     LIBCMTD:lowhelpr.obj
 0001:0007f8a0       ___crtTlsAlloc@4           004808a0 f   LIBCMTD:tidtable.obj
 0001:0007f8b0       __mtinit                   004808b0 f   LIBCMTD:tidtable.obj
 0001:0007fa00       __mtterm                   00480a00 f   LIBCMTD:tidtable.obj
 0001:0007fa30       __initptd                  00480a30 f   LIBCMTD:tidtable.obj
 0001:0007fa50       __getptd                   00480a50 f   LIBCMTD:tidtable.obj
 0001:0007faf0       __freefls@4                00480af0 f   LIBCMTD:tidtable.obj
 0001:0007fd70       __freeptd                  00480d70 f   LIBCMTD:tidtable.obj
 0001:0007fdb0       ___threadid                00480db0 f   LIBCMTD:tidtable.obj
 0001:0007fdc0       ___threadhandle            00480dc0 f   LIBCMTD:tidtable.obj
 0001:0007fdd0       ?terminate@@YAXXZ          00480dd0 f   LIBCMTD:hooks.obj
 0001:0007fe40       ?unexpected@@YAXXZ         00480e40 f   LIBCMTD:hooks.obj
 0001:0007fe60       ?_inconsistency@@YAXXZ     00480e60 f   LIBCMTD:hooks.obj
 0001:0007fed0       __free_base                00480ed0 f   LIBCMTD:free.obj
 0001:0007ffa0       _strcmp                    00480fa0 f   LIBCMTD:strcmp.obj
 0001:00080030       __setdefaultprecision      00481030 f   LIBCMTD:fp8.obj
 0001:00080050       __ms_p5_test_fdiv          00481050 f   LIBCMTD:testfdiv.obj
 0001:000800a0       __ms_p5_mp_test_fdiv       004810a0 f   LIBCMTD:testfdiv.obj
 0001:000800f0       __forcdecpt                004810f0 f   LIBCMTD:cvt.obj
 0001:00080170       __cropzeros                00481170 f   LIBCMTD:cvt.obj
 0001:00080250       __positive                 00481250 f   LIBCMTD:cvt.obj
 0001:00080280       __fassign                  00481280 f   LIBCMTD:cvt.obj
 0001:000802d0       __cftoe                    004812d0 f   LIBCMTD:cvt.obj
 0001:000804d0       __cftof                    004814d0 f   LIBCMTD:cvt.obj
 0001:00080690       __cftog                    00481690 f   LIBCMTD:cvt.obj
 0001:00080790       __cfltcvt                  00481790 f   LIBCMTD:cvt.obj
 0001:00080820       ___iob_func                00481820 f   LIBCMTD:_file.obj
 0001:00080830       ___initstdio               00481830 f   LIBCMTD:_file.obj
 0001:00080960       ___endstdio                00481960 f   LIBCMTD:_file.obj
 0001:00080980       __lock_file                00481980 f   LIBCMTD:_file.obj
 0001:000809c0       __lock_file2               004819c0 f   LIBCMTD:_file.obj
 0001:000809f0       __unlock_file              004819f0 f   LIBCMTD:_file.obj
 0001:00080a30       __unlock_file2             00481a30 f   LIBCMTD:_file.obj
 0001:00080a60       __stbuf                    00481a60 f   LIBCMTD:_sftbuf.obj
 0001:00080bb0       __ftbuf                    00481bb0 f   LIBCMTD:_sftbuf.obj
 0001:00080c40       __output                   00481c40 f   LIBCMTD:output.obj
 0001:00081bc0       ?_set_new_handler@@YAP6AHI@ZP6AHI@Z@Z 00482bc0 f   LIBCMTD:handler.obj
 0001:00081bf0       ?_query_new_handler@@YAP6AHI@ZXZ 00482bf0 f   LIBCMTD:handler.obj
 0001:00081c00       __callnewh                 00482c00 f   LIBCMTD:handler.obj
 0001:00081c30       __malloc_base              00482c30 f   LIBCMTD:malloc.obj
 0001:00081c50       __nh_malloc_base           00482c50 f   LIBCMTD:malloc.obj
 0001:00081cb0       __heap_alloc_base          00482cb0 f   LIBCMTD:malloc.obj
 0001:00081d80       __CrtDefaultAllocHook      00482d80 f   LIBCMTD:dbghook.obj
 0001:00081d90       __expand_base              00482d90 f   LIBCMTD:expand.obj
 0001:00081eb0       __realloc_base             00482eb0 f   LIBCMTD:realloc.obj
 0001:00082160       __heapchk                  00483160 f   LIBCMTD:heapchk.obj
 0001:00082220       __heapset                  00483220 f   LIBCMTD:heapchk.obj
 0001:00082230       ___heap_select             00483230 f   LIBCMTD:heapinit.obj
 0001:00082260       __heap_init                00483260 f   LIBCMTD:heapinit.obj
 0001:000822d0       __heap_term                004832d0 f   LIBCMTD:heapinit.obj
 0001:00082380       __get_heap_handle          00483380 f   LIBCMTD:heapinit.obj
 0001:00082390       __get_sbh_threshold        00483390 f   LIBCMTD:sbheap.obj
 0001:000823b0       __set_sbh_threshold        004833b0 f   LIBCMTD:sbheap.obj
 0001:00082420       ___sbh_heap_init           00483420 f   LIBCMTD:sbheap.obj
 0001:00082490       ___sbh_find_block          00483490 f   LIBCMTD:sbheap.obj
 0001:000824f0       ___sbh_verify_block        004834f0 f   LIBCMTD:sbheap.obj
 0001:00082550       ___sbh_free_block          00483550 f   LIBCMTD:sbheap.obj
 0001:00082b10       ___sbh_alloc_block         00483b10 f   LIBCMTD:sbheap.obj
 0001:00083030       ___sbh_alloc_new_region    00484030 f   LIBCMTD:sbheap.obj
 0001:00083140       ___sbh_alloc_new_group     00484140 f   LIBCMTD:sbheap.obj
 0001:00083330       ___sbh_resize_block        00484330 f   LIBCMTD:sbheap.obj
 0001:00083900       ___sbh_heapmin             00484900 f   LIBCMTD:sbheap.obj
 0001:00083a30       ___sbh_heap_check          00484a30 f   LIBCMTD:sbheap.obj
 0001:00083f40       _sprintf                   00484f40 f   LIBCMTD:sprintf.obj
 0001:00084030       __scprintf                 00485030 f   LIBCMTD:sprintf.obj
 0001:000840b0       __chvalidator              004850b0 f   LIBCMTD:isctype.obj
 0001:000840f0       __chvalidator_mt           004850f0 f   LIBCMTD:isctype.obj
 0001:00084130       __isctype                  00485130 f   LIBCMTD:isctype.obj
 0001:00084170       ___isctype_mt              00485170 f   LIBCMTD:isctype.obj
 0001:00084230       @__security_check_cookie@4 00485230 f   LIBCMTD:secchk.obj
 0001:000842b0       __dosmaperr                004852b0 f   LIBCMTD:dosmap.obj
 0001:00084350       __errno                    00485350 f   LIBCMTD:dosmap.obj
 0001:00084360       ___doserrno                00485360 f   LIBCMTD:dosmap.obj
 0001:00084370       __close                    00485370 f   LIBCMTD:close.obj
 0001:00084460       __close_lk                 00485460 f   LIBCMTD:close.obj
 0001:00084510       __freebuf                  00485510 f   LIBCMTD:_freebuf.obj
 0001:000845a0       _fflush                    004855a0 f   LIBCMTD:fflush.obj
 0001:00084630       __fflush_lk                00485630 f   LIBCMTD:fflush.obj
 0001:00084670       __flush                    00485670 f   LIBCMTD:fflush.obj
 0001:00084730       __flushall                 00485730 f   LIBCMTD:fflush.obj
 0001:000848d0       __filbuf                   004858d0 f   LIBCMTD:_filbuf.obj
 0001:00084aa0       __ioinit                   00485aa0 f   LIBCMTD:ioinit.obj
 0001:00084e30       __ioterm                   00485e30 f   LIBCMTD:ioinit.obj
 0001:00084ed0       __lseek                    00485ed0 f   LIBCMTD:lseek.obj
 0001:00084fe0       __lseek_lk                 00485fe0 f   LIBCMTD:lseek.obj
 0001:000850a0       ?__CxxUnhandledExceptionFilter@@YGJPAU_EXCEPTION_POINTERS@@@Z 004860a0 f   LIBCMTD:unhandld.obj
 0001:00085110       ?__CxxSetUnhandledExceptionFilter@@YAHXZ 00486110 f   LIBCMTD:unhandld.obj
 0001:00085130       ?__CxxRestoreUnhandledExceptionFilter@@YAXXZ 00486130 f   LIBCMTD:unhandld.obj
 0001:00085150       __winput                   00486150 f   LIBCMTD:winput.obj
 0001:000866a0       __woutput                  004876a0 f   LIBCMTD:woutput.obj
 0001:00087570       ___CppXcptFilter           00488570 f   LIBCMTD:winxfltr.obj
 0001:000875a0       __XcptFilter               004885a0 f   LIBCMTD:winxfltr.obj
 0001:000877c0       __wsetenvp                 004887c0 f   LIBCMTD:wstdenvp.obj
 0001:00087930       __wsetargv                 00488930 f   LIBCMTD:wstdargv.obj
 0001:00087ce0       ___crtGetEnvironmentStringsW 00488ce0 f   LIBCMTD:w_env.obj
 0001:00087f50       ___crtGetCommandLineW      00488f50 f   LIBCMTD:aw_com.obj
 0001:00088050       __RTC_Initialize           00489050 f   LIBCMTD:initsect.obj
 0001:000880d0       __RTC_Terminate            004890d0 f   LIBCMTD:initsect.obj
 0001:00088150       __alloca_probe             00489150     LIBCMTD:chkstk.obj
 0001:00088150       __chkstk                   00489150 f   LIBCMTD:chkstk.obj
 0001:00088190       __FF_MSGBANNER             00489190 f   LIBCMTD:crt0msg.obj
 0001:000881e0       __NMSG_WRITE               004891e0 f   LIBCMTD:crt0msg.obj
 0001:000883f0       __GET_RTERRMSG             004893f0 f   LIBCMTD:crt0msg.obj
 0001:00088440       ___crtLCMapStringW         00489440 f   LIBCMTD:w_map.obj
 0001:00088820       _iswctype                  00489820 f   LIBCMTD:iswctype.obj
 0001:00088890       ___iswctype_mt             00489890 f   LIBCMTD:iswctype.obj
 0001:00088900       _is_wctype                 00489900 f   LIBCMTD:iswctype.obj
 0001:00088920       ___pwctype_func            00489920 f   LIBCMTD:ctype.obj
 0001:00088930       ___pctype_func             00489930 f   LIBCMTD:ctype.obj
 0001:00088940       __wchartodigit             00489940 f   LIBCMTD:wchtodig.obj
 0001:00088c60       __flsbuf                   00489c60 f   LIBCMTD:_flsbuf.obj
 0001:00088ec0       _signal                    00489ec0 f   LIBCMTD:winsig.obj
 0001:00089200       _raise                     0048a200 f   LIBCMTD:winsig.obj
 0001:000894c0       ___fpecode                 0048a4c0 f   LIBCMTD:winsig.obj
 0001:000894d0       ___pxcptinfoptrs           0048a4d0 f   LIBCMTD:winsig.obj
 0001:000894e0       __Getdays                  0048a4e0 f   LIBCMTD:strftime.obj
 0001:00089610       __Getmonths                0048a610 f   LIBCMTD:strftime.obj
 0001:00089740       __Gettnames                0048a740 f   LIBCMTD:strftime.obj
 0001:00089ad0       _strftime                  0048aad0 f   LIBCMTD:strftime.obj
 0001:00089af0       __Strftime                 0048aaf0 f   LIBCMTD:strftime.obj
 0001:00089b40       __Strftime_mt              0048ab40 f   LIBCMTD:strftime.obj
 0001:0008ad60       _localeconv                0048bd60 f   LIBCMTD:lconv.obj
 0001:0008ad70       ___init_time               0048bd70 f   LIBCMTD:inittime.obj
 0001:0008b380       ___free_lc_time            0048c380 f   LIBCMTD:inittime.obj
 0001:0008b690       ___init_numeric            0048c690 f   LIBCMTD:initnum.obj
 0001:0008b9d0       ___free_lconv_num          0048c9d0 f   LIBCMTD:initnum.obj
 0001:0008ba70       ___init_monetary           0048ca70 f   LIBCMTD:initmon.obj
 0001:0008be70       ___free_lconv_mon          0048ce70 f   LIBCMTD:initmon.obj
 0001:0008bfd0       ___init_ctype              0048cfd0 f   LIBCMTD:initctyp.obj
 0001:0008c290       ____mb_cur_max_func        0048d290 f   LIBCMTD:initctyp.obj
 0001:0008c2a0       ____lc_codepage_func       0048d2a0 f   LIBCMTD:initctyp.obj
 0001:0008c2d0       ____lc_collate_cp_func     0048d2d0 f   LIBCMTD:initctyp.obj
 0001:0008c300       ____lc_handle_func         0048d300 f   LIBCMTD:initctyp.obj
 0001:0008c330       ___init_collate            0048d330 f   LIBCMTD:initcoll.obj
 0001:0008c340       _strncpy                   0048d340 f   LIBCMTD:strncpy.obj
 0001:0008c470       _strcspn                   0048d470 f   LIBCMTD:strcspn.obj
 0001:0008c4c0       _strncmp                   0048d4c0 f   LIBCMTD:strncmp.obj
 0001:0008c500       _strpbrk                   0048d500 f   LIBCMTD:strpbrk.obj
 0001:0008c540       _memcmp                    0048d540 f   LIBCMTD:memcmp.obj
 0001:0008c600       ___crtGetStringTypeA       0048d600 f   LIBCMTD:a_str.obj
 0001:0008c8a0       ___get_qualified_locale    0048d8a0 f   LIBCMTD:getqloc.obj
 0001:0008d6d0       __wopenfile                0048e6d0 f   LIBCMTD:_wopen.obj
 0001:0008da60       __getstream                0048ea60 f   LIBCMTD:stream.obj
 0001:0008dc90       ___crtLCMapStringA         0048ec90 f   LIBCMTD:a_map.obj
 0001:0008e250       __write                    0048f250 f   LIBCMTD:write.obj
 0001:0008e360       __write_lk                 0048f360 f   LIBCMTD:write.obj
 0001:0008e650       __read                     0048f650 f   LIBCMTD:read.obj
 0001:0008e760       __read_lk                  0048f760 f   LIBCMTD:read.obj
 0001:0008eba0       __openfile                 0048fba0 f   LIBCMTD:_open.obj
 0001:0008ef30       __aulldiv                  0048ff30 f   LIBCMTD:ulldiv.obj
 0001:0008efa0       ___tzset                   0048ffa0 f   LIBCMTD:tzset.obj
 0001:0008f030       __tzset                    00490030 f   LIBCMTD:tzset.obj
 0001:0008f4c0       __isindst                  004904c0 f   LIBCMTD:tzset.obj
 0001:0008faa0       _gmtime                    00490aa0 f   LIBCMTD:gmtime.obj
 0001:0008fca0       ___crtInitCritSecAndSpinCount 00490ca0 f   LIBCMTD:initcrit.obj
 0001:0008fdc0       __itoa                     00490dc0 f   LIBCMTD:xtoa.obj
 0001:0008fee0       __ltoa                     00490ee0 f   LIBCMTD:xtoa.obj
 0001:0008ff20       __ultoa                    00490f20 f   LIBCMTD:xtoa.obj
 0001:0008ff40       __i64toa                   00490f40 f   LIBCMTD:xtoa.obj
 0001:00090090       __ui64toa                  00491090 f   LIBCMTD:xtoa.obj
 0001:000900b0       __snprintf                 004910b0 f   LIBCMTD:snprintf.obj
 0001:000901a0       __vsnprintf                004911a0 f   LIBCMTD:vsnprint.obj
 0001:00090270       ___crtMessageBoxA          00491270 f   LIBCMTD:crtmbox.obj
 0001:000903e0       __ValidateEH3RN            004913e0 f   LIBCMTD:eh3valid.obj
 0001:000907d0       ?_ValidateRead@@YAHPBXI@Z  004917d0 f   LIBCMTD:validate.obj
 0001:00090800       ?_ValidateWrite@@YAHPAXI@Z 00491800 f   LIBCMTD:validate.obj
 0001:00090830       ?_ValidateExecute@@YAHP6GHXZ@Z 00491830 f   LIBCMTD:validate.obj
 0001:00090860       _memmove                   00491860 f   LIBCMTD:memmove.obj
 0001:00090ba0       ___updatetmbcinfo          00491ba0 f   LIBCMTD:mbctype.obj
 0001:00090c70       __setmbcp                  00491c70 f   LIBCMTD:mbctype.obj
 0001:000915b0       __getmbcp                  004925b0 f   LIBCMTD:mbctype.obj
 0001:000915d0       ___initmbctable            004925d0 f   LIBCMTD:mbctype.obj
 0001:00091600       __tolower                  00492600 f   LIBCMTD:tolower.obj
 0001:00091610       _tolower                   00492610 f   LIBCMTD:tolower.obj
 0001:00091650       ___tolower_mt              00492650 f   LIBCMTD:tolower.obj
 0001:00091790       __ZeroTail                 00492790 f   LIBCMTD:intrncvt.obj
 0001:00091820       __IncMan                   00492820 f   LIBCMTD:intrncvt.obj
 0001:000918d0       __RoundMan                 004928d0 f   LIBCMTD:intrncvt.obj
 0001:000919b0       __CopyMan                  004929b0 f   LIBCMTD:intrncvt.obj
 0001:00091a00       __FillZeroMan              00492a00 f   LIBCMTD:intrncvt.obj
 0001:00091a30       __IsZeroMan                00492a30 f   LIBCMTD:intrncvt.obj
 0001:00091a70       __ShrMan                   00492a70 f   LIBCMTD:intrncvt.obj
 0001:00091b60       __ld12cvt                  00492b60 f   LIBCMTD:intrncvt.obj
 0001:00091da0       __ld12tod                  00492da0 f   LIBCMTD:intrncvt.obj
 0001:00091dc0       __ld12tof                  00492dc0 f   LIBCMTD:intrncvt.obj
 0001:00091de0       __ld12told                 00492de0 f   LIBCMTD:intrncvt.obj
 0001:00091e90       __atodbl                   00492e90 f   LIBCMTD:intrncvt.obj
 0001:00091ee0       __atoldbl                  00492ee0 f   LIBCMTD:intrncvt.obj
 0001:00091f30       __atoflt                   00492f30 f   LIBCMTD:intrncvt.obj
 0001:00091f80       __fptostr                  00492f80 f   LIBCMTD:_fptostr.obj
 0001:00092080       __fltout2                  00493080 f   LIBCMTD:cfout.obj
 0001:00092110       ___dtold                   00493110 f   LIBCMTD:cfout.obj
 0001:00092260       __fptrap                   00493260 f   LIBCMTD:crt0fp.obj
 0001:00092270       __fcloseall                00493270 f   LIBCMTD:closeall.obj
 0001:00092390       __isatty                   00493390 f   LIBCMTD:isatty.obj
 0001:000923d0       _wctomb                    004933d0 f   LIBCMTD:wctomb.obj
 0001:00092410       ___wctomb_mt               00493410 f   LIBCMTD:wctomb.obj
 0001:000924b0       __aullrem                  004934b0 f   LIBCMTD:ullrem.obj
 0001:00092530       ___security_init_cookie    00493530 f   LIBCMTD:seccinit.obj
 0001:000925d0       ___security_error_handler  004935d0 f   LIBCMTD:secfail.obj
 0001:00092800       __set_security_error_handler 00493800 f   LIBCMTD:secfail.obj
 0001:00092820       ___buffer_overrun          00493820 f   LIBCMTD:secfail.obj
 0001:00092840       ___set_buffer_overrun_handler 00493840 f   LIBCMTD:secfail.obj
 0001:00092860       __alloc_osfhnd             00493860 f   LIBCMTD:osfinfo.obj
 0001:00092ae0       __set_osfhnd               00493ae0 f   LIBCMTD:osfinfo.obj
 0001:00092ba0       __free_osfhnd              00493ba0 f   LIBCMTD:osfinfo.obj
 0001:00092c80       __get_osfhandle            00493c80 f   LIBCMTD:osfinfo.obj
 0001:00092cf0       __open_osfhandle           00493cf0 f   LIBCMTD:osfinfo.obj
 0001:00092e40       __lock_fhandle             00493e40 f   LIBCMTD:osfinfo.obj
 0001:00092f30       __unlock_fhandle           00493f30 f   LIBCMTD:osfinfo.obj
 0001:00092f60       __commit                   00493f60 f   LIBCMTD:commit.obj
 0001:00093070       __getbuf                   00494070 f   LIBCMTD:_getbuf.obj
 0001:00093130       _wcstombs                  00494130 f   LIBCMTD:wcstombs.obj
 0001:00093170       ___wcstombs_mt             00494170 f   LIBCMTD:wcstombs.obj
 0001:000934b0       _mbtowc                    004944b0 f   LIBCMTD:mbtowc.obj
 0001:000934f0       ___mbtowc_mt               004944f0 f   LIBCMTD:mbtowc.obj
 0001:00093640       __resetstkoflw             00494640 f   LIBCMTD:resetstk.obj
 0001:00093790       __allshl                   00494790 f   LIBCMTD:llshl.obj
 0001:000937b0       _fgetwc                    004947b0 f   LIBCMTD:fgetwc.obj
 0001:00093850       __getwc_lk                 00494850 f   LIBCMTD:fgetwc.obj
 0001:00093a20       _getwc                     00494a20 f   LIBCMTD:fgetwc.obj
 0001:00093a40       _ungetwc                   00494a40 f   LIBCMTD:ungetwc.obj
 0001:00093ae0       __ungetwc_lk               00494ae0 f   LIBCMTD:ungetwc.obj
 0001:00093d80       _fputwc                    00494d80 f   LIBCMTD:fputwc.obj
 0001:00093e30       __putwc_lk                 00494e30 f   LIBCMTD:fputwc.obj
 0001:00093fc0       _putwc                     00494fc0 f   LIBCMTD:fputwc.obj
 0001:00093fe0       ___ansicp                  00494fe0 f   LIBCMTD:convrtcp.obj
 0001:00094040       ___convertcp               00495040 f   LIBCMTD:convrtcp.obj
 0001:000942e0       ___crtGetStringTypeW       004952e0 f   LIBCMTD:w_str.obj
 0001:00094610       ___ascii_stricmp           00495610 f   LIBCMTD:_stricmp.obj
 0001:00094660       ___getlocaleinfo           00495660 f   LIBCMTD:inithelp.obj
 0001:000948c0       __stricmp                  004958c0 f   LIBCMTD:stricmp.obj
 0001:00094970       __strnicmp                 00495970 f   LIBCMTD:strnicmp.obj
 0001:00094a30       _atol                      00495a30 f   LIBCMTD:atox.obj
 0001:00094b40       _atoi                      00495b40 f   LIBCMTD:atox.obj
 0001:00094b60       __atoi64                   00495b60 f   LIBCMTD:atox.obj
 0001:00094ca0       __wopen                    00495ca0 f   LIBCMTD:wopen.obj
 0001:00094d50       __wsopen                   00495d50 f   LIBCMTD:wopen.obj
 0001:00095300       __lseeki64                 00496300 f   LIBCMTD:lseeki64.obj
 0001:00095420       __lseeki64_lk              00496420 f   LIBCMTD:lseeki64.obj
 0001:000954f0       __open                     004964f0 f   LIBCMTD:open.obj
 0001:000955a0       __sopen                    004965a0 f   LIBCMTD:open.obj
 0001:00095b50       _getenv                    00496b50 f   LIBCMTD:getenv.obj
 0001:00095bc0       __getenv_lk                00496bc0 f   LIBCMTD:getenv.obj
 0001:00095c90       ___addl                    00496c90 f   LIBCMTD:mantold.obj
 0001:00095cd0       ___add_12                  00496cd0 f   LIBCMTD:mantold.obj
 0001:00095d80       ___shl_12                  00496d80 f   LIBCMTD:mantold.obj
 0001:00095de0       ___shr_12                  00496de0 f   LIBCMTD:mantold.obj
 0001:00095e50       ___mtold12                 00496e50 f   LIBCMTD:mantold.obj
 0001:00095fa0       ___strgtold12              00496fa0 f   LIBCMTD:strgtold.obj
 0001:000969a0       ___STRINGTOLD              004979a0 f   LIBCMTD:strgtold.obj
 0001:00096a00       _$I10_OUTPUT               00497a00 f   LIBCMTD:x10fout.obj
 0001:00096ee0       __filwbuf                  00497ee0 f   LIBCMTD:_filwbuf.obj
 0001:000970c0       _ungetc                    004980c0 f   LIBCMTD:ungetc.obj
 0001:00097160       __ungetc_lk                00498160 f   LIBCMTD:ungetc.obj
 0001:00097290       __flswbuf                  00498290 f   LIBCMTD:_flswbuf.obj
 0001:00097500       ___crtGetLocaleInfoW       00498500 f   LIBCMTD:w_loc.obj
 0001:000976e0       ___crtGetLocaleInfoA       004986e0 f   LIBCMTD:a_loc.obj
 0001:000978d0       ___ascii_strnicmp          004988d0 f   LIBCMTD:_strnicm.obj
 0001:00097940       __chsize                   00498940 f   LIBCMTD:chsize.obj
 0001:00097a30       __chsize_lk                00498a30 f   LIBCMTD:chsize.obj
 0001:00097c10       __mbsnbicoll               00498c10 f   LIBCMTD:mbsnbico.obj
 0001:00097c80       ___wtomb_environ           00498c80 f   LIBCMTD:wtombenv.obj
 0001:00097d70       ___ld12mul                 00498d70 f   LIBCMTD:tenpow.obj
 0001:00098160       ___multtenpow12            00499160 f   LIBCMTD:tenpow.obj
 0001:00098230       __setmode                  00499230 f   LIBCMTD:setmode.obj
 0001:00098320       __setmode_lk               00499320 f   LIBCMTD:setmode.obj
 0001:00098400       ___crtCompareStringA       00499400 f   LIBCMTD:a_cmp.obj
 0001:000989c0       ___crtsetenv               004999c0 f   LIBCMTD:setenv.obj
 0001:00098eb0       __mbschr                   00499eb0 f   LIBCMTD:mbschr.obj
 0001:00098f90       _strchr                    00499f90 f   LIBCMTD:strchr.obj
 0001:00098f96       ___from_strstr_to_strchr   00499f96     LIBCMTD:strchr.obj
 0001:0009904e       _timeBeginPeriod@4         0049a04e f   winmm:WINMM.dll
 0001:00099054       _timeEndPeriod@4           0049a054 f   winmm:WINMM.dll
 0001:0009905a       _timeGetTime@0             0049a05a f   winmm:WINMM.dll
 0001:00099060       _GetSystemDefaultLangID@0  0049a060 f   kernel32:KERNEL32.dll
 0001:00099066       _QueryPerformanceFrequency@4 0049a066 f   kernel32:KERNEL32.dll
 0001:0009906c       _QueryPerformanceCounter@4 0049a06c f   kernel32:KERNEL32.dll
 0001:00099072       _Sleep@4                   0049a072 f   kernel32:KERNEL32.dll
 0001:00099078       _OutputDebugStringW@4      0049a078 f   kernel32:KERNEL32.dll
 0001:0009907e       _WideCharToMultiByte@32    0049a07e f   kernel32:KERNEL32.dll
 0001:00099084       _MultiByteToWideChar@24    0049a084 f   kernel32:KERNEL32.dll
 0001:0009908a       _LoadLibraryW@4            0049a08a f   kernel32:KERNEL32.dll
 0001:00099090       _GetModuleHandleW@4        0049a090 f   kernel32:KERNEL32.dll
 0001:00099096       _GetModuleFileNameW@12     0049a096 f   kernel32:KERNEL32.dll
 0001:0009909c       _GetProcAddress@8          0049a09c f   kernel32:KERNEL32.dll
 0001:000990a2       _FreeLibrary@4             0049a0a2 f   kernel32:KERNEL32.dll
 0001:000990a8       _RtlUnwind@16              0049a0a8 f   kernel32:KERNEL32.dll
 0001:000990ae       _IsBadWritePtr@8           0049a0ae f   kernel32:KERNEL32.dll
 0001:000990b4       _IsBadReadPtr@8            0049a0b4 f   kernel32:KERNEL32.dll
 0001:000990ba       _HeapValidate@12           0049a0ba f   kernel32:KERNEL32.dll
 0001:000990c0       _GetLastError@0            0049a0c0 f   kernel32:KERNEL32.dll
 0001:000990c6       _RaiseException@16         0049a0c6 f   kernel32:KERNEL32.dll
 0001:000990cc       _GetVersionExA@4           0049a0cc f   kernel32:KERNEL32.dll
 0001:000990d2       _GetModuleHandleA@4        0049a0d2 f   kernel32:KERNEL32.dll
 0001:000990d8       _TerminateProcess@8        0049a0d8 f   kernel32:KERNEL32.dll
 0001:000990de       _GetCurrentProcess@0       0049a0de f   kernel32:KERNEL32.dll
 0001:000990e4       _ExitProcess@4             0049a0e4 f   kernel32:KERNEL32.dll
 0001:000990ea       _GetSystemTimeAsFileTime@4 0049a0ea f   kernel32:KERNEL32.dll
 0001:000990f0       _DeleteCriticalSection@4   0049a0f0 f   kernel32:KERNEL32.dll
 0001:000990f6       _EnterCriticalSection@4    0049a0f6 f   kernel32:KERNEL32.dll
 0001:000990fc       _LeaveCriticalSection@4    0049a0fc f   kernel32:KERNEL32.dll
 0001:00099102       _FatalAppExitA@8           0049a102 f   kernel32:KERNEL32.dll
 0001:00099108       _DebugBreak@0              0049a108 f   kernel32:KERNEL32.dll
 0001:0009910e       _GetStdHandle@4            0049a10e f   kernel32:KERNEL32.dll
 0001:00099114       _WriteFile@20              0049a114 f   kernel32:KERNEL32.dll
 0001:0009911a       _InterlockedDecrement@4    0049a11a f   kernel32:KERNEL32.dll
 0001:00099120       _OutputDebugStringA@4      0049a120 f   kernel32:KERNEL32.dll
 0001:00099126       _LoadLibraryA@4            0049a126 f   kernel32:KERNEL32.dll
 0001:0009912c       _InterlockedIncrement@4    0049a12c f   kernel32:KERNEL32.dll
 0001:00099132       _GetModuleFileNameA@12     0049a132 f   kernel32:KERNEL32.dll
 0001:00099138       _TlsAlloc@0                0049a138 f   kernel32:KERNEL32.dll
 0001:0009913e       _GetCurrentThreadId@0      0049a13e f   kernel32:KERNEL32.dll
 0001:00099144       _TlsFree@4                 0049a144 f   kernel32:KERNEL32.dll
 0001:0009914a       _TlsSetValue@8             0049a14a f   kernel32:KERNEL32.dll
 0001:00099150       _TlsGetValue@4             0049a150 f   kernel32:KERNEL32.dll
 0001:00099156       _SetLastError@4            0049a156 f   kernel32:KERNEL32.dll
 0001:0009915c       _GetCurrentThread@0        0049a15c f   kernel32:KERNEL32.dll
 0001:00099162       _HeapFree@12               0049a162 f   kernel32:KERNEL32.dll
 0001:00099168       _HeapAlloc@12              0049a168 f   kernel32:KERNEL32.dll
 0001:0009916e       _HeapReAlloc@16            0049a16e f   kernel32:KERNEL32.dll
 0001:00099174       _HeapDestroy@4             0049a174 f   kernel32:KERNEL32.dll
 0001:0009917a       _HeapCreate@12             0049a17a f   kernel32:KERNEL32.dll
 0001:00099180       _VirtualFree@12            0049a180 f   kernel32:KERNEL32.dll
 0001:00099186       _VirtualAlloc@16           0049a186 f   kernel32:KERNEL32.dll
 0001:0009918c       _CloseHandle@4             0049a18c f   kernel32:KERNEL32.dll
 0001:00099192       _SetHandleCount@4          0049a192 f   kernel32:KERNEL32.dll
 0001:00099198       _GetFileType@4             0049a198 f   kernel32:KERNEL32.dll
 0001:0009919e       _GetStartupInfoA@4         0049a19e f   kernel32:KERNEL32.dll
 0001:000991a4       _SetFilePointer@16         0049a1a4 f   kernel32:KERNEL32.dll
 0001:000991aa       _SetUnhandledExceptionFilter@4 0049a1aa f   kernel32:KERNEL32.dll
 0001:000991b0       _UnhandledExceptionFilter@4 0049a1b0 f   kernel32:KERNEL32.dll
 0001:000991b6       _FreeEnvironmentStringsA@4 0049a1b6 f   kernel32:KERNEL32.dll
 0001:000991bc       _GetEnvironmentStrings@0   0049a1bc f   kernel32:KERNEL32.dll
 0001:000991c2       _FreeEnvironmentStringsW@4 0049a1c2 f   kernel32:KERNEL32.dll
 0001:000991c8       _GetEnvironmentStringsW@0  0049a1c8 f   kernel32:KERNEL32.dll
 0001:000991ce       _GetCommandLineA@0         0049a1ce f   kernel32:KERNEL32.dll
 0001:000991d4       _GetCommandLineW@0         0049a1d4 f   kernel32:KERNEL32.dll
 0001:000991da       _LCMapStringA@24           0049a1da f   kernel32:KERNEL32.dll
 0001:000991e0       _LCMapStringW@24           0049a1e0 f   kernel32:KERNEL32.dll
 0001:000991e6       _SetConsoleCtrlHandler@8   0049a1e6 f   kernel32:KERNEL32.dll
 0001:000991ec       _GetTimeFormatA@24         0049a1ec f   kernel32:KERNEL32.dll
 0001:000991f2       _GetDateFormatA@24         0049a1f2 f   kernel32:KERNEL32.dll
 0001:000991f8       _GetCPInfo@8               0049a1f8 f   kernel32:KERNEL32.dll
 0001:000991fe       _GetStringTypeA@20         0049a1fe f   kernel32:KERNEL32.dll
 0001:00099204       _GetStringTypeW@16         0049a204 f   kernel32:KERNEL32.dll
 0001:0009920a       _IsValidLocale@8           0049a20a f   kernel32:KERNEL32.dll
 0001:00099210       _IsValidCodePage@4         0049a210 f   kernel32:KERNEL32.dll
 0001:00099216       _GetLocaleInfoA@16         0049a216 f   kernel32:KERNEL32.dll
 0001:0009921c       _EnumSystemLocalesA@8      0049a21c f   kernel32:KERNEL32.dll
 0001:00099222       _GetUserDefaultLCID@0      0049a222 f   kernel32:KERNEL32.dll
 0001:00099228       _ReadFile@20               0049a228 f   kernel32:KERNEL32.dll
 0001:0009922e       _GetTimeZoneInformation@4  0049a22e f   kernel32:KERNEL32.dll
 0001:00099234       _InitializeCriticalSection@4 0049a234 f   kernel32:KERNEL32.dll
 0001:0009923a       _VirtualQuery@12           0049a23a f   kernel32:KERNEL32.dll
 0001:00099240       _InterlockedExchange@8     0049a240 f   kernel32:KERNEL32.dll
 0001:00099246       _IsBadCodePtr@4            0049a246 f   kernel32:KERNEL32.dll
 0001:0009924c       _GetACP@0                  0049a24c f   kernel32:KERNEL32.dll
 0001:00099252       _GetOEMCP@0                0049a252 f   kernel32:KERNEL32.dll
 0001:00099258       _GetTickCount@0            0049a258 f   kernel32:KERNEL32.dll
 0001:0009925e       _GetCurrentProcessId@0     0049a25e f   kernel32:KERNEL32.dll
 0001:00099264       _SetStdHandle@8            0049a264 f   kernel32:KERNEL32.dll
 0001:0009926a       _FlushFileBuffers@4        0049a26a f   kernel32:KERNEL32.dll
 0001:00099270       _VirtualProtect@16         0049a270 f   kernel32:KERNEL32.dll
 0001:00099276       _GetSystemInfo@4           0049a276 f   kernel32:KERNEL32.dll
 0001:0009927c       _CreateFileW@28            0049a27c f   kernel32:KERNEL32.dll
 0001:00099282       _CreateFileA@28            0049a282 f   kernel32:KERNEL32.dll
 0001:00099288       _GetLocaleInfoW@16         0049a288 f   kernel32:KERNEL32.dll
 0001:0009928e       _SetEndOfFile@4            0049a28e f   kernel32:KERNEL32.dll
 0001:00099294       _CompareStringA@24         0049a294 f   kernel32:KERNEL32.dll
 0001:0009929a       _CompareStringW@24         0049a29a f   kernel32:KERNEL32.dll
 0001:000992a0       _SetEnvironmentVariableA@8 0049a2a0 f   kernel32:KERNEL32.dll
 0001:000992a6       _MessageBoxW@16            0049a2a6 f   user32:USER32.dll
 0001:000992ac       _RegOpenKeyExW@20          0049a2ac f   advapi32:ADVAPI32.dll
 0001:000992b2       _RegQueryValueExW@24       0049a2b2 f   advapi32:ADVAPI32.dll
 0001:000992b8       _RegCloseKey@4             0049a2b8 f   advapi32:ADVAPI32.dll
 0001:000992c0       _cosf                      0049a2c0 f i IFXCoreStatic:IFXMatrix4x4.obj
 0001:000992e8       _fabsf                     0049a2e8 f i IFXCoreStatic:IFXMatrix4x4.obj
 0001:00099310       _sinf                      0049a310 f i IFXCoreStatic:IFXMatrix4x4.obj
 0001:00099338       _sqrtf                     0049a338 f i IFXCoreStatic:IFXMatrix4x4.obj
 0001:00099360       ?cos@@YAMM@Z               0049a360 f i IFXCoreStatic:IFXMatrix4x4.obj
 0001:0009937c       ?sin@@YAMM@Z               0049a37c f i IFXCoreStatic:IFXMatrix4x4.obj
 0001:00099398       ?sqrt@@YAMM@Z              0049a398 f i IFXCoreStatic:IFXMatrix4x4.obj
 0001:000993b4       ??0IFXVector3@@QAE@PBM@Z   0049a3b4 f i IFXCoreStatic:IFXMatrix4x4.obj
 0001:000993d4       ??0IFXVector3@@QAE@ABV0@@Z 0049a3d4 f i IFXCoreStatic:IFXMatrix4x4.obj
 0001:000993f4       ??4IFXVector3@@QAEAAV0@PBM@Z 0049a3f4 f i IFXCoreStatic:IFXMatrix4x4.obj
 0001:00099424       ?Raw@IFXVector3@@QAEPAMXZ  0049a424 f i IFXCoreStatic:IFXMatrix4x4.obj
 0001:00099430       ??AIFXVector3@@QAEAAMI@Z   0049a430 f i IFXCoreStatic:IFXMatrix4x4.obj
 0001:0009947c       ?Subtract@IFXVector3@@QAEAAV1@ABV1@@Z 0049a47c f i IFXCoreStatic:IFXMatrix4x4.obj
 0001:000994c4       ?Scale@IFXVector3@@QAEAAV1@M@Z 0049a4c4 f i IFXCoreStatic:IFXMatrix4x4.obj
 0001:00099504       ?DotProduct@IFXVector3@@QBEMABV1@@Z 0049a504 f i IFXCoreStatic:IFXMatrix4x4.obj
 0001:0009953c       ?CalcMagnitude@IFXVector3@@QBEMXZ 0049a53c f i IFXCoreStatic:IFXMatrix4x4.obj
 0001:00099584       ?X@IFXVector4@@QBEMXZ      0049a584 f i IFXCoreStatic:IFXMatrix4x4.obj
 0001:00099594       ?Y@IFXVector4@@QBEMXZ      0049a594 f i IFXCoreStatic:IFXMatrix4x4.obj
 0001:000995a4       ?Z@IFXVector4@@QBEMXZ      0049a5a4 f i IFXCoreStatic:IFXMatrix4x4.obj
 0001:000995b4       ?Set@IFXMatrix4x4@@QAEAAV1@ABVIFXVector3@@000@Z 0049a5b4 f i IFXCoreStatic:IFXMatrix4x4.obj
 0001:0009969c       ??AIFXMatrix4x4@@QAEAAMH@Z 0049a69c f i IFXCoreStatic:IFXMatrix4x4.obj
 0001:000996b0       ?RotateVector@IFXMatrix4x4@@QBEXABVIFXVector3@@AAV2@@Z 0049a6b0 f i IFXCoreStatic:IFXMatrix4x4.obj
 0001:000997b4       ?RawConst@IFXQuaternion@@QBEPBMXZ 0049a7b4 f i IFXCoreStatic:IFXMatrix4x4.obj
 0001:000997c0       ?IFXMatrix4x4_Multiply@@YAXPAMPBM1@Z 0049a7c0 f   IFXCoreStatic:IFXMatrix4x4.obj
 0001:00099c12       ?IFXMatrix4x4_MakeIdentity@@YAXPAM@Z 0049ac12 f   IFXCoreStatic:IFXMatrix4x4.obj
 0001:00099c96       ?IFXMatrix4x4_Scale@@YAXPAMPBM@Z 0049ac96 f   IFXCoreStatic:IFXMatrix4x4.obj
 0001:00099d86       ?IFXMatrix4x4_Transpose@@YAXPAM@Z 0049ad86 f   IFXCoreStatic:IFXMatrix4x4.obj
 0001:00099e40       ?IFXMatrix4x4_CalcDeterminant3x3@@YAMPBM@Z 0049ae40 f   IFXCoreStatic:IFXMatrix4x4.obj
 0001:00099ed6       ?CalcDeterminant3x3@@YAMMMMMMMMMM@Z 0049aed6 f   IFXCoreStatic:IFXMatrix4x4.obj
 0001:00099f24       ?IFXMatrix4x4_CalcDeterminant@@YAMPBM@Z 0049af24 f   IFXCoreStatic:IFXMatrix4x4.obj
 0001:0009a0fa       ?IFXMatrix4x4_Invert3x4@@YAHPAMPBM@Z 0049b0fa f   IFXCoreStatic:IFXMatrix4x4.obj
 0001:0009a392       ?IFXMatrix4x4_Invert@@YAHPAMPBM@Z 0049b392 f   IFXCoreStatic:IFXMatrix4x4.obj
 0001:0009ab50       ?IFXMatrix4x4_Multiply3x4@@YAXPAMPBM1@Z 0049bb50 f   IFXCoreStatic:IFXMatrix4x4.obj
 0001:0009add6       ??4IFXMatrix4x4@@QAEAAV0@ABVIFXQuaternion@@@Z 0049bdd6 f   IFXCoreStatic:IFXMatrix4x4.obj
 0001:0009af30       ?MakeIdentity@IFXMatrix4x4@@QAEAAV1@XZ 0049bf30 f   IFXCoreStatic:IFXMatrix4x4.obj
 0001:0009af4c       ?Scale@IFXMatrix4x4@@QAEAAV1@ABVIFXVector3@@@Z 0049bf4c f   IFXCoreStatic:IFXMatrix4x4.obj
 0001:0009af82       ?Multiply3x4@IFXMatrix4x4@@QAEAAV1@ABV1@0@Z 0049bf82 f   IFXCoreStatic:IFXMatrix4x4.obj
 0001:0009b026       ?Multiply@IFXMatrix4x4@@QAEAAV1@ABV1@0@Z 0049c026 f   IFXCoreStatic:IFXMatrix4x4.obj
 0001:0009b0ca       ?Invert3x4@IFXMatrix4x4@@QAEHABV1@@Z 0049c0ca f   IFXCoreStatic:IFXMatrix4x4.obj
 0001:0009b130       ?Invert@IFXMatrix4x4@@QAEHABV1@@Z 0049c130 f   IFXCoreStatic:IFXMatrix4x4.obj
 0001:0009b15e       ?CalcDeterminant@IFXMatrix4x4@@QBEMXZ 0049c15e f   IFXCoreStatic:IFXMatrix4x4.obj
 0001:0009b17c       ?CalcDeterminant3x3@IFXMatrix4x4@@QBEMXZ 0049c17c f   IFXCoreStatic:IFXMatrix4x4.obj
 0001:0009b19c       ?CalcDeterminant3x3@IFXMatrix4x4@@SAMMMMMMMMMM@Z 0049c19c f   IFXCoreStatic:IFXMatrix4x4.obj
 0001:0009b1f2       ?Decompose@IFXMatrix4x4@@QBEHAAVIFXVector3@@AAV1@0@Z 0049c1f2 f   IFXCoreStatic:IFXMatrix4x4.obj
 0001:0009b77a       ?CalcTRS@IFXMatrix4x4@@QBEHPAVIFXVector3@@PAVIFXQuaternion@@0@Z 0049c77a f   IFXCoreStatic:IFXMatrix4x4.obj
 0001:0009b84c       ?CalcAxisScale@IFXMatrix4x4@@QBEXAAVIFXVector3@@@Z 0049c84c f   IFXCoreStatic:IFXMatrix4x4.obj
 0001:0009b974       ?Transpose@IFXMatrix4x4@@QAEXXZ 0049c974 f   IFXCoreStatic:IFXMatrix4x4.obj
 0001:0009b98c       ?RotateAxis@IFXMatrix4x4@@QAEXABVIFXVector4@@M@Z 0049c98c f   IFXCoreStatic:IFXMatrix4x4.obj
 0001:0009bbf8       ?DecReferences@IFXListNode@@QAEXXZ 0049cbf8 f   IFXCoreStatic:IFXListNode.obj
 0001:0009bc3c       ?HasZeroComponent@IFXVector3@@QBEHXZ 0049cc3c f i IFXCoreStatic:IFXTransform.obj
 0001:0009bc8c       ?Divide@IFXVector3@@QAEAAV1@ABV1@@Z 0049cc8c f i IFXCoreStatic:IFXTransform.obj
 0001:0009bd54       ?Reciprocate@IFXVector3@@QAEAAV1@XZ 0049cd54 f i IFXCoreStatic:IFXTransform.obj
 0001:0009bdfc       ??0IFXMatrix4x4@@QAE@ABVIFXQuaternion@@@Z 0049cdfc f i IFXCoreStatic:IFXTransform.obj
 0001:0009be28       ?ResetNonRotation@IFXMatrix4x4@@QAEXXZ 0049ce28 f i IFXCoreStatic:IFXTransform.obj
 0001:0009be48       ?ResetTranslation@IFXMatrix4x4@@QAEXXZ 0049ce48 f i IFXCoreStatic:IFXTransform.obj
 0001:0009be6c       ?ResetBottom@IFXMatrix4x4@@QAEXXZ 0049ce6c f i IFXCoreStatic:IFXTransform.obj
 0001:0009be98       ?RawConst@IFXMatrix4x4@@QBEPBMXZ 0049ce98 f i IFXCoreStatic:IFXTransform.obj
 0001:0009bea4       ?SetTranslation@IFXMatrix4x4@@QAEXABVIFXVector3@@@Z 0049cea4 f i IFXCoreStatic:IFXTransform.obj
 0001:0009bee8       ?Translate3x4@IFXMatrix4x4@@QAEAAV1@ABVIFXVector3@@@Z 0049cee8 f i IFXCoreStatic:IFXTransform.obj
 0001:0009bf6c       ?Scale3x4@IFXMatrix4x4@@QAEAAV1@ABVIFXVector3@@@Z 0049cf6c f i IFXCoreStatic:IFXTransform.obj
 0001:0009c040       ??4IFXQuaternion@@QAEAAV0@ABV0@@Z 0049d040 f i IFXCoreStatic:IFXTransform.obj
 0001:0009c07c       ?Raw@IFXQuaternion@@QAEPAMXZ 0049d07c f i IFXCoreStatic:IFXTransform.obj
 0001:0009c088       ?Invert@IFXQuaternion@@QAEAAV1@XZ 0049d088 f i IFXCoreStatic:IFXTransform.obj
 0001:0009c0c0       ?RotateVector@IFXQuaternion@@QAEXPBMPAM@Z 0049d0c0 f i IFXCoreStatic:IFXTransform.obj
 0001:0009c238       ?QuaternionConst@IFXTransform@@QAEABVIFXQuaternion@@XZ 0049d238 f i IFXCoreStatic:IFXTransform.obj
 0001:0009c254       ?SetTranslation@IFXTransform@@QAEXABVIFXVector3@@@Z 0049d254 f i IFXCoreStatic:IFXTransform.obj
 0001:0009c270       ?QuaternionIsValid@IFXTransform@@QAEHXZ 0049d270 f i IFXCoreStatic:IFXTransform.obj
 0001:0009c284       ??4IFXTransform@@QAEAAV0@ABV0@@Z 0049d284 f   IFXCoreStatic:IFXTransform.obj
 0001:0009c3dc       ?Multiply@IFXTransform@@QAEAAV1@ABVIFXMatrix4x4@@@Z 0049d3dc f   IFXCoreStatic:IFXTransform.obj
 0001:0009c442       ?Interpolate@IFXTransform@@QAEHMAAV1@0@Z 0049d442 f   IFXCoreStatic:IFXTransform.obj
 0001:0009c62c       ?MakeIdentity@IFXTransform@@QAEXXZ 0049d62c f   IFXCoreStatic:IFXTransform.obj
 0001:0009c6b6       ?MakeTRS@IFXTransform@@QAEXABVIFXVector3@@ABVIFXQuaternion@@0@Z 0049d6b6 f   IFXCoreStatic:IFXTransform.obj
 0001:0009c720       ?CalcTRS@IFXTransform@@QAEHPAVIFXVector3@@PAVIFXQuaternion@@0@Z 0049d720 f   IFXCoreStatic:IFXTransform.obj
 0001:0009c7a2       ?GetMatrixData@IFXTransform@@QAEPAMW4IFXReadWrite@@@Z 0049d7a2 f   IFXCoreStatic:IFXTransform.obj
 0001:0009c7fa       ?Quaternion@IFXTransform@@QAEAAVIFXQuaternion@@W4IFXReadWrite@@@Z 0049d7fa f   IFXCoreStatic:IFXTransform.obj
 0001:0009c848       ?SetScale@IFXTransform@@QAEXABVIFXVector3@@@Z 0049d848 f   IFXCoreStatic:IFXTransform.obj
 0001:0009c894       ?UpdateMatrix@IFXTransform@@QAEXXZ 0049d894 f   IFXCoreStatic:IFXTransform.obj
 0001:0009c99e       ?UpdateMatrixInverse@IFXTransform@@AAEXXZ 0049d99e f   IFXCoreStatic:IFXTransform.obj
 0001:0009cc26       ?UpdateQuaternion@IFXTransform@@AAEXXZ 0049dc26 f   IFXCoreStatic:IFXTransform.obj
 0001:0009ccd2       ?ReverseRotateVectorByQuat@IFXTransform@@AAEXPBMAAVIFXVector3@@@Z 0049dcd2 f   IFXCoreStatic:IFXTransform.obj
 0001:0009cdb8       _acosf                     0049ddb8 f i IFXCoreStatic:IFXQuaternion.obj
 0001:0009cde0       _atan2f                    0049dde0 f i IFXCoreStatic:IFXQuaternion.obj
 0001:0009ce0c       ?fabs@@YAMM@Z              0049de0c f i IFXCoreStatic:IFXQuaternion.obj
 0001:0009ce28       ?IsNonZero@IFXVector3@@QBEHXZ 0049de28 f i IFXCoreStatic:IFXQuaternion.obj
 0001:0009ce78       ?Normalize@IFXVector3@@QAEAAV1@XZ 0049de78 f i IFXCoreStatic:IFXQuaternion.obj
 0001:0009cef0       ??4IFXQuaternion@@QAEAAV0@ABVIFXVector3@@@Z 0049def0 f i IFXCoreStatic:IFXQuaternion.obj
 0001:0009cf40       ?Set@IFXQuaternion@@QAEXMMMM@Z 0049df40 f i IFXCoreStatic:IFXQuaternion.obj
 0001:0009cf70       ?CalcMagnitudeSquared@IFXQuaternion@@QAEMXZ 0049df70 f i IFXCoreStatic:IFXQuaternion.obj
 0001:0009cfb8       ?Normalize@IFXQuaternion@@QAEXXZ 0049dfb8 f i IFXCoreStatic:IFXQuaternion.obj
 0001:0009d050       ?Multiply@IFXQuaternion@@QAEAAV1@ABV1@0@Z 0049e050 f i IFXCoreStatic:IFXQuaternion.obj
 0001:0009d204       ?RotateVector@IFXQuaternion@@QAEXABVIFXVector3@@AAV2@@Z 0049e204 f i IFXCoreStatic:IFXQuaternion.obj
 0001:0009d248       ??4IFXQuaternion@@QAEAAV0@ABVIFXMatrix4x4@@@Z 0049e248 f   IFXCoreStatic:IFXQuaternion.obj
 0001:0009d4c2       ?MakeRotation@IFXQuaternion@@QAEXMW4IFXAxisID@@@Z 0049e4c2 f   IFXCoreStatic:IFXQuaternion.obj
 0001:0009d52a       ?MakeRotation@IFXQuaternion@@QAEXMABVIFXVector3@@@Z 0049e52a f   IFXCoreStatic:IFXQuaternion.obj
 0001:0009d62a       ?MakeRotation@IFXQuaternion@@QAEXABVIFXVector3@@0@Z 0049e62a f   IFXCoreStatic:IFXQuaternion.obj
 0001:0009d8f8       ?ComputeAngleAxis@IFXQuaternion@@QBEXAAMAAVIFXVector3@@@Z 0049e8f8 f   IFXCoreStatic:IFXQuaternion.obj
 0001:0009da92       ?ForcePositiveW@IFXQuaternion@@QAEXXZ 0049ea92 f   IFXCoreStatic:IFXQuaternion.obj
 0001:0009dae4       ?Interpolate@IFXQuaternion@@QAEXMABV1@0@Z 0049eae4 f   IFXCoreStatic:IFXQuaternion.obj
 0001:0009dcca       ?ExtractEulerZ@IFXQuaternion@@QAEMXZ 0049ecca f   IFXCoreStatic:IFXQuaternion.obj
 0001:0009de28       ??_GIFXUnitAllocator@@QAEPAXI@Z 0049ee28 f i IFXCoreStatic:IFXCoreList.obj
 0001:0009de28       ??_EIFXUnitAllocator@@QAEPAXI@Z 0049ee28 f i IFXCoreStatic:IFXCoreList.obj
 0001:0009de54       ??_EIFXCoreList@@UAEPAXI@Z 0049ee54 f i IFXCoreStatic:IFXCoreList.obj
 0001:0009de54       ??_GIFXCoreList@@UAEPAXI@Z 0049ee54 f i IFXCoreStatic:IFXCoreList.obj
 0001:0009de80       ?Reset@IFXListNode@@QAEXXZ 0049ee80 f i IFXCoreStatic:IFXCoreList.obj
 0001:0009de94       ?SetPointer@IFXListNode@@QAEXPAX@Z 0049ee94 f i IFXCoreStatic:IFXCoreList.obj
 0001:0009dea8       ?GetPointerLocation@IFXListNode@@QAEPAPAXXZ 0049eea8 f i IFXCoreStatic:IFXCoreList.obj
 0001:0009deb8       ?SetPrevious@IFXListNode@@QAEXPAV1@@Z 0049eeb8 f i IFXCoreStatic:IFXCoreList.obj
 0001:0009decc       ?GetPrevious@IFXListNode@@QBEPAV1@XZ 0049eecc f i IFXCoreStatic:IFXCoreList.obj
 0001:0009dedc       ?SetNext@IFXListNode@@QAEXPAV1@@Z 0049eedc f i IFXCoreStatic:IFXCoreList.obj
 0001:0009def0       ?SetValid@IFXListNode@@QAEX_N@Z 0049eef0 f i IFXCoreStatic:IFXCoreList.obj
 0001:0009df08       ?Abandon@IFXListNode@@QAEXXZ 0049ef08 f i IFXCoreStatic:IFXCoreList.obj
 0001:0009df70       ?Initialize@IFXListNode@@AAEXXZ 0049ef70 f i IFXCoreStatic:IFXCoreList.obj
 0001:0009dfa4       ?Deallocate@IFXUnitAllocator@@QAEXPAE@Z 0049efa4 f i IFXCoreStatic:IFXCoreList.obj
 0001:0009dffc       ?Allocate@IFXUnitAllocator@@QAEPAEXZ 0049effc f i IFXCoreStatic:IFXCoreList.obj
 0001:0009e060       ??0IFXCoreList@@QAE@XZ     0049f060 f   IFXCoreStatic:IFXCoreList.obj
 0001:0009e194       ??1IFXCoreList@@UAE@XZ     0049f194 f   IFXCoreStatic:IFXCoreList.obj
 0001:0009e1de       ?Clear@IFXCoreList@@QAEXXZ 0049f1de f   IFXCoreStatic:IFXCoreList.obj
 0001:0009e214       ?RemoveAll@IFXCoreList@@QAEXXZ 0049f214 f   IFXCoreStatic:IFXCoreList.obj
 0001:0009e28c       ?Deallocate@IFXCoreList@@SAXPAX@Z 0049f28c f   IFXCoreStatic:IFXCoreList.obj
 0001:0009e2e6       ?CoreRemove@IFXCoreList@@IAEHPAX@Z 0049f2e6 f   IFXCoreStatic:IFXCoreList.obj
 0001:0009e45e       ?CoreRemove@IFXCoreList@@IAEHPAXAAVIFXListContext@@@Z 0049f45e f   IFXCoreStatic:IFXCoreList.obj
 0001:0009e5a4       ?CoreSearchForElement@IFXCoreList@@IBEPAXAAVIFXListContext@@PAX@Z 0049f5a4 f   IFXCoreStatic:IFXCoreList.obj
 0001:0009e66c       ?CoreGetElement@IFXCoreList@@IBEPAXJ@Z 0049f66c f   IFXCoreStatic:IFXCoreList.obj
 0001:0009e770       ?CoreInsert@IFXCoreList@@IAEPAPAXHAAVIFXListContext@@PAXPAVIFXListNode@@@Z 0049f770 f   IFXCoreStatic:IFXCoreList.obj
 0001:0009e9b2       ?CoreRemoveNode@IFXCoreList@@IAEHPAVIFXListNode@@@Z 0049f9b2 f   IFXCoreStatic:IFXCoreList.obj
 0001:0009e9ea       ?CoreMoveNode@IFXCoreList@@IAEHHAAVIFXListContext@@0@Z 0049f9ea f   IFXCoreStatic:IFXCoreList.obj
 0001:0009ea54       ?InternalToHead@IFXCoreList@@ABEPAXAAVIFXListContext@@@Z 0049fa54 f   IFXCoreStatic:IFXCoreList.obj
 0001:0009ea9e       ?InternalGetCurrent@IFXCoreList@@ABEPAXAAVIFXListContext@@@Z 0049fa9e f   IFXCoreStatic:IFXCoreList.obj
 0001:0009eaf0       ?InternalPostIncrement@IFXCoreList@@ABEPAXAAVIFXListContext@@@Z 0049faf0 f   IFXCoreStatic:IFXCoreList.obj
 0001:0009ebbe       ?InternalDetachNode@IFXCoreList@@AAEXPAVIFXListNode@@@Z 0049fbbe f   IFXCoreStatic:IFXCoreList.obj
 0001:0009ec44       ?Interpolate@IFXVector3@@QAEXMABV1@0@Z 0049fc44 f   IFXCoreStatic:IFXVector3.obj
 0001:0009ecb2       ?Out@IFXVector3@@QBE?AVIFXString@@H@Z 0049fcb2 f   IFXCoreStatic:IFXVector3.obj
 0001:0009edc0       ??0IFXUnitAllocator@@QAE@XZ 0049fdc0 f   IFXCoreStatic:IFXUnitAllocator.obj
 0001:0009ee10       ??1IFXUnitAllocator@@QAE@XZ 0049fe10 f   IFXCoreStatic:IFXUnitAllocator.obj
 0001:0009ee24       ?Initialize@IFXUnitAllocator@@QAEHIII@Z 0049fe24 f   IFXCoreStatic:IFXUnitAllocator.obj
 0001:0009ef3a       ?ThreadMemory@IFXUnitAllocator@@AAEHPAE@Z 0049ff3a f   IFXCoreStatic:IFXUnitAllocator.obj
 0001:0009ef96       ?Destroy@IFXUnitAllocator@@AAEHXZ 0049ff96 f   IFXCoreStatic:IFXUnitAllocator.obj
 0001:0009f064       ?Grow@IFXUnitAllocator@@AAEPAEXZ 004a0064 f   IFXCoreStatic:IFXUnitAllocator.obj
 0001:0009f104       _cos                       004a0104 f   libmmt:cos_stub.omu
 0001:0009f12c       _fabs                      004a012c f   libmmt:fabs.omu
 0001:0009f134       _sin                       004a0134 f   libmmt:sin_stub.omu
 0001:0009f15c       _sqrt                      004a015c f   libmmt:sqrt_stub.omu
 0001:0009f184       _acos                      004a0184 f   libmmt:acos_stub.omu
 0001:0009f1ac       _atan2                     004a01ac f   libmmt:atan2_stub.omu
 0001:0009f1d4       _cos.J                     004a01d4 f   libmmt:cos_wmt.omu
 0001:0009f3a0       _cos.A                     004a03a0 f   libmmt:cos_gen.omu
 0001:0009f858       _sin.J                     004a0858 f   libmmt:sin_wmt.omu
 0001:0009fa3c       _sin.A                     004a0a3c f   libmmt:sin_gen.omu
 0001:0009ff50       _sqrt.J                    004a0f50 f   libmmt:sqrt_wmt.omu
 0001:0009ffd0       _sqrt.A                    004a0fd0 f   libmmt:sqrt_gen.omu
 0001:000a004c       _acos.J                    004a104c f   libmmt:acos_wmt.omu
 0001:000a0568       _acos.A                    004a1568 f   libmmt:acos_gen.omu
 0001:000a09a0       _atan2.J                   004a19a0 f   libmmt:atan2_wmt.omu
 0001:000a0f9c       _atan2.A                   004a1f9c f   libmmt:atan2_gen.omu
 0001:000a1028       ___libm_sincos_huge        004a2028 f   libmmt:libm_sincos_huge.omu
 0001:000a1548       ___libm_reduce_pi04l       004a2548 f   libmmt:libm_reduce_pi04l.omu
 0001:000a1934       ___libm_error_support      004a2934 f   libmmt:libm_error.omu
 0001:000a8768       ___libm_setusermatherrl    004a9768 f   libmmt:libm_error.omu
 0001:000a8780       ___libm_setusermatherr     004a9780 f   libmmt:libm_error.omu
 0001:000a8798       ___libm_setusermatherrf    004a9798 f   libmmt:libm_error.omu
 0001:000a87b0       _matherrl                  004a97b0 f   libmmt:matherrl.omu
 0001:000a87b8       _matherr                   004a97b8 f   libmmt:matherr.omu
 0001:000a87c0       _matherrf                  004a97c0 f   libmmt:matherrf.omu
 0001:000a87d0       _fputs                     004a97d0 f   LIBCMTD:fputs.obj
 0001:000a88cc       ___intel_cpu_indicator_init 004a98cc f   libirc:cpu_disp.obj
 0002:00050a40       _IID_IFXUnknown            00513a40     IDTFConverterHelpers:Guids.obj
 0002:00050a50       _CID_IFXNameMap            00513a50     IDTFConverterHelpers:Guids.obj
 0002:00050a60       _CID_IFXDevice             00513a60     IDTFConverterHelpers:Guids.obj
 0002:00050a70       _CID_IFXCLODManager        00513a70     IDTFConverterHelpers:Guids.obj
 0002:00050a80       _CID_IFXSetAdjacencyX      00513a80     IDTFConverterHelpers:Guids.obj
 0002:00050a90       _CID_IFXSetX               00513a90     IDTFConverterHelpers:Guids.obj
 0002:00050aa0       _CID_IFXAuthorCLODGen      00513aa0     IDTFConverterHelpers:Guids.obj
 0002:00050ab0       _CID_IFXAuthorLineSetAnalyzer 00513ab0     IDTFConverterHelpers:Guids.obj
 0002:00050ac0       _CID_IFXMetaDataX          00513ac0     IDTFConverterHelpers:Guids.obj
 0002:00050ad0       _CID_IFXFileReference      00513ad0     IDTFConverterHelpers:Guids.obj
 0002:00050ae0       _CID_IFXMeshCompiler       00513ae0     IDTFConverterHelpers:Guids.obj
 0002:00050af0       _CID_IFXMeshMap            00513af0     IDTFConverterHelpers:Guids.obj
 0002:00050b00       _CID_IFXAuthorMeshMap      00513b00     IDTFConverterHelpers:Guids.obj
 0002:00050b10       _CID_IFXGlyph2DCommands    00513b10     IDTFConverterHelpers:Guids.obj
 0002:00050b20       _CID_IFXGlyphCommandList   00513b20     IDTFConverterHelpers:Guids.obj
 0002:00050b30       _CID_IFXGlyph3DGenerator   00513b30     IDTFConverterHelpers:Guids.obj
 0002:00050b40       _CID_IFXAuthorMeshScrub    00513b40     IDTFConverterHelpers:Guids.obj
 0002:00050b50       _CID_IFXAuthorMesh         00513b50     IDTFConverterHelpers:Guids.obj
 0002:00050b60       _CID_IFXAuthorCLODResource 00513b60     IDTFConverterHelpers:Guids.obj
 0002:00050b70       _CID_IFXBitStreamX         00513b70     IDTFConverterHelpers:Guids.obj
 0002:00050b80       _CID_IFXSkeleton           00513b80     IDTFConverterHelpers:Guids.obj
 0002:00050b90       _CID_IFXBoneWeightsModifier 00513b90     IDTFConverterHelpers:Guids.obj
 0002:00050ba0       _CID_IFXBoundHierarchy     00513ba0     IDTFConverterHelpers:Guids.obj
 0002:00050bb0       _CID_IFXBoundSphereDataElement 00513bb0     IDTFConverterHelpers:Guids.obj
 0002:00050bc0       _CID_IFXConnector          00513bc0     IDTFConverterHelpers:Guids.obj
 0002:00050bd0       _CID_IFXContour            00513bd0     IDTFConverterHelpers:Guids.obj
 0002:00050be0       _CID_IFXContourExtruder    00513be0     IDTFConverterHelpers:Guids.obj
 0002:00050bf0       _CID_IFXContourGenerator   00513bf0     IDTFConverterHelpers:Guids.obj
 0002:00050c00       _CID_IFXContourTessellator 00513c00     IDTFConverterHelpers:Guids.obj
 0002:00050c10       _CID_IFXCoreServices       00513c10     IDTFConverterHelpers:Guids.obj
 0002:00050c20       _CID_IFXCoreServicesRef    00513c20     IDTFConverterHelpers:Guids.obj
 0002:00050c30       _CID_IFXDataBlock          00513c30     IDTFConverterHelpers:Guids.obj
 0002:00050c40       _CID_IFXDataBlockX         00513c40     IDTFConverterHelpers:Guids.obj
 0002:00050c50       _CID_IFXDataBlockQueueX    00513c50     IDTFConverterHelpers:Guids.obj
 0002:00050c60       _CID_IFXModifierDataPacket 00513c60     IDTFConverterHelpers:Guids.obj
 0002:00050c70       _CID_IFXGlyphCurveToBlock  00513c70     IDTFConverterHelpers:Guids.obj
 0002:00050c80       _CID_IFXGlyphLineToBlock   00513c80     IDTFConverterHelpers:Guids.obj
 0002:00050c90       _CID_IFXGlyphMoveToBlock   00513c90     IDTFConverterHelpers:Guids.obj
 0002:00050ca0       _CID_IFXGlyphTagBlock      00513ca0     IDTFConverterHelpers:Guids.obj
 0002:00050cb0       _CID_IFXGroup              00513cb0     IDTFConverterHelpers:Guids.obj
 0002:00050cc0       _CID_IFXHashMap            00513cc0     IDTFConverterHelpers:Guids.obj
 0002:00050cd0       _CID_IFXIDManager          00513cd0     IDTFConverterHelpers:Guids.obj
 0002:00050ce0       _CID_IFXLight              00513ce0     IDTFConverterHelpers:Guids.obj
 0002:00050cf0       _CID_IFXLightResource      00513cf0     IDTFConverterHelpers:Guids.obj
 0002:00050d00       _CID_IFXViewResource       00513d00     IDTFConverterHelpers:Guids.obj
 0002:00050d10       _CID_IFXLightSet           00513d10     IDTFConverterHelpers:Guids.obj
 0002:00050d20       _CID_IFXImageCodec         00513d20     IDTFConverterHelpers:Guids.obj
 0002:00050d30       _CID_IFXCLODModifier       00513d30     IDTFConverterHelpers:Guids.obj
 0002:00050d40       _CID_IFXMaterialResource   00513d40     IDTFConverterHelpers:Guids.obj
 0002:00050d50       _CID_IFXMesh               00513d50     IDTFConverterHelpers:Guids.obj
 0002:00050d60       _CID_IFXInterleavedData    00513d60     IDTFConverterHelpers:Guids.obj
 0002:00050d70       _CID_IFXMeshGroup          00513d70     IDTFConverterHelpers:Guids.obj
 0002:00050d80       _CID_IFXNeighborMesh       00513d80     IDTFConverterHelpers:Guids.obj
 0002:00050d90       _CID_IFXMixerConstruct     00513d90     IDTFConverterHelpers:Guids.obj
 0002:00050da0       _CID_IFXModel              00513da0     IDTFConverterHelpers:Guids.obj
 0002:00050db0       _CID_IFXModifierChain      00513db0     IDTFConverterHelpers:Guids.obj
 0002:00050dc0       _CID_IFXDidRegistry        00513dc0     IDTFConverterHelpers:Guids.obj
 0002:00050dd0       _CID_IFXMotionResource     00513dd0     IDTFConverterHelpers:Guids.obj
 0002:00050de0       _CID_IFXShaderList         00513de0     IDTFConverterHelpers:Guids.obj
 0002:00050df0       _CID_IFXGlyph2DModifier    00513df0     IDTFConverterHelpers:Guids.obj
 0002:00050e00       _CID_IFXPalette            00513e00     IDTFConverterHelpers:Guids.obj
 0002:00050e10       _CID_IFXPerformanceTimer   00513e10     IDTFConverterHelpers:Guids.obj
 0002:00050e20       _CID_IFXPickObject         00513e20     IDTFConverterHelpers:Guids.obj
 0002:00050e30       _CID_IFXRenderPass         00513e30     IDTFConverterHelpers:Guids.obj
 0002:00050e40       _CID_IFXSceneGraph         00513e40     IDTFConverterHelpers:Guids.obj
 0002:00050e50       _CID_IFXSimpleCollection   00513e50     IDTFConverterHelpers:Guids.obj
 0002:00050e60       _CID_IFXAnimationModifier  00513e60     IDTFConverterHelpers:Guids.obj
 0002:00050e70       _CID_IFXAuthorPointSet     00513e70     IDTFConverterHelpers:Guids.obj
 0002:00050e80       _CID_IFXAuthorPointSetResource 00513e80     IDTFConverterHelpers:Guids.obj
 0002:00050e90       _CID_IFXAuthorLineSet      00513e90     IDTFConverterHelpers:Guids.obj
 0002:00050ea0       _CID_IFXAuthorLineSetResource 00513ea0     IDTFConverterHelpers:Guids.obj
 0002:00050eb0       _CID_IFXSimpleHash         00513eb0     IDTFConverterHelpers:Guids.obj
 0002:00050ec0       _CID_IFXSimpleList         00513ec0     IDTFConverterHelpers:Guids.obj
 0002:00050ed0       _CID_IFXSimpleObject       00513ed0     IDTFConverterHelpers:Guids.obj
 0002:00050ee0       _CID_IFXSpatialSubdiv      00513ee0     IDTFConverterHelpers:Guids.obj
 0002:00050ef0       _CID_IFXSubdivModifier     00513ef0     IDTFConverterHelpers:Guids.obj
 0002:00050f00       _CID_IFXTextureImageTools  00513f00     IDTFConverterHelpers:Guids.obj
 0002:00050f10       _CID_IFXTextureObject      00513f10     IDTFConverterHelpers:Guids.obj
 0002:00050f20       _CID_IFXUVGenerator        00513f20     IDTFConverterHelpers:Guids.obj
 0002:00050f30       _CID_IFXUVMapperCylindrical 00513f30     IDTFConverterHelpers:Guids.obj
 0002:00050f40       _CID_IFXUVMapperNone       00513f40     IDTFConverterHelpers:Guids.obj
 0002:00050f50       _CID_IFXUVMapperPlanar     00513f50     IDTFConverterHelpers:Guids.obj
 0002:00050f60       _CID_IFXUVMapperSpherical  00513f60     IDTFConverterHelpers:Guids.obj
 0002:00050f70       _CID_IFXUVMapperReflection 00513f70     IDTFConverterHelpers:Guids.obj
 0002:00050f80       _CID_IFXView               00513f80     IDTFConverterHelpers:Guids.obj
 0002:00050f90       _CID_IFXVoidWrapper        00513f90     IDTFConverterHelpers:Guids.obj
 0002:00050fa0       _CID_IFXShadingModifier    00513fa0     IDTFConverterHelpers:Guids.obj
 0002:00050fb0       _CID_IFXDummyModifier      00513fb0     IDTFConverterHelpers:Guids.obj
 0002:00050fc0       _CID_IFXShaderLitTexture   00513fc0     IDTFConverterHelpers:Guids.obj
 0002:00050fd0       _IID_IFXMetaDataX          00513fd0     IDTFConverterHelpers:Guids.obj
 0002:00050fe0       _IID_IFXMarker             00513fe0     IDTFConverterHelpers:Guids.obj
 0002:00050ff0       _IID_IFXSubject            00513ff0     IDTFConverterHelpers:Guids.obj
 0002:00051000       _IID_IFXSceneGraph         00514000     IDTFConverterHelpers:Guids.obj
 0002:00051014       _IID_IFXSpatial            00514014     IDTFConverterHelpers:Guids.obj
 0002:00051024       _IID_IFXCollection         00514024     IDTFConverterHelpers:Guids.obj
 0002:00051034       _IID_IFXModifier           00514034     IDTFConverterHelpers:Guids.obj
 0002:00051044       _IID_IFXSimpleList         00514044     IDTFConverterHelpers:Guids.obj
 0002:00051054       _IID_IFXNode               00514054     IDTFConverterHelpers:Guids.obj
 0002:00051064       _IID_IFXDataBlockX         00514064     IDTFConverterHelpers:Guids.obj
 0002:00051074       _IID_IFXDataBlockQueueX    00514074     IDTFConverterHelpers:Guids.obj
 0002:00051084       _IID_IFXPalette            00514084     IDTFConverterHelpers:Guids.obj
 0002:00051094       _IID_IFXCoreServices       00514094     IDTFConverterHelpers:Guids.obj
 0002:000510a4       _IID_IFXEncoderX           005140a4     IDTFConverterHelpers:Guids.obj
 0002:000510b4       _IID_IFXMarkerX            005140b4     IDTFConverterHelpers:Guids.obj
 0002:000510c4       _IID_IFXLightResource      005140c4     IDTFConverterHelpers:Guids.obj
 0002:000510d4       _IID_IFXLight              005140d4     IDTFConverterHelpers:Guids.obj
 0002:000510e4       _IID_IFXMaterialResource   005140e4     IDTFConverterHelpers:Guids.obj
 0002:000510f4       _IID_IFXResourceClient     005140f4     IDTFConverterHelpers:Guids.obj
 0002:00051104       _IID_IFXSpatialAssociation 00514104     IDTFConverterHelpers:Guids.obj
 0002:00051114       _IID_IFXShaderList         00514114     IDTFConverterHelpers:Guids.obj
 0002:00051124       _IID_IFXModel              00514124     IDTFConverterHelpers:Guids.obj
 0002:00051134       _IID_IFXDataPacket         00514134     IDTFConverterHelpers:Guids.obj
 0002:00051144       _IID_IFXModifierDataPacket 00514144     IDTFConverterHelpers:Guids.obj
 0002:00051154       _IID_IFXRenderable         00514154     IDTFConverterHelpers:Guids.obj
 0002:00051164       _IID_IFXMeshGroup          00514164     IDTFConverterHelpers:Guids.obj
 0002:00051174       _IID_IFXInterleavedData    00514174     IDTFConverterHelpers:Guids.obj
 0002:00051184       _IID_IFXMesh               00514184     IDTFConverterHelpers:Guids.obj
 0002:00051218       _IID_IFXTextureObject      00514218     IDTFConverterHelpers:Guids.obj
 0002:00051228       _IID_IFXTextureImageTools  00514228     IDTFConverterHelpers:Guids.obj
 0002:0005123c       _IID_IFXRenderServices     0051423c     IDTFConverterHelpers:Guids.obj
 0002:0005124c       _IID_IFXRenderContext      0051424c     IDTFConverterHelpers:Guids.obj
 0002:0005125c       _IID_IFXRenderClear        0051425c     IDTFConverterHelpers:Guids.obj
 0002:0005126c       _IID_IFXShader             0051426c     IDTFConverterHelpers:Guids.obj
 0002:0005127c       _IID_IFXShaderLitTexture   0051427c     IDTFConverterHelpers:Guids.obj
 0002:0005128c       _IID_IFXSpatialSetQuery    0051428c     IDTFConverterHelpers:Guids.obj
 0002:0005129c       _IID_IFXViewResource       0051429c     IDTFConverterHelpers:Guids.obj
 0002:000512ac       _IID_IFXView               005142ac     IDTFConverterHelpers:Guids.obj
 0002:000512bc       _IID_IFXAnimationModifier  005142bc     IDTFConverterHelpers:Guids.obj
 0002:000512cc       _IID_IFXBoneWeightsModifier 005142cc     IDTFConverterHelpers:Guids.obj
 0002:000512dc       _IID_IFXSkeleton           005142dc     IDTFConverterHelpers:Guids.obj
 0002:000512ec       _IID_IFXMotionResource     005142ec     IDTFConverterHelpers:Guids.obj
 0002:000512fc       _IID_IFXMixerConstruct     005142fc     IDTFConverterHelpers:Guids.obj
 0002:0005130c       _CID_IFXAuthorCLODEncoderX 0051430c     IDTFConverterHelpers:Guids.obj
 0002:0005131c       _CID_IFXMaterialResourceEncoder 0051431c     IDTFConverterHelpers:Guids.obj
 0002:0005132c       _CID_IFXMotionResourceEncoder 0051432c     IDTFConverterHelpers:Guids.obj
 0002:0005133c       _CID_IFXCLODGeneratorEncoder 0051433c     IDTFConverterHelpers:Guids.obj
 0002:0005134c       _CID_IFXGlyphGeneratorEncoder 0051434c     IDTFConverterHelpers:Guids.obj
 0002:0005135c       _CID_IFXBoxGeneratorEncoder 0051435c     IDTFConverterHelpers:Guids.obj
 0002:0005136c       _CID_IFXCylinderGeneratorEncoder 0051436c     IDTFConverterHelpers:Guids.obj
 0002:0005137c       _CID_IFXPlaneGeneratorEncoder 0051437c     IDTFConverterHelpers:Guids.obj
 0002:0005138c       _CID_IFXSphereGeneratorEncoder 0051438c     IDTFConverterHelpers:Guids.obj
 0002:0005139c       _CID_IFXShaderLitTextureEncoder 0051439c     IDTFConverterHelpers:Guids.obj
 0002:000513ac       _CID_IFXSkeletonModifierEncoder 005143ac     IDTFConverterHelpers:Guids.obj
 0002:000513bc       _CID_IFXSubdivisionModifierEncoder 005143bc     IDTFConverterHelpers:Guids.obj
 0002:000513cc       _CID_IFXShadingModifierEncoder 005143cc     IDTFConverterHelpers:Guids.obj
 0002:000513dc       _CID_IFXInkerModifierEncoder 005143dc     IDTFConverterHelpers:Guids.obj
 0002:000513ec       _CID_IFXCLODGeneratorParamEncoder 005143ec     IDTFConverterHelpers:Guids.obj
 0002:000513fc       _CID_IFXAnimationModifierEncoder 005143fc     IDTFConverterHelpers:Guids.obj
 0002:0005140c       _CID_IFXGroupNodeEncoder   0051440c     IDTFConverterHelpers:Guids.obj
 0002:0005141c       _CID_IFXLightNodeEncoder   0051441c     IDTFConverterHelpers:Guids.obj
 0002:0005142c       _CID_IFXLightResourceEncoder 0051442c     IDTFConverterHelpers:Guids.obj
 0002:0005143c       _CID_IFXModelNodeEncoder   0051443c     IDTFConverterHelpers:Guids.obj
 0002:0005144c       _CID_IFXViewNodeEncoder    0051444c     IDTFConverterHelpers:Guids.obj
 0002:0005145c       _CID_IFXViewResourceEncoder 0051445c     IDTFConverterHelpers:Guids.obj
 0002:0005146c       _CID_IFXFileReferenceEncoder 0051446c     IDTFConverterHelpers:Guids.obj
 0002:0005147c       _CID_IFXBlockPriorityQueueX 0051447c     IDTFConverterHelpers:Guids.obj
 0002:0005148c       _CID_IFXBlockWriterX       0051448c     IDTFConverterHelpers:Guids.obj
 0002:0005149c       _CID_IFXWriteManager       0051449c     IDTFConverterHelpers:Guids.obj
 0002:000514ac       _CID_IFXAuthorGeomCompiler 005144ac     IDTFConverterHelpers:Guids.obj
 0002:000514bc       _CID_IFXStdioWriteBuffer   005144bc     IDTFConverterHelpers:Guids.obj
 0002:000514cc       _CID_IFXStdioWriteBufferX  005144cc     IDTFConverterHelpers:Guids.obj
 0002:000514dc       _CID_IFXPointSetEncoder    005144dc     IDTFConverterHelpers:Guids.obj
 0002:000514ec       _CID_IFXLineSetEncoderX    005144ec     IDTFConverterHelpers:Guids.obj
 0002:000514fc       _CID_IFXBoneWeightsModifierEncoder 005144fc     IDTFConverterHelpers:Guids.obj
 0002:0005150c       _CID_IFXCLODModifierEncoder 0051450c     IDTFConverterHelpers:Guids.obj
 0002:0005151c       _CID_IFXDummyModifierEncoder 0051451c     IDTFConverterHelpers:Guids.obj
 0002:0005152c       _CID_IFXDirectX8           0051452c     IDTFConverterHelpers:Guids.obj
 0002:0005153c       _CID_IFXDirectX7           0051453c     IDTFConverterHelpers:Guids.obj
 0002:0005154c       _CID_IFXOpenGL             0051454c     IDTFConverterHelpers:Guids.obj
 0002:0005155c       _CID_IFXDeviceLight        0051455c     IDTFConverterHelpers:Guids.obj
 0002:0005156c       _CID_IFXDeviceTexture      0051456c     IDTFConverterHelpers:Guids.obj
 0002:0005157c       _CID_IFXDeviceTexUnit      0051457c     IDTFConverterHelpers:Guids.obj
 0002:0005158c       _CID_IFXDeviceLightDX8     0051458c     IDTFConverterHelpers:Guids.obj
 0002:0005159c       _CID_IFXDeviceTextureDX8   0051459c     IDTFConverterHelpers:Guids.obj
 0002:000515ac       _CID_IFXDeviceTexUnitDX8   005145ac     IDTFConverterHelpers:Guids.obj
 0002:000515bc       _CID_IFXDeviceLightDX7     005145bc     IDTFConverterHelpers:Guids.obj
 0002:000515cc       _CID_IFXDeviceTextureDX7   005145cc     IDTFConverterHelpers:Guids.obj
 0002:000515dc       _CID_IFXDeviceTexUnitDX7   005145dc     IDTFConverterHelpers:Guids.obj
 0002:000515ec       _CID_IFXDeviceLightNULL    005145ec     IDTFConverterHelpers:Guids.obj
 0002:000515fc       _CID_IFXDeviceTextureNULL  005145fc     IDTFConverterHelpers:Guids.obj
 0002:0005160c       _CID_IFXDeviceTexUnitNULL  0051460c     IDTFConverterHelpers:Guids.obj
 0002:0005161c       _CID_IFXDeviceLightOGL     0051461c     IDTFConverterHelpers:Guids.obj
 0002:0005162c       _CID_IFXDeviceTextureOGL   0051462c     IDTFConverterHelpers:Guids.obj
 0002:0005163c       _CID_IFXDeviceTexUnitOGL   0051463c     IDTFConverterHelpers:Guids.obj
 0002:0005164c       _CID_IFXRenderServices     0051464c     IDTFConverterHelpers:Guids.obj
 0002:0005165c       _CID_IFXRenderContext      0051465c     IDTFConverterHelpers:Guids.obj
 0002:0005166c       _CID_IFXRenderDevice       0051466c     IDTFConverterHelpers:Guids.obj
 0002:0005167c       _CID_IFXRenderDX8          0051467c     IDTFConverterHelpers:Guids.obj
 0002:0005168c       _CID_IFXRenderDeviceDX8    0051468c     IDTFConverterHelpers:Guids.obj
 0002:0005169c       _CID_IFXRenderDX7          0051469c     IDTFConverterHelpers:Guids.obj
 0002:000516ac       _CID_IFXRenderDeviceDX7    005146ac     IDTFConverterHelpers:Guids.obj
 0002:000516bc       _CID_IFXRenderNULL         005146bc     IDTFConverterHelpers:Guids.obj
 0002:000516cc       _CID_IFXRenderDeviceNULL   005146cc     IDTFConverterHelpers:Guids.obj
 0002:000516dc       _CID_IFXRenderOGL          005146dc     IDTFConverterHelpers:Guids.obj
 0002:000516ec       _CID_IFXRenderDeviceOGL    005146ec     IDTFConverterHelpers:Guids.obj
 0002:000516fc       _CID_IFXOctreeCollection   005146fc     IDTFConverterHelpers:Guids.obj
 0002:0005170c       _CID_IFXOctreeCuller       0051470c     IDTFConverterHelpers:Guids.obj
 0002:0005171c       _CID_IFXSceneGraphCuller   0051471c     IDTFConverterHelpers:Guids.obj
 0002:0005172c       _CID_IFXSimulationInfo     0051472c     IDTFConverterHelpers:Guids.obj
 0002:0005173c       _CID_IFXNotificationInfo   0051473c     IDTFConverterHelpers:Guids.obj
 0002:0005174c       _CID_IFXNotificationManager 0051474c     IDTFConverterHelpers:Guids.obj
 0002:0005175c       _CID_IFXSchedulerInfo      0051475c     IDTFConverterHelpers:Guids.obj
 0002:0005176c       _CID_IFXSimulationManager  0051476c     IDTFConverterHelpers:Guids.obj
 0002:0005177c       _CID_IFXSystemManager      0051477c     IDTFConverterHelpers:Guids.obj
 0002:0005178c       _CID_IFXScheduler          0051478c     IDTFConverterHelpers:Guids.obj
 0002:0005179c       _CID_IFXTaskData           0051479c     IDTFConverterHelpers:Guids.obj
 0002:000517ac       _CID_IFXTaskManager        005147ac     IDTFConverterHelpers:Guids.obj
 0002:000517bc       _CID_IFXTaskManagerNode    005147bc     IDTFConverterHelpers:Guids.obj
 0002:000517cc       _CID_IFXTaskManagerView    005147cc     IDTFConverterHelpers:Guids.obj
 0002:000517dc       _CID_IFXTimeManager        005147dc     IDTFConverterHelpers:Guids.obj
 0002:000517ec       _CID_IFXErrorInfo          005147ec     IDTFConverterHelpers:Guids.obj
 0002:000517fc       _CID_IFXClock              005147fc     IDTFConverterHelpers:Guids.obj
 0002:0005180c       _CID_IFXTaskCallback       0051480c     IDTFConverterHelpers:Guids.obj
 0002:0005181c       _CID_IFXAuthorCLODDecoder  0051481c     IDTFConverterHelpers:Guids.obj
 0002:0005182c       _CID_IFXGroupDecoder       0051482c     IDTFConverterHelpers:Guids.obj
 0002:0005183c       _CID_IFXLightDecoder       0051483c     IDTFConverterHelpers:Guids.obj
 0002:0005184c       _CID_IFXLightResourceDecoder 0051484c     IDTFConverterHelpers:Guids.obj
 0002:0005185c       _CID_IFXMaterialDecoder    0051485c     IDTFConverterHelpers:Guids.obj
 0002:0005186c       _CID_IFXModelDecoder       0051486c     IDTFConverterHelpers:Guids.obj
 0002:0005187c       _CID_IFXCLODModifierParamDecoder 0051487c     IDTFConverterHelpers:Guids.obj
 0002:0005188c       _CID_IFXSkeletonModifierDecoder 0051488c     IDTFConverterHelpers:Guids.obj
 0002:0005189c       _CID_IFXAnimationModifierDecoder 0051489c     IDTFConverterHelpers:Guids.obj
 0002:000518ac       _CID_IFXMotionDecoder      005148ac     IDTFConverterHelpers:Guids.obj
 0002:000518bc       _CID_IFXCLODGeneratorDecoder 005148bc     IDTFConverterHelpers:Guids.obj
 0002:000518cc       _CID_IFXGlyphGeneratorDecoder 005148cc     IDTFConverterHelpers:Guids.obj
 0002:000518dc       _CID_IFXBoxGeneratorDecoder 005148dc     IDTFConverterHelpers:Guids.obj
 0002:000518ec       _CID_IFXCylinderGeneratorDecoder 005148ec     IDTFConverterHelpers:Guids.obj
 0002:000518fc       _CID_IFXPlaneGeneratorDecoder 005148fc     IDTFConverterHelpers:Guids.obj
 0002:0005190c       _CID_IFXSphereGeneratorDecoder 0051490c     IDTFConverterHelpers:Guids.obj
 0002:0005191c       _CID_IFXShaderLitTextureDecoder 0051491c     IDTFConverterHelpers:Guids.obj
 0002:0005192c       _CID_IFXTextureDecoder     0051492c     IDTFConverterHelpers:Guids.obj
 0002:0005193c       _CID_IFXSubdivisionModifierDecoder 0051493c     IDTFConverterHelpers:Guids.obj
 0002:0005194c       _CID_IFXShadingModifierDecoder 0051494c     IDTFConverterHelpers:Guids.obj
 0002:0005195c       _CID_IFXExternalPluginDecoder 0051495c     IDTFConverterHelpers:Guids.obj
 0002:0005196c       _CID_IFXDecoderChainX      0051496c     IDTFConverterHelpers:Guids.obj
 0002:0005197c       _CID_IFXViewDecoder        0051497c     IDTFConverterHelpers:Guids.obj
 0002:0005198c       _CID_IFXViewResourceDecoder 0051498c     IDTFConverterHelpers:Guids.obj
 0002:0005199c       _CID_IFXBlockReaderX       0051499c     IDTFConverterHelpers:Guids.obj
 0002:000519ac       _CID_IFXBTTHash            005149ac     IDTFConverterHelpers:Guids.obj
 0002:000519bc       _CID_IFXLoadManager        005149bc     IDTFConverterHelpers:Guids.obj
 0002:000519cc       _CID_IFXStdioReadBuffer    005149cc     IDTFConverterHelpers:Guids.obj
 0002:000519dc       _CID_IFXStdioReadBufferX   005149dc     IDTFConverterHelpers:Guids.obj
 0002:000519ec       _CID_IFXInternetReadBuffer 005149ec     IDTFConverterHelpers:Guids.obj
 0002:000519fc       _CID_IFXInternetReadBufferX 005149fc     IDTFConverterHelpers:Guids.obj
 0002:00051a0c       _CID_IFXPointSetDecoder    00514a0c     IDTFConverterHelpers:Guids.obj
 0002:00051a1c       _CID_IFXLineSetDecoder     00514a1c     IDTFConverterHelpers:Guids.obj
 0002:00051a2c       _CID_IFXBoneWeightsModifierDecoder 00514a2c     IDTFConverterHelpers:Guids.obj
 0002:00051a3c       _CID_IFXCLODModifierDecoder 00514a3c     IDTFConverterHelpers:Guids.obj
 0002:00051a4c       _CID_IFXDummyModifierDecoder 00514a4c     IDTFConverterHelpers:Guids.obj
 0002:00051a5c       _IID_IFXTaskData           00514a5c     IDTFConverterHelpers:Guids.obj
 0002:00051a6c       _IID_IFXTask               00514a6c     IDTFConverterHelpers:Guids.obj
 0002:00051a7c       _IID_IFXErrorInfo          00514a7c     IDTFConverterHelpers:Guids.obj
 0002:00051a8c       _IID_IFXNotificationInfo   00514a8c     IDTFConverterHelpers:Guids.obj
 0002:00051a9c       _IID_IFXTaskManagerNode    00514a9c     IDTFConverterHelpers:Guids.obj
 0002:00051aac       _IID_IFXTaskManagerView    00514aac     IDTFConverterHelpers:Guids.obj
 0002:00051abc       _IID_IFXTaskManager        00514abc     IDTFConverterHelpers:Guids.obj
 0002:00051acc       _IID_IFXNotificationManager 00514acc     IDTFConverterHelpers:Guids.obj
 0002:00051adc       _IID_IFXClock              00514adc     IDTFConverterHelpers:Guids.obj
 0002:00051aec       _IID_IFXSimulationManager  00514aec     IDTFConverterHelpers:Guids.obj
 0002:00051afc       _IID_IFXSystemManager      00514afc     IDTFConverterHelpers:Guids.obj
 0002:00051b0c       _IID_IFXTimeManager        00514b0c     IDTFConverterHelpers:Guids.obj
 0002:00051b1c       _IID_IFXScheduler          00514b1c     IDTFConverterHelpers:Guids.obj
 0002:00051b30       _IID_IFXAuthorMesh         00514b30     IDTFConverterHelpers:Guids.obj
 0002:00051b44       _IID_IFXAuthorCLODMesh     00514b44     IDTFConverterHelpers:Guids.obj
 0002:00051b54       _IID_IFXAuthorMeshMap      00514b54     IDTFConverterHelpers:Guids.obj
 0002:00051b64       _IID_IFXAuthorCLODGen      00514b64     IDTFConverterHelpers:Guids.obj
 0002:00051b74       _IID_IFXAuthorLineSet      00514b74     IDTFConverterHelpers:Guids.obj
 0002:00051b84       _IID_IFXAuthorPointSet     00514b84     IDTFConverterHelpers:Guids.obj
 0002:00051b94       _IID_IFXMeshMap            00514b94     IDTFConverterHelpers:Guids.obj
 0002:00051ba4       _IID_IFXGenerator          00514ba4     IDTFConverterHelpers:Guids.obj
 0002:00051bb4       _IID_IFXAuthorCLODResource 00514bb4     IDTFConverterHelpers:Guids.obj
 0002:00051bc4       _IID_IFXAuthorMeshScrub    00514bc4     IDTFConverterHelpers:Guids.obj
 0002:00051bd4       _IID_IFXAuthorGeomCompiler 00514bd4     IDTFConverterHelpers:Guids.obj
 0002:00051be4       _IID_IFXSubdivModifier     00514be4     IDTFConverterHelpers:Guids.obj
 0002:00051bf4       _IID_IFXCLODModifier       00514bf4     IDTFConverterHelpers:Guids.obj
 0002:00051c04       _IID_IFXShadingModifier    00514c04     IDTFConverterHelpers:Guids.obj
 0002:00051c14       _IID_IFXGlyph2DCommands    00514c14     IDTFConverterHelpers:Guids.obj
 0002:00051c24       _IID_IFXGlyphTagBlock      00514c24     IDTFConverterHelpers:Guids.obj
 0002:00051c34       _IID_IFXGlyphMoveToBlock   00514c34     IDTFConverterHelpers:Guids.obj
 0002:00051c44       _IID_IFXGlyphLineToBlock   00514c44     IDTFConverterHelpers:Guids.obj
 0002:00051c54       _IID_IFXGlyphCurveToBlock  00514c54     IDTFConverterHelpers:Guids.obj
 0002:00051c64       _IID_IFXGlyph2DModifier    00514c64     IDTFConverterHelpers:Guids.obj
 0002:00051c74       _IID_IFXGlyphCommandList   00514c74     IDTFConverterHelpers:Guids.obj
 0002:00051c84       _IID_IFXAuthorLineSetResource 00514c84     IDTFConverterHelpers:Guids.obj
 0002:00051c94       _IID_IFXAuthorPointSetResource 00514c94     IDTFConverterHelpers:Guids.obj
 0002:00051ca4       _IID_IFXModifierChain      00514ca4     IDTFConverterHelpers:Guids.obj
 0002:00051cb4       _CID_IFXSimulationTask     00514cb4     IDTFConverterHelpers:Guids.obj
 0002:00051cc4       _IID_IFXSimulationTask     00514cc4     IDTFConverterHelpers:Guids.obj
 0002:00051cd4       _IID_IFXCLODManager        00514cd4     IDTFConverterHelpers:Guids.obj
 0002:00051ce4       _IID_IFXImageCodec         00514ce4     IDTFConverterHelpers:Guids.obj
 0002:00051cf4       _IID_IFXReadBuffer         00514cf4     IDTFConverterHelpers:Guids.obj
 0002:00051d04       _IID_IFXFileReference      00514d04     IDTFConverterHelpers:Guids.obj
 0002:00051d14       _IID_IFXLoadManager        00514d14     IDTFConverterHelpers:Guids.obj
 0002:00051d24       _IID_IFXWriteBuffer        00514d24     IDTFConverterHelpers:Guids.obj
 0002:00051d34       _IID_IFXWriteManager       00514d34     IDTFConverterHelpers:Guids.obj
 0002:00051d44       _IID_IFXBoundSphereDataElement 00514d44     IDTFConverterHelpers:Guids.obj
 0002:00051d54       _DID_IFXRenderableGroup    00514d54     IDTFConverterHelpers:Guids.obj
 0002:00051d64       _DID_IFXRenderableGroupBounds 00514d64     IDTFConverterHelpers:Guids.obj
 0002:00051d74       _DID_IFXBoundFrame         00514d74     IDTFConverterHelpers:Guids.obj
 0002:00051d84       _DID_IFXBoundFrameBounds   00514d84     IDTFConverterHelpers:Guids.obj
 0002:00051d94       _DID_IFXLightSet           00514d94     IDTFConverterHelpers:Guids.obj
 0002:00051da4       _DID_IFXNeighborMesh       00514da4     IDTFConverterHelpers:Guids.obj
 0002:00051db4       _DID_IFXCLODController     00514db4     IDTFConverterHelpers:Guids.obj
 0002:00051dc4       _DID_IFXNeighborResController 00514dc4     IDTFConverterHelpers:Guids.obj
 0002:00051dd4       _DID_IFXTransform          00514dd4     IDTFConverterHelpers:Guids.obj
 0002:00051de4       _DID_IFXFrustum            00514de4     IDTFConverterHelpers:Guids.obj
 0002:00051df4       _DID_IFXViewSize           00514df4     IDTFConverterHelpers:Guids.obj
 0002:00051e04       _DID_IFXSimulationTime     00514e04     IDTFConverterHelpers:Guids.obj
 0002:00051e14       _DID_IFXVertexWeights      00514e14     IDTFConverterHelpers:Guids.obj
 0002:00051e24       _DID_IFXBoneMatrices       00514e24     IDTFConverterHelpers:Guids.obj
 0002:00051e34       _DID_IFXBonesManager       00514e34     IDTFConverterHelpers:Guids.obj
 0002:00051e44       _DID_IFXBoneWeights        00514e44     IDTFConverterHelpers:Guids.obj
 0002:00051e54       _DID_IFXMatrixSet          00514e54     IDTFConverterHelpers:Guids.obj
 0002:00051e64       _DID_IFXSkeleton           00514e64     IDTFConverterHelpers:Guids.obj
 0002:00051e74       _DID_IFXTexture            00514e74     IDTFConverterHelpers:Guids.obj
 0002:00051e84       _DTS_IFXRenderable         00514e84     IDTFConverterHelpers:Guids.obj
 0002:00051e94       _DTS_IFXBound              00514e94     IDTFConverterHelpers:Guids.obj
 0002:00051ea4       _DID_IFXNullOutput         00514ea4     IDTFConverterHelpers:Guids.obj
 0002:00051eb4       _IID_IFXStdio              00514eb4     IDTFConverterHelpers:Guids.obj
 0002:000524f4       ??_C@_0L@EHNAEJIF@dbgdel?4cpp?$AA@ 005154f4     LIBCMTD:dbgdel.obj
 0002:00052500       ??_C@_0CH@IAGMNLOM@_BLOCK_TYPE_IS_VALID?$CIpHead?9?$DOnBlo@ 00515500     LIBCMTD:dbgdel.obj
 0002:00052538       ??_7type_info@@6B@         00515538     LIBCMTD:typinfo.obj
 0002:0005254c       ??_C@_08EFOMGECL@printf?4c?$AA@ 0051554c     LIBCMTD:printf.obj
 0002:00052558       ??_C@_0P@NHGFNCDP@format?5?$CB?$DN?5NULL?$AA@ 00515558     LIBCMTD:printf.obj
 0002:00052574       ??_C@_06PJIGMIJB@Client?$AA@ 00515574     LIBCMTD:dbgheap.obj
 0002:0005257c       ??_C@_06KMEJCCGM@Ignore?$AA@ 0051557c     LIBCMTD:dbgheap.obj
 0002:00052584       ??_C@_03OGPFLFLO@CRT?$AA@  00515584     LIBCMTD:dbgheap.obj
 0002:00052588       ??_C@_06EFAGIKOH@Normal?$AA@ 00515588     LIBCMTD:dbgheap.obj
 0002:00052590       ??_C@_04HJMOFLDF@Free?$AA@ 00515590     LIBCMTD:dbgheap.obj
 0002:000525a4       ??_C@_0DC@JEMAGEKG@Error?3?5memory?5allocation?3?5bad?5me@ 005155a4     LIBCMTD:dbgheap.obj
 0002:000525d8       ??_C@_0CF@BICKFLAF@Invalid?5allocation?5size?3?5?$CFIu?5byt@ 005155d8     LIBCMTD:dbgheap.obj
 0002:00052600       ??_C@_02DKCKIIND@?$CFs?$AA@ 00515600     LIBCMTD:dbgheap.obj
 0002:00052604       ??_C@_0CB@CCLOLAHO@Client?5hook?5allocation?5failure?4?6@ 00515604     LIBCMTD:dbgheap.obj
 0002:00052628       ??_C@_0DF@BBEGIFEK@Client?5hook?5allocation?5failure?5a@ 00515628     LIBCMTD:dbgheap.obj
 0002:00052660       ??_C@_09DPMMACIH@dbgheap?4c?$AA@ 00515660     LIBCMTD:dbgheap.obj
 0002:0005266c       ??_C@_0BC@FKEPGOPH@_CrtCheckMemory?$CI?$CJ?$AA@ 0051566c     LIBCMTD:dbgheap.obj
 0002:0005268c       ??_C@_0BK@DJDKJKNJ@_pFirstBlock?5?$DN?$DN?5pOldBlock?$AA@ 0051568c     LIBCMTD:dbgheap.obj
 0002:000526a8       ??_C@_0BJ@PGMLBCKP@_pLastBlock?5?$DN?$DN?5pOldBlock?$AA@ 005156a8     LIBCMTD:dbgheap.obj
 0002:000526c4       ??_C@_0DC@LIEEBBFH@fRealloc?5?$HM?$HM?5?$CI?$CBfRealloc?5?$CG?$CG?5pNewBl@ 005156c4     LIBCMTD:dbgheap.obj
 0002:000526f8       ??_C@_0EF@BKJNHFDP@pOldBlock?9?$DOnLine?5?$DN?$DN?5IGNORE_LINE?5@ 005156f8     LIBCMTD:dbgheap.obj
 0002:00052740       ??_C@_0CC@MCCNOMLK@_CrtIsValidHeapPointer?$CIpUserData@ 00515740     LIBCMTD:dbgheap.obj
 0002:00052768       ??_C@_0EM@LGFLMAGJ@The?5Block?5at?50x?$CFp?5was?5allocated?5@ 00515768     LIBCMTD:dbgheap.obj
 0002:000527b4       ??_C@_0CO@KPNFNEPA@Allocation?5too?5large?5or?5negative@ 005157b4     LIBCMTD:dbgheap.obj
 0002:000527e4       ??_C@_0CE@DOFMDOL@Client?5hook?5re?9allocation?5failur@ 005157e4     LIBCMTD:dbgheap.obj
 0002:00052808       ??_C@_0DI@KKJPDPGM@Client?5hook?5re?9allocation?5failur@ 00515808     LIBCMTD:dbgheap.obj
 0002:0005285c       ??_C@_0BG@JDINNDDC@_pFirstBlock?5?$DN?$DN?5pHead?$AA@ 0051585c     LIBCMTD:dbgheap.obj
 0002:00052874       ??_C@_0BF@LMGMGAEG@_pLastBlock?5?$DN?$DN?5pHead?$AA@ 00515874     LIBCMTD:dbgheap.obj
 0002:0005288c       ??_C@_0BO@LGCGBMOH@pHead?9?$DOnBlockUse?5?$DN?$DN?5nBlockUse?$AA@ 0051588c     LIBCMTD:dbgheap.obj
 0002:000528ac       ??_C@_0DN@GKKPDMLN@pHead?9?$DOnLine?5?$DN?$DN?5IGNORE_LINE?5?$CG?$CG?5p@ 005158ac     LIBCMTD:dbgheap.obj
 0002:000528ec       ??_C@_0CI@CMGHMNIC@DAMAGE?3?5after?5?$CFhs?5block?5?$CI?$CD?$CFd?$CJ?5at@ 005158ec     LIBCMTD:dbgheap.obj
 0002:00052914       ??_C@_0CJ@OHOOBLKI@DAMAGE?3?5before?5?$CFhs?5block?5?$CI?$CD?$CFd?$CJ?5a@ 00515914     LIBCMTD:dbgheap.obj
 0002:00052940       ??_C@_0BL@KEIPLFAC@Client?5hook?5free?5failure?4?6?$AA@ 00515940     LIBCMTD:dbgheap.obj
 0002:00052960       ??_C@_0EJ@HEIBCIMJ@The?5Block?5at?50x?$CFp?5was?5allocated?5@ 00515960     LIBCMTD:dbgheap.obj
 0002:000529cc       ??_C@_0CI@JMLBEDHJ@?$CFhs?5located?5at?50x?$CFp?5is?5?$CFIu?5bytes@ 005159cc     LIBCMTD:dbgheap.obj
 0002:000529f4       ??_C@_0CA@FGFAGAOM@?$CFhs?5allocated?5at?5file?5?$CFhs?$CI?$CFd?$CJ?4?6?$AA@ 005159f4     LIBCMTD:dbgheap.obj
 0002:00052a14       ??_C@_0CH@JKKAOBEK@DAMAGE?3?5on?5top?5of?5Free?5block?5at?5@ 00515a14     LIBCMTD:dbgheap.obj
 0002:00052a3c       ??_C@_07OHKEFPKJ@DAMAGED?$AA@ 00515a3c     LIBCMTD:dbgheap.obj
 0002:00052a44       ??_C@_0CL@HNNNMKMJ@_heapchk?5fails?5with?5unknown?5retu@ 00515a44     LIBCMTD:dbgheap.obj
 0002:00052a70       ??_C@_0CC@MFFCHFHO@_heapchk?5fails?5with?5_HEAPBADPTR?4@ 00515a70     LIBCMTD:dbgheap.obj
 0002:00052a94       ??_C@_0CC@MJGLGBDG@_heapchk?5fails?5with?5_HEAPBADEND?4@ 00515a94     LIBCMTD:dbgheap.obj
 0002:00052ab8       ??_C@_0CD@CPKEAPBD@_heapchk?5fails?5with?5_HEAPBADNODE@ 00515ab8     LIBCMTD:dbgheap.obj
 0002:00052adc       ??_C@_0CE@MKKHMBMK@_heapchk?5fails?5with?5_HEAPBADBEGI@ 00515adc     LIBCMTD:dbgheap.obj
 0002:00052b3c       ??_C@_0CB@EAAIGELO@Bad?5memory?5block?5found?5at?50x?$CFp?4?6@ 00515b3c     LIBCMTD:dbgheap.obj
 0002:00052b60       ??_C@_0CI@KDKEAJEJ@_CrtMemCheckPoint?3?5NULL?5state?5po@ 00515b60     LIBCMTD:dbgheap.obj
 0002:00052b94       ??_C@_0CI@ENCLCMLG@_CrtMemDifference?3?5NULL?5state?5po@ 00515b94     LIBCMTD:dbgheap.obj
 0002:00052bbc       ??_C@_0BH@GFGKJDCO@Object?5dump?5complete?4?6?$AA@ 00515bbc     LIBCMTD:dbgheap.obj
 0002:00052bd4       ??_C@_0DA@MDLBNIBM@crt?5block?5at?50x?$CFp?0?5subtype?5?$CFx?0?5?$CF@ 00515bd4     LIBCMTD:dbgheap.obj
 0002:00052c04       ??_C@_0CH@FAGDDGPN@normal?5block?5at?50x?$CFp?0?5?$CFIu?5bytes?5@ 00515c04     LIBCMTD:dbgheap.obj
 0002:00052c2c       ??_C@_0DD@GHNAAKBB@client?5block?5at?50x?$CFp?0?5subtype?5?$CFx@ 00515c2c     LIBCMTD:dbgheap.obj
 0002:00052c60       ??_C@_06PKLGBFGM@?$HL?$CFld?$HN?5?$AA@ 00515c60     LIBCMTD:dbgheap.obj
 0002:00052c68       ??_C@_0L@JMEFFCCJ@?$CFhs?$CI?$CFd?$CJ?5?3?5?$AA@ 00515c68     LIBCMTD:dbgheap.obj
 0002:00052c74       ??_C@_0BE@OIEFNFL@?$CDFile?5Error?$CD?$CI?$CFd?$CJ?5?3?5?$AA@ 00515c74     LIBCMTD:dbgheap.obj
 0002:00052c88       ??_C@_0BE@KCIPKCIA@Dumping?5objects?5?9?$DO?6?$AA@ 00515c88     LIBCMTD:dbgheap.obj
 0002:00052cac       ??_C@_0BA@HJBKCELP@?5Data?3?5?$DM?$CFs?$DO?5?$CFs?6?$AA@ 00515cac     LIBCMTD:dbgheap.obj
 0002:00052cbc       ??_C@_05MKKEDADM@?$CF?42X?5?$AA@ 00515cbc     LIBCMTD:dbgheap.obj
 0002:00052cc4       ??_C@_0BI@JBFPOEJA@Detected?5memory?5leaks?$CB?6?$AA@ 00515cc4     LIBCMTD:dbgheap.obj
 0002:00052cdc       ??_C@_0BP@DEDHGGGI@Total?5allocations?3?5?$CFId?5bytes?4?6?$AA@ 00515cdc     LIBCMTD:dbgheap.obj
 0002:00052cfc       ??_C@_0CB@BLHDAFNE@Largest?5number?5used?3?5?$CFId?5bytes?4?6@ 00515cfc     LIBCMTD:dbgheap.obj
 0002:00052d20       ??_C@_0BO@DACNIABB@?$CFId?5bytes?5in?5?$CFId?5?$CFhs?5Blocks?4?6?$AA@ 00515d20     LIBCMTD:dbgheap.obj
 0002:00052d40       ??_C@_0CC@GFBJAAAH@?$CI?$CCoffset?5must?5be?5within?5size?$CC?0?50@ 00515d40     LIBCMTD:dbgheap.obj
 0002:00052d64       ??_C@_0CF@PGBEDOC@?$CI?$CCalignment?5must?5be?5a?5power?5of?52@ 00515d64     LIBCMTD:dbgheap.obj
 0002:00052d8c       ??_C@_0DL@PGHMMKNE@Damage?5before?50x?$CFp?5which?5was?5all@ 00515d8c     LIBCMTD:dbgheap.obj
 0002:00052dc8       ??_C@_0EI@NDNJMAJK@The?5block?5at?50x?$CFp?5was?5not?5alloca@ 00515dc8     LIBCMTD:dbgheap.obj
 0002:00052e10       ??_C@_0EF@PGELACII@The?5block?5at?50x?$CFp?5was?5not?5alloca@ 00515e10     LIBCMTD:dbgheap.obj
 0002:00052e58       ??_C@_0L@ILNMHBAP@mbstowcs?4c?$AA@ 00515e58     LIBCMTD:mbstowcs.obj
 0002:00052e64       ??_C@_09EGGCOFMI@s?5?$CB?$DN?5NULL?$AA@ 00515e64     LIBCMTD:mbstowcs.obj
 0002:00052e70       ??_C@_08BDNGOBJJ@fclose?4c?$AA@ 00515e70     LIBCMTD:fclose.obj
 0002:00052e7c       ??_C@_0P@FELNCIKG@stream?5?$CB?$DN?5NULL?$AA@ 00515e7c     LIBCMTD:fclose.obj
 0002:00052e9c       ??_C@_0M@CMNAFCJK@str?5?$CB?$DN?5NULL?$AA@ 00515e9c     LIBCMTD:fclose.obj
 0002:00052ea8       ??_C@_07MDLDCIEE@fgetc?4c?$AA@ 00515ea8     LIBCMTD:fgetc.obj
 0002:00052ecc       ??_C@_07JNHGGCAC@ftell?4c?$AA@ 00515ecc     LIBCMTD:ftell.obj
 0002:00052ee4       ??_C@_07MIBGAGEE@fseek?4c?$AA@ 00515ee4     LIBCMTD:fseek.obj
 0002:00052f4c       ??_C@_0CO@OJBLHACE@f?3?2vs70builds?23077?2vc?2crtbld?2crt@ 00515f4c     LIBCMTD:swscanf.obj
 0002:00052f7c       ??_C@_0P@NFGNABCI@string?5?$CB?$DN?5NULL?$AA@ 00515f7c     LIBCMTD:swscanf.obj
 0002:00052f8c       ??_C@_09FEPKIGBC@wprintf?4c?$AA@ 00515f8c     LIBCMTD:wprintf.obj
 0002:00052fb4       ??_C@_0N@EMDEFKLH@vswprinn?4cpp?$AA@ 00515fb4     LIBCMTD:vswprinn.obj
 0002:00052fc4       ??_C@_0L@LLDHGLHK@swprintf?4c?$AA@ 00515fc4     LIBCMTD:swprintf.obj
 0002:00052fdc       ??_C@_0P@MIGLKIOC@CorExitProcess?$AA@ 00515fdc     LIBCMTD:crt0dat.obj
 0002:00052fec       ??_C@_0M@MBOPBNBK@mscoree?4dll?$AA@ 00515fec     LIBCMTD:crt0dat.obj
 0002:00053178       ??_C@_07LCBHPJJN@LC_TIME?$AA@ 00516178     LIBCMTD:setlocal.obj
 0002:00053180       ??_C@_0L@DLHIECNL@LC_NUMERIC?$AA@ 00516180     LIBCMTD:setlocal.obj
 0002:0005318c       ??_C@_0M@MIENIKLA@LC_MONETARY?$AA@ 0051618c     LIBCMTD:setlocal.obj
 0002:00053198       ??_C@_08EADHIDAD@LC_CTYPE?$AA@ 00516198     LIBCMTD:setlocal.obj
 0002:000531a4       ??_C@_0L@KFJHEKIK@LC_COLLATE?$AA@ 005161a4     LIBCMTD:setlocal.obj
 0002:000531b0       ??_C@_06NEFDFEKB@LC_ALL?$AA@ 005161b0     LIBCMTD:setlocal.obj
 0002:000531c4       ??_C@_0L@LEECJGMI@setlocal?4c?$AA@ 005161c4     LIBCMTD:setlocal.obj
 0002:000531dc       ??_C@_01ICJEACDI@?$DL?$AA@ 005161dc     LIBCMTD:setlocal.obj
 0002:000531e0       ??_C@_02BALPLPBG@?$DN?$DL?$AA@ 005161e0     LIBCMTD:setlocal.obj
 0002:000531e4       ??_C@_01NEMOKFLO@?$DN?$AA@ 005161e4     LIBCMTD:setlocal.obj
 0002:000531e6       ??_C@_00CNPNBAHC@?$AA@     005161e6     LIBCMTD:setlocal.obj
 0002:000531e8       ??_C@_03EGDHDPFD@_?4?0?$AA@ 005161e8     LIBCMTD:setlocal.obj
 0002:000531ec       ??_C@_01LFCBOECM@?4?$AA@   005161ec     LIBCMTD:setlocal.obj
 0002:000531f0       ??_C@_01IDAFKMJL@_?$AA@    005161f0     LIBCMTD:setlocal.obj
 0002:000531f4       ??_C@_0N@JICNABFA@swprintn?4cpp?$AA@ 005161f4     LIBCMTD:swprintn.obj
 0002:00053214       ??_C@_08GNMOIKDK@onexit?4c?$AA@ 00516214     LIBCMTD:onexit.obj
 0002:00053220       ??_C@_0BC@LDFCGPMK@?$CKmode?5?$CB?$DN?5_T?$CI?8?20?8?$CJ?$AA@ 00516220     LIBCMTD:wfopen.obj
 0002:00053234       ??_C@_0N@HDDIJGHA@mode?5?$CB?$DN?5NULL?$AA@ 00516234     LIBCMTD:wfopen.obj
 0002:00053244       ??_C@_0BC@JKMANOLD@?$CKfile?5?$CB?$DN?5_T?$CI?8?20?8?$CJ?$AA@ 00516244     LIBCMTD:wfopen.obj
 0002:00053258       ??_C@_0CN@HDNHNDNE@f?3?2vs70builds?23077?2vc?2crtbld?2crt@ 00516258     LIBCMTD:wfopen.obj
 0002:00053288       ??_C@_0N@MBAPGNHG@file?5?$CB?$DN?5NULL?$AA@ 00516288     LIBCMTD:wfopen.obj
 0002:000532a4       ??_C@_07JDKKHPNL@fgets?4c?$AA@ 005162a4     LIBCMTD:fgets.obj
 0002:000532dc       ??_C@_07MKNJDOE@fopen?4c?$AA@ 005162dc     LIBCMTD:fopen.obj
 0002:000532f4       ??_C@_09JDJPONGG@asctime?4c?$AA@ 005162f4     LIBCMTD:asctime.obj
 0002:00053300       ??_C@_0L@CAMCNOO@vfprintf?4c?$AA@ 00516300     LIBCMTD:vfprintf.obj
 0002:0005331c       ??_C@_07CKDBCAPD@mlock?4c?$AA@ 0051631c     LIBCMTD:mlock.obj
 0002:00053334       ??_C@_0BB@NAGLCMLI@Assertion?5Failed?$AA@ 00516334     LIBCMTD:dbgrpt.obj
 0002:00053348       ??_C@_05NAOIJFC@Error?$AA@ 00516348     LIBCMTD:dbgrpt.obj
 0002:00053350       ??_C@_07KGMMFLDN@Warning?$AA@ 00516350     LIBCMTD:dbgrpt.obj
 0002:00053358       ??_C@_08ODMAMGBE@dbgrpt?4c?$AA@ 00516358     LIBCMTD:dbgrpt.obj
 0002:00053374       ??_C@_0M@IPILFDFN@?$CFs?$CI?$CFd?$CJ?5?3?5?$CFs?$AA@ 00516374     LIBCMTD:dbgrpt.obj
 0002:00053380       ??_C@_01EEMJAFIK@?6?$AA@   00516380     LIBCMTD:dbgrpt.obj
 0002:00053384       ??_C@_01LIIJDEN@?$AN?$AA@  00516384     LIBCMTD:dbgrpt.obj
 0002:00053388       ??_C@_0BC@LAIDCHCH@Assertion?5failed?$CB?$AA@ 00516388     LIBCMTD:dbgrpt.obj
 0002:0005339c       ??_C@_0BD@CAENFOHP@Assertion?5failed?3?5?$AA@ 0051639c     LIBCMTD:dbgrpt.obj
 0002:000533b0       ??_C@_0CL@EACFGMNB@_CrtDbgReport?3?5String?5too?5long?5o@ 005163b0     LIBCMTD:dbgrpt.obj
 0002:000533dc       ??_C@_0DC@HLHDIIKH@Second?5Chance?5Assertion?5Failed?3?5@ 005163dc     LIBCMTD:dbgrpt.obj
 0002:00053410       ??_C@_09FOPFMPEJ@wsprintfA?$AA@ 00516410     LIBCMTD:dbgrpt.obj
 0002:0005341c       ??_C@_0L@GMPLCCII@user32?4dll?$AA@ 0051641c     LIBCMTD:dbgrpt.obj
 0002:00053434       ??_C@_0CD@EBCGLDDL@Microsoft?5Visual?5C?$CL?$CL?5Debug?5Libra@ 00516434     LIBCMTD:dbgrpt.obj
 0002:00053458       ??_C@_0FD@IIKNDPHJ@Debug?5?$CFs?$CB?6?6Program?3?5?$CFs?$CFs?$CFs?$CFs?$CFs?$CFs@ 00516458     LIBCMTD:dbgrpt.obj
 0002:000534ac       ??_C@_09OFBFHMBK@?6Module?3?5?$AA@ 005164ac     LIBCMTD:dbgrpt.obj
 0002:000534b8       ??_C@_07OPHPPLBG@?6File?3?5?$AA@ 005164b8     LIBCMTD:dbgrpt.obj
 0002:000534c0       ??_C@_07DBMPPHDI@?6Line?3?5?$AA@ 005164c0     LIBCMTD:dbgrpt.obj
 0002:000534c8       ??_C@_02PHMGELLB@?6?6?$AA@ 005164c8     LIBCMTD:dbgrpt.obj
 0002:000534cc       ??_C@_0N@MEECIJGN@Expression?3?5?$AA@ 005164cc     LIBCMTD:dbgrpt.obj
 0002:000534e0       ??_C@_0HD@GNBNFCCL@?6?6For?5information?5on?5how?5your?5pr@ 005164e0     LIBCMTD:dbgrpt.obj
 0002:00053554       ??_C@_03KHICJKCI@?4?4?4?$AA@ 00516554     LIBCMTD:dbgrpt.obj
 0002:00053558       ??_C@_0BH@DNAGHKFM@?$DMprogram?5name?5unknown?$DO?$AA@ 00516558     LIBCMTD:dbgrpt.obj
 0002:00053570       ??_C@_0BG@IHOEIIEJ@szUserMessage?5?$CB?$DN?5NULL?$AA@ 00516570     LIBCMTD:dbgrpt.obj
 0002:000535f4       ??_C@_0L@JKCACIOJ@tidtable?4c?$AA@ 005165f4     LIBCMTD:tidtable.obj
 0002:00053600       ??_C@_07PEJMOBNF@FlsFree?$AA@ 00516600     LIBCMTD:tidtable.obj
 0002:00053608       ??_C@_0M@JCPCPOEF@FlsSetValue?$AA@ 00516608     LIBCMTD:tidtable.obj
 0002:00053614       ??_C@_0M@GDNOONDI@FlsGetValue?$AA@ 00516614     LIBCMTD:tidtable.obj
 0002:00053620       ??_C@_08KNHFBNJ@FlsAlloc?$AA@ 00516620     LIBCMTD:tidtable.obj
 0002:0005362c       ??_C@_0N@MDJJJHMB@kernel32?4dll?$AA@ 0051662c     LIBCMTD:tidtable.obj
 0002:00053688       __real@3ff0000000000000    00516688     LIBCMTD:testfdiv.obj
 0002:00053690       __real@4150017ec0000000    00516690     LIBCMTD:testfdiv.obj
 0002:00053698       __real@4147ffff80000000    00516698     LIBCMTD:testfdiv.obj
 0002:000536a0       ??_C@_0BK@NHEOCAHP@IsProcessorFeaturePresent?$AA@ 005166a0     LIBCMTD:testfdiv.obj
 0002:000536bc       ??_C@_08CPNIBGIE@KERNEL32?$AA@ 005166bc     LIBCMTD:testfdiv.obj
 0002:000536c8       __real@0000000000000000    005166c8     LIBCMTD:cvt.obj
 0002:000536d0       ??_C@_05KLBDPFGC@e?$CL000?$AA@ 005166d0     LIBCMTD:cvt.obj
 0002:000536d8       ??_C@_07PNHPCIEC@_file?4c?$AA@ 005166d8     LIBCMTD:_file.obj
 0002:000536e0       ??_C@_09IFKHNCOH@_sftbuf?4c?$AA@ 005166e0     LIBCMTD:_sftbuf.obj
 0002:000536ec       ??_C@_0BH@HIGALIFJ@flag?5?$DN?$DN?50?5?$HM?$HM?5flag?5?$DN?$DN?51?$AA@ 005166ec     LIBCMTD:_sftbuf.obj
 0002:00053708       ___lookuptable             00516708     LIBCMTD:output.obj
 0002:00053764       ??_C@_1O@CEDCILHN@?$AA?$CI?$AAn?$AAu?$AAl?$AAl?$AA?$CJ?$AA?$AA@ 00516764     LIBCMTD:output.obj
 0002:00053774       ??_C@_06OJHGLDPL@?$CInull?$CJ?$AA@ 00516774     LIBCMTD:output.obj
 0002:0005377c       ??_C@_08MEPFMIND@output?4c?$AA@ 0051677c     LIBCMTD:output.obj
 0002:00053788       ??_C@_0P@LGFCLPDP@ch?5?$CB?$DN?5_T?$CI?8?20?8?$CJ?$AA@ 00516788     LIBCMTD:output.obj
 0002:000537d4       ??_C@_09FNBBCGGI@sprintf?4c?$AA@ 005167d4     LIBCMTD:sprintf.obj
 0002:000537e0       ??_C@_09BLOOPMDK@isctype?4c?$AA@ 005167e0     LIBCMTD:isctype.obj
 0002:000537ec       ??_C@_0BJ@IAKBGELC@?$CIunsigned?$CJ?$CIc?5?$CL?51?$CJ?5?$DM?$DN?5256?$AA@ 005167ec     LIBCMTD:isctype.obj
 0002:00053824       ??_C@_0L@CKFHAPLH@_freebuf?4c?$AA@ 00516824     LIBCMTD:_freebuf.obj
 0002:00053858       ??_C@_09OOOBBFNM@_filbuf?4c?$AA@ 00516858     LIBCMTD:_filbuf.obj
 0002:00053864       ??_C@_08MAFBHINM@ioinit?4c?$AA@ 00516864     LIBCMTD:ioinit.obj
 0002:0005387c       ??_C@_0CN@FDMEOKLF@f?3?2vs70builds?23077?2vc?2crtbld?2crt@ 0051687c     LIBCMTD:winput.obj
 0002:000538bc       ??_C@_0CO@OCFDICDP@f?3?2vs70builds?23077?2vc?2crtbld?2crt@ 005168bc     LIBCMTD:woutput.obj
 0002:000538ec       ??_C@_0CP@NLKBHGIG@f?3?2vs70builds?23077?2vc?2crtbld?2crt@ 005168ec     LIBCMTD:wstdenvp.obj
 0002:0005391c       ??_C@_0CP@CDBBHBJL@f?3?2vs70builds?23077?2vc?2crtbld?2crt@ 0051691c     LIBCMTD:wstdargv.obj
 0002:0005394c       ??_C@_07KFLJNKEK@w_env?4c?$AA@ 0051694c     LIBCMTD:w_env.obj
 0002:00053954       ??_C@_08BKLJOFJ@aw_com?4c?$AA@ 00516954     LIBCMTD:aw_com.obj
 0002:0005397c       ??_C@_0P@GGKDKEEG@runtime?5error?5?$AA@ 0051697c     LIBCMTD:crt0msg.obj
 0002:0005398c       ??_C@_02PCIJFNDE@?$AN?6?$AA@ 0051698c     LIBCMTD:crt0msg.obj
 0002:00053990       ??_C@_0O@MJNIPGOH@TLOSS?5error?$AN?6?$AA@ 00516990     LIBCMTD:crt0msg.obj
 0002:000539a0       ??_C@_0N@BONNPDHF@SING?5error?$AN?6?$AA@ 005169a0     LIBCMTD:crt0msg.obj
 0002:000539b0       ??_C@_0P@MBDAJNE@DOMAIN?5error?$AN?6?$AA@ 005169b0     LIBCMTD:crt0msg.obj
 0002:000539c0       ??_C@_0KC@BDDGGBEJ@R6029?$AN?6?9?5This?5application?5cannot@ 005169c0     LIBCMTD:crt0msg.obj
 0002:00053a64       ??_C@_0CF@KJDAIALP@R6028?$AN?6?9?5unable?5to?5initialize?5he@ 00516a64     LIBCMTD:crt0msg.obj
 0002:00053a8c       ??_C@_0DF@GAKBPDFP@R6027?$AN?6?9?5not?5enough?5space?5for?5lo@ 00516a8c     LIBCMTD:crt0msg.obj
 0002:00053ac4       ??_C@_0DF@IBLNNAIG@R6026?$AN?6?9?5not?5enough?5space?5for?5st@ 00516ac4     LIBCMTD:crt0msg.obj
 0002:00053afc       ??_C@_0CG@IOHKGFNJ@R6025?$AN?6?9?5pure?5virtual?5function?5c@ 00516afc     LIBCMTD:crt0msg.obj
 0002:00053b24       ??_C@_0DF@JIJJFJDC@R6024?$AN?6?9?5not?5enough?5space?5for?5_o@ 00516b24     LIBCMTD:crt0msg.obj
 0002:00053b5c       ??_C@_0CJ@EGEJHFME@R6019?$AN?6?9?5unable?5to?5open?5console?5@ 00516b5c     LIBCMTD:crt0msg.obj
 0002:00053b88       ??_C@_0CB@GNHNIELH@R6018?$AN?6?9?5unexpected?5heap?5error?$AN?6@ 00516b88     LIBCMTD:crt0msg.obj
 0002:00053bac       ??_C@_0CN@FOLDKNG@R6017?$AN?6?9?5unexpected?5multithread?5@ 00516bac     LIBCMTD:crt0msg.obj
 0002:00053bdc       ??_C@_0CM@FAHFJNHO@R6016?$AN?6?9?5not?5enough?5space?5for?5th@ 00516bdc     LIBCMTD:crt0msg.obj
 0002:00053c08       ??_C@_0JG@LBKMGKLD@?$AN?6This?5application?5has?5requested@ 00516c08     LIBCMTD:crt0msg.obj
 0002:00053ca0       ??_C@_0CM@FLCNIPKK@R6009?$AN?6?9?5not?5enough?5space?5for?5en@ 00516ca0     LIBCMTD:crt0msg.obj
 0002:00053ccc       ??_C@_0CK@KMMJOAPP@R6008?$AN?6?9?5not?5enough?5space?5for?5ar@ 00516ccc     LIBCMTD:crt0msg.obj
 0002:00053cf8       ??_C@_0CF@HOHMHDEK@R6002?$AN?6?9?5floating?5point?5not?5load@ 00516cf8     LIBCMTD:crt0msg.obj
 0002:00053d20       ??_C@_0CF@GOGNBNAK@Microsoft?5Visual?5C?$CL?$CL?5Runtime?5Lib@ 00516d20     LIBCMTD:crt0msg.obj
 0002:00053d48       ??_C@_0BK@OFGJDLJJ@Runtime?5Error?$CB?6?6Program?3?5?$AA@ 00516d48     LIBCMTD:crt0msg.obj
 0002:00053d64       ??_C@_07OONBJACK@w_map?4c?$AA@ 00516d64     LIBCMTD:w_map.obj
 0002:00053d6c       ??_C@_13NOLLCAOD@?$AA?$AA?$AA?$AA@ 00516d6c     LIBCMTD:w_map.obj
 0002:00053d88       ___newctype                00516d88     LIBCMTD:ctype.obj
 0002:00054088       __wctype                   00517088     LIBCMTD:ctype.obj
 0002:0005428c       ??_C@_0DP@FICHPIPH@?$CI?$CCinconsistent?5IOB?5fields?$CC?0?5stre@ 0051728c     LIBCMTD:_flsbuf.obj
 0002:000542cc       ??_C@_09DHJHPHJP@_flsbuf?4c?$AA@ 005172cc     LIBCMTD:_flsbuf.obj
 0002:000542d8       ??_C@_08FKHPDPAC@winsig?4c?$AA@ 005172d8     LIBCMTD:winsig.obj
 0002:00054314       ??_C@_08JCCMCCIL@HH?3mm?3ss?$AA@ 00517314     LIBCMTD:strftime.obj
 0002:00054320       ??_C@_0BE@CKGJFCPC@dddd?0?5MMMM?5dd?0?5yyyy?$AA@ 00517320     LIBCMTD:strftime.obj
 0002:00054334       ??_C@_08BPBNCDIB@MM?1dd?1yy?$AA@ 00517334     LIBCMTD:strftime.obj
 0002:00054340       ??_C@_02CJNFDJBF@PM?$AA@   00517340     LIBCMTD:strftime.obj
 0002:00054344       ??_C@_02DEDBPAFC@AM?$AA@   00517344     LIBCMTD:strftime.obj
 0002:00054348       ??_C@_08EDHMEBNP@December?$AA@ 00517348     LIBCMTD:strftime.obj
 0002:00054354       ??_C@_08HCHEGEOA@November?$AA@ 00517354     LIBCMTD:strftime.obj
 0002:00054360       ??_C@_07JJNFCEND@October?$AA@ 00517360     LIBCMTD:strftime.obj
 0002:00054368       ??_C@_09BHHEALKD@September?$AA@ 00517368     LIBCMTD:strftime.obj
 0002:00054374       ??_C@_06LBBHFDDG@August?$AA@ 00517374     LIBCMTD:strftime.obj
 0002:0005437c       ??_C@_04MIEPOIFP@July?$AA@ 0051737c     LIBCMTD:strftime.obj
 0002:00054384       ??_C@_04CNLMGBGM@June?$AA@ 00517384     LIBCMTD:strftime.obj
 0002:0005438c       ??_C@_05DMJDNLEJ@April?$AA@ 0051738c     LIBCMTD:strftime.obj
 0002:00054394       ??_C@_05HPCKOFNC@March?$AA@ 00517394     LIBCMTD:strftime.obj
 0002:0005439c       ??_C@_08GNJGEPFN@February?$AA@ 0051739c     LIBCMTD:strftime.obj
 0002:000543a8       ??_C@_07CGJPFGJA@January?$AA@ 005173a8     LIBCMTD:strftime.obj
 0002:000543b0       ??_C@_03MKABNOCG@Dec?$AA@  005173b0     LIBCMTD:strftime.obj
 0002:000543b4       ??_C@_03JPJOFNIA@Nov?$AA@  005173b4     LIBCMTD:strftime.obj
 0002:000543b8       ??_C@_03BMAOKBAD@Oct?$AA@  005173b8     LIBCMTD:strftime.obj
 0002:000543bc       ??_C@_03GGCAPAJC@Sep?$AA@  005173bc     LIBCMTD:strftime.obj
 0002:000543c0       ??_C@_03IFJFEIGA@Aug?$AA@  005173c0     LIBCMTD:strftime.obj
 0002:000543c4       ??_C@_03LBGABGKK@Jul?$AA@  005173c4     LIBCMTD:strftime.obj
 0002:000543c8       ??_C@_03IDFGHECI@Jun?$AA@  005173c8     LIBCMTD:strftime.obj
 0002:000543cc       ??_C@_03CNMDKL@May?$AA@    005173cc     LIBCMTD:strftime.obj
 0002:000543d0       ??_C@_03LEOLGMJP@Apr?$AA@  005173d0     LIBCMTD:strftime.obj
 0002:000543d4       ??_C@_03ODNJBKGA@Mar?$AA@  005173d4     LIBCMTD:strftime.obj
 0002:000543d8       ??_C@_03HJBDCHOM@Feb?$AA@  005173d8     LIBCMTD:strftime.obj
 0002:000543dc       ??_C@_03JIHJHPIE@Jan?$AA@  005173dc     LIBCMTD:strftime.obj
 0002:000543e0       ??_C@_08INBOOONO@Saturday?$AA@ 005173e0     LIBCMTD:strftime.obj
 0002:000543ec       ??_C@_06JECMNKMI@Friday?$AA@ 005173ec     LIBCMTD:strftime.obj
 0002:000543f4       ??_C@_08HACCIKIA@Thursday?$AA@ 005173f4     LIBCMTD:strftime.obj
 0002:00054400       ??_C@_09DLIGFAKA@Wednesday?$AA@ 00517400     LIBCMTD:strftime.obj
 0002:0005440c       ??_C@_07BAAGCFCM@Tuesday?$AA@ 0051740c     LIBCMTD:strftime.obj
 0002:00054414       ??_C@_06JLEDEDGH@Monday?$AA@ 00517414     LIBCMTD:strftime.obj
 0002:0005441c       ??_C@_06OOPIFAJ@Sunday?$AA@ 0051741c     LIBCMTD:strftime.obj
 0002:00054424       ??_C@_03FEFJNEK@Sat?$AA@   00517424     LIBCMTD:strftime.obj
 0002:00054428       ??_C@_03IDIOELNC@Fri?$AA@  00517428     LIBCMTD:strftime.obj
 0002:0005442c       ??_C@_03IOFIKPDN@Thu?$AA@  0051742c     LIBCMTD:strftime.obj
 0002:00054430       ??_C@_03MHOMLAJA@Wed?$AA@  00517430     LIBCMTD:strftime.obj
 0002:00054434       ??_C@_03NAGEINEP@Tue?$AA@  00517434     LIBCMTD:strftime.obj
 0002:00054438       ??_C@_03PDAGKDH@Mon?$AA@   00517438     LIBCMTD:strftime.obj
 0002:0005443c       ??_C@_03KOEHGMDN@Sun?$AA@  0051743c     LIBCMTD:strftime.obj
 0002:00054440       ??_C@_0L@OCEOFAIF@strftime?4c?$AA@ 00517440     LIBCMTD:strftime.obj
 0002:0005444c       ??_C@_0DJ@BLPIACFC@?$CI?$CCInvalid?5MBCS?5character?5sequenc@ 0051744c     LIBCMTD:strftime.obj
 0002:00054488       ??_C@_0DD@GLPHLKIC@?$CI?$CCZero?5length?5output?5buffer?5pass@ 00517488     LIBCMTD:strftime.obj
 0002:000544bc       ??_C@_0DL@LLHFCBKO@?$CI?$CCInvalid?5MBCS?5character?5sequenc@ 005174bc     LIBCMTD:strftime.obj
 0002:000544f8       ??_C@_0EC@CJNAOFBG@?$CI?$CCInvalid?5MBCS?5character?5sequenc@ 005174f8     LIBCMTD:strftime.obj
 0002:0005453c       ??_C@_03EBAPMIKO@a?1p?$AA@ 0051753c     LIBCMTD:strftime.obj
 0002:00054540       ??_C@_05JAMEPDIN@am?1pm?$AA@ 00517540     LIBCMTD:strftime.obj
 0002:00054554       ??_C@_0L@IOJADHBB@inittime?4c?$AA@ 00517554     LIBCMTD:inittime.obj
 0002:00054560       ??_C@_09MECGNAGI@initnum?4c?$AA@ 00517560     LIBCMTD:initnum.obj
 0002:0005456c       ??_C@_09HKFHICAL@initmon?4c?$AA@ 0051756c     LIBCMTD:initmon.obj
 0002:00054578       ??_C@_0L@GBAGBCPL@initctyp?4c?$AA@ 00517578     LIBCMTD:initctyp.obj
 0002:00054584       ??_C@_07GPNABLBE@a_str?4c?$AA@ 00517584     LIBCMTD:a_str.obj
 0002:000545a0       ___rgLocInfo               005175a0     LIBCMTD:getqloc.obj
 0002:00054a44       ??_C@_08PKBIPKE@Paraguay?$AA@ 00517a44     LIBCMTD:getqloc.obj
 0002:00054a50       ??_C@_07GHBIBIBP@Uruguay?$AA@ 00517a50     LIBCMTD:getqloc.obj
 0002:00054a58       ??_C@_05HBNKAPDN@Chile?$AA@ 00517a58     LIBCMTD:getqloc.obj
 0002:00054a60       ??_C@_07FEIFIPNF@Ecuador?$AA@ 00517a60     LIBCMTD:getqloc.obj
 0002:00054a68       ??_C@_09PGNFPGME@Argentina?$AA@ 00517a68     LIBCMTD:getqloc.obj
 0002:00054a74       ??_C@_04IALPBJF@Peru?$AA@  00517a74     LIBCMTD:getqloc.obj
 0002:00054a7c       ??_C@_08IJPLNLKH@Colombia?$AA@ 00517a7c     LIBCMTD:getqloc.obj
 0002:00054a88       ??_C@_09IDMFKCN@Venezuela?$AA@ 00517a88     LIBCMTD:getqloc.obj
 0002:00054a94       ??_C@_0BD@DNEJOGOK@Dominican?5Republic?$AA@ 00517a94     LIBCMTD:getqloc.obj
 0002:00054aa8       ??_C@_0N@LPINDNDB@South?5Africa?$AA@ 00517aa8     LIBCMTD:getqloc.obj
 0002:00054ab8       ??_C@_06BLJPEOBG@Panama?$AA@ 00517ab8     LIBCMTD:getqloc.obj
 0002:00054ac0       ??_C@_0L@BOCNDGON@Luxembourg?$AA@ 00517ac0     LIBCMTD:getqloc.obj
 0002:00054acc       ??_C@_0L@CONEHKA@Costa?5Rica?$AA@ 00517acc     LIBCMTD:getqloc.obj
 0002:00054ad8       ??_C@_0M@KGBPELAM@Switzerland?$AA@ 00517ad8     LIBCMTD:getqloc.obj
 0002:00054ae4       ??_C@_09FJGLIMAG@Guatemala?$AA@ 00517ae4     LIBCMTD:getqloc.obj
 0002:00054af0       ??_C@_06ECHIPDMK@Canada?$AA@ 00517af0     LIBCMTD:getqloc.obj
 0002:00054af8       ??_C@_0BG@CCEBNPGH@Spanish?5?9?5Modern?5Sort?$AA@ 00517af8     LIBCMTD:getqloc.obj
 0002:00054b10       ??_C@_09EFGJAPAD@Australia?$AA@ 00517b10     LIBCMTD:getqloc.obj
 0002:00054b1c       ??_C@_07NEKHPBCG@English?$AA@ 00517b1c     LIBCMTD:getqloc.obj
 0002:00054b24       ??_C@_07LKIIOGFH@Austria?$AA@ 00517b24     LIBCMTD:getqloc.obj
 0002:00054b2c       ??_C@_06EDDDIONA@German?$AA@ 00517b2c     LIBCMTD:getqloc.obj
 0002:00054b34       ??_C@_07LIIIOFOA@Belgium?$AA@ 00517b34     LIBCMTD:getqloc.obj
 0002:00054b3c       ??_C@_06DIAOLLEH@Mexico?$AA@ 00517b3c     LIBCMTD:getqloc.obj
 0002:00054b44       ??_C@_07PFALJOGE@Spanish?$AA@ 00517b44     LIBCMTD:getqloc.obj
 0002:00054b4c       ??_C@_06FFOOPAJB@Basque?$AA@ 00517b4c     LIBCMTD:getqloc.obj
 0002:00054b54       ??_C@_06DGHNDJFJ@Sweden?$AA@ 00517b54     LIBCMTD:getqloc.obj
 0002:00054b5c       ??_C@_07OBINPKFN@Swedish?$AA@ 00517b5c     LIBCMTD:getqloc.obj
 0002:00054b64       ??_C@_07NCOIHDGC@Iceland?$AA@ 00517b64     LIBCMTD:getqloc.obj
 0002:00054b6c       ??_C@_09JHBBDDIA@Icelandic?$AA@ 00517b6c     LIBCMTD:getqloc.obj
 0002:00054b78       ??_C@_06COBCPIFO@France?$AA@ 00517b78     LIBCMTD:getqloc.obj
 0002:00054b80       ??_C@_06GODMCAND@French?$AA@ 00517b80     LIBCMTD:getqloc.obj
 0002:00054b88       ??_C@_07MFHPMOED@Finland?$AA@ 00517b88     LIBCMTD:getqloc.obj
 0002:00054b90       ??_C@_07MCEAMKOD@Finnish?$AA@ 00517b90     LIBCMTD:getqloc.obj
 0002:00054b98       ??_C@_05CBHOCCK@Spain?$AA@ 00517b98     LIBCMTD:getqloc.obj
 0002:00054ba0       ??_C@_0BL@GIOEGDHB@Spanish?5?9?5Traditional?5Sort?$AA@ 00517ba0     LIBCMTD:getqloc.obj
 0002:00054bbc       ___rglangidNotDefault      00517bbc     LIBCMTD:getqloc.obj
 0002:00054bd0       ___rg_country              00517bd0     LIBCMTD:getqloc.obj
 0002:00054c88       ??_C@_0O@FMJNFNKE@united?9states?$AA@ 00517c88     LIBCMTD:getqloc.obj
 0002:00054c98       ??_C@_0P@NDHFFKCA@united?9kingdom?$AA@ 00517c98     LIBCMTD:getqloc.obj
 0002:00054ca8       ??_C@_0BC@HHDADLGF@trinidad?5?$CG?5tobago?$AA@ 00517ca8     LIBCMTD:getqloc.obj
 0002:00054cbc       ??_C@_0M@IOAEBDAC@south?9korea?$AA@ 00517cbc     LIBCMTD:getqloc.obj
 0002:00054cc8       ??_C@_0N@FIELFKIJ@south?9africa?$AA@ 00517cc8     LIBCMTD:getqloc.obj
 0002:00054cd8       ??_C@_0M@OPNDHCMC@south?5korea?$AA@ 00517cd8     LIBCMTD:getqloc.obj
 0002:00054ce4       ??_C@_0N@MDEOEPFI@south?5africa?$AA@ 00517ce4     LIBCMTD:getqloc.obj
 0002:00054cf4       ??_C@_06FKAPCJLB@slovak?$AA@ 00517cf4     LIBCMTD:getqloc.obj
 0002:00054cfc       ??_C@_0M@EFJANOAL@puerto?9rico?$AA@ 00517cfc     LIBCMTD:getqloc.obj
 0002:00054d08       ??_C@_08PGOJKDAI@pr?9china?$AA@ 00517d08     LIBCMTD:getqloc.obj
 0002:00054d14       ??_C@_08JHDOMCMI@pr?5china?$AA@ 00517d14     LIBCMTD:getqloc.obj
 0002:00054d20       ??_C@_02JHCHFBLL@nz?$AA@   00517d20     LIBCMTD:getqloc.obj
 0002:00054d24       ??_C@_0M@LINHDHKP@new?9zealand?$AA@ 00517d24     LIBCMTD:getqloc.obj
 0002:00054d30       ??_C@_09IIIPPBDB@hong?9kong?$AA@ 00517d30     LIBCMTD:getqloc.obj
 0002:00054d3c       ??_C@_07HJLCKBG@holland?$AA@ 00517d3c     LIBCMTD:getqloc.obj
 0002:00054d44       ??_C@_0O@LEHGMHAG@great?5britain?$AA@ 00517d44     LIBCMTD:getqloc.obj
 0002:00054d54       ??_C@_07FACOMELA@england?$AA@ 00517d54     LIBCMTD:getqloc.obj
 0002:00054d5c       ??_C@_05JIHCEICB@czech?$AA@ 00517d5c     LIBCMTD:getqloc.obj
 0002:00054d64       ??_C@_05BBJOBLGB@china?$AA@ 00517d64     LIBCMTD:getqloc.obj
 0002:00054d6c       ??_C@_07GPKPHICP@britain?$AA@ 00517d6c     LIBCMTD:getqloc.obj
 0002:00054d74       ??_C@_07MHIPBHMG@america?$AA@ 00517d74     LIBCMTD:getqloc.obj
 0002:00054d80       ___rg_language             00517d80     LIBCMTD:getqloc.obj
 0002:00054f88       ??_C@_03KIALPMKC@usa?$AA@  00517f88     LIBCMTD:getqloc.obj
 0002:00054f8c       ??_C@_02FGJGKGGD@us?$AA@   00517f8c     LIBCMTD:getqloc.obj
 0002:00054f90       ??_C@_02NEINDODK@uk?$AA@   00517f90     LIBCMTD:getqloc.obj
 0002:00054f94       ??_C@_05JMPCFJFJ@swiss?$AA@ 00517f94     LIBCMTD:getqloc.obj
 0002:00054f9c       ??_C@_0BA@HLOCPIOD@swedish?9finland?$AA@ 00517f9c     LIBCMTD:getqloc.obj
 0002:00054fac       ??_C@_0BC@PKCNIABK@spanish?9venezuela?$AA@ 00517fac     LIBCMTD:getqloc.obj
 0002:00054fc0       ??_C@_0BA@GBHHMIJI@spanish?9uruguay?$AA@ 00517fc0     LIBCMTD:getqloc.obj
 0002:00054fd0       ??_C@_0BE@BHDOHPMC@spanish?9puerto?5rico?$AA@ 00517fd0     LIBCMTD:getqloc.obj
 0002:00054fe4       ??_C@_0N@KMOIDGGN@spanish?9peru?$AA@ 00517fe4     LIBCMTD:getqloc.obj
 0002:00054ff4       ??_C@_0BB@HMHLPGPH@spanish?9paraguay?$AA@ 00517ff4     LIBCMTD:getqloc.obj
 0002:00055008       ??_C@_0P@MCPKNGFD@spanish?9panama?$AA@ 00518008     LIBCMTD:getqloc.obj
 0002:00055018       ??_C@_0BC@IHOHGAIL@spanish?9nicaragua?$AA@ 00518018     LIBCMTD:getqloc.obj
 0002:0005502c       ??_C@_0P@KLMJDNFJ@spanish?9modern?$AA@ 0051802c     LIBCMTD:getqloc.obj
 0002:0005503c       ??_C@_0BA@BPAPGBCM@spanish?9mexican?$AA@ 0051803c     LIBCMTD:getqloc.obj
 0002:0005504c       ??_C@_0BB@PDECHHHE@spanish?9honduras?$AA@ 0051804c     LIBCMTD:getqloc.obj
 0002:00055060       ??_C@_0BC@KLHKFGDB@spanish?9guatemala?$AA@ 00518060     LIBCMTD:getqloc.obj
 0002:00055074       ??_C@_0BE@MFOOKJAI@spanish?9el?5salvador?$AA@ 00518074     LIBCMTD:getqloc.obj
 0002:00055088       ??_C@_0BA@FCOKFPFC@spanish?9ecuador?$AA@ 00518088     LIBCMTD:getqloc.obj
 0002:00055098       ??_C@_0BL@PLMGIMOO@spanish?9dominican?5republic?$AA@ 00518098     LIBCMTD:getqloc.obj
 0002:000550b4       ??_C@_0BD@HLGDNMHB@spanish?9costa?5rica?$AA@ 005180b4     LIBCMTD:getqloc.obj
 0002:000550c8       ??_C@_0BB@PKCBKCPE@spanish?9colombia?$AA@ 005180c8     LIBCMTD:getqloc.obj
 0002:000550dc       ??_C@_0O@MCBIJGNE@spanish?9chile?$AA@ 005180dc     LIBCMTD:getqloc.obj
 0002:000550ec       ??_C@_0BA@BEFEIGJJ@spanish?9bolivia?$AA@ 005180ec     LIBCMTD:getqloc.obj
 0002:000550fc       ??_C@_0BC@EMECMPD@spanish?9argentina?$AA@ 005180fc     LIBCMTD:getqloc.obj
 0002:00055110       ??_C@_0BF@EALFLENP@portuguese?9brazilian?$AA@ 00518110     LIBCMTD:getqloc.obj
 0002:00055128       ??_C@_0BC@HBLEBLNN@norwegian?9nynorsk?$AA@ 00518128     LIBCMTD:getqloc.obj
 0002:0005513c       ??_C@_0BB@HMACDDCK@norwegian?9bokmal?$AA@ 0051813c     LIBCMTD:getqloc.obj
 0002:00055150       ??_C@_09BAFFPPHE@norwegian?$AA@ 00518150     LIBCMTD:getqloc.obj
 0002:0005515c       ??_C@_0O@EAJFJDFG@italian?9swiss?$AA@ 0051815c     LIBCMTD:getqloc.obj
 0002:0005516c       ??_C@_0O@CNOMPGD@irish?9english?$AA@ 0051816c     LIBCMTD:getqloc.obj
 0002:0005517c       ??_C@_0N@EDHBGCKG@german?9swiss?$AA@ 0051817c     LIBCMTD:getqloc.obj
 0002:0005518c       ??_C@_0BC@JACMHNBP@german?9luxembourg?$AA@ 0051818c     LIBCMTD:getqloc.obj
 0002:000551a0       ??_C@_0BE@HBGMGFEG@german?9lichtenstein?$AA@ 005181a0     LIBCMTD:getqloc.obj
 0002:000551b4       ??_C@_0BA@HKKBIBKL@german?9austrian?$AA@ 005181b4     LIBCMTD:getqloc.obj
 0002:000551c4       ??_C@_0N@GCAEPEBK@french?9swiss?$AA@ 005181c4     LIBCMTD:getqloc.obj
 0002:000551d4       ??_C@_0BC@DJFJJCK@french?9luxembourg?$AA@ 005181d4     LIBCMTD:getqloc.obj
 0002:000551e8       ??_C@_0BA@NNCEDFIC@french?9canadian?$AA@ 005181e8     LIBCMTD:getqloc.obj
 0002:000551f8       ??_C@_0P@CMPOCLM@french?9belgian?$AA@ 005181f8     LIBCMTD:getqloc.obj
 0002:00055208       ??_C@_0M@GHHDJOK@english?9usa?$AA@ 00518208     LIBCMTD:getqloc.obj
 0002:00055214       ??_C@_0L@PLDJKEIL@english?9us?$AA@ 00518214     LIBCMTD:getqloc.obj
 0002:00055220       ??_C@_0L@HJCCDMNC@english?9uk?$AA@ 00518220     LIBCMTD:getqloc.obj
 0002:0005522c       ??_C@_0BK@CKLIAGJB@english?9trinidad?5y?5tobago?$AA@ 0051822c     LIBCMTD:getqloc.obj
 0002:00055248       ??_C@_0BF@JMJMGNNF@english?9south?5africa?$AA@ 00518248     LIBCMTD:getqloc.obj
 0002:00055260       ??_C@_0L@DKIIFDFD@english?9nz?$AA@ 00518260     LIBCMTD:getqloc.obj
 0002:0005526c       ??_C@_0BA@ONHGJCLH@english?9jamaica?$AA@ 0051826c     LIBCMTD:getqloc.obj
 0002:0005527c       ??_C@_0M@HJBGHOPO@english?9ire?$AA@ 0051827c     LIBCMTD:getqloc.obj
 0002:00055288       ??_C@_0BC@LFEKMIFB@english?9caribbean?$AA@ 00518288     LIBCMTD:getqloc.obj
 0002:0005529c       ??_C@_0M@OLDPFKHI@english?9can?$AA@ 0051829c     LIBCMTD:getqloc.obj
 0002:000552a8       ??_C@_0P@OMDEHBMP@english?9belize?$AA@ 005182a8     LIBCMTD:getqloc.obj
 0002:000552b8       ??_C@_0M@KFHFPFED@english?9aus?$AA@ 005182b8     LIBCMTD:getqloc.obj
 0002:000552c4       ??_C@_0BB@MNMBKDFE@english?9american?$AA@ 005182c4     LIBCMTD:getqloc.obj
 0002:000552d8       ??_C@_0O@KIDLNNBA@dutch?9belgian?$AA@ 005182d8     LIBCMTD:getqloc.obj
 0002:000552e8       ??_C@_0BE@JBKABBMH@chinese?9traditional?$AA@ 005182e8     LIBCMTD:getqloc.obj
 0002:000552fc       ??_C@_0BC@MJJMPKCG@chinese?9singapore?$AA@ 005182fc     LIBCMTD:getqloc.obj
 0002:00055310       ??_C@_0BD@FDKADDCP@chinese?9simplified?$AA@ 00518310     LIBCMTD:getqloc.obj
 0002:00055324       ??_C@_0BB@DBEFDDME@chinese?9hongkong?$AA@ 00518324     LIBCMTD:getqloc.obj
 0002:00055338       ??_C@_07DHNMFMCI@chinese?$AA@ 00518338     LIBCMTD:getqloc.obj
 0002:00055340       ??_C@_03FNDDCHI@chi?$AA@   00518340     LIBCMTD:getqloc.obj
 0002:00055344       ??_C@_03BMMIADDJ@chh?$AA@  00518344     LIBCMTD:getqloc.obj
 0002:00055348       ??_C@_08OAIPJDGI@canadian?$AA@ 00518348     LIBCMTD:getqloc.obj
 0002:00055354       ??_C@_07HBPMNPNJ@belgian?$AA@ 00518354     LIBCMTD:getqloc.obj
 0002:0005535c       ??_C@_0L@OEKOPBEL@australian?$AA@ 0051835c     LIBCMTD:getqloc.obj
 0002:00055368       ??_C@_0BB@MEIMBEDG@american?9english?$AA@ 00518368     LIBCMTD:getqloc.obj
 0002:0005537c       ??_C@_0BB@DFMDPDGB@american?5english?$AA@ 0051837c     LIBCMTD:getqloc.obj
 0002:00055390       ??_C@_08IJLOKOLL@american?$AA@ 00518390     LIBCMTD:getqloc.obj
 0002:0005539c       ??_C@_0BC@NFIEMBLL@Norwegian?9Nynorsk?$AA@ 0051839c     LIBCMTD:getqloc.obj
 0002:000553b0       ??_C@_03NFKLAGEF@OCP?$AA@  005183b0     LIBCMTD:getqloc.obj
 0002:000553b4       ??_C@_03DFHEHBHG@ACP?$AA@  005183b4     LIBCMTD:getqloc.obj
 0002:000553b8       ??_C@_0CN@OJFFJLIC@f?3?2vs70builds?23077?2vc?2crtbld?2crt@ 005183b8     LIBCMTD:_wopen.obj
 0002:000553e8       ??_C@_0BB@KFELMOAG@filename?5?$CB?$DN?5NULL?$AA@ 005183e8     LIBCMTD:_wopen.obj
 0002:000553fc       ??_C@_08MKBBPGGN@stream?4c?$AA@ 005183fc     LIBCMTD:stream.obj
 0002:00055414       ??_C@_07FEAFKIIG@a_map?4c?$AA@ 00518414     LIBCMTD:a_map.obj
 0002:00055464       ??_C@_07JGCPNLLC@_open?4c?$AA@ 00518464     LIBCMTD:_open.obj
 0002:0005546c       ___dnames                  0051846c     LIBCMTD:timeset.obj
 0002:00055484       ___mnames                  00518484     LIBCMTD:timeset.obj
 0002:000554cc       ??_C@_07LOOFNDIO@tzset?4c?$AA@ 005184cc     LIBCMTD:tzset.obj
 0002:000554d4       ??_C@_02CLFPBFFP@TZ?$AA@   005184d4     LIBCMTD:tzset.obj
 0002:000554f4       ??_C@_08EMJPPPLP@gmtime?4c?$AA@ 005184f4     LIBCMTD:gmtime.obj
 0002:00055500       ??_C@_0CG@PKBDLMEO@InitializeCriticalSectionAndSpin@ 00518500     LIBCMTD:initcrit.obj
 0002:00055534       ??_C@_0CP@PEILCOHB@f?3?2vs70builds?23077?2vc?2crtbld?2crt@ 00518534     LIBCMTD:snprintf.obj
 0002:00055564       ??_C@_0DA@KHEJFFIK@f?3?2vs70builds?23077?2vc?2crtbld?2crt@ 00518564     LIBCMTD:vsnprint.obj
 0002:00055594       ??_C@_0BI@DFKBFLJE@GetProcessWindowStation?$AA@ 00518594     LIBCMTD:crtmbox.obj
 0002:000555ac       ??_C@_0BK@CIDNPOGP@GetUserObjectInformationA?$AA@ 005185ac     LIBCMTD:crtmbox.obj
 0002:000555c8       ??_C@_0BD@HHGDFDBJ@GetLastActivePopup?$AA@ 005185c8     LIBCMTD:crtmbox.obj
 0002:000555dc       ??_C@_0BA@HNOPNCHB@GetActiveWindow?$AA@ 005185dc     LIBCMTD:crtmbox.obj
 0002:000555ec       ??_C@_0M@CHKKJDAI@MessageBoxA?$AA@ 005185ec     LIBCMTD:crtmbox.obj
 0002:00055604       ??_C@_09KJLOAKHC@mbctype?4c?$AA@ 00518604     LIBCMTD:mbctype.obj
 0002:0005562c       ??_C@_09KLGCKDOD@Program?3?5?$AA@ 0051862c     LIBCMTD:secfail.obj
 0002:00055638       ??_C@_0KA@JEHFIFGP@A?5buffer?5overrun?5has?5been?5detect@ 00518638     LIBCMTD:secfail.obj
 0002:000556d8       ??_C@_0BJ@MDEKIEOJ@Buffer?5overrun?5detected?$CB?$AA@ 005186d8     LIBCMTD:secfail.obj
 0002:000556f8       ??_C@_0LB@BPLHHLFD@A?5security?5error?5of?5unknown?5caus@ 005186f8     LIBCMTD:secfail.obj
 0002:000557ac       ??_C@_0CD@GMKACBEK@Unknown?5security?5failure?5detecte@ 005187ac     LIBCMTD:secfail.obj
 0002:000557dc       ??_C@_09MGNHMPHC@osfinfo?4c?$AA@ 005187dc     LIBCMTD:osfinfo.obj
 0002:0005582c       ??_C@_09PKAEMGHJ@_getbuf?4c?$AA@ 0051882c     LIBCMTD:_getbuf.obj
 0002:00055838       ??_C@_0L@LHGKIODD@wcstombs?4c?$AA@ 00518838     LIBCMTD:wcstombs.obj
 0002:00055844       ??_C@_0N@IJIMCPPK@pwcs?5?$CB?$DN?5NULL?$AA@ 00518844     LIBCMTD:wcstombs.obj
 0002:00055854       ??_C@_08NJPDFEGP@mbtowc?4c?$AA@ 00518854     LIBCMTD:mbtowc.obj
 0002:00055860       ??_C@_0DD@FIIGOHOA@ptloci?9?$DOmb_cur_max?5?$DN?$DN?51?5?$HM?$HM?5ptloc@ 00518860     LIBCMTD:mbtowc.obj
 0002:00055894       ??_C@_08LLPOKBPE@fgetwc?4c?$AA@ 00518894     LIBCMTD:fgetwc.obj
 0002:000558ac       ??_C@_09BFMFDBOI@ungetwc?4c?$AA@ 005188ac     LIBCMTD:ungetwc.obj
 0002:000558c4       ??_C@_08KKFOAFAI@fputwc?4c?$AA@ 005188c4     LIBCMTD:fputwc.obj
 0002:000558dc       ??_C@_0L@KBNGFDKM@convrtcp?4c?$AA@ 005188dc     LIBCMTD:convrtcp.obj
 0002:000558f4       ??_C@_07NFAECDLI@w_str?4c?$AA@ 005188f4     LIBCMTD:w_str.obj
 0002:00055918       ??_C@_0L@DILIPMN@inithelp?4c?$AA@ 00518918     LIBCMTD:inithelp.obj
 0002:00055984       ??_C@_06IMKFLFPG@1?$CDQNAN?$AA@ 00518984     LIBCMTD:x10fout.obj
 0002:0005598c       ??_C@_05DNEBIAHO@1?$CDINF?$AA@ 0051898c     LIBCMTD:x10fout.obj
 0002:00055994       ??_C@_05PHHOCPM@1?$CDIND?$AA@ 00518994     LIBCMTD:x10fout.obj
 0002:0005599c       ??_C@_06PGGFOGJG@1?$CDSNAN?$AA@ 0051899c     LIBCMTD:x10fout.obj
 0002:000559a4       ??_C@_0CP@EHHLBNMF@f?3?2vs70builds?23077?2vc?2crtbld?2crt@ 005189a4     LIBCMTD:_filwbuf.obj
 0002:000559d4       ??_C@_08CJEJHOKM@ungetc?4c?$AA@ 005189d4     LIBCMTD:ungetc.obj
 0002:000559ec       ??_C@_0CP@JOANPPIG@f?3?2vs70builds?23077?2vc?2crtbld?2crt@ 005189ec     LIBCMTD:_flswbuf.obj
 0002:00055a1c       ??_C@_07NIBBAFJP@w_loc?4c?$AA@ 00518a1c     LIBCMTD:w_loc.obj
 0002:00055a34       ??_C@_07GCMFDNDD@a_loc?4c?$AA@ 00518a34     LIBCMTD:a_loc.obj
 0002:00055a5c       ??_C@_08EOPENFML@chsize?4c?$AA@ 00518a5c     LIBCMTD:chsize.obj
 0002:00055a68       ??_C@_09OJCCCDEJ@size?5?$DO?$DN?50?$AA@ 00518a68     LIBCMTD:chsize.obj
 0002:00055a74       ??_C@_0L@CELCHBFJ@wtombenv?4c?$AA@ 00518a74     LIBCMTD:wtombenv.obj
 0002:00055a8c       ??_C@_07KLPPCEPH@a_cmp?4c?$AA@ 00518a8c     LIBCMTD:a_cmp.obj
 0002:00055a94       ??_C@_0DN@NFIMOOFE@cchCount1?$DN?$DN0?5?$CG?$CG?5cchCount2?$DN?$DN1?5?$HM?$HM?5@ 00518a94     LIBCMTD:a_cmp.obj
 0002:00055af0       ??_C@_08BMJILFKN@setenv?4c?$AA@ 00518af0     LIBCMTD:setenv.obj
 0002:00055afc       ??_C@_05MAJJAKPI@FALSE?$AA@ 00518afc     LIBCMTD:setenv.obj
 0002:0005c7c4       ___libm_float_zero         0051f7c4     libmmt:libm_error.omu
 0002:0005c7cc       ___libm_float_one          0051f7cc     libmmt:libm_error.omu
 0002:0005c7d4       ___libm_float_inf          0051f7d4     libmmt:libm_error.omu
 0002:0005c7dc       ___libm_float_huge         0051f7dc     libmmt:libm_error.omu
 0002:0005c7e4       ___libm_double_zero        0051f7e4     libmmt:libm_error.omu
 0002:0005c7f4       ___libm_double_one         0051f7f4     libmmt:libm_error.omu
 0002:0005c804       ___libm_double_inf         0051f804     libmmt:libm_error.omu
 0002:0005c814       ___libm_double_huge        0051f814     libmmt:libm_error.omu
 0002:0005c824       ___libm_ldouble_zero       0051f824     libmmt:libm_error.omu
 0002:0005c834       ___libm_ldouble_neg_zero   0051f834     libmmt:libm_error.omu
 0002:0005c844       ___libm_ldouble_one        0051f844     libmmt:libm_error.omu
 0002:0005c854       ___libm_ldouble_neg_one    0051f854     libmmt:libm_error.omu
 0002:0005c864       ___libm_ldouble_inf        0051f864     libmmt:libm_error.omu
 0002:0005c874       ___libm_ldouble_neg_inf    0051f874     libmmt:libm_error.omu
 0002:0005c884       ___libm_ldouble_huge       0051f884     libmmt:libm_error.omu
 0002:0005c894       ___libm_ldouble_neg_huge   0051f894     libmmt:libm_error.omu
 0002:0005c8c0       ??_C@_07DCAFNPAA@fputs?4c?$AA@ 0051f8c0     LIBCMTD:fputs.obj
 0002:0005c8d8       __load_config_used         0051f8d8     LIBCMTD:loadcfg.obj
 0002:00062948       ??_R1A@?0A@A@type_info@@8  00525948     LIBCMTD:typinfo.obj
 0002:00062960       ??_R2type_info@@8          00525960     LIBCMTD:typinfo.obj
 0002:00062968       ??_R3type_info@@8          00525968     LIBCMTD:typinfo.obj
 0002:00062978       ??_R4type_info@@6B@        00525978     LIBCMTD:typinfo.obj
 0002:00062aa0       ___safe_se_handler_table   00525aa0     <linker-defined>
 0002:000635d4       ___rtc_iaa                 005265d4     LIBCMTD:initsect.obj
 0002:000636d8       ___rtc_izz                 005266d8     LIBCMTD:initsect.obj
 0002:000637dc       ___rtc_taa                 005267dc     LIBCMTD:initsect.obj
 0002:000638e0       ___rtc_tzz                 005268e0     LIBCMTD:initsect.obj
 0003:00000000       ___xc_a                    00527000     LIBCMTD:crt0init.obj
 0003:00000314       ___xc_z                    00527314     LIBCMTD:crt0init.obj
 0003:00000418       ___xi_a                    00527418     LIBCMTD:crt0init.obj
 0003:00000730       ___xi_z                    00527730     LIBCMTD:crt0init.obj
 0003:00000834       ___xp_a                    00527834     LIBCMTD:crt0init.obj
 0003:00000a3c       ___xp_z                    00527a3c     LIBCMTD:crt0init.obj
 0003:00000b40       ___xt_a                    00527b40     LIBCMTD:crt0init.obj
 0003:00000d48       ___xt_z                    00527d48     LIBCMTD:crt0init.obj
 0003:00000e50       ??_R4BlockParser@U3D_IDTF@@6B@ 00527e50     BlockParser.obj
 0003:00000e70       ??_R0?AVBlockParser@U3D_IDTF@@@8 00527e70     BlockParser.obj
 0003:00000ea0       ??_R3BlockParser@U3D_IDTF@@8 00527ea0     BlockParser.obj
 0003:00000eb8       ??_R2BlockParser@U3D_IDTF@@8 00527eb8     BlockParser.obj
 0003:00000ec8       ??_R1A@?0A@A@BlockParser@U3D_IDTF@@8 00527ec8     BlockParser.obj
 0003:00000ee8       ??_R1A@?0A@A@MetaDataParser@U3D_IDTF@@8 00527ee8     BlockParser.obj
 0003:00000f08       ??_R0?AVMetaDataParser@U3D_IDTF@@@8 00527f08     BlockParser.obj
 0003:00000f38       ??_R4File@U3D_IDTF@@6B@    00527f38     File.obj
 0003:00000f58       ??_R0?AVFile@U3D_IDTF@@@8  00527f58     File.obj
 0003:00000f80       ??_R3File@U3D_IDTF@@8      00527f80     File.obj
 0003:00000f98       ??_R2File@U3D_IDTF@@8      00527f98     File.obj
 0003:00000fa8       ??_R1A@?0A@A@File@U3D_IDTF@@8 00527fa8     File.obj
 0003:00000fc8       ??_R4IFXCoreArray@@6B@     00527fc8     FileParser.obj
 0003:00000fe8       ??_R0?AVIFXCoreArray@@@8   00527fe8     FileParser.obj
 0003:00001010       ??_R3IFXCoreArray@@8       00528010     FileParser.obj
 0003:00001028       ??_R2IFXCoreArray@@8       00528028     FileParser.obj
 0003:00001038       ??_R1A@?0A@A@IFXCoreArray@@8 00528038     FileParser.obj
 0003:00001058       ??_R4Node@U3D_IDTF@@6B@    00528058     FileParser.obj
 0003:00001078       ??_R0?AVNode@U3D_IDTF@@@8  00528078     FileParser.obj
 0003:000010a0       ??_R3Node@U3D_IDTF@@8      005280a0     FileParser.obj
 0003:000010b8       ??_R2Node@U3D_IDTF@@8      005280b8     FileParser.obj
 0003:000010c8       ??_R1A@?0A@A@Node@U3D_IDTF@@8 005280c8     FileParser.obj
 0003:000010e8       ??_R1A@?0A@A@MetaDataList@U3D_IDTF@@8 005280e8     FileParser.obj
 0003:00001108       ??_R0?AVMetaDataList@U3D_IDTF@@@8 00528108     FileParser.obj
 0003:00001138       ??_R4LightNode@U3D_IDTF@@6B@ 00528138     FileParser.obj
 0003:00001158       ??_R0?AVLightNode@U3D_IDTF@@@8 00528158     FileParser.obj
 0003:00001188       ??_R3LightNode@U3D_IDTF@@8 00528188     FileParser.obj
 0003:000011a0       ??_R2LightNode@U3D_IDTF@@8 005281a0     FileParser.obj
 0003:000011b8       ??_R1A@?0A@A@LightNode@U3D_IDTF@@8 005281b8     FileParser.obj
 0003:000011d8       ??_R4ViewNodeData@U3D_IDTF@@6B@ 005281d8     FileParser.obj
 0003:000011f8       ??_R0?AVViewNodeData@U3D_IDTF@@@8 005281f8     FileParser.obj
 0003:00001228       ??_R3ViewNodeData@U3D_IDTF@@8 00528228     FileParser.obj
 0003:00001240       ??_R2ViewNodeData@U3D_IDTF@@8 00528240     FileParser.obj
 0003:00001250       ??_R1A@?0A@A@ViewNodeData@U3D_IDTF@@8 00528250     FileParser.obj
 0003:00001270       ??_R4?$IFXArray@UViewTexture@U3D_IDTF@@@@6B@ 00528270     FileParser.obj
 0003:00001290       ??_R0?AV?$IFXArray@UViewTexture@U3D_IDTF@@@@@8 00528290     FileParser.obj
 0003:000012d8       ??_R3?$IFXArray@UViewTexture@U3D_IDTF@@@@8 005282d8     FileParser.obj
 0003:000012f0       ??_R2?$IFXArray@UViewTexture@U3D_IDTF@@@@8 005282f0     FileParser.obj
 0003:00001300       ??_R1A@?0A@A@?$IFXArray@UViewTexture@U3D_IDTF@@@@8 00528300     FileParser.obj
 0003:00001320       ??_R4ViewNode@U3D_IDTF@@6B@ 00528320     FileParser.obj
 0003:00001340       ??_R0?AVViewNode@U3D_IDTF@@@8 00528340     FileParser.obj
 0003:00001368       ??_R3ViewNode@U3D_IDTF@@8  00528368     FileParser.obj
 0003:00001380       ??_R2ViewNode@U3D_IDTF@@8  00528380     FileParser.obj
 0003:00001398       ??_R1A@?0A@A@ViewNode@U3D_IDTF@@8 00528398     FileParser.obj
 0003:000013b8       ??_R4ModelNode@U3D_IDTF@@6B@ 005283b8     FileParser.obj
 0003:000013d8       ??_R0?AVModelNode@U3D_IDTF@@@8 005283d8     FileParser.obj
 0003:00001408       ??_R3ModelNode@U3D_IDTF@@8 00528408     FileParser.obj
 0003:00001420       ??_R2ModelNode@U3D_IDTF@@8 00528420     FileParser.obj
 0003:00001438       ??_R1A@?0A@A@ModelNode@U3D_IDTF@@8 00528438     FileParser.obj
 0003:00001458       ??_R4Modifier@U3D_IDTF@@6B@ 00528458     FileParser.obj
 0003:00001478       ??_R0?AVModifier@U3D_IDTF@@@8 00528478     FileParser.obj
 0003:000014a0       ??_R3Modifier@U3D_IDTF@@8  005284a0     FileParser.obj
 0003:000014b8       ??_R2Modifier@U3D_IDTF@@8  005284b8     FileParser.obj
 0003:000014c8       ??_R1A@?0A@A@Modifier@U3D_IDTF@@8 005284c8     FileParser.obj
 0003:000014e8       ??_R4ShadingModifier@U3D_IDTF@@6B@ 005284e8     FileParser.obj
 0003:00001508       ??_R0?AVShadingModifier@U3D_IDTF@@@8 00528508     FileParser.obj
 0003:00001538       ??_R3ShadingModifier@U3D_IDTF@@8 00528538     FileParser.obj
 0003:00001550       ??_R2ShadingModifier@U3D_IDTF@@8 00528550     FileParser.obj
 0003:00001568       ??_R1A@?0A@A@ShadingModifier@U3D_IDTF@@8 00528568     FileParser.obj
 0003:00001588       ??_R4?$IFXArray@VShaderList@U3D_IDTF@@@@6B@ 00528588     FileParser.obj
 0003:000015a8       ??_R0?AV?$IFXArray@VShaderList@U3D_IDTF@@@@@8 005285a8     FileParser.obj
 0003:000015e8       ??_R3?$IFXArray@VShaderList@U3D_IDTF@@@@8 005285e8     FileParser.obj
 0003:00001600       ??_R2?$IFXArray@VShaderList@U3D_IDTF@@@@8 00528600     FileParser.obj
 0003:00001610       ??_R1A@?0A@A@?$IFXArray@VShaderList@U3D_IDTF@@@@8 00528610     FileParser.obj
 0003:00001630       ??_R4?$IFXArray@VIFXString@@@@6B@ 00528630     FileParser.obj
 0003:00001650       ??_R0?AV?$IFXArray@VIFXString@@@@@8 00528650     FileParser.obj
 0003:00001680       ??_R3?$IFXArray@VIFXString@@@@8 00528680     FileParser.obj
 0003:00001698       ??_R2?$IFXArray@VIFXString@@@@8 00528698     FileParser.obj
 0003:000016a8       ??_R1A@?0A@A@?$IFXArray@VIFXString@@@@8 005286a8     FileParser.obj
 0003:000016c8       ??_R4AnimationModifier@U3D_IDTF@@6B@ 005286c8     FileParser.obj
 0003:000016e8       ??_R0?AVAnimationModifier@U3D_IDTF@@@8 005286e8     FileParser.obj
 0003:00001728       ??_R3AnimationModifier@U3D_IDTF@@8 00528728     FileParser.obj
 0003:00001740       ??_R2AnimationModifier@U3D_IDTF@@8 00528740     FileParser.obj
 0003:00001758       ??_R1A@?0A@A@AnimationModifier@U3D_IDTF@@8 00528758     FileParser.obj
 0003:00001778       ??_R4?$IFXArray@UMotionInfo@U3D_IDTF@@@@6B@ 00528778     FileParser.obj
 0003:00001798       ??_R0?AV?$IFXArray@UMotionInfo@U3D_IDTF@@@@@8 00528798     FileParser.obj
 0003:000017d8       ??_R3?$IFXArray@UMotionInfo@U3D_IDTF@@@@8 005287d8     FileParser.obj
 0003:000017f0       ??_R2?$IFXArray@UMotionInfo@U3D_IDTF@@@@8 005287f0     FileParser.obj
 0003:00001800       ??_R1A@?0A@A@?$IFXArray@UMotionInfo@U3D_IDTF@@@@8 00528800     FileParser.obj
 0003:00001820       ??_R4BoneWeightList@U3D_IDTF@@6B@ 00528820     FileParser.obj
 0003:00001840       ??_R0?AVBoneWeightList@U3D_IDTF@@@8 00528840     FileParser.obj
 0003:00001870       ??_R3BoneWeightList@U3D_IDTF@@8 00528870     FileParser.obj
 0003:00001888       ??_R2BoneWeightList@U3D_IDTF@@8 00528888     FileParser.obj
 0003:00001898       ??_R1A@?0A@A@BoneWeightList@U3D_IDTF@@8 00528898     FileParser.obj
 0003:000018b8       ??_R4?$IFXArray@H@@6B@     005288b8     FileParser.obj
 0003:000018d8       ??_R0?AV?$IFXArray@H@@@8   005288d8     FileParser.obj
 0003:00001900       ??_R3?$IFXArray@H@@8       00528900     FileParser.obj
 0003:00001918       ??_R2?$IFXArray@H@@8       00528918     FileParser.obj
 0003:00001928       ??_R1A@?0A@A@?$IFXArray@H@@8 00528928     FileParser.obj
 0003:00001948       ??_R4BoneWeightModifier@U3D_IDTF@@6B@ 00528948     FileParser.obj
 0003:00001968       ??_R0?AVBoneWeightModifier@U3D_IDTF@@@8 00528968     FileParser.obj
 0003:000019a8       ??_R3BoneWeightModifier@U3D_IDTF@@8 005289a8     FileParser.obj
 0003:000019c0       ??_R2BoneWeightModifier@U3D_IDTF@@8 005289c0     FileParser.obj
 0003:000019d8       ??_R1A@?0A@A@BoneWeightModifier@U3D_IDTF@@8 005289d8     FileParser.obj
 0003:000019f8       ??_R4?$IFXArray@VBoneWeightList@U3D_IDTF@@@@6B@ 005289f8     FileParser.obj
 0003:00001a18       ??_R0?AV?$IFXArray@VBoneWeightList@U3D_IDTF@@@@@8 00528a18     FileParser.obj
 0003:00001a60       ??_R3?$IFXArray@VBoneWeightList@U3D_IDTF@@@@8 00528a60     FileParser.obj
 0003:00001a78       ??_R2?$IFXArray@VBoneWeightList@U3D_IDTF@@@@8 00528a78     FileParser.obj
 0003:00001a88       ??_R1A@?0A@A@?$IFXArray@VBoneWeightList@U3D_IDTF@@@@8 00528a88     FileParser.obj
 0003:00001aa8       ??_R4CLODModifier@U3D_IDTF@@6B@ 00528aa8     FileParser.obj
 0003:00001ac8       ??_R0?AVCLODModifier@U3D_IDTF@@@8 00528ac8     FileParser.obj
 0003:00001af8       ??_R3CLODModifier@U3D_IDTF@@8 00528af8     FileParser.obj
 0003:00001b10       ??_R2CLODModifier@U3D_IDTF@@8 00528b10     FileParser.obj
 0003:00001b28       ??_R1A@?0A@A@CLODModifier@U3D_IDTF@@8 00528b28     FileParser.obj
 0003:00001b48       ??_R4SubdivisionModifier@U3D_IDTF@@6B@ 00528b48     FileParser.obj
 0003:00001b68       ??_R0?AVSubdivisionModifier@U3D_IDTF@@@8 00528b68     FileParser.obj
 0003:00001ba8       ??_R3SubdivisionModifier@U3D_IDTF@@8 00528ba8     FileParser.obj
 0003:00001bc0       ??_R2SubdivisionModifier@U3D_IDTF@@8 00528bc0     FileParser.obj
 0003:00001bd8       ??_R1A@?0A@A@SubdivisionModifier@U3D_IDTF@@8 00528bd8     FileParser.obj
 0003:00001bf8       ??_R4GlyphCommand@U3D_IDTF@@6B@ 00528bf8     FileParser.obj
 0003:00001c18       ??_R0?AVGlyphCommand@U3D_IDTF@@@8 00528c18     FileParser.obj
 0003:00001c48       ??_R3GlyphCommand@U3D_IDTF@@8 00528c48     FileParser.obj
 0003:00001c60       ??_R2GlyphCommand@U3D_IDTF@@8 00528c60     FileParser.obj
 0003:00001c70       ??_R1A@?0A@A@GlyphCommand@U3D_IDTF@@8 00528c70     FileParser.obj
 0003:00001c90       ??_R4EndGlyph@U3D_IDTF@@6B@ 00528c90     FileParser.obj
 0003:00001cb0       ??_R0?AVEndGlyph@U3D_IDTF@@@8 00528cb0     FileParser.obj
 0003:00001cd8       ??_R3EndGlyph@U3D_IDTF@@8  00528cd8     FileParser.obj
 0003:00001cf0       ??_R2EndGlyph@U3D_IDTF@@8  00528cf0     FileParser.obj
 0003:00001d00       ??_R1A@?0A@A@EndGlyph@U3D_IDTF@@8 00528d00     FileParser.obj
 0003:00001d20       ??_R4MoveTo@U3D_IDTF@@6B@  00528d20     FileParser.obj
 0003:00001d40       ??_R0?AVMoveTo@U3D_IDTF@@@8 00528d40     FileParser.obj
 0003:00001d68       ??_R3MoveTo@U3D_IDTF@@8    00528d68     FileParser.obj
 0003:00001d80       ??_R2MoveTo@U3D_IDTF@@8    00528d80     FileParser.obj
 0003:00001d90       ??_R1A@?0A@A@MoveTo@U3D_IDTF@@8 00528d90     FileParser.obj
 0003:00001db0       ??_R4LineTo@U3D_IDTF@@6B@  00528db0     FileParser.obj
 0003:00001dd0       ??_R0?AVLineTo@U3D_IDTF@@@8 00528dd0     FileParser.obj
 0003:00001df8       ??_R3LineTo@U3D_IDTF@@8    00528df8     FileParser.obj
 0003:00001e10       ??_R2LineTo@U3D_IDTF@@8    00528e10     FileParser.obj
 0003:00001e20       ??_R1A@?0A@A@LineTo@U3D_IDTF@@8 00528e20     FileParser.obj
 0003:00001e40       ??_R4CurveTo@U3D_IDTF@@6B@ 00528e40     FileParser.obj
 0003:00001e60       ??_R0?AVCurveTo@U3D_IDTF@@@8 00528e60     FileParser.obj
 0003:00001e88       ??_R3CurveTo@U3D_IDTF@@8   00528e88     FileParser.obj
 0003:00001ea0       ??_R2CurveTo@U3D_IDTF@@8   00528ea0     FileParser.obj
 0003:00001eb0       ??_R1A@?0A@A@CurveTo@U3D_IDTF@@8 00528eb0     FileParser.obj
 0003:00001ed0       ??_R4GlyphCommandList@U3D_IDTF@@6B@ 00528ed0     FileParser.obj
 0003:00001ef0       ??_R0?AVGlyphCommandList@U3D_IDTF@@@8 00528ef0     FileParser.obj
 0003:00001f20       ??_R3GlyphCommandList@U3D_IDTF@@8 00528f20     FileParser.obj
 0003:00001f38       ??_R2GlyphCommandList@U3D_IDTF@@8 00528f38     FileParser.obj
 0003:00001f48       ??_R1A@?0A@A@GlyphCommandList@U3D_IDTF@@8 00528f48     FileParser.obj
 0003:00001f68       ??_R4?$IFXArray@PAVGlyphCommand@U3D_IDTF@@@@6B@ 00528f68     FileParser.obj
 0003:00001f88       ??_R0?AV?$IFXArray@PAVGlyphCommand@U3D_IDTF@@@@@8 00528f88     FileParser.obj
 0003:00001fd0       ??_R3?$IFXArray@PAVGlyphCommand@U3D_IDTF@@@@8 00528fd0     FileParser.obj
 0003:00001fe8       ??_R2?$IFXArray@PAVGlyphCommand@U3D_IDTF@@@@8 00528fe8     FileParser.obj
 0003:00001ff8       ??_R1A@?0A@A@?$IFXArray@PAVGlyphCommand@U3D_IDTF@@@@8 00528ff8     FileParser.obj
 0003:00002018       ??_R4?$IFXArray@VGlyphCommand@U3D_IDTF@@@@6B@ 00529018     FileParser.obj
 0003:00002038       ??_R0?AV?$IFXArray@VGlyphCommand@U3D_IDTF@@@@@8 00529038     FileParser.obj
 0003:00002080       ??_R3?$IFXArray@VGlyphCommand@U3D_IDTF@@@@8 00529080     FileParser.obj
 0003:00002098       ??_R2?$IFXArray@VGlyphCommand@U3D_IDTF@@@@8 00529098     FileParser.obj
 0003:000020a8       ??_R1A@?0A@A@?$IFXArray@VGlyphCommand@U3D_IDTF@@@@8 005290a8     FileParser.obj
 0003:000020c8       ??_R4?$IFXArray@VEndGlyph@U3D_IDTF@@@@6B@ 005290c8     FileParser.obj
 0003:000020e8       ??_R0?AV?$IFXArray@VEndGlyph@U3D_IDTF@@@@@8 005290e8     FileParser.obj
 0003:00002128       ??_R3?$IFXArray@VEndGlyph@U3D_IDTF@@@@8 00529128     FileParser.obj
 0003:00002140       ??_R2?$IFXArray@VEndGlyph@U3D_IDTF@@@@8 00529140     FileParser.obj
 0003:00002150       ??_R1A@?0A@A@?$IFXArray@VEndGlyph@U3D_IDTF@@@@8 00529150     FileParser.obj
 0003:00002170       ??_R4?$IFXArray@VMoveTo@U3D_IDTF@@@@6B@ 00529170     FileParser.obj
 0003:00002190       ??_R0?AV?$IFXArray@VMoveTo@U3D_IDTF@@@@@8 00529190     FileParser.obj
 0003:000021d0       ??_R3?$IFXArray@VMoveTo@U3D_IDTF@@@@8 005291d0     FileParser.obj
 0003:000021e8       ??_R2?$IFXArray@VMoveTo@U3D_IDTF@@@@8 005291e8     FileParser.obj
 0003:000021f8       ??_R1A@?0A@A@?$IFXArray@VMoveTo@U3D_IDTF@@@@8 005291f8     FileParser.obj
 0003:00002218       ??_R4?$IFXArray@VLineTo@U3D_IDTF@@@@6B@ 00529218     FileParser.obj
 0003:00002238       ??_R0?AV?$IFXArray@VLineTo@U3D_IDTF@@@@@8 00529238     FileParser.obj
 0003:00002278       ??_R3?$IFXArray@VLineTo@U3D_IDTF@@@@8 00529278     FileParser.obj
 0003:00002290       ??_R2?$IFXArray@VLineTo@U3D_IDTF@@@@8 00529290     FileParser.obj
 0003:000022a0       ??_R1A@?0A@A@?$IFXArray@VLineTo@U3D_IDTF@@@@8 005292a0     FileParser.obj
 0003:000022c0       ??_R4?$IFXArray@VCurveTo@U3D_IDTF@@@@6B@ 005292c0     FileParser.obj
 0003:000022e0       ??_R0?AV?$IFXArray@VCurveTo@U3D_IDTF@@@@@8 005292e0     FileParser.obj
 0003:00002320       ??_R3?$IFXArray@VCurveTo@U3D_IDTF@@@@8 00529320     FileParser.obj
 0003:00002338       ??_R2?$IFXArray@VCurveTo@U3D_IDTF@@@@8 00529338     FileParser.obj
 0003:00002348       ??_R1A@?0A@A@?$IFXArray@VCurveTo@U3D_IDTF@@@@8 00529348     FileParser.obj
 0003:00002368       ??_R4GlyphModifier@U3D_IDTF@@6B@ 00529368     FileParser.obj
 0003:00002388       ??_R0?AVGlyphModifier@U3D_IDTF@@@8 00529388     FileParser.obj
 0003:000023b8       ??_R3GlyphModifier@U3D_IDTF@@8 005293b8     FileParser.obj
 0003:000023d0       ??_R2GlyphModifier@U3D_IDTF@@8 005293d0     FileParser.obj
 0003:000023e8       ??_R1A@?0A@A@GlyphModifier@U3D_IDTF@@8 005293e8     FileParser.obj
 0003:00002408       ??_R4FileParser@U3D_IDTF@@6B@ 00529408     FileParser.obj
 0003:00002428       ??_R0?AVFileParser@U3D_IDTF@@@8 00529428     FileParser.obj
 0003:00002458       ??_R3FileParser@U3D_IDTF@@8 00529458     FileParser.obj
 0003:00002470       ??_R2FileParser@U3D_IDTF@@8 00529470     FileParser.obj
 0003:00002488       ??_R1A@?0A@A@FileParser@U3D_IDTF@@8 00529488     FileParser.obj
 0003:000024a8       ??_R4IFXException@@6B@     005294a8     FileReferenceConverter.obj
 0003:000024c8       ??_R0?AVIFXException@@@8   005294c8     FileReferenceConverter.obj
 0003:000024f0       ??_R3IFXException@@8       005294f0     FileReferenceConverter.obj
 0003:00002508       ??_R2IFXException@@8       00529508     FileReferenceConverter.obj
 0003:00002518       ??_R1A@?0A@A@IFXException@@8 00529518     FileReferenceConverter.obj
 0003:00002538       ??_R4IConverter@U3D_IDTF@@6B@ 00529538     FileReferenceConverter.obj
 0003:00002558       ??_R0?AVIConverter@U3D_IDTF@@@8 00529558     FileReferenceConverter.obj
 0003:00002588       ??_R3IConverter@U3D_IDTF@@8 00529588     FileReferenceConverter.obj
 0003:000025a0       ??_R2IConverter@U3D_IDTF@@8 005295a0     FileReferenceConverter.obj
 0003:000025b0       ??_R1A@?0A@A@IConverter@U3D_IDTF@@8 005295b0     FileReferenceConverter.obj
 0003:000025d0       ??_R4FileReferenceConverter@U3D_IDTF@@6B@ 005295d0     FileReferenceConverter.obj
 0003:000025f0       ??_R0?AVFileReferenceConverter@U3D_IDTF@@@8 005295f0     FileReferenceConverter.obj
 0003:00002630       ??_R3FileReferenceConverter@U3D_IDTF@@8 00529630     FileReferenceConverter.obj
 0003:00002648       ??_R2FileReferenceConverter@U3D_IDTF@@8 00529648     FileReferenceConverter.obj
 0003:00002658       ??_R1A@?0A@A@FileReferenceConverter@U3D_IDTF@@8 00529658     FileReferenceConverter.obj
 0003:00002678       ??_R4?$IFXArray@UIFXObjectFilter@@@@6B@ 00529678     FileReferenceConverter.obj
 0003:00002698       ??_R0?AV?$IFXArray@UIFXObjectFilter@@@@@8 00529698     FileReferenceConverter.obj
 0003:000026d8       ??_R3?$IFXArray@UIFXObjectFilter@@@@8 005296d8     FileReferenceConverter.obj
 0003:000026f0       ??_R2?$IFXArray@UIFXObjectFilter@@@@8 005296f0     FileReferenceConverter.obj
 0003:00002700       ??_R1A@?0A@A@?$IFXArray@UIFXObjectFilter@@@@8 00529700     FileReferenceConverter.obj
 0003:00002720       __CTA1?AVIFXException@@    00529720     FileReferenceConverter.obj
 0003:00002730       __CT??_R0?AVIFXException@@@8IFXException@20 00529730     FileReferenceConverter.obj
 0003:00002758       __TI1?AVIFXException@@     00529758     FileReferenceConverter.obj
 0003:00002770       ??_R4UrlList@U3D_IDTF@@6B@ 00529770     FileReferenceParser.obj
 0003:00002790       ??_R0?AVUrlList@U3D_IDTF@@@8 00529790     FileReferenceParser.obj
 0003:000027b8       ??_R3UrlList@U3D_IDTF@@8   005297b8     FileReferenceParser.obj
 0003:000027d0       ??_R2UrlList@U3D_IDTF@@8   005297d0     FileReferenceParser.obj
 0003:000027e0       ??_R1A@?0A@A@UrlList@U3D_IDTF@@8 005297e0     FileReferenceParser.obj
 0003:00002800       ??_R4FileReferenceParser@U3D_IDTF@@6B@ 00529800     FileReferenceParser.obj
 0003:00002820       ??_R0?AVFileReferenceParser@U3D_IDTF@@@8 00529820     FileReferenceParser.obj
 0003:00002860       ??_R3FileReferenceParser@U3D_IDTF@@8 00529860     FileReferenceParser.obj
 0003:00002878       ??_R2FileReferenceParser@U3D_IDTF@@8 00529878     FileReferenceParser.obj
 0003:00002890       ??_R1A@?0A@A@FileReferenceParser@U3D_IDTF@@8 00529890     FileReferenceParser.obj
 0003:000028b0       ??_R4FileScanner@U3D_IDTF@@6B@ 005298b0     FileScanner.obj
 0003:000028d0       ??_R0?AVFileScanner@U3D_IDTF@@@8 005298d0     FileScanner.obj
 0003:00002900       ??_R3FileScanner@U3D_IDTF@@8 00529900     FileScanner.obj
 0003:00002918       ??_R2FileScanner@U3D_IDTF@@8 00529918     FileScanner.obj
 0003:00002928       ??_R1A@?0A@A@FileScanner@U3D_IDTF@@8 00529928     FileScanner.obj
 0003:00002948       ??_R4LineSetConverter@U3D_IDTF@@6B@ 00529948     LineSetConverter.obj
 0003:00002968       ??_R0?AVLineSetConverter@U3D_IDTF@@@8 00529968     LineSetConverter.obj
 0003:00002998       ??_R3LineSetConverter@U3D_IDTF@@8 00529998     LineSetConverter.obj
 0003:000029b0       ??_R2LineSetConverter@U3D_IDTF@@8 005299b0     LineSetConverter.obj
 0003:000029c8       ??_R1A@?0A@A@LineSetConverter@U3D_IDTF@@8 005299c8     LineSetConverter.obj
 0003:000029e8       ??_R1A@?0A@A@ModelConverter@U3D_IDTF@@8 005299e8     LineSetConverter.obj
 0003:00002a08       ??_R0?AVModelConverter@U3D_IDTF@@@8 00529a08     LineSetConverter.obj
 0003:00002a38       ??_R4Int2@U3D_IDTF@@6B@    00529a38     LineSetResourceParser.obj
 0003:00002a58       ??_R0?AVInt2@U3D_IDTF@@@8  00529a58     LineSetResourceParser.obj
 0003:00002a80       ??_R3Int2@U3D_IDTF@@8      00529a80     LineSetResourceParser.obj
 0003:00002a98       ??_R2Int2@U3D_IDTF@@8      00529a98     LineSetResourceParser.obj
 0003:00002aa8       ??_R1A@?0A@A@Int2@U3D_IDTF@@8 00529aa8     LineSetResourceParser.obj
 0003:00002ac8       ??_R4LineSetResourceParser@U3D_IDTF@@6B@ 00529ac8     LineSetResourceParser.obj
 0003:00002ae8       ??_R0?AVLineSetResourceParser@U3D_IDTF@@@8 00529ae8     LineSetResourceParser.obj
 0003:00002b28       ??_R3LineSetResourceParser@U3D_IDTF@@8 00529b28     LineSetResourceParser.obj
 0003:00002b40       ??_R2LineSetResourceParser@U3D_IDTF@@8 00529b40     LineSetResourceParser.obj
 0003:00002b58       ??_R1A@?0A@A@LineSetResourceParser@U3D_IDTF@@8 00529b58     LineSetResourceParser.obj
 0003:00002b78       ??_R1A@?0A@A@ModelResourceParser@U3D_IDTF@@8 00529b78     LineSetResourceParser.obj
 0003:00002b98       ??_R0?AVModelResourceParser@U3D_IDTF@@@8 00529b98     LineSetResourceParser.obj
 0003:00002bd8       ??_R4MaterialParser@U3D_IDTF@@6B@ 00529bd8     MaterialParser.obj
 0003:00002bf8       ??_R0?AVMaterialParser@U3D_IDTF@@@8 00529bf8     MaterialParser.obj
 0003:00002c28       ??_R3MaterialParser@U3D_IDTF@@8 00529c28     MaterialParser.obj
 0003:00002c40       ??_R2MaterialParser@U3D_IDTF@@8 00529c40     MaterialParser.obj
 0003:00002c58       ??_R1A@?0A@A@MaterialParser@U3D_IDTF@@8 00529c58     MaterialParser.obj
 0003:00002c78       ??_R4MeshConverter@U3D_IDTF@@6B@ 00529c78     MeshConverter.obj
 0003:00002c98       ??_R0?AVMeshConverter@U3D_IDTF@@@8 00529c98     MeshConverter.obj
 0003:00002cc8       ??_R3MeshConverter@U3D_IDTF@@8 00529cc8     MeshConverter.obj
 0003:00002ce0       ??_R2MeshConverter@U3D_IDTF@@8 00529ce0     MeshConverter.obj
 0003:00002cf8       ??_R1A@?0A@A@MeshConverter@U3D_IDTF@@8 00529cf8     MeshConverter.obj
 0003:00002d18       ??_R4Int3@U3D_IDTF@@6B@    00529d18     MeshResourceParser.obj
 0003:00002d38       ??_R0?AVInt3@U3D_IDTF@@@8  00529d38     MeshResourceParser.obj
 0003:00002d60       ??_R3Int3@U3D_IDTF@@8      00529d60     MeshResourceParser.obj
 0003:00002d78       ??_R2Int3@U3D_IDTF@@8      00529d78     MeshResourceParser.obj
 0003:00002d88       ??_R1A@?0A@A@Int3@U3D_IDTF@@8 00529d88     MeshResourceParser.obj
 0003:00002da8       ??_R4MeshResourceParser@U3D_IDTF@@6B@ 00529da8     MeshResourceParser.obj
 0003:00002dc8       ??_R0?AVMeshResourceParser@U3D_IDTF@@@8 00529dc8     MeshResourceParser.obj
 0003:00002e08       ??_R3MeshResourceParser@U3D_IDTF@@8 00529e08     MeshResourceParser.obj
 0003:00002e20       ??_R2MeshResourceParser@U3D_IDTF@@8 00529e20     MeshResourceParser.obj
 0003:00002e38       ??_R1A@?0A@A@MeshResourceParser@U3D_IDTF@@8 00529e38     MeshResourceParser.obj
 0003:00002e58       ??_R4MetaDataConverter@U3D_IDTF@@6B@ 00529e58     MetaDataConverter.obj
 0003:00002e78       ??_R0?AVMetaDataConverter@U3D_IDTF@@@8 00529e78     MetaDataConverter.obj
 0003:00002eb8       ??_R3MetaDataConverter@U3D_IDTF@@8 00529eb8     MetaDataConverter.obj
 0003:00002ed0       ??_R2MetaDataConverter@U3D_IDTF@@8 00529ed0     MetaDataConverter.obj
 0003:00002ee0       ??_R1A@?0A@A@MetaDataConverter@U3D_IDTF@@8 00529ee0     MetaDataConverter.obj
 0003:00002f00       ??_R4MetaDataParser@U3D_IDTF@@6B@ 00529f00     MetaDataParser.obj
 0003:00002f20       ??_R3MetaDataParser@U3D_IDTF@@8 00529f20     MetaDataParser.obj
 0003:00002f38       ??_R2MetaDataParser@U3D_IDTF@@8 00529f38     MetaDataParser.obj
 0003:00002f48       ??_R4ModelConverter@U3D_IDTF@@6B@ 00529f48     ModelConverter.obj
 0003:00002f68       ??_R3ModelConverter@U3D_IDTF@@8 00529f68     ModelConverter.obj
 0003:00002f80       ??_R2ModelConverter@U3D_IDTF@@8 00529f80     ModelConverter.obj
 0003:00002f90       ??_R4Point@U3D_IDTF@@6B@   00529f90     ModelResourceParser.obj
 0003:00002fb0       ??_R0?AVPoint@U3D_IDTF@@@8 00529fb0     ModelResourceParser.obj
 0003:00002fd8       ??_R3Point@U3D_IDTF@@8     00529fd8     ModelResourceParser.obj
 0003:00002ff0       ??_R2Point@U3D_IDTF@@8     00529ff0     ModelResourceParser.obj
 0003:00003000       ??_R1A@?0A@A@Point@U3D_IDTF@@8 0052a000     ModelResourceParser.obj
 0003:00003020       ??_R4Color@U3D_IDTF@@6B@   0052a020     ModelResourceParser.obj
 0003:00003040       ??_R0?AVColor@U3D_IDTF@@@8 0052a040     ModelResourceParser.obj
 0003:00003068       ??_R3Color@U3D_IDTF@@8     0052a068     ModelResourceParser.obj
 0003:00003080       ??_R2Color@U3D_IDTF@@8     0052a080     ModelResourceParser.obj
 0003:00003090       ??_R1A@?0A@A@Color@U3D_IDTF@@8 0052a090     ModelResourceParser.obj
 0003:000030b0       ??_R4?$IFXArray@I@@6B@     0052a0b0     ModelResourceParser.obj
 0003:000030d0       ??_R0?AV?$IFXArray@I@@@8   0052a0d0     ModelResourceParser.obj
 0003:000030f8       ??_R3?$IFXArray@I@@8       0052a0f8     ModelResourceParser.obj
 0003:00003110       ??_R2?$IFXArray@I@@8       0052a110     ModelResourceParser.obj
 0003:00003120       ??_R1A@?0A@A@?$IFXArray@I@@8 0052a120     ModelResourceParser.obj
 0003:00003140       ??_R4Quat@U3D_IDTF@@6B@    0052a140     ModelResourceParser.obj
 0003:00003160       ??_R0?AVQuat@U3D_IDTF@@@8  0052a160     ModelResourceParser.obj
 0003:00003188       ??_R3Quat@U3D_IDTF@@8      0052a188     ModelResourceParser.obj
 0003:000031a0       ??_R2Quat@U3D_IDTF@@8      0052a1a0     ModelResourceParser.obj
 0003:000031b0       ??_R1A@?0A@A@Quat@U3D_IDTF@@8 0052a1b0     ModelResourceParser.obj
 0003:000031d0       ??_R4ModelResourceParser@U3D_IDTF@@6B@ 0052a1d0     ModelResourceParser.obj
 0003:000031f0       ??_R3ModelResourceParser@U3D_IDTF@@8 0052a1f0     ModelResourceParser.obj
 0003:00003208       ??_R2ModelResourceParser@U3D_IDTF@@8 0052a208     ModelResourceParser.obj
 0003:00003220       ??_R4ModifierConverter@U3D_IDTF@@6B@ 0052a220     ModifierConverter.obj
 0003:00003240       ??_R0?AVModifierConverter@U3D_IDTF@@@8 0052a240     ModifierConverter.obj
 0003:00003280       ??_R3ModifierConverter@U3D_IDTF@@8 0052a280     ModifierConverter.obj
 0003:00003298       ??_R2ModifierConverter@U3D_IDTF@@8 0052a298     ModifierConverter.obj
 0003:000032a8       ??_R1A@?0A@A@ModifierConverter@U3D_IDTF@@8 0052a2a8     ModifierConverter.obj
 0003:000032c8       ??_R4ModifierParser@U3D_IDTF@@6B@ 0052a2c8     ModifierParser.obj
 0003:000032e8       ??_R0?AVModifierParser@U3D_IDTF@@@8 0052a2e8     ModifierParser.obj
 0003:00003318       ??_R3ModifierParser@U3D_IDTF@@8 0052a318     ModifierParser.obj
 0003:00003330       ??_R2ModifierParser@U3D_IDTF@@8 0052a330     ModifierParser.obj
 0003:00003348       ??_R1A@?0A@A@ModifierParser@U3D_IDTF@@8 0052a348     ModifierParser.obj
 0003:00003368       ??_R4IFXViewLayer@@6B@     0052a368     NodeConverter.obj
 0003:00003388       ??_R0?AVIFXViewLayer@@@8   0052a388     NodeConverter.obj
 0003:000033b0       ??_R3IFXViewLayer@@8       0052a3b0     NodeConverter.obj
 0003:000033c8       ??_R2IFXViewLayer@@8       0052a3c8     NodeConverter.obj
 0003:000033d8       ??_R1A@?0A@A@IFXViewLayer@@8 0052a3d8     NodeConverter.obj
 0003:000033f8       ??_R4NodeConverter@U3D_IDTF@@6B@ 0052a3f8     NodeConverter.obj
 0003:00003418       ??_R0?AVNodeConverter@U3D_IDTF@@@8 0052a418     NodeConverter.obj
 0003:00003448       ??_R3NodeConverter@U3D_IDTF@@8 0052a448     NodeConverter.obj
 0003:00003460       ??_R2NodeConverter@U3D_IDTF@@8 0052a460     NodeConverter.obj
 0003:00003470       ??_R1A@?0A@A@NodeConverter@U3D_IDTF@@8 0052a470     NodeConverter.obj
 0003:00003490       ??_R4ParentData@U3D_IDTF@@6B@ 0052a490     NodeParser.obj
 0003:000034b0       ??_R0?AVParentData@U3D_IDTF@@@8 0052a4b0     NodeParser.obj
 0003:000034e0       ??_R3ParentData@U3D_IDTF@@8 0052a4e0     NodeParser.obj
 0003:000034f8       ??_R2ParentData@U3D_IDTF@@8 0052a4f8     NodeParser.obj
 0003:00003508       ??_R1A@?0A@A@ParentData@U3D_IDTF@@8 0052a508     NodeParser.obj
 0003:00003528       ??_R4NodeParser@U3D_IDTF@@6B@ 0052a528     NodeParser.obj
 0003:00003548       ??_R0?AVNodeParser@U3D_IDTF@@@8 0052a548     NodeParser.obj
 0003:00003578       ??_R3NodeParser@U3D_IDTF@@8 0052a578     NodeParser.obj
 0003:00003590       ??_R2NodeParser@U3D_IDTF@@8 0052a590     NodeParser.obj
 0003:000035a8       ??_R1A@?0A@A@NodeParser@U3D_IDTF@@8 0052a5a8     NodeParser.obj
 0003:000035c8       ??_R4PointSetConverter@U3D_IDTF@@6B@ 0052a5c8     PointSetConverter.obj
 0003:000035e8       ??_R0?AVPointSetConverter@U3D_IDTF@@@8 0052a5e8     PointSetConverter.obj
 0003:00003628       ??_R3PointSetConverter@U3D_IDTF@@8 0052a628     PointSetConverter.obj
 0003:00003640       ??_R2PointSetConverter@U3D_IDTF@@8 0052a640     PointSetConverter.obj
 0003:00003658       ??_R1A@?0A@A@PointSetConverter@U3D_IDTF@@8 0052a658     PointSetConverter.obj
 0003:00003678       ??_R4PointSetResourceParser@U3D_IDTF@@6B@ 0052a678     PointSetResourceParser.obj
 0003:00003698       ??_R0?AVPointSetResourceParser@U3D_IDTF@@@8 0052a698     PointSetResourceParser.obj
 0003:000036d8       ??_R3PointSetResourceParser@U3D_IDTF@@8 0052a6d8     PointSetResourceParser.obj
 0003:000036f0       ??_R2PointSetResourceParser@U3D_IDTF@@8 0052a6f0     PointSetResourceParser.obj
 0003:00003708       ??_R1A@?0A@A@PointSetResourceParser@U3D_IDTF@@8 0052a708     PointSetResourceParser.obj
 0003:00003728       ??_R4ResourceConverter@U3D_IDTF@@6B@ 0052a728     ResourceConverter.obj
 0003:00003748       ??_R0?AVResourceConverter@U3D_IDTF@@@8 0052a748     ResourceConverter.obj
 0003:00003788       ??_R3ResourceConverter@U3D_IDTF@@8 0052a788     ResourceConverter.obj
 0003:000037a0       ??_R2ResourceConverter@U3D_IDTF@@8 0052a7a0     ResourceConverter.obj
 0003:000037b0       ??_R1A@?0A@A@ResourceConverter@U3D_IDTF@@8 0052a7b0     ResourceConverter.obj
 0003:000037d0       ??_R4Resource@U3D_IDTF@@6B@ 0052a7d0     ResourceListParser.obj
 0003:000037f0       ??_R0?AVResource@U3D_IDTF@@@8 0052a7f0     ResourceListParser.obj
 0003:00003818       ??_R3Resource@U3D_IDTF@@8  0052a818     ResourceListParser.obj
 0003:00003830       ??_R2Resource@U3D_IDTF@@8  0052a830     ResourceListParser.obj
 0003:00003840       ??_R1A@?0A@A@Resource@U3D_IDTF@@8 0052a840     ResourceListParser.obj
 0003:00003860       ??_R4ViewResource@U3D_IDTF@@6B@ 0052a860     ResourceListParser.obj
 0003:00003880       ??_R0?AVViewResource@U3D_IDTF@@@8 0052a880     ResourceListParser.obj
 0003:000038b0       ??_R3ViewResource@U3D_IDTF@@8 0052a8b0     ResourceListParser.obj
 0003:000038c8       ??_R2ViewResource@U3D_IDTF@@8 0052a8c8     ResourceListParser.obj
 0003:000038e0       ??_R1A@?0A@A@ViewResource@U3D_IDTF@@8 0052a8e0     ResourceListParser.obj
 0003:00003900       ??_R4LightResource@U3D_IDTF@@6B@ 0052a900     ResourceListParser.obj
 0003:00003920       ??_R0?AVLightResource@U3D_IDTF@@@8 0052a920     ResourceListParser.obj
 0003:00003950       ??_R3LightResource@U3D_IDTF@@8 0052a950     ResourceListParser.obj
 0003:00003968       ??_R2LightResource@U3D_IDTF@@8 0052a968     ResourceListParser.obj
 0003:00003980       ??_R1A@?0A@A@LightResource@U3D_IDTF@@8 0052a980     ResourceListParser.obj
 0003:000039a0       ??_R4MeshResource@U3D_IDTF@@6B@ 0052a9a0     ResourceListParser.obj
 0003:000039c0       ??_R0?AVMeshResource@U3D_IDTF@@@8 0052a9c0     ResourceListParser.obj
 0003:000039f0       ??_R3MeshResource@U3D_IDTF@@8 0052a9f0     ResourceListParser.obj
 0003:00003a08       ??_R2MeshResource@U3D_IDTF@@8 0052aa08     ResourceListParser.obj
 0003:00003a20       ??_R1A@?0A@A@MeshResource@U3D_IDTF@@8 0052aa20     ResourceListParser.obj
 0003:00003a40       ??_R1A@?0A@A@ModelResource@U3D_IDTF@@8 0052aa40     ResourceListParser.obj
 0003:00003a60       ??_R0?AVModelResource@U3D_IDTF@@@8 0052aa60     ResourceListParser.obj
 0003:00003a90       ??_R4?$IFXArray@VInt3@U3D_IDTF@@@@6B@ 0052aa90     ResourceListParser.obj
 0003:00003ab0       ??_R0?AV?$IFXArray@VInt3@U3D_IDTF@@@@@8 0052aab0     ResourceListParser.obj
 0003:00003af0       ??_R3?$IFXArray@VInt3@U3D_IDTF@@@@8 0052aaf0     ResourceListParser.obj
 0003:00003b08       ??_R2?$IFXArray@VInt3@U3D_IDTF@@@@8 0052ab08     ResourceListParser.obj
 0003:00003b18       ??_R1A@?0A@A@?$IFXArray@VInt3@U3D_IDTF@@@@8 0052ab18     ResourceListParser.obj
 0003:00003b38       ??_R4?$IFXArray@UFaceTexCoords@U3D_IDTF@@@@6B@ 0052ab38     ResourceListParser.obj
 0003:00003b58       ??_R0?AV?$IFXArray@UFaceTexCoords@U3D_IDTF@@@@@8 0052ab58     ResourceListParser.obj
 0003:00003ba0       ??_R3?$IFXArray@UFaceTexCoords@U3D_IDTF@@@@8 0052aba0     ResourceListParser.obj
 0003:00003bb8       ??_R2?$IFXArray@UFaceTexCoords@U3D_IDTF@@@@8 0052abb8     ResourceListParser.obj
 0003:00003bc8       ??_R1A@?0A@A@?$IFXArray@UFaceTexCoords@U3D_IDTF@@@@8 0052abc8     ResourceListParser.obj
 0003:00003be8       ??_R4LineSetResource@U3D_IDTF@@6B@ 0052abe8     ResourceListParser.obj
 0003:00003c08       ??_R0?AVLineSetResource@U3D_IDTF@@@8 0052ac08     ResourceListParser.obj
 0003:00003c38       ??_R3LineSetResource@U3D_IDTF@@8 0052ac38     ResourceListParser.obj
 0003:00003c50       ??_R2LineSetResource@U3D_IDTF@@8 0052ac50     ResourceListParser.obj
 0003:00003c68       ??_R1A@?0A@A@LineSetResource@U3D_IDTF@@8 0052ac68     ResourceListParser.obj
 0003:00003c88       ??_R4?$IFXArray@VInt2@U3D_IDTF@@@@6B@ 0052ac88     ResourceListParser.obj
 0003:00003ca8       ??_R0?AV?$IFXArray@VInt2@U3D_IDTF@@@@@8 0052aca8     ResourceListParser.obj
 0003:00003ce8       ??_R3?$IFXArray@VInt2@U3D_IDTF@@@@8 0052ace8     ResourceListParser.obj
 0003:00003d00       ??_R2?$IFXArray@VInt2@U3D_IDTF@@@@8 0052ad00     ResourceListParser.obj
 0003:00003d10       ??_R1A@?0A@A@?$IFXArray@VInt2@U3D_IDTF@@@@8 0052ad10     ResourceListParser.obj
 0003:00003d30       ??_R4?$IFXArray@ULineTexCoords@U3D_IDTF@@@@6B@ 0052ad30     ResourceListParser.obj
 0003:00003d50       ??_R0?AV?$IFXArray@ULineTexCoords@U3D_IDTF@@@@@8 0052ad50     ResourceListParser.obj
 0003:00003d98       ??_R3?$IFXArray@ULineTexCoords@U3D_IDTF@@@@8 0052ad98     ResourceListParser.obj
 0003:00003db0       ??_R2?$IFXArray@ULineTexCoords@U3D_IDTF@@@@8 0052adb0     ResourceListParser.obj
 0003:00003dc0       ??_R1A@?0A@A@?$IFXArray@ULineTexCoords@U3D_IDTF@@@@8 0052adc0     ResourceListParser.obj
 0003:00003de0       ??_R4PointSetResource@U3D_IDTF@@6B@ 0052ade0     ResourceListParser.obj
 0003:00003e00       ??_R0?AVPointSetResource@U3D_IDTF@@@8 0052ae00     ResourceListParser.obj
 0003:00003e30       ??_R3PointSetResource@U3D_IDTF@@8 0052ae30     ResourceListParser.obj
 0003:00003e48       ??_R2PointSetResource@U3D_IDTF@@8 0052ae48     ResourceListParser.obj
 0003:00003e60       ??_R1A@?0A@A@PointSetResource@U3D_IDTF@@8 0052ae60     ResourceListParser.obj
 0003:00003e80       ??_R4?$IFXArray@UPointTexCoords@U3D_IDTF@@@@6B@ 0052ae80     ResourceListParser.obj
 0003:00003ea0       ??_R0?AV?$IFXArray@UPointTexCoords@U3D_IDTF@@@@@8 0052aea0     ResourceListParser.obj
 0003:00003ee8       ??_R3?$IFXArray@UPointTexCoords@U3D_IDTF@@@@8 0052aee8     ResourceListParser.obj
 0003:00003f00       ??_R2?$IFXArray@UPointTexCoords@U3D_IDTF@@@@8 0052af00     ResourceListParser.obj
 0003:00003f10       ??_R1A@?0A@A@?$IFXArray@UPointTexCoords@U3D_IDTF@@@@8 0052af10     ResourceListParser.obj
 0003:00003f30       ??_R4TextureLayer@U3D_IDTF@@6B@ 0052af30     ResourceListParser.obj
 0003:00003f50       ??_R0?AVTextureLayer@U3D_IDTF@@@8 0052af50     ResourceListParser.obj
 0003:00003f80       ??_R3TextureLayer@U3D_IDTF@@8 0052af80     ResourceListParser.obj
 0003:00003f98       ??_R2TextureLayer@U3D_IDTF@@8 0052af98     ResourceListParser.obj
 0003:00003fa8       ??_R1A@?0A@A@TextureLayer@U3D_IDTF@@8 0052afa8     ResourceListParser.obj
 0003:00003fc8       ??_R4Shader@U3D_IDTF@@6B@  0052afc8     ResourceListParser.obj
 0003:00003fe8       ??_R0?AVShader@U3D_IDTF@@@8 0052afe8     ResourceListParser.obj
 0003:00004010       ??_R3Shader@U3D_IDTF@@8    0052b010     ResourceListParser.obj
 0003:00004028       ??_R2Shader@U3D_IDTF@@8    0052b028     ResourceListParser.obj
 0003:00004040       ??_R1A@?0A@A@Shader@U3D_IDTF@@8 0052b040     ResourceListParser.obj
 0003:00004060       ??_R4?$IFXArray@VTextureLayer@U3D_IDTF@@@@6B@ 0052b060     ResourceListParser.obj
 0003:00004080       ??_R0?AV?$IFXArray@VTextureLayer@U3D_IDTF@@@@@8 0052b080     ResourceListParser.obj
 0003:000040c8       ??_R3?$IFXArray@VTextureLayer@U3D_IDTF@@@@8 0052b0c8     ResourceListParser.obj
 0003:000040e0       ??_R2?$IFXArray@VTextureLayer@U3D_IDTF@@@@8 0052b0e0     ResourceListParser.obj
 0003:000040f0       ??_R1A@?0A@A@?$IFXArray@VTextureLayer@U3D_IDTF@@@@8 0052b0f0     ResourceListParser.obj
 0003:00004110       ??_R4Material@U3D_IDTF@@6B@ 0052b110     ResourceListParser.obj
 0003:00004130       ??_R0?AVMaterial@U3D_IDTF@@@8 0052b130     ResourceListParser.obj
 0003:00004158       ??_R3Material@U3D_IDTF@@8  0052b158     ResourceListParser.obj
 0003:00004170       ??_R2Material@U3D_IDTF@@8  0052b170     ResourceListParser.obj
 0003:00004188       ??_R1A@?0A@A@Material@U3D_IDTF@@8 0052b188     ResourceListParser.obj
 0003:000041a8       ??_R4ImageFormat@U3D_IDTF@@6B@ 0052b1a8     ResourceListParser.obj
 0003:000041c8       ??_R0?AVImageFormat@U3D_IDTF@@@8 0052b1c8     ResourceListParser.obj
 0003:000041f8       ??_R3ImageFormat@U3D_IDTF@@8 0052b1f8     ResourceListParser.obj
 0003:00004210       ??_R2ImageFormat@U3D_IDTF@@8 0052b210     ResourceListParser.obj
 0003:00004220       ??_R1A@?0A@A@ImageFormat@U3D_IDTF@@8 0052b220     ResourceListParser.obj
 0003:00004240       ??_R4Texture@U3D_IDTF@@6B@ 0052b240     ResourceListParser.obj
 0003:00004260       ??_R0?AVTexture@U3D_IDTF@@@8 0052b260     ResourceListParser.obj
 0003:00004288       ??_R3Texture@U3D_IDTF@@8   0052b288     ResourceListParser.obj
 0003:000042a0       ??_R2Texture@U3D_IDTF@@8   0052b2a0     ResourceListParser.obj
 0003:000042b8       ??_R1A@?0A@A@Texture@U3D_IDTF@@8 0052b2b8     ResourceListParser.obj
 0003:000042d8       ??_R4?$IFXArray@VImageFormat@U3D_IDTF@@@@6B@ 0052b2d8     ResourceListParser.obj
 0003:000042f8       ??_R0?AV?$IFXArray@VImageFormat@U3D_IDTF@@@@@8 0052b2f8     ResourceListParser.obj
 0003:00004340       ??_R3?$IFXArray@VImageFormat@U3D_IDTF@@@@8 0052b340     ResourceListParser.obj
 0003:00004358       ??_R2?$IFXArray@VImageFormat@U3D_IDTF@@@@8 0052b358     ResourceListParser.obj
 0003:00004368       ??_R1A@?0A@A@?$IFXArray@VImageFormat@U3D_IDTF@@@@8 0052b368     ResourceListParser.obj
 0003:00004388       ??_R4?$IFXArray@UKeyFrame@U3D_IDTF@@@@6B@ 0052b388     ResourceListParser.obj
 0003:000043a8       ??_R0?AV?$IFXArray@UKeyFrame@U3D_IDTF@@@@@8 0052b3a8     ResourceListParser.obj
 0003:000043e8       ??_R3?$IFXArray@UKeyFrame@U3D_IDTF@@@@8 0052b3e8     ResourceListParser.obj
 0003:00004400       ??_R2?$IFXArray@UKeyFrame@U3D_IDTF@@@@8 0052b400     ResourceListParser.obj
 0003:00004410       ??_R1A@?0A@A@?$IFXArray@UKeyFrame@U3D_IDTF@@@@8 0052b410     ResourceListParser.obj
 0003:00004430       ??_R4MotionResource@U3D_IDTF@@6B@ 0052b430     ResourceListParser.obj
 0003:00004450       ??_R0?AVMotionResource@U3D_IDTF@@@8 0052b450     ResourceListParser.obj
 0003:00004480       ??_R3MotionResource@U3D_IDTF@@8 0052b480     ResourceListParser.obj
 0003:00004498       ??_R2MotionResource@U3D_IDTF@@8 0052b498     ResourceListParser.obj
 0003:000044b0       ??_R1A@?0A@A@MotionResource@U3D_IDTF@@8 0052b4b0     ResourceListParser.obj
 0003:000044d0       ??_R4?$IFXArray@VMotionTrack@U3D_IDTF@@@@6B@ 0052b4d0     ResourceListParser.obj
 0003:000044f0       ??_R0?AV?$IFXArray@VMotionTrack@U3D_IDTF@@@@@8 0052b4f0     ResourceListParser.obj
 0003:00004538       ??_R3?$IFXArray@VMotionTrack@U3D_IDTF@@@@8 0052b538     ResourceListParser.obj
 0003:00004550       ??_R2?$IFXArray@VMotionTrack@U3D_IDTF@@@@8 0052b550     ResourceListParser.obj
 0003:00004560       ??_R1A@?0A@A@?$IFXArray@VMotionTrack@U3D_IDTF@@@@8 0052b560     ResourceListParser.obj
 0003:00004580       ??_R4ResourceListParser@U3D_IDTF@@6B@ 0052b580     ResourceListParser.obj
 0003:000045a0       ??_R0?AVResourceListParser@U3D_IDTF@@@8 0052b5a0     ResourceListParser.obj
 0003:000045e0       ??_R3ResourceListParser@U3D_IDTF@@8 0052b5e0     ResourceListParser.obj
 0003:000045f8       ??_R2ResourceListParser@U3D_IDTF@@8 0052b5f8     ResourceListParser.obj
 0003:00004610       ??_R1A@?0A@A@ResourceListParser@U3D_IDTF@@8 0052b610     ResourceListParser.obj
 0003:00004630       ??_R4SceneData@U3D_IDTF@@6B@ 0052b630     SceneConverter.obj
 0003:00004650       ??_R0?AVSceneData@U3D_IDTF@@@8 0052b650     SceneConverter.obj
 0003:00004680       ??_R3SceneData@U3D_IDTF@@8 0052b680     SceneConverter.obj
 0003:00004698       ??_R2SceneData@U3D_IDTF@@8 0052b698     SceneConverter.obj
 0003:000046a8       ??_R1A@?0A@A@SceneData@U3D_IDTF@@8 0052b6a8     SceneConverter.obj
 0003:000046c8       ??_R4SceneConverter@U3D_IDTF@@6B@ 0052b6c8     SceneConverter.obj
 0003:000046e8       ??_R0?AVSceneConverter@U3D_IDTF@@@8 0052b6e8     SceneConverter.obj
 0003:00004718       ??_R3SceneConverter@U3D_IDTF@@8 0052b718     SceneConverter.obj
 0003:00004730       ??_R2SceneConverter@U3D_IDTF@@8 0052b730     SceneConverter.obj
 0003:00004740       ??_R1A@?0A@A@SceneConverter@U3D_IDTF@@8 0052b740     SceneConverter.obj
 0003:00004760       ??_R4ShaderParser@U3D_IDTF@@6B@ 0052b760     ShaderParser.obj
 0003:00004780       ??_R0?AVShaderParser@U3D_IDTF@@@8 0052b780     ShaderParser.obj
 0003:000047b0       ??_R3ShaderParser@U3D_IDTF@@8 0052b7b0     ShaderParser.obj
 0003:000047c8       ??_R2ShaderParser@U3D_IDTF@@8 0052b7c8     ShaderParser.obj
 0003:000047e0       ??_R1A@?0A@A@ShaderParser@U3D_IDTF@@8 0052b7e0     ShaderParser.obj
 0003:00004800       ??_R4?$IFXArray@PAVIFXString@@@@6B@ 0052b800     TextureConverter.obj
 0003:00004820       ??_R0?AV?$IFXArray@PAVIFXString@@@@@8 0052b820     TextureConverter.obj
 0003:00004850       ??_R3?$IFXArray@PAVIFXString@@@@8 0052b850     TextureConverter.obj
 0003:00004868       ??_R2?$IFXArray@PAVIFXString@@@@8 0052b868     TextureConverter.obj
 0003:00004878       ??_R1A@?0A@A@?$IFXArray@PAVIFXString@@@@8 0052b878     TextureConverter.obj
 0003:00004898       ??_R4TextureConverter@U3D_IDTF@@6B@ 0052b898     TextureConverter.obj
 0003:000048b8       ??_R0?AVTextureConverter@U3D_IDTF@@@8 0052b8b8     TextureConverter.obj
 0003:000048e8       ??_R3TextureConverter@U3D_IDTF@@8 0052b8e8     TextureConverter.obj
 0003:00004900       ??_R2TextureConverter@U3D_IDTF@@8 0052b900     TextureConverter.obj
 0003:00004910       ??_R1A@?0A@A@TextureConverter@U3D_IDTF@@8 0052b910     TextureConverter.obj
 0003:00004930       ??_R4TextureParser@U3D_IDTF@@6B@ 0052b930     TextureParser.obj
 0003:00004950       ??_R0?AVTextureParser@U3D_IDTF@@@8 0052b950     TextureParser.obj
 0003:00004980       ??_R3TextureParser@U3D_IDTF@@8 0052b980     TextureParser.obj
 0003:00004998       ??_R2TextureParser@U3D_IDTF@@8 0052b998     TextureParser.obj
 0003:000049b0       ??_R1A@?0A@A@TextureParser@U3D_IDTF@@8 0052b9b0     TextureParser.obj
 0003:000049d0       ??_R4UrlListParser@U3D_IDTF@@6B@ 0052b9d0     UrlListParser.obj
 0003:000049f0       ??_R0?AVUrlListParser@U3D_IDTF@@@8 0052b9f0     UrlListParser.obj
 0003:00004a20       ??_R3UrlListParser@U3D_IDTF@@8 0052ba20     UrlListParser.obj
 0003:00004a38       ??_R2UrlListParser@U3D_IDTF@@8 0052ba38     UrlListParser.obj
 0003:00004a50       ??_R1A@?0A@A@UrlListParser@U3D_IDTF@@8 0052ba50     UrlListParser.obj
 0003:00004a70       ??_R4IFXString@@6B@        0052ba70     IFXCoreStatic:IFXString.obj
 0003:00004a88       ??_R0?AVIFXString@@@8      0052ba88     IFXCoreStatic:IFXString.obj
 0003:00004aa0       ??_R3IFXString@@8          0052baa0     IFXCoreStatic:IFXString.obj
 0003:00004ab0       ??_R2IFXString@@8          0052bab0     IFXCoreStatic:IFXString.obj
 0003:00004ab8       ??_R1A@?0A@A@IFXString@@8  0052bab8     IFXCoreStatic:IFXString.obj
 0003:00004ad8       ??_R4MetaDataList@U3D_IDTF@@6B@ 0052bad8     IDTFCommon:MetaDataList.obj
 0003:00004af0       ??_R3MetaDataList@U3D_IDTF@@8 0052baf0     IDTFCommon:MetaDataList.obj
 0003:00004b00       ??_R2MetaDataList@U3D_IDTF@@8 0052bb00     IDTFCommon:MetaDataList.obj
 0003:00004b08       ??_R4?$IFXArray@VMetaData@U3D_IDTF@@@@6B@ 0052bb08     IDTFCommon:MetaDataList.obj
 0003:00004b20       ??_R0?AV?$IFXArray@VMetaData@U3D_IDTF@@@@@8 0052bb20     IDTFCommon:MetaDataList.obj
 0003:00004b50       ??_R3?$IFXArray@VMetaData@U3D_IDTF@@@@8 0052bb50     IDTFCommon:MetaDataList.obj
 0003:00004b60       ??_R2?$IFXArray@VMetaData@U3D_IDTF@@@@8 0052bb60     IDTFCommon:MetaDataList.obj
 0003:00004b68       ??_R1A@?0A@A@?$IFXArray@VMetaData@U3D_IDTF@@@@8 0052bb68     IDTFCommon:MetaDataList.obj
 0003:00004b80       ??_R4StringMetaData@U3D_IDTF@@6B@ 0052bb80     IDTFCommon:MetaDataList.obj
 0003:00004b98       ??_R0?AVStringMetaData@U3D_IDTF@@@8 0052bb98     IDTFCommon:MetaDataList.obj
 0003:00004bc0       ??_R3StringMetaData@U3D_IDTF@@8 0052bbc0     IDTFCommon:MetaDataList.obj
 0003:00004bd0       ??_R2StringMetaData@U3D_IDTF@@8 0052bbd0     IDTFCommon:MetaDataList.obj
 0003:00004bd8       ??_R1A@?0A@A@StringMetaData@U3D_IDTF@@8 0052bbd8     IDTFCommon:MetaDataList.obj
 0003:00004bf0       ??_R4MetaData@U3D_IDTF@@6B@ 0052bbf0     IDTFCommon:MetaDataList.obj
 0003:00004c08       ??_R0?AVMetaData@U3D_IDTF@@@8 0052bc08     IDTFCommon:MetaDataList.obj
 0003:00004c28       ??_R3MetaData@U3D_IDTF@@8  0052bc28     IDTFCommon:MetaDataList.obj
 0003:00004c38       ??_R2MetaData@U3D_IDTF@@8  0052bc38     IDTFCommon:MetaDataList.obj
 0003:00004c48       ??_R1A@?0A@A@MetaData@U3D_IDTF@@8 0052bc48     IDTFCommon:MetaDataList.obj
 0003:00004c60       ??_R1BA@?0A@A@BinaryMetaData@U3D_IDTF@@8 0052bc60     IDTFCommon:MetaDataList.obj
 0003:00004c78       ??_R0?AVBinaryMetaData@U3D_IDTF@@@8 0052bc78     IDTFCommon:MetaDataList.obj
 0003:00004ca0       ??_R4ParentList@U3D_IDTF@@6B@ 0052bca0     IDTFCommon:ParentList.obj
 0003:00004cb8       ??_R0?AVParentList@U3D_IDTF@@@8 0052bcb8     IDTFCommon:ParentList.obj
 0003:00004ce0       ??_R3ParentList@U3D_IDTF@@8 0052bce0     IDTFCommon:ParentList.obj
 0003:00004cf0       ??_R2ParentList@U3D_IDTF@@8 0052bcf0     IDTFCommon:ParentList.obj
 0003:00004cf8       ??_R1A@?0A@A@ParentList@U3D_IDTF@@8 0052bcf8     IDTFCommon:ParentList.obj
 0003:00004d10       ??_R4?$IFXArray@VParentData@U3D_IDTF@@@@6B@ 0052bd10     IDTFCommon:ParentList.obj
 0003:00004d28       ??_R0?AV?$IFXArray@VParentData@U3D_IDTF@@@@@8 0052bd28     IDTFCommon:ParentList.obj
 0003:00004d58       ??_R3?$IFXArray@VParentData@U3D_IDTF@@@@8 0052bd58     IDTFCommon:ParentList.obj
 0003:00004d68       ??_R2?$IFXArray@VParentData@U3D_IDTF@@@@8 0052bd68     IDTFCommon:ParentList.obj
 0003:00004d70       ??_R1A@?0A@A@?$IFXArray@VParentData@U3D_IDTF@@@@8 0052bd70     IDTFCommon:ParentList.obj
 0003:00004d88       ??_R4NodeList@U3D_IDTF@@6B@ 0052bd88     IDTFCommon:NodeList.obj
 0003:00004da0       ??_R0?AVNodeList@U3D_IDTF@@@8 0052bda0     IDTFCommon:NodeList.obj
 0003:00004dc0       ??_R3NodeList@U3D_IDTF@@8  0052bdc0     IDTFCommon:NodeList.obj
 0003:00004dd0       ??_R2NodeList@U3D_IDTF@@8  0052bdd0     IDTFCommon:NodeList.obj
 0003:00004dd8       ??_R1A@?0A@A@NodeList@U3D_IDTF@@8 0052bdd8     IDTFCommon:NodeList.obj
 0003:00004df0       ??_R4?$IFXArray@PAVNode@U3D_IDTF@@@@6B@ 0052bdf0     IDTFCommon:NodeList.obj
 0003:00004e08       ??_R0?AV?$IFXArray@PAVNode@U3D_IDTF@@@@@8 0052be08     IDTFCommon:NodeList.obj
 0003:00004e38       ??_R3?$IFXArray@PAVNode@U3D_IDTF@@@@8 0052be38     IDTFCommon:NodeList.obj
 0003:00004e48       ??_R2?$IFXArray@PAVNode@U3D_IDTF@@@@8 0052be48     IDTFCommon:NodeList.obj
 0003:00004e50       ??_R1A@?0A@A@?$IFXArray@PAVNode@U3D_IDTF@@@@8 0052be50     IDTFCommon:NodeList.obj
 0003:00004e68       ??_R4?$IFXArray@VLightNode@U3D_IDTF@@@@6B@ 0052be68     IDTFCommon:NodeList.obj
 0003:00004e80       ??_R0?AV?$IFXArray@VLightNode@U3D_IDTF@@@@@8 0052be80     IDTFCommon:NodeList.obj
 0003:00004eb0       ??_R3?$IFXArray@VLightNode@U3D_IDTF@@@@8 0052beb0     IDTFCommon:NodeList.obj
 0003:00004ec0       ??_R2?$IFXArray@VLightNode@U3D_IDTF@@@@8 0052bec0     IDTFCommon:NodeList.obj
 0003:00004ec8       ??_R1A@?0A@A@?$IFXArray@VLightNode@U3D_IDTF@@@@8 0052bec8     IDTFCommon:NodeList.obj
 0003:00004ee0       ??_R4?$IFXArray@VViewNode@U3D_IDTF@@@@6B@ 0052bee0     IDTFCommon:NodeList.obj
 0003:00004ef8       ??_R0?AV?$IFXArray@VViewNode@U3D_IDTF@@@@@8 0052bef8     IDTFCommon:NodeList.obj
 0003:00004f28       ??_R3?$IFXArray@VViewNode@U3D_IDTF@@@@8 0052bf28     IDTFCommon:NodeList.obj
 0003:00004f38       ??_R2?$IFXArray@VViewNode@U3D_IDTF@@@@8 0052bf38     IDTFCommon:NodeList.obj
 0003:00004f40       ??_R1A@?0A@A@?$IFXArray@VViewNode@U3D_IDTF@@@@8 0052bf40     IDTFCommon:NodeList.obj
 0003:00004f58       ??_R4?$IFXArray@VModelNode@U3D_IDTF@@@@6B@ 0052bf58     IDTFCommon:NodeList.obj
 0003:00004f70       ??_R0?AV?$IFXArray@VModelNode@U3D_IDTF@@@@@8 0052bf70     IDTFCommon:NodeList.obj
 0003:00004fa0       ??_R3?$IFXArray@VModelNode@U3D_IDTF@@@@8 0052bfa0     IDTFCommon:NodeList.obj
 0003:00004fb0       ??_R2?$IFXArray@VModelNode@U3D_IDTF@@@@8 0052bfb0     IDTFCommon:NodeList.obj
 0003:00004fb8       ??_R1A@?0A@A@?$IFXArray@VModelNode@U3D_IDTF@@@@8 0052bfb8     IDTFCommon:NodeList.obj
 0003:00004fd0       ??_R4?$IFXArray@VNode@U3D_IDTF@@@@6B@ 0052bfd0     IDTFCommon:NodeList.obj
 0003:00004fe8       ??_R0?AV?$IFXArray@VNode@U3D_IDTF@@@@@8 0052bfe8     IDTFCommon:NodeList.obj
 0003:00005018       ??_R3?$IFXArray@VNode@U3D_IDTF@@@@8 0052c018     IDTFCommon:NodeList.obj
 0003:00005028       ??_R2?$IFXArray@VNode@U3D_IDTF@@@@8 0052c028     IDTFCommon:NodeList.obj
 0003:00005030       ??_R1A@?0A@A@?$IFXArray@VNode@U3D_IDTF@@@@8 0052c030     IDTFCommon:NodeList.obj
 0003:00005048       ??_R4LightResourceList@U3D_IDTF@@6B@ 0052c048     IDTFCommon:SceneResources.obj
 0003:00005060       ??_R0?AVLightResourceList@U3D_IDTF@@@8 0052c060     IDTFCommon:SceneResources.obj
 0003:00005090       ??_R3LightResourceList@U3D_IDTF@@8 0052c090     IDTFCommon:SceneResources.obj
 0003:000050a0       ??_R2LightResourceList@U3D_IDTF@@8 0052c0a0     IDTFCommon:SceneResources.obj
 0003:000050a8       ??_R1A@?0A@A@LightResourceList@U3D_IDTF@@8 0052c0a8     IDTFCommon:SceneResources.obj
 0003:000050c0       ??_R1A@?0A@A@ResourceList@U3D_IDTF@@8 0052c0c0     IDTFCommon:SceneResources.obj
 0003:000050d8       ??_R0?AVResourceList@U3D_IDTF@@@8 0052c0d8     IDTFCommon:SceneResources.obj
 0003:00005100       ??_R4?$IFXArray@VLightResource@U3D_IDTF@@@@6B@ 0052c100     IDTFCommon:SceneResources.obj
 0003:00005118       ??_R0?AV?$IFXArray@VLightResource@U3D_IDTF@@@@@8 0052c118     IDTFCommon:SceneResources.obj
 0003:00005150       ??_R3?$IFXArray@VLightResource@U3D_IDTF@@@@8 0052c150     IDTFCommon:SceneResources.obj
 0003:00005160       ??_R2?$IFXArray@VLightResource@U3D_IDTF@@@@8 0052c160     IDTFCommon:SceneResources.obj
 0003:00005168       ??_R1A@?0A@A@?$IFXArray@VLightResource@U3D_IDTF@@@@8 0052c168     IDTFCommon:SceneResources.obj
 0003:00005180       ??_R4ViewResourceList@U3D_IDTF@@6B@ 0052c180     IDTFCommon:SceneResources.obj
 0003:00005198       ??_R0?AVViewResourceList@U3D_IDTF@@@8 0052c198     IDTFCommon:SceneResources.obj
 0003:000051c0       ??_R3ViewResourceList@U3D_IDTF@@8 0052c1c0     IDTFCommon:SceneResources.obj
 0003:000051d0       ??_R2ViewResourceList@U3D_IDTF@@8 0052c1d0     IDTFCommon:SceneResources.obj
 0003:000051d8       ??_R1A@?0A@A@ViewResourceList@U3D_IDTF@@8 0052c1d8     IDTFCommon:SceneResources.obj
 0003:000051f0       ??_R4?$IFXArray@VViewResource@U3D_IDTF@@@@6B@ 0052c1f0     IDTFCommon:SceneResources.obj
 0003:00005208       ??_R0?AV?$IFXArray@VViewResource@U3D_IDTF@@@@@8 0052c208     IDTFCommon:SceneResources.obj
 0003:00005240       ??_R3?$IFXArray@VViewResource@U3D_IDTF@@@@8 0052c240     IDTFCommon:SceneResources.obj
 0003:00005250       ??_R2?$IFXArray@VViewResource@U3D_IDTF@@@@8 0052c250     IDTFCommon:SceneResources.obj
 0003:00005258       ??_R1A@?0A@A@?$IFXArray@VViewResource@U3D_IDTF@@@@8 0052c258     IDTFCommon:SceneResources.obj
 0003:00005270       ??_R4ShaderResourceList@U3D_IDTF@@6B@ 0052c270     IDTFCommon:SceneResources.obj
 0003:00005288       ??_R0?AVShaderResourceList@U3D_IDTF@@@8 0052c288     IDTFCommon:SceneResources.obj
 0003:000052b8       ??_R3ShaderResourceList@U3D_IDTF@@8 0052c2b8     IDTFCommon:SceneResources.obj
 0003:000052c8       ??_R2ShaderResourceList@U3D_IDTF@@8 0052c2c8     IDTFCommon:SceneResources.obj
 0003:000052d0       ??_R1A@?0A@A@ShaderResourceList@U3D_IDTF@@8 0052c2d0     IDTFCommon:SceneResources.obj
 0003:000052e8       ??_R4?$IFXArray@VShader@U3D_IDTF@@@@6B@ 0052c2e8     IDTFCommon:SceneResources.obj
 0003:00005300       ??_R0?AV?$IFXArray@VShader@U3D_IDTF@@@@@8 0052c300     IDTFCommon:SceneResources.obj
 0003:00005330       ??_R3?$IFXArray@VShader@U3D_IDTF@@@@8 0052c330     IDTFCommon:SceneResources.obj
 0003:00005340       ??_R2?$IFXArray@VShader@U3D_IDTF@@@@8 0052c340     IDTFCommon:SceneResources.obj
 0003:00005348       ??_R1A@?0A@A@?$IFXArray@VShader@U3D_IDTF@@@@8 0052c348     IDTFCommon:SceneResources.obj
 0003:00005360       ??_R4MotionResourceList@U3D_IDTF@@6B@ 0052c360     IDTFCommon:SceneResources.obj
 0003:00005378       ??_R0?AVMotionResourceList@U3D_IDTF@@@8 0052c378     IDTFCommon:SceneResources.obj
 0003:000053a8       ??_R3MotionResourceList@U3D_IDTF@@8 0052c3a8     IDTFCommon:SceneResources.obj
 0003:000053b8       ??_R2MotionResourceList@U3D_IDTF@@8 0052c3b8     IDTFCommon:SceneResources.obj
 0003:000053c0       ??_R1A@?0A@A@MotionResourceList@U3D_IDTF@@8 0052c3c0     IDTFCommon:SceneResources.obj
 0003:000053d8       ??_R4?$IFXArray@VMotionResource@U3D_IDTF@@@@6B@ 0052c3d8     IDTFCommon:SceneResources.obj
 0003:000053f0       ??_R0?AV?$IFXArray@VMotionResource@U3D_IDTF@@@@@8 0052c3f0     IDTFCommon:SceneResources.obj
 0003:00005428       ??_R3?$IFXArray@VMotionResource@U3D_IDTF@@@@8 0052c428     IDTFCommon:SceneResources.obj
 0003:00005438       ??_R2?$IFXArray@VMotionResource@U3D_IDTF@@@@8 0052c438     IDTFCommon:SceneResources.obj
 0003:00005440       ??_R1A@?0A@A@?$IFXArray@VMotionResource@U3D_IDTF@@@@8 0052c440     IDTFCommon:SceneResources.obj
 0003:00005458       ??_R4MaterialResourceList@U3D_IDTF@@6B@ 0052c458     IDTFCommon:SceneResources.obj
 0003:00005470       ??_R0?AVMaterialResourceList@U3D_IDTF@@@8 0052c470     IDTFCommon:SceneResources.obj
 0003:000054a0       ??_R3MaterialResourceList@U3D_IDTF@@8 0052c4a0     IDTFCommon:SceneResources.obj
 0003:000054b0       ??_R2MaterialResourceList@U3D_IDTF@@8 0052c4b0     IDTFCommon:SceneResources.obj
 0003:000054b8       ??_R1A@?0A@A@MaterialResourceList@U3D_IDTF@@8 0052c4b8     IDTFCommon:SceneResources.obj
 0003:000054d0       ??_R4?$IFXArray@VMaterial@U3D_IDTF@@@@6B@ 0052c4d0     IDTFCommon:SceneResources.obj
 0003:000054e8       ??_R0?AV?$IFXArray@VMaterial@U3D_IDTF@@@@@8 0052c4e8     IDTFCommon:SceneResources.obj
 0003:00005518       ??_R3?$IFXArray@VMaterial@U3D_IDTF@@@@8 0052c518     IDTFCommon:SceneResources.obj
 0003:00005528       ??_R2?$IFXArray@VMaterial@U3D_IDTF@@@@8 0052c528     IDTFCommon:SceneResources.obj
 0003:00005530       ??_R1A@?0A@A@?$IFXArray@VMaterial@U3D_IDTF@@@@8 0052c530     IDTFCommon:SceneResources.obj
 0003:00005548       ??_R4TextureResourceList@U3D_IDTF@@6B@ 0052c548     IDTFCommon:SceneResources.obj
 0003:00005560       ??_R0?AVTextureResourceList@U3D_IDTF@@@8 0052c560     IDTFCommon:SceneResources.obj
 0003:00005590       ??_R3TextureResourceList@U3D_IDTF@@8 0052c590     IDTFCommon:SceneResources.obj
 0003:000055a0       ??_R2TextureResourceList@U3D_IDTF@@8 0052c5a0     IDTFCommon:SceneResources.obj
 0003:000055a8       ??_R1A@?0A@A@TextureResourceList@U3D_IDTF@@8 0052c5a8     IDTFCommon:SceneResources.obj
 0003:000055c0       ??_R4?$IFXArray@VTexture@U3D_IDTF@@@@6B@ 0052c5c0     IDTFCommon:SceneResources.obj
 0003:000055d8       ??_R0?AV?$IFXArray@VTexture@U3D_IDTF@@@@@8 0052c5d8     IDTFCommon:SceneResources.obj
 0003:00005608       ??_R3?$IFXArray@VTexture@U3D_IDTF@@@@8 0052c608     IDTFCommon:SceneResources.obj
 0003:00005618       ??_R2?$IFXArray@VTexture@U3D_IDTF@@@@8 0052c618     IDTFCommon:SceneResources.obj
 0003:00005620       ??_R1A@?0A@A@?$IFXArray@VTexture@U3D_IDTF@@@@8 0052c620     IDTFCommon:SceneResources.obj
 0003:00005638       ??_R4SceneResources@U3D_IDTF@@6B@ 0052c638     IDTFCommon:SceneResources.obj
 0003:00005650       ??_R0?AVSceneResources@U3D_IDTF@@@8 0052c650     IDTFCommon:SceneResources.obj
 0003:00005678       ??_R3SceneResources@U3D_IDTF@@8 0052c678     IDTFCommon:SceneResources.obj
 0003:00005688       ??_R2SceneResources@U3D_IDTF@@8 0052c688     IDTFCommon:SceneResources.obj
 0003:00005690       ??_R1A@?0A@A@SceneResources@U3D_IDTF@@8 0052c690     IDTFCommon:SceneResources.obj
 0003:000056a8       ??_R4ResourceList@U3D_IDTF@@6B@ 0052c6a8     IDTFCommon:ResourceList.obj
 0003:000056c0       ??_R3ResourceList@U3D_IDTF@@8 0052c6c0     IDTFCommon:ResourceList.obj
 0003:000056d0       ??_R2ResourceList@U3D_IDTF@@8 0052c6d0     IDTFCommon:ResourceList.obj
 0003:000056d8       ??_R4ModifierList@U3D_IDTF@@6B@ 0052c6d8     IDTFCommon:ModifierList.obj
 0003:000056f0       ??_R0?AVModifierList@U3D_IDTF@@@8 0052c6f0     IDTFCommon:ModifierList.obj
 0003:00005718       ??_R3ModifierList@U3D_IDTF@@8 0052c718     IDTFCommon:ModifierList.obj
 0003:00005728       ??_R2ModifierList@U3D_IDTF@@8 0052c728     IDTFCommon:ModifierList.obj
 0003:00005730       ??_R1A@?0A@A@ModifierList@U3D_IDTF@@8 0052c730     IDTFCommon:ModifierList.obj
 0003:00005748       ??_R4?$IFXArray@PAVModifier@U3D_IDTF@@@@6B@ 0052c748     IDTFCommon:ModifierList.obj
 0003:00005760       ??_R0?AV?$IFXArray@PAVModifier@U3D_IDTF@@@@@8 0052c760     IDTFCommon:ModifierList.obj
 0003:00005790       ??_R3?$IFXArray@PAVModifier@U3D_IDTF@@@@8 0052c790     IDTFCommon:ModifierList.obj
 0003:000057a0       ??_R2?$IFXArray@PAVModifier@U3D_IDTF@@@@8 0052c7a0     IDTFCommon:ModifierList.obj
 0003:000057a8       ??_R1A@?0A@A@?$IFXArray@PAVModifier@U3D_IDTF@@@@8 0052c7a8     IDTFCommon:ModifierList.obj
 0003:000057c0       ??_R4?$IFXArray@VShadingModifier@U3D_IDTF@@@@6B@ 0052c7c0     IDTFCommon:ModifierList.obj
 0003:000057d8       ??_R0?AV?$IFXArray@VShadingModifier@U3D_IDTF@@@@@8 0052c7d8     IDTFCommon:ModifierList.obj
 0003:00005810       ??_R3?$IFXArray@VShadingModifier@U3D_IDTF@@@@8 0052c810     IDTFCommon:ModifierList.obj
 0003:00005820       ??_R2?$IFXArray@VShadingModifier@U3D_IDTF@@@@8 0052c820     IDTFCommon:ModifierList.obj
 0003:00005828       ??_R1A@?0A@A@?$IFXArray@VShadingModifier@U3D_IDTF@@@@8 0052c828     IDTFCommon:ModifierList.obj
 0003:00005840       ??_R4?$IFXArray@VAnimationModifier@U3D_IDTF@@@@6B@ 0052c840     IDTFCommon:ModifierList.obj
 0003:00005858       ??_R0?AV?$IFXArray@VAnimationModifier@U3D_IDTF@@@@@8 0052c858     IDTFCommon:ModifierList.obj
 0003:00005890       ??_R3?$IFXArray@VAnimationModifier@U3D_IDTF@@@@8 0052c890     IDTFCommon:ModifierList.obj
 0003:000058a0       ??_R2?$IFXArray@VAnimationModifier@U3D_IDTF@@@@8 0052c8a0     IDTFCommon:ModifierList.obj
 0003:000058a8       ??_R1A@?0A@A@?$IFXArray@VAnimationModifier@U3D_IDTF@@@@8 0052c8a8     IDTFCommon:ModifierList.obj
 0003:000058c0       ??_R4?$IFXArray@VBoneWeightModifier@U3D_IDTF@@@@6B@ 0052c8c0     IDTFCommon:ModifierList.obj
 0003:000058d8       ??_R0?AV?$IFXArray@VBoneWeightModifier@U3D_IDTF@@@@@8 0052c8d8     IDTFCommon:ModifierList.obj
 0003:00005910       ??_R3?$IFXArray@VBoneWeightModifier@U3D_IDTF@@@@8 0052c910     IDTFCommon:ModifierList.obj
 0003:00005920       ??_R2?$IFXArray@VBoneWeightModifier@U3D_IDTF@@@@8 0052c920     IDTFCommon:ModifierList.obj
 0003:00005928       ??_R1A@?0A@A@?$IFXArray@VBoneWeightModifier@U3D_IDTF@@@@8 0052c928     IDTFCommon:ModifierList.obj
 0003:00005940       ??_R4?$IFXArray@VCLODModifier@U3D_IDTF@@@@6B@ 0052c940     IDTFCommon:ModifierList.obj
 0003:00005958       ??_R0?AV?$IFXArray@VCLODModifier@U3D_IDTF@@@@@8 0052c958     IDTFCommon:ModifierList.obj
 0003:00005990       ??_R3?$IFXArray@VCLODModifier@U3D_IDTF@@@@8 0052c990     IDTFCommon:ModifierList.obj
 0003:000059a0       ??_R2?$IFXArray@VCLODModifier@U3D_IDTF@@@@8 0052c9a0     IDTFCommon:ModifierList.obj
 0003:000059a8       ??_R1A@?0A@A@?$IFXArray@VCLODModifier@U3D_IDTF@@@@8 0052c9a8     IDTFCommon:ModifierList.obj
 0003:000059c0       ??_R4?$IFXArray@VSubdivisionModifier@U3D_IDTF@@@@6B@ 0052c9c0     IDTFCommon:ModifierList.obj
 0003:000059d8       ??_R0?AV?$IFXArray@VSubdivisionModifier@U3D_IDTF@@@@@8 0052c9d8     IDTFCommon:ModifierList.obj
 0003:00005a18       ??_R3?$IFXArray@VSubdivisionModifier@U3D_IDTF@@@@8 0052ca18     IDTFCommon:ModifierList.obj
 0003:00005a28       ??_R2?$IFXArray@VSubdivisionModifier@U3D_IDTF@@@@8 0052ca28     IDTFCommon:ModifierList.obj
 0003:00005a30       ??_R1A@?0A@A@?$IFXArray@VSubdivisionModifier@U3D_IDTF@@@@8 0052ca30     IDTFCommon:ModifierList.obj
 0003:00005a48       ??_R4?$IFXArray@VGlyphModifier@U3D_IDTF@@@@6B@ 0052ca48     IDTFCommon:ModifierList.obj
 0003:00005a60       ??_R0?AV?$IFXArray@VGlyphModifier@U3D_IDTF@@@@@8 0052ca60     IDTFCommon:ModifierList.obj
 0003:00005a98       ??_R3?$IFXArray@VGlyphModifier@U3D_IDTF@@@@8 0052ca98     IDTFCommon:ModifierList.obj
 0003:00005aa8       ??_R2?$IFXArray@VGlyphModifier@U3D_IDTF@@@@8 0052caa8     IDTFCommon:ModifierList.obj
 0003:00005ab0       ??_R1A@?0A@A@?$IFXArray@VGlyphModifier@U3D_IDTF@@@@8 0052cab0     IDTFCommon:ModifierList.obj
 0003:00005ac8       ??_R4FileReference@U3D_IDTF@@6B@ 0052cac8     IDTFCommon:FileReference.obj
 0003:00005ae0       ??_R0?AVFileReference@U3D_IDTF@@@8 0052cae0     IDTFCommon:FileReference.obj
 0003:00005b08       ??_R3FileReference@U3D_IDTF@@8 0052cb08     IDTFCommon:FileReference.obj
 0003:00005b18       ??_R2FileReference@U3D_IDTF@@8 0052cb18     IDTFCommon:FileReference.obj
 0003:00005b20       ??_R1A@?0A@A@FileReference@U3D_IDTF@@8 0052cb20     IDTFCommon:FileReference.obj
 0003:00005b38       ??_R4?$IFXArray@VFilter@U3D_IDTF@@@@6B@ 0052cb38     IDTFCommon:FileReference.obj
 0003:00005b50       ??_R0?AV?$IFXArray@VFilter@U3D_IDTF@@@@@8 0052cb50     IDTFCommon:FileReference.obj
 0003:00005b80       ??_R3?$IFXArray@VFilter@U3D_IDTF@@@@8 0052cb80     IDTFCommon:FileReference.obj
 0003:00005b90       ??_R2?$IFXArray@VFilter@U3D_IDTF@@@@8 0052cb90     IDTFCommon:FileReference.obj
 0003:00005b98       ??_R1A@?0A@A@?$IFXArray@VFilter@U3D_IDTF@@@@8 0052cb98     IDTFCommon:FileReference.obj
 0003:00005bb0       ??_R4Filter@U3D_IDTF@@6B@  0052cbb0     IDTFCommon:FileReference.obj
 0003:00005bc8       ??_R0?AVFilter@U3D_IDTF@@@8 0052cbc8     IDTFCommon:FileReference.obj
 0003:00005be8       ??_R3Filter@U3D_IDTF@@8    0052cbe8     IDTFCommon:FileReference.obj
 0003:00005bf8       ??_R2Filter@U3D_IDTF@@8    0052cbf8     IDTFCommon:FileReference.obj
 0003:00005c00       ??_R1A@?0A@A@Filter@U3D_IDTF@@8 0052cc00     IDTFCommon:FileReference.obj
 0003:00005c18       ??_R4ShadingDescriptionList@U3D_IDTF@@6B@ 0052cc18     IDTFCommon:ModelResource.obj
 0003:00005c30       ??_R0?AVShadingDescriptionList@U3D_IDTF@@@8 0052cc30     IDTFCommon:ModelResource.obj
 0003:00005c60       ??_R3ShadingDescriptionList@U3D_IDTF@@8 0052cc60     IDTFCommon:ModelResource.obj
 0003:00005c70       ??_R2ShadingDescriptionList@U3D_IDTF@@8 0052cc70     IDTFCommon:ModelResource.obj
 0003:00005c78       ??_R1A@?0A@A@ShadingDescriptionList@U3D_IDTF@@8 0052cc78     IDTFCommon:ModelResource.obj
 0003:00005c90       ??_R4?$IFXArray@VShadingDescription@U3D_IDTF@@@@6B@ 0052cc90     IDTFCommon:ModelResource.obj
 0003:00005ca8       ??_R0?AV?$IFXArray@VShadingDescription@U3D_IDTF@@@@@8 0052cca8     IDTFCommon:ModelResource.obj
 0003:00005ce0       ??_R3?$IFXArray@VShadingDescription@U3D_IDTF@@@@8 0052cce0     IDTFCommon:ModelResource.obj
 0003:00005cf0       ??_R2?$IFXArray@VShadingDescription@U3D_IDTF@@@@8 0052ccf0     IDTFCommon:ModelResource.obj
 0003:00005cf8       ??_R1A@?0A@A@?$IFXArray@VShadingDescription@U3D_IDTF@@@@8 0052ccf8     IDTFCommon:ModelResource.obj
 0003:00005d10       ??_R4?$IFXArray@UBoneInfo@U3D_IDTF@@@@6B@ 0052cd10     IDTFCommon:ModelResource.obj
 0003:00005d28       ??_R0?AV?$IFXArray@UBoneInfo@U3D_IDTF@@@@@8 0052cd28     IDTFCommon:ModelResource.obj
 0003:00005d58       ??_R3?$IFXArray@UBoneInfo@U3D_IDTF@@@@8 0052cd58     IDTFCommon:ModelResource.obj
 0003:00005d68       ??_R2?$IFXArray@UBoneInfo@U3D_IDTF@@@@8 0052cd68     IDTFCommon:ModelResource.obj
 0003:00005d70       ??_R1A@?0A@A@?$IFXArray@UBoneInfo@U3D_IDTF@@@@8 0052cd70     IDTFCommon:ModelResource.obj
 0003:00005d88       ??_R4ModelResource@U3D_IDTF@@6B@ 0052cd88     IDTFCommon:ModelResource.obj
 0003:00005da0       ??_R3ModelResource@U3D_IDTF@@8 0052cda0     IDTFCommon:ModelResource.obj
 0003:00005db0       ??_R2ModelResource@U3D_IDTF@@8 0052cdb0     IDTFCommon:ModelResource.obj
 0003:00005dc0       ??_R4?$IFXArray@VPoint@U3D_IDTF@@@@6B@ 0052cdc0     IDTFCommon:ModelResource.obj
 0003:00005dd8       ??_R0?AV?$IFXArray@VPoint@U3D_IDTF@@@@@8 0052cdd8     IDTFCommon:ModelResource.obj
 0003:00005e08       ??_R3?$IFXArray@VPoint@U3D_IDTF@@@@8 0052ce08     IDTFCommon:ModelResource.obj
 0003:00005e18       ??_R2?$IFXArray@VPoint@U3D_IDTF@@@@8 0052ce18     IDTFCommon:ModelResource.obj
 0003:00005e20       ??_R1A@?0A@A@?$IFXArray@VPoint@U3D_IDTF@@@@8 0052ce20     IDTFCommon:ModelResource.obj
 0003:00005e38       ??_R4?$IFXArray@VColor@U3D_IDTF@@@@6B@ 0052ce38     IDTFCommon:ModelResource.obj
 0003:00005e50       ??_R0?AV?$IFXArray@VColor@U3D_IDTF@@@@@8 0052ce50     IDTFCommon:ModelResource.obj
 0003:00005e80       ??_R3?$IFXArray@VColor@U3D_IDTF@@@@8 0052ce80     IDTFCommon:ModelResource.obj
 0003:00005e90       ??_R2?$IFXArray@VColor@U3D_IDTF@@@@8 0052ce90     IDTFCommon:ModelResource.obj
 0003:00005e98       ??_R1A@?0A@A@?$IFXArray@VColor@U3D_IDTF@@@@8 0052ce98     IDTFCommon:ModelResource.obj
 0003:00005eb0       ??_R4?$IFXArray@VIFXVector4@@@@6B@ 0052ceb0     IDTFCommon:ModelResource.obj
 0003:00005ec8       ??_R0?AV?$IFXArray@VIFXVector4@@@@@8 0052cec8     IDTFCommon:ModelResource.obj
 0003:00005ef0       ??_R3?$IFXArray@VIFXVector4@@@@8 0052cef0     IDTFCommon:ModelResource.obj
 0003:00005f00       ??_R2?$IFXArray@VIFXVector4@@@@8 0052cf00     IDTFCommon:ModelResource.obj
 0003:00005f08       ??_R1A@?0A@A@?$IFXArray@VIFXVector4@@@@8 0052cf08     IDTFCommon:ModelResource.obj
 0003:00005f20       ??_R4ModelResourceList@U3D_IDTF@@6B@ 0052cf20     IDTFCommon:ModelResourceList.obj
 0003:00005f38       ??_R0?AVModelResourceList@U3D_IDTF@@@8 0052cf38     IDTFCommon:ModelResourceList.obj
 0003:00005f68       ??_R3ModelResourceList@U3D_IDTF@@8 0052cf68     IDTFCommon:ModelResourceList.obj
 0003:00005f78       ??_R2ModelResourceList@U3D_IDTF@@8 0052cf78     IDTFCommon:ModelResourceList.obj
 0003:00005f80       ??_R1A@?0A@A@ModelResourceList@U3D_IDTF@@8 0052cf80     IDTFCommon:ModelResourceList.obj
 0003:00005f98       ??_R4?$IFXArray@PAVModelResource@U3D_IDTF@@@@6B@ 0052cf98     IDTFCommon:ModelResourceList.obj
 0003:00005fb0       ??_R0?AV?$IFXArray@PAVModelResource@U3D_IDTF@@@@@8 0052cfb0     IDTFCommon:ModelResourceList.obj
 0003:00005fe8       ??_R3?$IFXArray@PAVModelResource@U3D_IDTF@@@@8 0052cfe8     IDTFCommon:ModelResourceList.obj
 0003:00005ff8       ??_R2?$IFXArray@PAVModelResource@U3D_IDTF@@@@8 0052cff8     IDTFCommon:ModelResourceList.obj
 0003:00006000       ??_R1A@?0A@A@?$IFXArray@PAVModelResource@U3D_IDTF@@@@8 0052d000     IDTFCommon:ModelResourceList.obj
 0003:00006018       ??_R4?$IFXArray@VMeshResource@U3D_IDTF@@@@6B@ 0052d018     IDTFCommon:ModelResourceList.obj
 0003:00006030       ??_R0?AV?$IFXArray@VMeshResource@U3D_IDTF@@@@@8 0052d030     IDTFCommon:ModelResourceList.obj
 0003:00006068       ??_R3?$IFXArray@VMeshResource@U3D_IDTF@@@@8 0052d068     IDTFCommon:ModelResourceList.obj
 0003:00006078       ??_R2?$IFXArray@VMeshResource@U3D_IDTF@@@@8 0052d078     IDTFCommon:ModelResourceList.obj
 0003:00006080       ??_R1A@?0A@A@?$IFXArray@VMeshResource@U3D_IDTF@@@@8 0052d080     IDTFCommon:ModelResourceList.obj
 0003:00006098       ??_R4?$IFXArray@VLineSetResource@U3D_IDTF@@@@6B@ 0052d098     IDTFCommon:ModelResourceList.obj
 0003:000060b0       ??_R0?AV?$IFXArray@VLineSetResource@U3D_IDTF@@@@@8 0052d0b0     IDTFCommon:ModelResourceList.obj
 0003:000060e8       ??_R3?$IFXArray@VLineSetResource@U3D_IDTF@@@@8 0052d0e8     IDTFCommon:ModelResourceList.obj
 0003:000060f8       ??_R2?$IFXArray@VLineSetResource@U3D_IDTF@@@@8 0052d0f8     IDTFCommon:ModelResourceList.obj
 0003:00006100       ??_R1A@?0A@A@?$IFXArray@VLineSetResource@U3D_IDTF@@@@8 0052d100     IDTFCommon:ModelResourceList.obj
 0003:00006118       ??_R4?$IFXArray@VPointSetResource@U3D_IDTF@@@@6B@ 0052d118     IDTFCommon:ModelResourceList.obj
 0003:00006130       ??_R0?AV?$IFXArray@VPointSetResource@U3D_IDTF@@@@@8 0052d130     IDTFCommon:ModelResourceList.obj
 0003:00006168       ??_R3?$IFXArray@VPointSetResource@U3D_IDTF@@@@8 0052d168     IDTFCommon:ModelResourceList.obj
 0003:00006178       ??_R2?$IFXArray@VPointSetResource@U3D_IDTF@@@@8 0052d178     IDTFCommon:ModelResourceList.obj
 0003:00006180       ??_R1A@?0A@A@?$IFXArray@VPointSetResource@U3D_IDTF@@@@8 0052d180     IDTFCommon:ModelResourceList.obj
 0003:00006198       ??_R4SceneUtilities@U3D_IDTF@@6B@ 0052d198     IDTFConverterHelpers:SceneUtilities.obj
 0003:000061b0       ??_R0?AVSceneUtilities@U3D_IDTF@@@8 0052d1b0     IDTFConverterHelpers:SceneUtilities.obj
 0003:000061d8       ??_R3SceneUtilities@U3D_IDTF@@8 0052d1d8     IDTFConverterHelpers:SceneUtilities.obj
 0003:000061e8       ??_R2SceneUtilities@U3D_IDTF@@8 0052d1e8     IDTFConverterHelpers:SceneUtilities.obj
 0003:000061f0       ??_R1A@?0A@A@SceneUtilities@U3D_IDTF@@8 0052d1f0     IDTFConverterHelpers:SceneUtilities.obj
 0003:00006208       ??_R4TGAImage@U3D_IDTF@@6B@ 0052d208     IDTFConverterHelpers:TGAImage.obj
 0003:00006220       ??_R0?AVTGAImage@U3D_IDTF@@@8 0052d220     IDTFConverterHelpers:TGAImage.obj
 0003:00006240       ??_R3TGAImage@U3D_IDTF@@8  0052d240     IDTFConverterHelpers:TGAImage.obj
 0003:00006250       ??_R2TGAImage@U3D_IDTF@@8  0052d250     IDTFConverterHelpers:TGAImage.obj
 0003:00006258       ??_R1A@?0A@A@TGAImage@U3D_IDTF@@8 0052d258     IDTFConverterHelpers:TGAImage.obj
 0003:00006270       ??_R4IFXRenderClear@@6B@   0052d270     IDTFConverterHelpers:DebugInfo.obj
 0003:00006288       ??_R0?AVIFXRenderClear@@@8 0052d288     IDTFConverterHelpers:DebugInfo.obj
 0003:000062a8       ??_R3IFXRenderClear@@8     0052d2a8     IDTFConverterHelpers:DebugInfo.obj
 0003:000062b8       ??_R2IFXRenderClear@@8     0052d2b8     IDTFConverterHelpers:DebugInfo.obj
 0003:000062c0       ??_R1A@?0A@A@IFXRenderClear@@8 0052d2c0     IDTFConverterHelpers:DebugInfo.obj
 0003:000062d8       ??_R4IFXRenderFog@@6B@     0052d2d8     IDTFConverterHelpers:DebugInfo.obj
 0003:000062f0       ??_R0?AVIFXRenderFog@@@8   0052d2f0     IDTFConverterHelpers:DebugInfo.obj
 0003:00006310       ??_R3IFXRenderFog@@8       0052d310     IDTFConverterHelpers:DebugInfo.obj
 0003:00006320       ??_R2IFXRenderFog@@8       0052d320     IDTFConverterHelpers:DebugInfo.obj
 0003:00006328       ??_R1A@?0A@A@IFXRenderFog@@8 0052d328     IDTFConverterHelpers:DebugInfo.obj
 0003:00006340       ??_R4IFXListContext@@6B@   0052d340     IDTFConverterHelpers:DebugInfo.obj
 0003:00006358       ??_R0?AVIFXListContext@@@8 0052d358     IDTFConverterHelpers:DebugInfo.obj
 0003:00006378       ??_R3IFXListContext@@8     0052d378     IDTFConverterHelpers:DebugInfo.obj
 0003:00006388       ??_R2IFXListContext@@8     0052d388     IDTFConverterHelpers:DebugInfo.obj
 0003:00006390       ??_R1A@?0A@A@IFXListContext@@8 0052d390     IDTFConverterHelpers:DebugInfo.obj
 0003:000063a8       ??_R4DebugInfo@U3D_IDTF@@6B@ 0052d3a8     IDTFConverterHelpers:DebugInfo.obj
 0003:000063c0       ??_R0?AVDebugInfo@U3D_IDTF@@@8 0052d3c0     IDTFConverterHelpers:DebugInfo.obj
 0003:000063e8       ??_R3DebugInfo@U3D_IDTF@@8 0052d3e8     IDTFConverterHelpers:DebugInfo.obj
 0003:000063f8       ??_R2DebugInfo@U3D_IDTF@@8 0052d3f8     IDTFConverterHelpers:DebugInfo.obj
 0003:00006400       ??_R1A@?0A@A@DebugInfo@U3D_IDTF@@8 0052d400     IDTFConverterHelpers:DebugInfo.obj
 0003:00006418       __NLG_Destination          0052d418     LIBCMTD:exsup.obj
 0003:00006428       ??_R0?AVtype_info@@@8      0052d428     LIBCMTD:typinfo.obj
 0003:00006440       __fltused                  0052d440     LIBCMTD:fpinit.obj
 0003:00006444       __ldused                   0052d444     LIBCMTD:fpinit.obj
 0003:00006448       __FPinit                   0052d448     LIBCMTD:fpinit.obj
 0003:0000644c       __FPmtinit                 0052d44c     LIBCMTD:fpinit.obj
 0003:00006450       __FPmtterm                 0052d450     LIBCMTD:fpinit.obj
 0003:00006460       __crtDbgFlag               0052d460     LIBCMTD:dbgheap.obj
 0003:00006468       __crtBreakAlloc            0052d468     LIBCMTD:dbgheap.obj
 0003:00006484       ?__pMyUnhandledExceptionFilter@@3PAXA 0052d484     LIBCMTD:throw.obj
 0003:00006490       __aexit_rtn                0052d490     LIBCMTD:wcrt0.obj
 0003:00006494       ___app_type                0052d494     LIBCMTD:wcrt0.obj
 0003:000064a8       ___initiallocinfo          0052d4a8     LIBCMTD:setlocal.obj
 0003:000064fc       ___ptlocinfo               0052d4fc     LIBCMTD:setlocal.obj
 0003:00006638       ___lc_category             0052d638     LIBCMTD:setlocal.obj
 0003:000067a0       __crtAssertBusy            0052d7a0     LIBCMTD:dbgrpt.obj
 0003:000067a4       __CrtDbgMode               0052d7a4     LIBCMTD:dbgrpt.obj
 0003:000067b0       __CrtDbgFile               0052d7b0     LIBCMTD:dbgrpt.obj
 0003:000067d0       ___security_cookie         0052d7d0     LIBCMTD:seccook.obj
 0003:000067d4       ___tlsindex                0052d7d4     LIBCMTD:tidtable.obj
 0003:000067d8       ?__pInconsistency@@3P6AXXZA 0052d7d8     LIBCMTD:hooks.obj
 0003:000067e0       __cfltcvt_tab              0052d7e0     LIBCMTD:cmiscdat.obj
 0003:000067f8       __iob                      0052d7f8     LIBCMTD:_file.obj
 0003:00006a78       ___nullstring              0052da78     LIBCMTD:output.obj
 0003:00006a7c       ___wnullstring             0052da7c     LIBCMTD:output.obj
 0003:00006a80       __pfnAllocHook             0052da80     LIBCMTD:dbghook.obj
 0003:00006a84       __amblksiz                 0052da84     LIBCMTD:heapinit.obj
 0003:00006bf0       ___badioinfo               0052dbf0     LIBCMTD:ioinit.obj
 0003:00006c18       __XcptActTab               0052dc18     LIBCMTD:winxfltr.obj
 0003:00006c90       __First_FPE_Indx           0052dc90     LIBCMTD:winxfltr.obj
 0003:00006c94       __Num_FPE                  0052dc94     LIBCMTD:winxfltr.obj
 0003:00006c98       __XcptActTabSize           0052dc98     LIBCMTD:winxfltr.obj
 0003:00006c9c       __XcptActTabCount          0052dc9c     LIBCMTD:winxfltr.obj
 0003:00006d38       __pctype                   0052dd38     LIBCMTD:ctype.obj
 0003:00006d3c       __pwctype                  0052dd3c     LIBCMTD:ctype.obj
 0003:00006d40       ___lc_time_curr            0052dd40     LIBCMTD:strftime.obj
 0003:00006d48       ___lc_time_c               0052dd48     LIBCMTD:strftime.obj
 0003:00006e00       ___lconv_static_decimal    0052de00     LIBCMTD:lconv.obj
 0003:00006e04       ___lconv_c                 0052de04     LIBCMTD:lconv.obj
 0003:00006e34       ___lconv                   0052de34     LIBCMTD:lconv.obj
 0003:00006e38       ___mb_cur_max              0052de38     LIBCMTD:nlsdata1.obj
 0003:00006e3c       ___decimal_point           0052de3c     LIBCMTD:nlsdata1.obj
 0003:00006e40       ___decimal_point_length    0052de40     LIBCMTD:nlsdata1.obj
 0003:00006e44       ___lc_clike                0052de44     LIBCMTD:nlsdata2.obj
 0003:00006e50       __timezone                 0052de50     LIBCMTD:timeset.obj
 0003:00006e54       __daylight                 0052de54     LIBCMTD:timeset.obj
 0003:00006e58       __dstbias                  0052de58     LIBCMTD:timeset.obj
 0003:00006ee0       __tzname                   0052dee0     LIBCMTD:timeset.obj
 0003:00007030       __lpdays                   0052e030     LIBCMTD:days.obj
 0003:00007064       __days                     0052e064     LIBCMTD:days.obj
 0003:000070a0       __pow10pos                 0052e0a0     LIBCMTD:constpow.obj
 0003:00007200       __pow10neg                 0052e200     LIBCMTD:constpow.obj
 0003:00007360       ?_IFXMatrix4x4_Multiply@@3P6AXPAMPBM1@ZA 0052e360     IFXCoreStatic:IFXMatrix4x4.obj
 0003:00007364       ?_IFXMatrix4x4_MakeIdentity@@3P6AXPAM@ZA 0052e364     IFXCoreStatic:IFXMatrix4x4.obj
 0003:00007368       ?_IFXMatrix4x4_Scale@@3P6AXPAMPBM@ZA 0052e368     IFXCoreStatic:IFXMatrix4x4.obj
 0003:0000736c       ?_IFXMatrix4x4_Transpose@@3P6AXPAM@ZA 0052e36c     IFXCoreStatic:IFXMatrix4x4.obj
 0003:00007370       ?_IFXMatrix4x4_CalcDeterminant3x3@@3P6AMPBM@ZA 0052e370     IFXCoreStatic:IFXMatrix4x4.obj
 0003:00007374       ?_IFXMatrix4x4_CalcDeterminant@@3P6AMPBM@ZA 0052e374     IFXCoreStatic:IFXMatrix4x4.obj
 0003:00007378       ?_IFXMatrix4x4_Invert3x4@@3P6AHPAMPBM@ZA 0052e378     IFXCoreStatic:IFXMatrix4x4.obj
 0003:0000737c       ?_IFXMatrix4x4_Invert@@3P6AHPAMPBM@ZA 0052e37c     IFXCoreStatic:IFXMatrix4x4.obj
 0003:00007380       ?_IFXMatrix4x4_Multiply3x4@@3P6AXPAMPBM1@ZA 0052e380     IFXCoreStatic:IFXMatrix4x4.obj
 0003:00007388       ??_R4IFXCoreList@@6B@      0052e388     IFXCoreStatic:IFXCoreList.obj
 0003:000073a0       ??_R0?AVIFXCoreList@@@8    0052e3a0     IFXCoreStatic:IFXCoreList.obj
 0003:000073c0       ??_R3IFXCoreList@@8        0052e3c0     IFXCoreStatic:IFXCoreList.obj
 0003:000073d0       ??_R2IFXCoreList@@8        0052e3d0     IFXCoreStatic:IFXCoreList.obj
 0003:000073d8       ??_R1A@?0A@A@IFXCoreList@@8 0052e3d8     IFXCoreStatic:IFXCoreList.obj
 0003:000073f0       __LIB_VERSIONIMF           0052e3f0     libmmt:libm_error.omu
 0003:000073f4       _pmatherrf                 0052e3f4     libmmt:libm_error.omu
 0003:000073f8       _pmatherr                  0052e3f8     libmmt:libm_error.omu
 0003:000073fc       _pmatherrl                 0052e3fc     libmmt:libm_error.omu
 0003:00008800       ?g_QPCFrequency@@3T_LARGE_INTEGER@@A 0052f800     IFXCoreStatic:IFXOSUtilities.obj
 0003:00008808       ?g_bUseQPC@@3HA            0052f808     IFXCoreStatic:IFXOSUtilities.obj
 0003:0000880c       ?g_bInitialized@@3HA       0052f80c     IFXCoreStatic:IFXOSUtilities.obj
 0003:00008810       ?g_eax@@3IA                0052f810     IFXCoreStatic:IFXOSUtilities.obj
 0003:00008814       ?g_ebx@@3IA                0052f814     IFXCoreStatic:IFXOSUtilities.obj
 0003:00008818       ?g_ecx@@3IA                0052f818     IFXCoreStatic:IFXOSUtilities.obj
 0003:0000881c       ?g_edx@@3IA                0052f81c     IFXCoreStatic:IFXOSUtilities.obj
 0003:00009080       ?g_DbgInfo@U3D_IDTF@@3VDebugInfo@1@A 00530080     IDTFConverterHelpers:DebugInfo.obj
 0003:00009100       ___fastflag                00530100     LIBCMTD:fpinit.obj
 0003:00009104       __adjust_fdiv              00530104     LIBCMTD:fpinit.obj
 0003:00009124       ___pPurecall               00530124     LIBCMTD:purevirt.obj
 0003:00009128       __aenvptr                  00530128     LIBCMTD:wcrt0.obj
 0003:0000912c       __wenvptr                  0053012c     LIBCMTD:wcrt0.obj
 0003:00009130       ___error_mode              00530130     LIBCMTD:wcrt0.obj
 0003:00009134       __umaskval                 00530134     LIBCMTD:crt0dat.obj
 0003:00009138       __osplatform               00530138     LIBCMTD:crt0dat.obj
 0003:0000913c       __osver                    0053013c     LIBCMTD:crt0dat.obj
 0003:00009140       __winver                   00530140     LIBCMTD:crt0dat.obj
 0003:00009144       __winmajor                 00530144     LIBCMTD:crt0dat.obj
 0003:00009148       __winminor                 00530148     LIBCMTD:crt0dat.obj
 0003:0000914c       ___argc                    0053014c     LIBCMTD:crt0dat.obj
 0003:00009150       ___argv                    00530150     LIBCMTD:crt0dat.obj
 0003:00009154       ___wargv                   00530154     LIBCMTD:crt0dat.obj
 0003:00009158       __environ                  00530158     LIBCMTD:crt0dat.obj
 0003:0000915c       ___initenv                 0053015c     LIBCMTD:crt0dat.obj
 0003:00009160       __wenviron                 00530160     LIBCMTD:crt0dat.obj
 0003:00009164       ___winitenv                00530164     LIBCMTD:crt0dat.obj
 0003:00009168       __pgmptr                   00530168     LIBCMTD:crt0dat.obj
 0003:0000916c       __wpgmptr                  0053016c     LIBCMTD:crt0dat.obj
 0003:00009170       __exitflag                 00530170     LIBCMTD:crt0dat.obj
 0003:00009174       __C_Termination_Done       00530174     LIBCMTD:crt0dat.obj
 0003:00009178       __C_Exit_Done              00530178     LIBCMTD:crt0dat.obj
 0003:000092fc       _gpFlsAlloc                005302fc     LIBCMTD:tidtable.obj
 0003:00009300       _gpFlsGetValue             00530300     LIBCMTD:tidtable.obj
 0003:00009304       _gpFlsSetValue             00530304     LIBCMTD:tidtable.obj
 0003:00009308       _gpFlsFree                 00530308     LIBCMTD:tidtable.obj
 0003:0000930c       __cflush                   0053030c     LIBCMTD:_file.obj
 0003:00009310       __stdbuf                   00530310     LIBCMTD:_sftbuf.obj
 0003:00009318       __newmode                  00530318     LIBCMTD:_newmode.obj
 0003:0000931c       ?_pnhHeap@@3P6AHI@ZA       0053031c     LIBCMTD:handler.obj
 0003:0000953c       __adbgmsg                  0053053c     LIBCMTD:crt0msg.obj
 0003:00009558       ___lconv_static_null       00530558     LIBCMTD:lconv.obj
 0003:0000955c       ___lc_time_intl            0053055c     LIBCMTD:inittime.obj
 0003:00009560       ___lconv_intl              00530560     LIBCMTD:initmon.obj
 0003:00009564       ___lc_handle               00530564     LIBCMTD:nlsdata2.obj
 0003:0000957c       ___lc_codepage             0053057c     LIBCMTD:nlsdata2.obj
 0003:00009580       ___lc_collate_cp           00530580     LIBCMTD:nlsdata2.obj
 0003:00009588       ___lc_id                   00530588     LIBCMTD:nlsdata3.obj
 0003:00009730       __commode                  00530730     LIBCMTD:ncommode.obj
 0003:0000973c       __fmode                    0053073c     LIBCMTD:txtmode.obj
 0003:00009744       ?m_pAllocator@IFXCoreList@@1PAVIFXUnitAllocator@@A 00530744     IFXCoreStatic:IFXCoreList.obj
 0003:00009748       ?m_listCount@IFXCoreList@@1IA 00530748     IFXCoreStatic:IFXCoreList.obj
 0003:0000974c       ___intel_cpu_indicator     0053074c     libirc:cpu_disp.obj
 0003:00009750       ??_B?1??Identity@IFXQuaternion@@SAABV1@XZ@51 00530750     <common>
 0003:00009760       ?identity@?1??Identity@IFXQuaternion@@SAABV2@XZ@4V2@B 00530760     <common>
 0003:00009770       ___mblcid                  00530770     <common>
 0003:000097e8       ___ptmbcinfo               005307e8     <common>
 0003:000097ec       ___ismbcodepage            005307ec     <common>
 0003:00009800       __mbctype                  00530800     <common>
 0003:00009904       ___mbcodepage              00530904     <common>
 0003:00009910       ___mbulinfo                00530910     <common>
 0003:00009920       __mbcasemap                00530920     <common>
 0003:00009a20       ___ctype1                  00530a20     <common>
 0003:00009a30       ___ctype1_refcount         00530a30     <common>
 0003:00009a34       ___lconv_mon_refcount      00530a34     <common>
 0003:00009a44       ___lconv_intl_refcount     00530a44     <common>
 0003:00009a48       ___lconv_num_refcount      00530a48     <common>
 0003:00009a54       __nhandle                  00530a54     <common>
 0003:00009aa0       ___pioinfo                 00530aa0     <common>
 0003:00009ba0       ___sbh_initialized         00530ba0     <common>
 0003:00009bb4       ___sbh_pHeaderDefer        00530bb4     <common>
 0003:00009bb8       ___sbh_cntHeaderList       00530bb8     <common>
 0003:00009bbc       ___sbh_pHeaderList         00530bbc     <common>
 0003:00009bc0       ___sbh_threshold           00530bc0     <common>
 0003:00009bc4       ___sbh_pHeaderScan         00530bc4     <common>
 0003:00009bc8       ___sbh_sizeHeaderList      00530bc8     <common>
 0003:00009bcc       ___sbh_indGroupDefer       00530bcc     <common>
 0003:00009bd0       __crtheap                  00530bd0     <common>
 0003:00009be0       ___active_heap             00530be0     <common>
 0003:00009be4       ___piob                    00530be4     <common>
 0003:00009f40       __bufin                    00530f40     <common>
 0003:0000af40       __nstream                  00531f40     <common>
 0003:0000af44       __pfnReportHook            00531f44     <common>
 0003:0000af54       __pReportHookList          00531f54     <common>
 0003:0000af58       ___setlc_active            00531f58     <common>
 0003:0000af68       ___unguarded_readlc_active 00531f68     <common>
 0003:0000af6c       ___env_initialized         00531f6c     <common>
 0003:0000af7c       ___onexitend               00531f7c     <common>
 0003:0000af80       ___onexitbegin             00531f80     <common>
 0003:0000af84       ___mbctype_initialized     00531f84     <common>
 0003:0000af88       __wcmdln                   00531f88     <common>
 0003:0000af94       __pfnDumpClient            00531f94     <common>
 0004:00000000       __IMPORT_DESCRIPTOR_WINMM  00532000     winmm:WINMM.dll
 0004:00000014       __IMPORT_DESCRIPTOR_KERNEL32 00532014     kernel32:KERNEL32.dll
 0004:00000028       __IMPORT_DESCRIPTOR_USER32 00532028     user32:USER32.dll
 0004:0000003c       __IMPORT_DESCRIPTOR_ADVAPI32 0053203c     advapi32:ADVAPI32.dll
 0004:00000050       __NULL_IMPORT_DESCRIPTOR   00532050     winmm:WINMM.dll
 0004:00000300       __imp__RegCloseKey@4       00532300     advapi32:ADVAPI32.dll
 0004:00000304       __imp__RegQueryValueExW@24 00532304     advapi32:ADVAPI32.dll
 0004:00000308       __imp__RegOpenKeyExW@20    00532308     advapi32:ADVAPI32.dll
 0004:0000030c       \177ADVAPI32_NULL_THUNK_DATA 0053230c     advapi32:ADVAPI32.dll
 0004:00000338       __imp__GetSystemDefaultLangID@0 00532338     kernel32:KERNEL32.dll
 0004:0000033c       __imp__QueryPerformanceFrequency@4 0053233c     kernel32:KERNEL32.dll
 0004:00000340       __imp__QueryPerformanceCounter@4 00532340     kernel32:KERNEL32.dll
 0004:00000344       __imp__Sleep@4             00532344     kernel32:KERNEL32.dll
 0004:00000348       __imp__OutputDebugStringW@4 00532348     kernel32:KERNEL32.dll
 0004:0000034c       __imp__WideCharToMultiByte@32 0053234c     kernel32:KERNEL32.dll
 0004:00000350       __imp__MultiByteToWideChar@24 00532350     kernel32:KERNEL32.dll
 0004:00000354       __imp__LoadLibraryW@4      00532354     kernel32:KERNEL32.dll
 0004:00000358       __imp__GetModuleHandleW@4  00532358     kernel32:KERNEL32.dll
 0004:0000035c       __imp__GetModuleFileNameW@12 0053235c     kernel32:KERNEL32.dll
 0004:00000360       __imp__GetProcAddress@8    00532360     kernel32:KERNEL32.dll
 0004:00000364       __imp__FreeLibrary@4       00532364     kernel32:KERNEL32.dll
 0004:00000368       __imp__RtlUnwind@16        00532368     kernel32:KERNEL32.dll
 0004:0000036c       __imp__IsBadWritePtr@8     0053236c     kernel32:KERNEL32.dll
 0004:00000370       __imp__IsBadReadPtr@8      00532370     kernel32:KERNEL32.dll
 0004:00000374       __imp__HeapValidate@12     00532374     kernel32:KERNEL32.dll
 0004:00000378       __imp__GetLastError@0      00532378     kernel32:KERNEL32.dll
 0004:0000037c       __imp__RaiseException@16   0053237c     kernel32:KERNEL32.dll
 0004:00000380       __imp__GetVersionExA@4     00532380     kernel32:KERNEL32.dll
 0004:00000384       __imp__GetModuleHandleA@4  00532384     kernel32:KERNEL32.dll
 0004:00000388       __imp__TerminateProcess@8  00532388     kernel32:KERNEL32.dll
 0004:0000038c       __imp__GetCurrentProcess@0 0053238c     kernel32:KERNEL32.dll
 0004:00000390       __imp__ExitProcess@4       00532390     kernel32:KERNEL32.dll
 0004:00000394       __imp__GetSystemTimeAsFileTime@4 00532394     kernel32:KERNEL32.dll
 0004:00000398       __imp__DeleteCriticalSection@4 00532398     kernel32:KERNEL32.dll
 0004:0000039c       __imp__EnterCriticalSection@4 0053239c     kernel32:KERNEL32.dll
 0004:000003a0       __imp__LeaveCriticalSection@4 005323a0     kernel32:KERNEL32.dll
 0004:000003a4       __imp__FatalAppExitA@8     005323a4     kernel32:KERNEL32.dll
 0004:000003a8       __imp__DebugBreak@0        005323a8     kernel32:KERNEL32.dll
 0004:000003ac       __imp__GetStdHandle@4      005323ac     kernel32:KERNEL32.dll
 0004:000003b0       __imp__WriteFile@20        005323b0     kernel32:KERNEL32.dll
 0004:000003b4       __imp__InterlockedDecrement@4 005323b4     kernel32:KERNEL32.dll
 0004:000003b8       __imp__OutputDebugStringA@4 005323b8     kernel32:KERNEL32.dll
 0004:000003bc       __imp__LoadLibraryA@4      005323bc     kernel32:KERNEL32.dll
 0004:000003c0       __imp__InterlockedIncrement@4 005323c0     kernel32:KERNEL32.dll
 0004:000003c4       __imp__GetModuleFileNameA@12 005323c4     kernel32:KERNEL32.dll
 0004:000003c8       __imp__TlsAlloc@0          005323c8     kernel32:KERNEL32.dll
 0004:000003cc       __imp__GetCurrentThreadId@0 005323cc     kernel32:KERNEL32.dll
 0004:000003d0       __imp__TlsFree@4           005323d0     kernel32:KERNEL32.dll
 0004:000003d4       __imp__TlsSetValue@8       005323d4     kernel32:KERNEL32.dll
 0004:000003d8       __imp__TlsGetValue@4       005323d8     kernel32:KERNEL32.dll
 0004:000003dc       __imp__SetLastError@4      005323dc     kernel32:KERNEL32.dll
 0004:000003e0       __imp__GetCurrentThread@0  005323e0     kernel32:KERNEL32.dll
 0004:000003e4       __imp__HeapFree@12         005323e4     kernel32:KERNEL32.dll
 0004:000003e8       __imp__HeapAlloc@12        005323e8     kernel32:KERNEL32.dll
 0004:000003ec       __imp__HeapReAlloc@16      005323ec     kernel32:KERNEL32.dll
 0004:000003f0       __imp__HeapDestroy@4       005323f0     kernel32:KERNEL32.dll
 0004:000003f4       __imp__HeapCreate@12       005323f4     kernel32:KERNEL32.dll
 0004:000003f8       __imp__VirtualFree@12      005323f8     kernel32:KERNEL32.dll
 0004:000003fc       __imp__VirtualAlloc@16     005323fc     kernel32:KERNEL32.dll
 0004:00000400       __imp__CloseHandle@4       00532400     kernel32:KERNEL32.dll
 0004:00000404       __imp__SetHandleCount@4    00532404     kernel32:KERNEL32.dll
 0004:00000408       __imp__GetFileType@4       00532408     kernel32:KERNEL32.dll
 0004:0000040c       __imp__GetStartupInfoA@4   0053240c     kernel32:KERNEL32.dll
 0004:00000410       __imp__SetFilePointer@16   00532410     kernel32:KERNEL32.dll
 0004:00000414       __imp__SetUnhandledExceptionFilter@4 00532414     kernel32:KERNEL32.dll
 0004:00000418       __imp__UnhandledExceptionFilter@4 00532418     kernel32:KERNEL32.dll
 0004:0000041c       __imp__FreeEnvironmentStringsA@4 0053241c     kernel32:KERNEL32.dll
 0004:00000420       __imp__GetEnvironmentStrings@0 00532420     kernel32:KERNEL32.dll
 0004:00000424       __imp__FreeEnvironmentStringsW@4 00532424     kernel32:KERNEL32.dll
 0004:00000428       __imp__GetEnvironmentStringsW@0 00532428     kernel32:KERNEL32.dll
 0004:0000042c       __imp__GetCommandLineA@0   0053242c     kernel32:KERNEL32.dll
 0004:00000430       __imp__GetCommandLineW@0   00532430     kernel32:KERNEL32.dll
 0004:00000434       __imp__LCMapStringA@24     00532434     kernel32:KERNEL32.dll
 0004:00000438       __imp__LCMapStringW@24     00532438     kernel32:KERNEL32.dll
 0004:0000043c       __imp__SetConsoleCtrlHandler@8 0053243c     kernel32:KERNEL32.dll
 0004:00000440       __imp__GetTimeFormatA@24   00532440     kernel32:KERNEL32.dll
 0004:00000444       __imp__GetDateFormatA@24   00532444     kernel32:KERNEL32.dll
 0004:00000448       __imp__GetCPInfo@8         00532448     kernel32:KERNEL32.dll
 0004:0000044c       __imp__GetStringTypeA@20   0053244c     kernel32:KERNEL32.dll
 0004:00000450       __imp__GetStringTypeW@16   00532450     kernel32:KERNEL32.dll
 0004:00000454       __imp__IsValidLocale@8     00532454     kernel32:KERNEL32.dll
 0004:00000458       __imp__IsValidCodePage@4   00532458     kernel32:KERNEL32.dll
 0004:0000045c       __imp__GetLocaleInfoA@16   0053245c     kernel32:KERNEL32.dll
 0004:00000460       __imp__EnumSystemLocalesA@8 00532460     kernel32:KERNEL32.dll
 0004:00000464       __imp__GetUserDefaultLCID@0 00532464     kernel32:KERNEL32.dll
 0004:00000468       __imp__ReadFile@20         00532468     kernel32:KERNEL32.dll
 0004:0000046c       __imp__GetTimeZoneInformation@4 0053246c     kernel32:KERNEL32.dll
 0004:00000470       __imp__InitializeCriticalSection@4 00532470     kernel32:KERNEL32.dll
 0004:00000474       __imp__VirtualQuery@12     00532474     kernel32:KERNEL32.dll
 0004:00000478       __imp__InterlockedExchange@8 00532478     kernel32:KERNEL32.dll
 0004:0000047c       __imp__IsBadCodePtr@4      0053247c     kernel32:KERNEL32.dll
 0004:00000480       __imp__GetACP@0            00532480     kernel32:KERNEL32.dll
 0004:00000484       __imp__GetOEMCP@0          00532484     kernel32:KERNEL32.dll
 0004:00000488       __imp__GetTickCount@0      00532488     kernel32:KERNEL32.dll
 0004:0000048c       __imp__GetCurrentProcessId@0 0053248c     kernel32:KERNEL32.dll
 0004:00000490       __imp__SetStdHandle@8      00532490     kernel32:KERNEL32.dll
 0004:00000494       __imp__FlushFileBuffers@4  00532494     kernel32:KERNEL32.dll
 0004:00000498       __imp__VirtualProtect@16   00532498     kernel32:KERNEL32.dll
 0004:0000049c       __imp__GetSystemInfo@4     0053249c     kernel32:KERNEL32.dll
 0004:000004a0       __imp__CreateFileW@28      005324a0     kernel32:KERNEL32.dll
 0004:000004a4       __imp__CreateFileA@28      005324a4     kernel32:KERNEL32.dll
 0004:000004a8       __imp__GetLocaleInfoW@16   005324a8     kernel32:KERNEL32.dll
 0004:000004ac       __imp__SetEndOfFile@4      005324ac     kernel32:KERNEL32.dll
 0004:000004b0       __imp__CompareStringA@24   005324b0     kernel32:KERNEL32.dll
 0004:000004b4       __imp__CompareStringW@24   005324b4     kernel32:KERNEL32.dll
 0004:000004b8       __imp__SetEnvironmentVariableA@8 005324b8     kernel32:KERNEL32.dll
 0004:000004bc       \177KERNEL32_NULL_THUNK_DATA 005324bc     kernel32:KERNEL32.dll
 0004:00000534       __imp__MessageBoxW@16      00532534     user32:USER32.dll
 0004:00000538       \177USER32_NULL_THUNK_DATA 00532538     user32:USER32.dll
 0004:00000564       __imp__timeGetTime@0       00532564     winmm:WINMM.dll
 0004:00000568       __imp__timeEndPeriod@4     00532568     winmm:WINMM.dll
 0004:0000056c       __imp__timeBeginPeriod@4   0053256c     winmm:WINMM.dll
 0004:00000570       \177WINMM_NULL_THUNK_DATA  00532570     winmm:WINMM.dll
 0005:00000004       ??_7BlockParser@U3D_IDTF@@6B@ 00533004     BlockParser.obj
 0005:0000026c       ??_7File@U3D_IDTF@@6B@     0053326c     File.obj
 0005:00003448       ??_7IFXCoreArray@@6B@      00536448     FileParser.obj
 0005:00003478       ??_7Node@U3D_IDTF@@6B@     00536478     FileParser.obj
 0005:00003484       ??_7LightNode@U3D_IDTF@@6B@ 00536484     FileParser.obj
 0005:00003490       ??_7ViewNodeData@U3D_IDTF@@6B@ 00536490     FileParser.obj
 0005:0000349c       ??_7?$IFXArray@UViewTexture@U3D_IDTF@@@@6B@ 0053649c     FileParser.obj
 0005:000034d0       ??_7ViewNode@U3D_IDTF@@6B@ 005364d0     FileParser.obj
 0005:000034dc       ??_7ModelNode@U3D_IDTF@@6B@ 005364dc     FileParser.obj
 0005:000034e8       ??_7Modifier@U3D_IDTF@@6B@ 005364e8     FileParser.obj
 0005:000034f4       ??_7ShadingModifier@U3D_IDTF@@6B@ 005364f4     FileParser.obj
 0005:00003500       ??_7?$IFXArray@VShaderList@U3D_IDTF@@@@6B@ 00536500     FileParser.obj
 0005:00003534       ??_7?$IFXArray@VIFXString@@@@6B@ 00536534     FileParser.obj
 0005:00003568       ??_7AnimationModifier@U3D_IDTF@@6B@ 00536568     FileParser.obj
 0005:00003574       ??_7?$IFXArray@UMotionInfo@U3D_IDTF@@@@6B@ 00536574     FileParser.obj
 0005:000035a8       ??_7BoneWeightList@U3D_IDTF@@6B@ 005365a8     FileParser.obj
 0005:000035b4       ??_7?$IFXArray@H@@6B@      005365b4     FileParser.obj
 0005:000035e8       ??_7BoneWeightModifier@U3D_IDTF@@6B@ 005365e8     FileParser.obj
 0005:000035f4       ??_7?$IFXArray@VBoneWeightList@U3D_IDTF@@@@6B@ 005365f4     FileParser.obj
 0005:00003628       ??_7CLODModifier@U3D_IDTF@@6B@ 00536628     FileParser.obj
 0005:00003634       ??_7SubdivisionModifier@U3D_IDTF@@6B@ 00536634     FileParser.obj
 0005:00003640       ??_7GlyphCommand@U3D_IDTF@@6B@ 00536640     FileParser.obj
 0005:0000364c       ??_7EndGlyph@U3D_IDTF@@6B@ 0053664c     FileParser.obj
 0005:00003658       ??_7MoveTo@U3D_IDTF@@6B@   00536658     FileParser.obj
 0005:00003664       ??_7LineTo@U3D_IDTF@@6B@   00536664     FileParser.obj
 0005:00003670       ??_7CurveTo@U3D_IDTF@@6B@  00536670     FileParser.obj
 0005:0000367c       ??_7GlyphCommandList@U3D_IDTF@@6B@ 0053667c     FileParser.obj
 0005:00003688       ??_7?$IFXArray@PAVGlyphCommand@U3D_IDTF@@@@6B@ 00536688     FileParser.obj
 0005:000036bc       ??_7?$IFXArray@VGlyphCommand@U3D_IDTF@@@@6B@ 005366bc     FileParser.obj
 0005:000036f0       ??_7?$IFXArray@VEndGlyph@U3D_IDTF@@@@6B@ 005366f0     FileParser.obj
 0005:00003724       ??_7?$IFXArray@VMoveTo@U3D_IDTF@@@@6B@ 00536724     FileParser.obj
 0005:00003758       ??_7?$IFXArray@VLineTo@U3D_IDTF@@@@6B@ 00536758     FileParser.obj
 0005:0000378c       ??_7?$IFXArray@VCurveTo@U3D_IDTF@@@@6B@ 0053678c     FileParser.obj
 0005:000037c0       ??_7GlyphModifier@U3D_IDTF@@6B@ 005367c0     FileParser.obj
 0005:000037cc       ??_7FileParser@U3D_IDTF@@6B@ 005367cc     FileParser.obj
 0005:00003e6c       ??_7IFXException@@6B@      00536e6c     FileReferenceConverter.obj
 0005:00003e78       ??_7IConverter@U3D_IDTF@@6B@ 00536e78     FileReferenceConverter.obj
 0005:00003e84       ??_7FileReferenceConverter@U3D_IDTF@@6B@ 00536e84     FileReferenceConverter.obj
 0005:00003e94       ??_7?$IFXArray@UIFXObjectFilter@@@@6B@ 00536e94     FileReferenceConverter.obj
 0005:0000426c       ??_7UrlList@U3D_IDTF@@6B@  0053726c     FileReferenceParser.obj
 0005:00004278       ??_7FileReferenceParser@U3D_IDTF@@6B@ 00537278     FileReferenceParser.obj
 0005:00004298       ??_7FileScanner@U3D_IDTF@@6B@ 00537298     FileScanner.obj
 0005:00004914       ??_7LineSetConverter@U3D_IDTF@@6B@ 00537914     LineSetConverter.obj
 0005:00004b8c       ??_7Int2@U3D_IDTF@@6B@     00537b8c     LineSetResourceParser.obj
 0005:00004b98       ??_7LineSetResourceParser@U3D_IDTF@@6B@ 00537b98     LineSetResourceParser.obj
 0005:00004c64       ??_7MaterialParser@U3D_IDTF@@6B@ 00537c64     MaterialParser.obj
 0005:00005400       ??_7MeshConverter@U3D_IDTF@@6B@ 00538400     MeshConverter.obj
 0005:0000566c       ??_7Int3@U3D_IDTF@@6B@     0053866c     MeshResourceParser.obj
 0005:00005678       ??_7MeshResourceParser@U3D_IDTF@@6B@ 00538678     MeshResourceParser.obj
 0005:000056e0       ??_7MetaDataConverter@U3D_IDTF@@6B@ 005386e0     MetaDataConverter.obj
 0005:00005748       ??_7MetaDataParser@U3D_IDTF@@6B@ 00538748     MetaDataParser.obj
 0005:00005c08       ??_7ModelConverter@U3D_IDTF@@6B@ 00538c08     ModelConverter.obj
 0005:000066b0       ??_7Point@U3D_IDTF@@6B@    005396b0     ModelResourceParser.obj
 0005:000066bc       ??_7Color@U3D_IDTF@@6B@    005396bc     ModelResourceParser.obj
 0005:000066c8       ??_7?$IFXArray@I@@6B@      005396c8     ModelResourceParser.obj
 0005:000066fc       ??_7Quat@U3D_IDTF@@6B@     005396fc     ModelResourceParser.obj
 0005:00006708       ??_7ModelResourceParser@U3D_IDTF@@6B@ 00539708     ModelResourceParser.obj
 0005:00007a04       ??_7ModifierConverter@U3D_IDTF@@6B@ 0053aa04     ModifierConverter.obj
 0005:000083c8       ??_7ModifierParser@U3D_IDTF@@6B@ 0053b3c8     ModifierParser.obj
 0005:00008c54       ??_7IFXViewLayer@@6B@      0053bc54     NodeConverter.obj
 0005:00008c60       ??_7NodeConverter@U3D_IDTF@@6B@ 0053bc60     NodeConverter.obj
 0005:00009314       ??_7ParentData@U3D_IDTF@@6B@ 0053c314     NodeParser.obj
 0005:00009320       ??_7NodeParser@U3D_IDTF@@6B@ 0053c320     NodeParser.obj
 0005:00009930       ??_7PointSetConverter@U3D_IDTF@@6B@ 0053c930     PointSetConverter.obj
 0005:00009ba8       ??_7PointSetResourceParser@U3D_IDTF@@6B@ 0053cba8     PointSetResourceParser.obj
 0005:0000b5b8       ??_7ResourceConverter@U3D_IDTF@@6B@ 0053e5b8     ResourceConverter.obj
 0005:0000ee34       ??_7Resource@U3D_IDTF@@6B@ 00541e34     ResourceListParser.obj
 0005:0000ee40       ??_7ViewResource@U3D_IDTF@@6B@ 00541e40     ResourceListParser.obj
 0005:0000ee4c       ??_7LightResource@U3D_IDTF@@6B@ 00541e4c     ResourceListParser.obj
 0005:0000ee58       ??_7MeshResource@U3D_IDTF@@6B@ 00541e58     ResourceListParser.obj
 0005:0000ee64       ??_7?$IFXArray@VInt3@U3D_IDTF@@@@6B@ 00541e64     ResourceListParser.obj
 0005:0000ee98       ??_7?$IFXArray@UFaceTexCoords@U3D_IDTF@@@@6B@ 00541e98     ResourceListParser.obj
 0005:0000eecc       ??_7LineSetResource@U3D_IDTF@@6B@ 00541ecc     ResourceListParser.obj
 0005:0000eed8       ??_7?$IFXArray@VInt2@U3D_IDTF@@@@6B@ 00541ed8     ResourceListParser.obj
 0005:0000ef0c       ??_7?$IFXArray@ULineTexCoords@U3D_IDTF@@@@6B@ 00541f0c     ResourceListParser.obj
 0005:0000ef40       ??_7PointSetResource@U3D_IDTF@@6B@ 00541f40     ResourceListParser.obj
 0005:0000ef4c       ??_7?$IFXArray@UPointTexCoords@U3D_IDTF@@@@6B@ 00541f4c     ResourceListParser.obj
 0005:0000ef80       ??_7TextureLayer@U3D_IDTF@@6B@ 00541f80     ResourceListParser.obj
 0005:0000ef8c       ??_7Shader@U3D_IDTF@@6B@   00541f8c     ResourceListParser.obj
 0005:0000ef98       ??_7?$IFXArray@VTextureLayer@U3D_IDTF@@@@6B@ 00541f98     ResourceListParser.obj
 0005:0000efcc       ??_7Material@U3D_IDTF@@6B@ 00541fcc     ResourceListParser.obj
 0005:0000efd8       ??_7ImageFormat@U3D_IDTF@@6B@ 00541fd8     ResourceListParser.obj
 0005:0000efe4       ??_7Texture@U3D_IDTF@@6B@  00541fe4     ResourceListParser.obj
 0005:0000eff0       ??_7?$IFXArray@VImageFormat@U3D_IDTF@@@@6B@ 00541ff0     ResourceListParser.obj
 0005:0000f024       ??_7?$IFXArray@UKeyFrame@U3D_IDTF@@@@6B@ 00542024     ResourceListParser.obj
 0005:0000f058       ??_7MotionResource@U3D_IDTF@@6B@ 00542058     ResourceListParser.obj
 0005:0000f064       ??_7?$IFXArray@VMotionTrack@U3D_IDTF@@@@6B@ 00542064     ResourceListParser.obj
 0005:0000f098       ??_7ResourceListParser@U3D_IDTF@@6B@ 00542098     ResourceListParser.obj
 0005:0000f478       ??_7SceneData@U3D_IDTF@@6B@ 00542478     SceneConverter.obj
 0005:0000f484       ??_7SceneConverter@U3D_IDTF@@6B@ 00542484     SceneConverter.obj
 0005:0000f564       ??_7ShaderParser@U3D_IDTF@@6B@ 00542564     ShaderParser.obj
 0005:0000fe1c       ??_7?$IFXArray@PAVIFXString@@@@6B@ 00542e1c     TextureConverter.obj
 0005:0000fe50       ??_7TextureConverter@U3D_IDTF@@6B@ 00542e50     TextureConverter.obj
 0005:000102e0       ??_7TextureParser@U3D_IDTF@@6B@ 005432e0     TextureParser.obj
 0005:000103c0       ??_7UrlListParser@U3D_IDTF@@6B@ 005433c0     UrlListParser.obj
 0005:0001040c       ??_7IFXString@@6B@         0054340c     IFXCoreStatic:IFXString.obj
 0005:0001142c       ??_7MetaDataList@U3D_IDTF@@6B@ 0054442c     IDTFCommon:MetaDataList.obj
 0005:00011434       ??_7?$IFXArray@VMetaData@U3D_IDTF@@@@6B@ 00544434     IDTFCommon:MetaDataList.obj
 0005:00011460       ??_7StringMetaData@U3D_IDTF@@6B@ 00544460     IDTFCommon:MetaDataList.obj
 0005:00011468       ??_7MetaData@U3D_IDTF@@6B@ 00544468     IDTFCommon:MetaDataList.obj
 0005:00011764       ??_7ParentList@U3D_IDTF@@6B@ 00544764     IDTFCommon:ParentList.obj
 0005:0001176c       ??_7?$IFXArray@VParentData@U3D_IDTF@@@@6B@ 0054476c     IDTFCommon:ParentList.obj
 0005:000127b4       ??_7NodeList@U3D_IDTF@@6B@ 005457b4     IDTFCommon:NodeList.obj
 0005:000127bc       ??_7?$IFXArray@PAVNode@U3D_IDTF@@@@6B@ 005457bc     IDTFCommon:NodeList.obj
 0005:000127e8       ??_7?$IFXArray@VLightNode@U3D_IDTF@@@@6B@ 005457e8     IDTFCommon:NodeList.obj
 0005:00012814       ??_7?$IFXArray@VViewNode@U3D_IDTF@@@@6B@ 00545814     IDTFCommon:NodeList.obj
 0005:00012840       ??_7?$IFXArray@VModelNode@U3D_IDTF@@@@6B@ 00545840     IDTFCommon:NodeList.obj
 0005:0001286c       ??_7?$IFXArray@VNode@U3D_IDTF@@@@6B@ 0054586c     IDTFCommon:NodeList.obj
 0005:0001403c       ??_7LightResourceList@U3D_IDTF@@6B@ 0054703c     IDTFCommon:SceneResources.obj
 0005:00014044       ??_7?$IFXArray@VLightResource@U3D_IDTF@@@@6B@ 00547044     IDTFCommon:SceneResources.obj
 0005:00014070       ??_7ViewResourceList@U3D_IDTF@@6B@ 00547070     IDTFCommon:SceneResources.obj
 0005:00014078       ??_7?$IFXArray@VViewResource@U3D_IDTF@@@@6B@ 00547078     IDTFCommon:SceneResources.obj
 0005:000140a4       ??_7ShaderResourceList@U3D_IDTF@@6B@ 005470a4     IDTFCommon:SceneResources.obj
 0005:000140ac       ??_7?$IFXArray@VShader@U3D_IDTF@@@@6B@ 005470ac     IDTFCommon:SceneResources.obj
 0005:000140d8       ??_7MotionResourceList@U3D_IDTF@@6B@ 005470d8     IDTFCommon:SceneResources.obj
 0005:000140e0       ??_7?$IFXArray@VMotionResource@U3D_IDTF@@@@6B@ 005470e0     IDTFCommon:SceneResources.obj
 0005:0001410c       ??_7MaterialResourceList@U3D_IDTF@@6B@ 0054710c     IDTFCommon:SceneResources.obj
 0005:00014114       ??_7?$IFXArray@VMaterial@U3D_IDTF@@@@6B@ 00547114     IDTFCommon:SceneResources.obj
 0005:00014140       ??_7TextureResourceList@U3D_IDTF@@6B@ 00547140     IDTFCommon:SceneResources.obj
 0005:00014148       ??_7?$IFXArray@VTexture@U3D_IDTF@@@@6B@ 00547148     IDTFCommon:SceneResources.obj
 0005:00014174       ??_7SceneResources@U3D_IDTF@@6B@ 00547174     IDTFCommon:SceneResources.obj
 0005:0001417c       ??_7ResourceList@U3D_IDTF@@6B@ 0054717c     IDTFCommon:ResourceList.obj
 0005:00016524       ??_7ModifierList@U3D_IDTF@@6B@ 00549524     IDTFCommon:ModifierList.obj
 0005:0001652c       ??_7?$IFXArray@PAVModifier@U3D_IDTF@@@@6B@ 0054952c     IDTFCommon:ModifierList.obj
 0005:00016558       ??_7?$IFXArray@VShadingModifier@U3D_IDTF@@@@6B@ 00549558     IDTFCommon:ModifierList.obj
 0005:00016584       ??_7?$IFXArray@VAnimationModifier@U3D_IDTF@@@@6B@ 00549584     IDTFCommon:ModifierList.obj
 0005:000165b0       ??_7?$IFXArray@VBoneWeightModifier@U3D_IDTF@@@@6B@ 005495b0     IDTFCommon:ModifierList.obj
 0005:000165dc       ??_7?$IFXArray@VCLODModifier@U3D_IDTF@@@@6B@ 005495dc     IDTFCommon:ModifierList.obj
 0005:00016608       ??_7?$IFXArray@VSubdivisionModifier@U3D_IDTF@@@@6B@ 00549608     IDTFCommon:ModifierList.obj
 0005:00016634       ??_7?$IFXArray@VGlyphModifier@U3D_IDTF@@@@6B@ 00549634     IDTFCommon:ModifierList.obj
 0005:00016b4c       ??_7FileReference@U3D_IDTF@@6B@ 00549b4c     IDTFCommon:FileReference.obj
 0005:00016b54       ??_7?$IFXArray@VFilter@U3D_IDTF@@@@6B@ 00549b54     IDTFCommon:FileReference.obj
 0005:00016b80       ??_7Filter@U3D_IDTF@@6B@   00549b80     IDTFCommon:FileReference.obj
 0005:00017a3c       ??_7ShadingDescriptionList@U3D_IDTF@@6B@ 0054aa3c     IDTFCommon:ModelResource.obj
 0005:00017a44       ??_7?$IFXArray@VShadingDescription@U3D_IDTF@@@@6B@ 0054aa44     IDTFCommon:ModelResource.obj
 0005:00017a70       ??_7?$IFXArray@UBoneInfo@U3D_IDTF@@@@6B@ 0054aa70     IDTFCommon:ModelResource.obj
 0005:00017a9c       ??_7ModelResource@U3D_IDTF@@6B@ 0054aa9c     IDTFCommon:ModelResource.obj
 0005:00017aa4       ??_7?$IFXArray@VPoint@U3D_IDTF@@@@6B@ 0054aaa4     IDTFCommon:ModelResource.obj
 0005:00017ad0       ??_7?$IFXArray@VColor@U3D_IDTF@@@@6B@ 0054aad0     IDTFCommon:ModelResource.obj
 0005:00017afc       ??_7?$IFXArray@VIFXVector4@@@@6B@ 0054aafc     IDTFCommon:ModelResource.obj
 0005:0001968c       ??_7ModelResourceList@U3D_IDTF@@6B@ 0054c68c     IDTFCommon:ModelResourceList.obj
 0005:00019694       ??_7?$IFXArray@PAVModelResource@U3D_IDTF@@@@6B@ 0054c694     IDTFCommon:ModelResourceList.obj
 0005:000196c0       ??_7?$IFXArray@VMeshResource@U3D_IDTF@@@@6B@ 0054c6c0     IDTFCommon:ModelResourceList.obj
 0005:000196ec       ??_7?$IFXArray@VLineSetResource@U3D_IDTF@@@@6B@ 0054c6ec     IDTFCommon:ModelResourceList.obj
 0005:00019718       ??_7?$IFXArray@VPointSetResource@U3D_IDTF@@@@6B@ 0054c718     IDTFCommon:ModelResourceList.obj
 0005:0001c944       ??_7SceneUtilities@U3D_IDTF@@6B@ 0054f944     IDTFConverterHelpers:SceneUtilities.obj
 0005:0001cf34       ??_7TGAImage@U3D_IDTF@@6B@ 0054ff34     IDTFConverterHelpers:TGAImage.obj
 0005:0001fe04       ??_7IFXRenderClear@@6B@    00552e04     IDTFConverterHelpers:DebugInfo.obj
 0005:0001fe0c       ??_7IFXRenderFog@@6B@      00552e0c     IDTFConverterHelpers:DebugInfo.obj
 0005:0001fe14       ??_7IFXListContext@@6B@    00552e14     IDTFConverterHelpers:DebugInfo.obj
 0005:0001fe1c       ??_7DebugInfo@U3D_IDTF@@6B@ 00552e1c     IDTFConverterHelpers:DebugInfo.obj
 0005:00020564       ??_7IFXCoreList@@6B@       00553564     IFXCoreStatic:IFXCoreList.obj
 0006:00000000       ??_C@_05A@sqrtl?$AA@       00557000     libmmt:libm_error.omu
 0006:00000008       ??_C@_0BG@A@?$ANsqrtl?3?5DOMAIN?5error?6?$AA@ 00557008     libmmt:libm_error.omu
 0006:00000020       ??_C@_04A@sqrt?$AA@        00557020     libmmt:libm_error.omu
 0006:00000028       ??_C@_0BF@A@?$ANsqrt?3?5DOMAIN?5error?6?$AA@ 00557028     libmmt:libm_error.omu
 0006:00000040       ??_C@_05A@sqrtf?$AA@       00557040     libmmt:libm_error.omu
 0006:00000048       ??_C@_0BG@A@?$ANsqrtf?3?5DOMAIN?5error?6?$AA@ 00557048     libmmt:libm_error.omu
 0006:00000060       ??_C@_04A@logl?$AA@        00557060     libmmt:libm_error.omu
 0006:00000068       ??_C@_0BD@A@?$ANlogl?3?5SING?5error?6?$AA@ 00557068     libmmt:libm_error.omu
 0006:0000007c       ??_C@_03A@log?$AA@         0055707c     libmmt:libm_error.omu
 0006:00000080       ??_C@_0BC@A@?$ANlog?3?5SING?5error?6?$AA@ 00557080     libmmt:libm_error.omu
 0006:00000094       ??_C@_04A@logf?$AA@        00557094     libmmt:libm_error.omu
 0006:0000009c       ??_C@_0BD@A@?$ANlogf?3?5SING?5error?6?$AA@ 0055709c     libmmt:libm_error.omu
 0006:000000b0       ??_C@_0BF@A@?$ANlogl?3?5DOMAIN?5error?6?$AA@ 005570b0     libmmt:libm_error.omu
 0006:000000c8       ??_C@_0BE@A@?$ANlog?3?5DOMAIN?5error?6?$AA@ 005570c8     libmmt:libm_error.omu
 0006:000000dc       ??_C@_0BF@A@?$ANlogf?3?5DOMAIN?5error?6?$AA@ 005570dc     libmmt:libm_error.omu
 0006:000000f4       ??_C@_06A@log1pl?$AA@      005570f4     libmmt:libm_error.omu
 0006:000000fc       ??_C@_0BF@A@?$ANlog1pl?3?5SING?5error?6?$AA@ 005570fc     libmmt:libm_error.omu
 0006:00000114       ??_C@_05A@log1p?$AA@       00557114     libmmt:libm_error.omu
 0006:0000011c       ??_C@_0BE@A@?$ANlog1p?3?5SING?5error?6?$AA@ 0055711c     libmmt:libm_error.omu
 0006:00000130       ??_C@_06A@log1pf?$AA@      00557130     libmmt:libm_error.omu
 0006:00000138       ??_C@_0BF@A@?$ANlog1pf?3?5SING?5error?6?$AA@ 00557138     libmmt:libm_error.omu
 0006:00000150       ??_C@_0BH@A@?$ANlog1pl?3?5DOMAIN?5error?6?$AA@ 00557150     libmmt:libm_error.omu
 0006:00000168       ??_C@_0BG@A@?$ANlog1p?3?5DOMAIN?5error?6?$AA@ 00557168     libmmt:libm_error.omu
 0006:00000180       ??_C@_0BH@A@?$ANlog1pf?3?5DOMAIN?5error?6?$AA@ 00557180     libmmt:libm_error.omu
 0006:00000198       ??_C@_06A@log10l?$AA@      00557198     libmmt:libm_error.omu
 0006:000001a0       ??_C@_0BF@A@?$ANlog10l?3?5SING?5error?6?$AA@ 005571a0     libmmt:libm_error.omu
 0006:000001b8       ??_C@_05A@log10?$AA@       005571b8     libmmt:libm_error.omu
 0006:000001c0       ??_C@_0BE@A@?$ANlog10?3?5SING?5error?6?$AA@ 005571c0     libmmt:libm_error.omu
 0006:000001d4       ??_C@_06A@log10f?$AA@      005571d4     libmmt:libm_error.omu
 0006:000001dc       ??_C@_0BF@A@?$ANlog10f?3?5SING?5error?6?$AA@ 005571dc     libmmt:libm_error.omu
 0006:000001f4       ??_C@_0BH@A@?$ANlog10l?3?5DOMAIN?5error?6?$AA@ 005571f4     libmmt:libm_error.omu
 0006:0000020c       ??_C@_0BG@A@?$ANlog10?3?5DOMAIN?5error?6?$AA@ 0055720c     libmmt:libm_error.omu
 0006:00000224       ??_C@_0BH@A@?$ANlog10f?3?5DOMAIN?5error?6?$AA@ 00557224     libmmt:libm_error.omu
 0006:0000023c       ??_C@_05A@log2l?$AA@       0055723c     libmmt:libm_error.omu
 0006:00000244       ??_C@_0BE@A@?$ANlog2l?3?5SING?5error?6?$AA@ 00557244     libmmt:libm_error.omu
 0006:00000258       ??_C@_04A@log2?$AA@        00557258     libmmt:libm_error.omu
 0006:00000260       ??_C@_0BD@A@?$ANlog2?3?5SING?5error?6?$AA@ 00557260     libmmt:libm_error.omu
 0006:00000274       ??_C@_05A@log2f?$AA@       00557274     libmmt:libm_error.omu
 0006:0000027c       ??_C@_0BE@A@?$ANlog2f?3?5SING?5error?6?$AA@ 0055727c     libmmt:libm_error.omu
 0006:00000290       ??_C@_0BG@A@?$ANlog2l?3?5DOMAIN?5error?6?$AA@ 00557290     libmmt:libm_error.omu
 0006:000002a8       ??_C@_0BF@A@?$ANlog2?3?5DOMAIN?5error?6?$AA@ 005572a8     libmmt:libm_error.omu
 0006:000002c0       ??_C@_0BG@A@?$ANlog2f?3?5DOMAIN?5error?6?$AA@ 005572c0     libmmt:libm_error.omu
 0006:000002d8       ??_C@_04A@expl?$AA@        005572d8     libmmt:libm_error.omu
 0006:000002e0       ??_C@_03A@exp?$AA@         005572e0     libmmt:libm_error.omu
 0006:000002e4       ??_C@_04A@expf?$AA@        005572e4     libmmt:libm_error.omu
 0006:000002ec       ??_C@_04A@powl?$AA@        005572ec     libmmt:libm_error.omu
 0006:000002f4       ??_C@_0BK@A@?$ANpowl?$CI0?00?$CJ?3?5DOMAIN?5error?6?$AA@ 005572f4     libmmt:libm_error.omu
 0006:00000310       ??_C@_03A@pow?$AA@         00557310     libmmt:libm_error.omu
 0006:00000314       ??_C@_0BJ@A@?$ANpow?$CI0?00?$CJ?3?5DOMAIN?5error?6?$AA@ 00557314     libmmt:libm_error.omu
 0006:00000330       ??_C@_04A@powf?$AA@        00557330     libmmt:libm_error.omu
 0006:00000338       ??_C@_0BK@A@?$ANpowf?$CI0?00?$CJ?3?5DOMAIN?5error?6?$AA@ 00557338     libmmt:libm_error.omu
 0006:00000354       ??_C@_0CB@A@?$ANpowl?$CI0?0negative?$CJ?3?5DOMAIN?5error?6?$AA@ 00557354     libmmt:libm_error.omu
 0006:00000378       ??_C@_0CA@A@?$ANpow?$CI0?0negative?$CJ?3?5DOMAIN?5error?6?$AA@ 00557378     libmmt:libm_error.omu
 0006:00000398       ??_C@_0CB@A@?$ANpowf?$CI0?0negative?$CJ?3?5DOMAIN?5error?6?$AA@ 00557398     libmmt:libm_error.omu
 0006:000003bc       ??_C@_0CL@A@?$ANpowl?$CInegative?0non?9integer?$CJ?3?5DOMAIN?5error?6?$AA@ 005573bc     libmmt:libm_error.omu
 0006:000003e8       ??_C@_0CK@A@?$ANpow?$CInegative?0non?9integer?$CJ?3?5DOMAIN?5error?6?$AA@ 005573e8     libmmt:libm_error.omu
 0006:00000414       ??_C@_0CL@A@?$ANpowf?$CInegative?0non?9integer?$CJ?3?5DOMAIN?5error?6?$AA@ 00557414     libmmt:libm_error.omu
 0006:00000440       ??_C@_06A@atan2l?$AA@      00557440     libmmt:libm_error.omu
 0006:00000448       ??_C@_0BH@A@?$ANatan2l?3?5DOMAIN?5error?6?$AA@ 00557448     libmmt:libm_error.omu
 0006:00000460       ??_C@_05A@atan2?$AA@       00557460     libmmt:libm_error.omu
 0006:00000468       ??_C@_0BG@A@?$ANatan2?3?5DOMAIN?5error?6?$AA@ 00557468     libmmt:libm_error.omu
 0006:00000480       ??_C@_06A@atan2f?$AA@      00557480     libmmt:libm_error.omu
 0006:00000488       ??_C@_0BH@A@?$ANatan2f?3?5DOMAIN?5error?6?$AA@ 00557488     libmmt:libm_error.omu
 0006:000004a0       ??_C@_07A@atan2dl?$AA@     005574a0     libmmt:libm_error.omu
 0006:000004a8       ??_C@_0BI@A@?$ANatan2dl?3?5DOMAIN?5error?6?$AA@ 005574a8     libmmt:libm_error.omu
 0006:000004c0       ??_C@_06A@atan2d?$AA@      005574c0     libmmt:libm_error.omu
 0006:000004c8       ??_C@_0BH@A@?$ANatan2d?3?5DOMAIN?5error?6?$AA@ 005574c8     libmmt:libm_error.omu
 0006:000004e0       ??_C@_07A@atan2df?$AA@     005574e0     libmmt:libm_error.omu
 0006:000004e8       ??_C@_0BI@A@?$ANatan2df?3?5DOMAIN?5error?6?$AA@ 005574e8     libmmt:libm_error.omu
 0006:00000500       ??_C@_06A@scalbl?$AA@      00557500     libmmt:libm_error.omu
 0006:00000508       ??_C@_05A@scalb?$AA@       00557508     libmmt:libm_error.omu
 0006:00000510       ??_C@_06A@scalbf?$AA@      00557510     libmmt:libm_error.omu
 0006:00000518       ??_C@_06A@hypotl?$AA@      00557518     libmmt:libm_error.omu
 0006:00000520       ??_C@_05A@hypot?$AA@       00557520     libmmt:libm_error.omu
 0006:00000528       ??_C@_06A@hypotf?$AA@      00557528     libmmt:libm_error.omu
 0006:00000530       ??_C@_05A@acosl?$AA@       00557530     libmmt:libm_error.omu
 0006:00000538       ??_C@_0BG@A@?$ANacosl?3?5DOMAIN?5error?6?$AA@ 00557538     libmmt:libm_error.omu
 0006:00000550       ??_C@_04A@acos?$AA@        00557550     libmmt:libm_error.omu
 0006:00000558       ??_C@_0BF@A@?$ANacos?3?5DOMAIN?5error?6?$AA@ 00557558     libmmt:libm_error.omu
 0006:00000570       ??_C@_05A@acosf?$AA@       00557570     libmmt:libm_error.omu
 0006:00000578       ??_C@_0BG@A@?$ANacosf?3?5DOMAIN?5error?6?$AA@ 00557578     libmmt:libm_error.omu
 0006:00000590       ??_C@_05A@asinl?$AA@       00557590     libmmt:libm_error.omu
 0006:00000598       ??_C@_0BG@A@?$ANasinl?3?5DOMAIN?5error?6?$AA@ 00557598     libmmt:libm_error.omu
 0006:000005b0       ??_C@_04A@asin?$AA@        005575b0     libmmt:libm_error.omu
 0006:000005b8       ??_C@_0BF@A@?$ANasin?3?5DOMAIN?5error?6?$AA@ 005575b8     libmmt:libm_error.omu
 0006:000005d0       ??_C@_05A@asinf?$AA@       005575d0     libmmt:libm_error.omu
 0006:000005d8       ??_C@_0BG@A@?$ANasinf?3?5DOMAIN?5error?6?$AA@ 005575d8     libmmt:libm_error.omu
 0006:000005f0       ??_C@_06A@acosdl?$AA@      005575f0     libmmt:libm_error.omu
 0006:000005f8       ??_C@_0BH@A@?$ANacosdl?3?5DOMAIN?5error?6?$AA@ 005575f8     libmmt:libm_error.omu
 0006:00000610       ??_C@_05A@acosd?$AA@       00557610     libmmt:libm_error.omu
 0006:00000618       ??_C@_0BG@A@?$ANacosd?3?5DOMAIN?5error?6?$AA@ 00557618     libmmt:libm_error.omu
 0006:00000630       ??_C@_06A@acosdf?$AA@      00557630     libmmt:libm_error.omu
 0006:00000638       ??_C@_0BH@A@?$ANacosdf?3?5DOMAIN?5error?6?$AA@ 00557638     libmmt:libm_error.omu
 0006:00000650       ??_C@_06A@asindl?$AA@      00557650     libmmt:libm_error.omu
 0006:00000658       ??_C@_0BH@A@?$ANasindl?3?5DOMAIN?5error?6?$AA@ 00557658     libmmt:libm_error.omu
 0006:00000670       ??_C@_05A@asind?$AA@       00557670     libmmt:libm_error.omu
 0006:00000678       ??_C@_0BG@A@?$ANasind?3?5DOMAIN?5error?6?$AA@ 00557678     libmmt:libm_error.omu
 0006:00000690       ??_C@_06A@asindf?$AA@      00557690     libmmt:libm_error.omu
 0006:00000698       ??_C@_0BH@A@?$ANasindf?3?5DOMAIN?5error?6?$AA@ 00557698     libmmt:libm_error.omu
 0006:000006b0       ??_C@_05A@coshl?$AA@       005576b0     libmmt:libm_error.omu
 0006:000006b8       ??_C@_04A@cosh?$AA@        005576b8     libmmt:libm_error.omu
 0006:000006c0       ??_C@_05A@coshf?$AA@       005576c0     libmmt:libm_error.omu
 0006:000006c8       ??_C@_05A@sinhl?$AA@       005576c8     libmmt:libm_error.omu
 0006:000006d0       ??_C@_04A@sinh?$AA@        005576d0     libmmt:libm_error.omu
 0006:000006d8       ??_C@_05A@sinhf?$AA@       005576d8     libmmt:libm_error.omu
 0006:000006e0       ??_C@_06A@acoshl?$AA@      005576e0     libmmt:libm_error.omu
 0006:000006e8       ??_C@_0BH@A@?$ANacoshl?3?5DOMAIN?5error?6?$AA@ 005576e8     libmmt:libm_error.omu
 0006:00000700       ??_C@_05A@acosh?$AA@       00557700     libmmt:libm_error.omu
 0006:00000708       ??_C@_0BG@A@?$ANacosh?3?5DOMAIN?5error?6?$AA@ 00557708     libmmt:libm_error.omu
 0006:00000720       ??_C@_06A@acoshf?$AA@      00557720     libmmt:libm_error.omu
 0006:00000728       ??_C@_0BH@A@?$ANacoshf?3?5DOMAIN?5error?6?$AA@ 00557728     libmmt:libm_error.omu
 0006:00000740       ??_C@_06A@atanhl?$AA@      00557740     libmmt:libm_error.omu
 0006:00000748       ??_C@_0BH@A@?$ANatanhl?3?5DOMAIN?5error?6?$AA@ 00557748     libmmt:libm_error.omu
 0006:00000760       ??_C@_05A@atanh?$AA@       00557760     libmmt:libm_error.omu
 0006:00000768       ??_C@_0BG@A@?$ANatanh?3?5DOMAIN?5error?6?$AA@ 00557768     libmmt:libm_error.omu
 0006:00000780       ??_C@_06A@atanhf?$AA@      00557780     libmmt:libm_error.omu
 0006:00000788       ??_C@_0BH@A@?$ANatanhf?3?5DOMAIN?5error?6?$AA@ 00557788     libmmt:libm_error.omu
 0006:000007a0       ??_C@_0BF@A@?$ANatanhl?3?5SING?5error?6?$AA@ 005577a0     libmmt:libm_error.omu
 0006:000007b8       ??_C@_0BE@A@?$ANatanh?3?5SING?5error?6?$AA@ 005577b8     libmmt:libm_error.omu
 0006:000007cc       ??_C@_0BF@A@?$ANatanhf?3?5SING?5error?6?$AA@ 005577cc     libmmt:libm_error.omu
 0006:000007e4       ??_C@_06A@gammal?$AA@      005577e4     libmmt:libm_error.omu
 0006:000007ec       ??_C@_05A@gamma?$AA@       005577ec     libmmt:libm_error.omu
 0006:000007f4       ??_C@_06A@gammaf?$AA@      005577f4     libmmt:libm_error.omu
 0006:000007fc       ??_C@_0BF@A@?$ANgammal?3?5SING?5error?6?$AA@ 005577fc     libmmt:libm_error.omu
 0006:00000814       ??_C@_0BE@A@?$ANgamma?3?5SING?5error?6?$AA@ 00557814     libmmt:libm_error.omu
 0006:00000828       ??_C@_0BF@A@?$ANgammaf?3?5SING?5error?6?$AA@ 00557828     libmmt:libm_error.omu
 0006:00000840       ??_C@_07A@lgammal?$AA@     00557840     libmmt:libm_error.omu
 0006:00000848       ??_C@_06A@lgamma?$AA@      00557848     libmmt:libm_error.omu
 0006:00000850       ??_C@_07A@lgammaf?$AA@     00557850     libmmt:libm_error.omu
 0006:00000858       ??_C@_0BG@A@?$ANlgammal?3?5SING?5error?6?$AA@ 00557858     libmmt:libm_error.omu
 0006:00000870       ??_C@_0BF@A@?$ANlgamma?3?5SING?5error?6?$AA@ 00557870     libmmt:libm_error.omu
 0006:00000888       ??_C@_0BG@A@?$ANlgammaf?3?5SING?5error?6?$AA@ 00557888     libmmt:libm_error.omu
 0006:000008a0       ??_C@_07A@tgammal?$AA@     005578a0     libmmt:libm_error.omu
 0006:000008a8       ??_C@_06A@tgamma?$AA@      005578a8     libmmt:libm_error.omu
 0006:000008b0       ??_C@_07A@tgammaf?$AA@     005578b0     libmmt:libm_error.omu
 0006:000008b8       ??_C@_0BI@A@?$ANtgammal?3?5DOMAIN?5error?6?$AA@ 005578b8     libmmt:libm_error.omu
 0006:000008d0       ??_C@_0BH@A@?$ANtgamma?3?5DOMAIN?5error?6?$AA@ 005578d0     libmmt:libm_error.omu
 0006:000008e8       ??_C@_0BI@A@?$ANtgammaf?3?5DOMAIN?5error?6?$AA@ 005578e8     libmmt:libm_error.omu
 0006:00000900       ??_C@_03A@j0l?$AA@         00557900     libmmt:libm_error.omu
 0006:00000904       ??_C@_0BD@A@?$ANj0l?3?5TLOSS?5error?6?$AA@ 00557904     libmmt:libm_error.omu
 0006:00000918       ??_C@_02A@j0?$AA@          00557918     libmmt:libm_error.omu
 0006:0000091c       ??_C@_0BC@A@?$ANj0?3?5TLOSS?5error?6?$AA@ 0055791c     libmmt:libm_error.omu
 0006:00000930       ??_C@_03A@j0f?$AA@         00557930     libmmt:libm_error.omu
 0006:00000934       ??_C@_0BD@A@?$ANj0f?3?5TLOSS?5error?6?$AA@ 00557934     libmmt:libm_error.omu
 0006:00000948       ??_C@_03A@j1l?$AA@         00557948     libmmt:libm_error.omu
 0006:0000094c       ??_C@_0BD@A@?$ANj1l?3?5TLOSS?5error?6?$AA@ 0055794c     libmmt:libm_error.omu
 0006:00000960       ??_C@_02A@j1?$AA@          00557960     libmmt:libm_error.omu
 0006:00000964       ??_C@_0BC@A@?$ANj1?3?5TLOSS?5error?6?$AA@ 00557964     libmmt:libm_error.omu
 0006:00000978       ??_C@_03A@j1f?$AA@         00557978     libmmt:libm_error.omu
 0006:0000097c       ??_C@_0BD@A@?$ANj1f?3?5TLOSS?5error?6?$AA@ 0055797c     libmmt:libm_error.omu
 0006:00000990       ??_C@_03A@jnl?$AA@         00557990     libmmt:libm_error.omu
 0006:00000994       ??_C@_0BD@A@?$ANjnl?3?5TLOSS?5error?6?$AA@ 00557994     libmmt:libm_error.omu
 0006:000009a8       ??_C@_02A@jn?$AA@          005579a8     libmmt:libm_error.omu
 0006:000009ac       ??_C@_0BC@A@?$ANjn?3?5TLOSS?5error?6?$AA@ 005579ac     libmmt:libm_error.omu
 0006:000009c0       ??_C@_03A@jnf?$AA@         005579c0     libmmt:libm_error.omu
 0006:000009c4       ??_C@_0BD@A@?$ANjnf?3?5TLOSS?5error?6?$AA@ 005579c4     libmmt:libm_error.omu
 0006:000009d8       ??_C@_03A@y0l?$AA@         005579d8     libmmt:libm_error.omu
 0006:000009dc       ??_C@_0BD@A@?$ANy0l?3?5TLOSS?5error?6?$AA@ 005579dc     libmmt:libm_error.omu
 0006:000009f0       ??_C@_02A@y0?$AA@          005579f0     libmmt:libm_error.omu
 0006:000009f4       ??_C@_0BC@A@?$ANy0?3?5TLOSS?5error?6?$AA@ 005579f4     libmmt:libm_error.omu
 0006:00000a08       ??_C@_03A@y0f?$AA@         00557a08     libmmt:libm_error.omu
 0006:00000a0c       ??_C@_0BD@A@?$ANy0f?3?5TLOSS?5error?6?$AA@ 00557a0c     libmmt:libm_error.omu
 0006:00000a20       ??_C@_0BE@A@?$ANy0l?3?5DOMAIN?5error?6?$AA@ 00557a20     libmmt:libm_error.omu
 0006:00000a34       ??_C@_0BD@A@?$ANy0?3?5DOMAIN?5error?6?$AA@ 00557a34     libmmt:libm_error.omu
 0006:00000a48       ??_C@_0BE@A@?$ANy0f?3?5DOMAIN?5error?6?$AA@ 00557a48     libmmt:libm_error.omu
 0006:00000a5c       ??_C@_03A@y1l?$AA@         00557a5c     libmmt:libm_error.omu
 0006:00000a60       ??_C@_0BD@A@?$ANy1l?3?5TLOSS?5error?6?$AA@ 00557a60     libmmt:libm_error.omu
 0006:00000a74       ??_C@_02A@y1?$AA@          00557a74     libmmt:libm_error.omu
 0006:00000a78       ??_C@_0BC@A@?$ANy1?3?5TLOSS?5error?6?$AA@ 00557a78     libmmt:libm_error.omu
 0006:00000a8c       ??_C@_03A@y1f?$AA@         00557a8c     libmmt:libm_error.omu
 0006:00000a90       ??_C@_0BD@A@?$ANy1f?3?5TLOSS?5error?6?$AA@ 00557a90     libmmt:libm_error.omu
 0006:00000aa4       ??_C@_0BE@A@?$ANy1l?3?5DOMAIN?5error?6?$AA@ 00557aa4     libmmt:libm_error.omu
 0006:00000ab8       ??_C@_0BD@A@?$ANy1?3?5DOMAIN?5error?6?$AA@ 00557ab8     libmmt:libm_error.omu
 0006:00000acc       ??_C@_0BE@A@?$ANy1f?3?5DOMAIN?5error?6?$AA@ 00557acc     libmmt:libm_error.omu
 0006:00000ae0       ??_C@_03A@ynl?$AA@         00557ae0     libmmt:libm_error.omu
 0006:00000ae4       ??_C@_0BD@A@?$ANynl?3?5TLOSS?5error?6?$AA@ 00557ae4     libmmt:libm_error.omu
 0006:00000af8       ??_C@_02A@yn?$AA@          00557af8     libmmt:libm_error.omu
 0006:00000afc       ??_C@_0BC@A@?$ANyn?3?5TLOSS?5error?6?$AA@ 00557afc     libmmt:libm_error.omu
 0006:00000b10       ??_C@_03A@ynf?$AA@         00557b10     libmmt:libm_error.omu
 0006:00000b14       ??_C@_0BD@A@?$ANynf?3?5TLOSS?5error?6?$AA@ 00557b14     libmmt:libm_error.omu
 0006:00000b28       ??_C@_0BE@A@?$ANynl?3?5DOMAIN?5error?6?$AA@ 00557b28     libmmt:libm_error.omu
 0006:00000b3c       ??_C@_0BD@A@?$ANyn?3?5DOMAIN?5error?6?$AA@ 00557b3c     libmmt:libm_error.omu
 0006:00000b50       ??_C@_0BE@A@?$ANynf?3?5DOMAIN?5error?6?$AA@ 00557b50     libmmt:libm_error.omu
 0006:00000b64       ??_C@_05A@fmodl?$AA@       00557b64     libmmt:libm_error.omu
 0006:00000b6c       ??_C@_0BG@A@?$ANfmodl?3?5DOMAIN?5error?6?$AA@ 00557b6c     libmmt:libm_error.omu
 0006:00000b84       ??_C@_04A@fmod?$AA@        00557b84     libmmt:libm_error.omu
 0006:00000b8c       ??_C@_0BF@A@?$ANfmod?3?5DOMAIN?5error?6?$AA@ 00557b8c     libmmt:libm_error.omu
 0006:00000ba4       ??_C@_05A@fmodf?$AA@       00557ba4     libmmt:libm_error.omu
 0006:00000bac       ??_C@_0BG@A@?$ANfmodf?3?5DOMAIN?5error?6?$AA@ 00557bac     libmmt:libm_error.omu
 0006:00000bc4       ??_C@_0L@A@remainderl?$AA@ 00557bc4     libmmt:libm_error.omu
 0006:00000bd0       ??_C@_0BL@A@?$ANremainderl?3?5DOMAIN?5error?6?$AA@ 00557bd0     libmmt:libm_error.omu
 0006:00000bec       ??_C@_09A@remainder?$AA@   00557bec     libmmt:libm_error.omu
 0006:00000bf8       ??_C@_0BK@A@?$ANremainder?3?5DOMAIN?5error?6?$AA@ 00557bf8     libmmt:libm_error.omu
 0006:00000c14       ??_C@_0L@A@remainderf?$AA@ 00557c14     libmmt:libm_error.omu
 0006:00000c20       ??_C@_0BL@A@?$ANremainderf?3?5DOMAIN?5error?6?$AA@ 00557c20     libmmt:libm_error.omu

 entry point at        0001:00079720

