 IFXExporting

 Timestamp is 458c0587 (Fri Dec 22 19:19:19 2006)

 Preferred load address is 10000000

 Start         Length     Name                   Class
 0001:00000000 00099a5bH .text                   CODE
 0002:00000000 0001a0b9H .rdata                  DATA
 0002:0001a0bc 000001aaH .rdata$debug            DATA
 0002:0001a268 00000151H .rdata$r                DATA
 0002:0001a3c0 0000047cH .rdata$sxdata           DATA
 0002:0001a83c 00000104H .rtc$IAA                DATA
 0002:0001a940 00000104H .rtc$IZZ                DATA
 0002:0001aa44 00000104H .rtc$TAA                DATA
 0002:0001ab48 00000104H .rtc$TZZ                DATA
 0002:0001ac50 0000018cH .edata                  DATA
 0003:00000000 00000104H .CRT$XCA                DATA
 0003:00000104 00000104H .CRT$XCAA               DATA
 0003:00000208 00000104H .CRT$XCU                DATA
 0003:0000030c 00000104H .CRT$XCZ                DATA
 0003:00000410 00000104H .CRT$XIA                DATA
 0003:00000514 0000010eH .CRT$XIC                DATA
 0003:00000624 00000104H .CRT$XIY                DATA
 0003:00000728 00000104H .CRT$XIZ                DATA
 0003:0000082c 00000104H .CRT$XPA                DATA
 0003:00000930 00000104H .CRT$XPX                DATA
 0003:00000a34 00000104H .CRT$XPZ                DATA
 0003:00000b38 00000104H .CRT$XTA                DATA
 0003:00000c3c 00000104H .CRT$XTB                DATA
 0003:00000d40 00000104H .CRT$XTZ                DATA
 0003:00000e60 00003713H .data                   DATA
 0003:00004580 00002e58H .bss                    DATA
 0004:00000000 00000064H .idata$2                DATA
 0004:00000064 00000014H .idata$3                DATA
 0004:00000078 000002e0H .idata$4                DATA
 0004:00000358 000002e0H .idata$5                DATA
 0004:00000638 000009e5H .idata$6                DATA
 0005:00000000 00022ac3H .data1                  DATA
 0006:00000000 00000faeH _RDATA                  DATA
 0007:00000000 00000250H .rsrc$01                DATA
 0007:00000250 000010e6H .rsrc$02                DATA

  Address         Publics by Value              Rva+Base     Lib:Object

 0000:00000000       __except_list              00000000     <absolute>
 0000:000000ba       ___safe_se_handler_count   000000ba     <absolute>
 0001:00000010       _DllMain@12                10001010 f   IFXExportingDllMain.obj
 0001:0000009c       _DisableThreadLibraryCalls@4 1000109c f   kernel32:KERNEL32.dll
 0001:000000a4       ?IFXExportingStartup@@YIHXZ 100010a4 f   Exporting:IFXExporting.obj
 0001:000000be       ?IFXExportingShutdown@@YIHXZ 100010be f   Exporting:IFXExporting.obj
 0001:000000d8       @IFXPluginRegister@8       100010d8 f   Exporting:IFXExporting.obj
 0001:0000011a       @IFXPluginCanUnloadNow@0   1000111a f   Exporting:IFXExporting.obj
 0001:0000013c       _fabsf                     1000113c f i Exporting:CIFXAuthorCLODEncoderX.obj
 0001:00000164       _sqrtf                     10001164 f i Exporting:CIFXAuthorCLODEncoderX.obj
 0001:0000018c       ?fabs@@YAMM@Z              1000118c f i Exporting:CIFXAuthorCLODEncoderX.obj
 0001:000001a8       ??8@YIHABUIFXGUID@@0@Z     100011a8 f i Exporting:CIFXAuthorCLODEncoderX.obj
 0001:000002e4       ?IFXCheckX_Inline@@YAXHPAG@Z 100012e4 f i Exporting:CIFXAuthorCLODEncoderX.obj
 0001:00000370       ??_GCIFXAuthorCLODEncoderX@@EAEPAXI@Z 10001370 f i Exporting:CIFXAuthorCLODEncoderX.obj
 0001:00000370       ??_ECIFXAuthorCLODEncoderX@@EAEPAXI@Z 10001370 f i Exporting:CIFXAuthorCLODEncoderX.obj
 0001:0000039c       ??_ECIFXAuthorMeshLocker@@UAEPAXI@Z 1000139c f i Exporting:CIFXAuthorCLODEncoderX.obj
 0001:0000039c       ??_GCIFXAuthorMeshLocker@@UAEPAXI@Z 1000139c f i Exporting:CIFXAuthorCLODEncoderX.obj
 0001:000003c8       ??_EIFXException@@UAEPAXI@Z 100013c8 f i Exporting:CIFXAuthorCLODEncoderX.obj
 0001:000003c8       ??_GIFXException@@UAEPAXI@Z 100013c8 f i Exporting:CIFXAuthorCLODEncoderX.obj
 0001:000003f4       ??4IFXString@@QAEAAV0@ABV0@@Z 100013f4 f i Exporting:CIFXAuthorCLODEncoderX.obj
 0001:00000414       ??4IFXString@@QAEAAV0@PBG@Z 10001414 f i Exporting:CIFXAuthorCLODEncoderX.obj
 0001:00000434       ??0IFXUnknown@@QAE@XZ      10001434 f i Exporting:CIFXAuthorCLODEncoderX.obj
 0001:0000044c       ??0IFXEncoderX@@QAE@XZ     1000144c f i Exporting:CIFXAuthorCLODEncoderX.obj
 0001:000004b0       ??0IFXVector2@@QAE@XZ      100014b0 f i Exporting:CIFXAuthorCLODEncoderX.obj
 0001:000004bc       ?Reset@IFXVector2@@QAEXXZ  100014bc f i Exporting:CIFXAuthorCLODEncoderX.obj
 0001:000004d4       ?U@IFXVector2@@QAEAAMXZ    100014d4 f i Exporting:CIFXAuthorCLODEncoderX.obj
 0001:000004e0       ?V@IFXVector2@@QAEAAMXZ    100014e0 f i Exporting:CIFXAuthorCLODEncoderX.obj
 0001:000004f0       ??0IFXVector3@@QAE@XZ      100014f0 f i Exporting:CIFXAuthorCLODEncoderX.obj
 0001:000004fc       ??0IFXVector3@@QAE@ABV0@@Z 100014fc f i Exporting:CIFXAuthorCLODEncoderX.obj
 0001:0000051c       ?Reset@IFXVector3@@QAEXXZ  1000151c f i Exporting:CIFXAuthorCLODEncoderX.obj
 0001:0000053c       ??4IFXVector3@@QAEAAV0@ABV0@@Z 1000153c f i Exporting:CIFXAuthorCLODEncoderX.obj
 0001:0000056c       ?X@IFXVector3@@QAEAAMXZ    1000156c f i Exporting:CIFXAuthorCLODEncoderX.obj
 0001:00000578       ?Y@IFXVector3@@QAEAAMXZ    10001578 f i Exporting:CIFXAuthorCLODEncoderX.obj
 0001:00000588       ?Z@IFXVector3@@QAEAAMXZ    10001588 f i Exporting:CIFXAuthorCLODEncoderX.obj
 0001:00000598       ?Add@IFXVector3@@QAEAAV1@ABV1@@Z 10001598 f i Exporting:CIFXAuthorCLODEncoderX.obj
 0001:000005e0       ?Multiply@IFXVector3@@QAEAAV1@ABV1@@Z 100015e0 f i Exporting:CIFXAuthorCLODEncoderX.obj
 0001:00000628       ?Scale@IFXVector3@@QAEAAV1@M@Z 10001628 f i Exporting:CIFXAuthorCLODEncoderX.obj
 0001:00000668       ?Reciprocate@IFXVector3@@QAEAAV1@XZ 10001668 f i Exporting:CIFXAuthorCLODEncoderX.obj
 0001:00000710       ?CalcDistanceSquaredFrom@IFXVector3@@QBEMABV1@@Z 10001710 f i Exporting:CIFXAuthorCLODEncoderX.obj
 0001:00000778       ??0IFXVector4@@QAE@XZ      10001778 f i Exporting:CIFXAuthorCLODEncoderX.obj
 0001:00000784       ?Set@IFXVector4@@QAEXMMMM@Z 10001784 f i Exporting:CIFXAuthorCLODEncoderX.obj
 0001:000007b4       ?R@IFXVector4@@QAEAAMXZ    100017b4 f i Exporting:CIFXAuthorCLODEncoderX.obj
 0001:000007c0       ?G@IFXVector4@@QAEAAMXZ    100017c0 f i Exporting:CIFXAuthorCLODEncoderX.obj
 0001:000007d0       ?B@IFXVector4@@QAEAAMXZ    100017d0 f i Exporting:CIFXAuthorCLODEncoderX.obj
 0001:000007e0       ?A@IFXVector4@@QAEAAMXZ    100017e0 f i Exporting:CIFXAuthorCLODEncoderX.obj
 0001:000007f0       ??0CIFXAuthorMeshLocker@@QAE@PAVIFXAuthorMesh@@@Z 100017f0 f i Exporting:CIFXAuthorCLODEncoderX.obj
 0001:00000824       ??1CIFXAuthorMeshLocker@@UAE@XZ 10001824 f i Exporting:CIFXAuthorCLODEncoderX.obj
 0001:00000840       ?Lock@CIFXAuthorMeshLocker@@QAEHPAVIFXAuthorMesh@@@Z 10001840 f i Exporting:CIFXAuthorCLODEncoderX.obj
 0001:000008d8       ?Unlock@CIFXAuthorMeshLocker@@QAEHXZ 100018d8 f i Exporting:CIFXAuthorCLODEncoderX.obj
 0001:0000093c       ??0IFXBoneInfo@@QAE@XZ     1000193c f i Exporting:CIFXAuthorCLODEncoderX.obj
 0001:00000b3c       ??1IFXBoneInfo@@QAE@XZ     10001b3c f i Exporting:CIFXAuthorCLODEncoderX.obj
 0001:00000bf8       ??0?$IFXAutoRelease@VIFXCoreServices@@@@QAE@AAPAVIFXCoreServices@@@Z 10001bf8 f i Exporting:CIFXAuthorCLODEncoderX.obj
 0001:00000c54       ??1?$IFXAutoRelease@VIFXCoreServices@@@@QAE@XZ 10001c54 f i Exporting:CIFXAuthorCLODEncoderX.obj
 0001:00000ccc       ??0?$IFXAutoRelease@VIFXAuthorCLODResource@@@@QAE@AAPAVIFXAuthorCLODResource@@@Z 10001ccc f i Exporting:CIFXAuthorCLODEncoderX.obj
 0001:00000d28       ??1?$IFXAutoRelease@VIFXAuthorCLODResource@@@@QAE@XZ 10001d28 f i Exporting:CIFXAuthorCLODEncoderX.obj
 0001:00000dac       ??0?$IFXAutoRelease@VIFXAuthorCLODMesh@@@@QAE@AAPAVIFXAuthorCLODMesh@@@Z 10001dac f i Exporting:CIFXAuthorCLODEncoderX.obj
 0001:00000e08       ??1?$IFXAutoRelease@VIFXAuthorCLODMesh@@@@QAE@XZ 10001e08 f i Exporting:CIFXAuthorCLODEncoderX.obj
 0001:00000e80       ??0IFXException@@QAE@H@Z   10001e80 f i Exporting:CIFXAuthorCLODEncoderX.obj
 0001:00000f1c       ??0IFXException@@QAA@HPBGZZ 10001f1c f i Exporting:CIFXAuthorCLODEncoderX.obj
 0001:00000fdc       ??0IFXException@@QAE@ABV0@@Z 10001fdc f i Exporting:CIFXAuthorCLODEncoderX.obj
 0001:00001080       ??1IFXException@@UAE@XZ    10002080 f i Exporting:CIFXAuthorCLODEncoderX.obj
 0001:00001110       ??4IFXException@@QAEAAV0@ABV0@@Z 10002110 f i Exporting:CIFXAuthorCLODEncoderX.obj
 0001:0000114c       ??0?$IFXAutoRelease@VIFXDataBlockQueueX@@@@QAE@AAPAVIFXDataBlockQueueX@@@Z 1000214c f i Exporting:CIFXAuthorCLODEncoderX.obj
 0001:000011a8       ??1?$IFXAutoRelease@VIFXDataBlockQueueX@@@@QAE@XZ 100021a8 f i Exporting:CIFXAuthorCLODEncoderX.obj
 0001:00001220       ??0?$IFXAutoRelease@VIFXDataBlockX@@@@QAE@AAPAVIFXDataBlockX@@@Z 10002220 f i Exporting:CIFXAuthorCLODEncoderX.obj
 0001:0000127c       ??1?$IFXAutoRelease@VIFXDataBlockX@@@@QAE@XZ 1000227c f i Exporting:CIFXAuthorCLODEncoderX.obj
 0001:00001300       ??0?$IFXAutoRelease@VIFXMarkerX@@@@QAE@AAPAVIFXMarkerX@@@Z 10002300 f i Exporting:CIFXAuthorCLODEncoderX.obj
 0001:0000135c       ??1?$IFXAutoRelease@VIFXMarkerX@@@@QAE@XZ 1000235c f i Exporting:CIFXAuthorCLODEncoderX.obj
 0001:000013e0       ??0?$IFXAutoRelease@VIFXMeshMap@@@@QAE@AAPAVIFXMeshMap@@@Z 100023e0 f i Exporting:CIFXAuthorCLODEncoderX.obj
 0001:0000143c       ??1?$IFXAutoRelease@VIFXMeshMap@@@@QAE@XZ 1000243c f i Exporting:CIFXAuthorCLODEncoderX.obj
 0001:000014b4       ??0?$IFXAutoRelease@VIFXAuthorGeomCompiler@@@@QAE@AAPAVIFXAuthorGeomCompiler@@@Z 100024b4 f i Exporting:CIFXAuthorCLODEncoderX.obj
 0001:00001510       ??1?$IFXAutoRelease@VIFXAuthorGeomCompiler@@@@QAE@XZ 10002510 f i Exporting:CIFXAuthorCLODEncoderX.obj
 0001:00001588       ??0?$IFXAutoRelease@VIFXSceneGraph@@@@QAE@AAPAVIFXSceneGraph@@@Z 10002588 f i Exporting:CIFXAuthorCLODEncoderX.obj
 0001:000015e4       ??1?$IFXAutoRelease@VIFXSceneGraph@@@@QAE@XZ 100025e4 f i Exporting:CIFXAuthorCLODEncoderX.obj
 0001:00001668       ??0?$IFXAutoRelease@VIFXBitStreamX@@@@QAE@AAPAVIFXBitStreamX@@@Z 10002668 f i Exporting:CIFXAuthorCLODEncoderX.obj
 0001:000016c4       ??1?$IFXAutoRelease@VIFXBitStreamX@@@@QAE@XZ 100026c4 f i Exporting:CIFXAuthorCLODEncoderX.obj
 0001:0000173c       ??0?$IFXAutoRelease@VIFXMetaDataX@@@@QAE@AAPAVIFXMetaDataX@@@Z 1000273c f i Exporting:CIFXAuthorCLODEncoderX.obj
 0001:00001798       ??1?$IFXAutoRelease@VIFXMetaDataX@@@@QAE@XZ 10002798 f i Exporting:CIFXAuthorCLODEncoderX.obj
 0001:0000181c       ?CIFXAuthorCLODEncoderX_Factory@@YIHABUIFXGUID@@PAPAX@Z 1000281c f   Exporting:CIFXAuthorCLODEncoderX.obj
 0001:000019b0       ?AddRef@CIFXAuthorCLODEncoderX@@UAIIXZ 100029b0 f   Exporting:CIFXAuthorCLODEncoderX.obj
 0001:000019ca       ?Release@CIFXAuthorCLODEncoderX@@UAIIXZ 100029ca f   Exporting:CIFXAuthorCLODEncoderX.obj
 0001:00001a18       ?QueryInterface@CIFXAuthorCLODEncoderX@@UAIHABUIFXGUID@@PAPAX@Z 10002a18 f   Exporting:CIFXAuthorCLODEncoderX.obj
 0001:00001ae2       ?SetObjectX@CIFXAuthorCLODEncoderX@@UAIXAAVIFXUnknown@@@Z 10002ae2 f   Exporting:CIFXAuthorCLODEncoderX.obj
 0001:00001b80       ?InitializeX@CIFXAuthorCLODEncoderX@@UAIXAAVIFXCoreServices@@@Z 10002b80 f   Exporting:CIFXAuthorCLODEncoderX.obj
 0001:00001bde       ?EncodeX@CIFXAuthorCLODEncoderX@@UAIXAAVIFXString@@AAVIFXDataBlockQueueX@@N@Z 10002bde f   Exporting:CIFXAuthorCLODEncoderX.obj
 0001:00002be6       ??0CIFXAuthorCLODEncoderX@@AAE@XZ 10003be6 f   Exporting:CIFXAuthorCLODEncoderX.obj
 0001:00002e7a       ??1CIFXAuthorCLODEncoderX@@EAE@XZ 10003e7a f   Exporting:CIFXAuthorCLODEncoderX.obj
 0001:00002fe0       ?CalculateQuantizationFactorsX@CIFXAuthorCLODEncoderX@@AAEXXZ 10003fe0 f   Exporting:CIFXAuthorCLODEncoderX.obj
 0001:0000417e       ?PrepareForMakingBlocksX@CIFXAuthorCLODEncoderX@@AAEXXZ 1000517e f   Exporting:CIFXAuthorCLODEncoderX.obj
 0001:00004678       ?MakeAuthorCLODDeclarationBlockX@CIFXAuthorCLODEncoderX@@AAEXAAVIFXString@@AAVIFXDataBlockQueueX@@@Z 10005678 f   Exporting:CIFXAuthorCLODEncoderX.obj
 0001:00005e98       ?AddRef@CIFXAuthorCLODEncoderX@@$4PPPPPPPM@A@AIIXZ 10006e98 f i Exporting:CIFXAuthorCLODEncoderX.obj
 0001:00005eb8       ?Release@CIFXAuthorCLODEncoderX@@$4PPPPPPPM@A@AIIXZ 10006eb8 f i Exporting:CIFXAuthorCLODEncoderX.obj
 0001:00005ed8       ?QueryInterface@CIFXAuthorCLODEncoderX@@$4PPPPPPPM@A@AIHABUIFXGUID@@PAPAX@Z 10006ed8 f i Exporting:CIFXAuthorCLODEncoderX.obj
 0001:00005ef8       ?SetObjectX@CIFXAuthorCLODEncoderX@@$4PPPPPPPM@A@AIXAAVIFXUnknown@@@Z 10006ef8 f i Exporting:CIFXAuthorCLODEncoderX.obj
 0001:00005f18       ?InitializeX@CIFXAuthorCLODEncoderX@@$4PPPPPPPM@A@AIXAAVIFXCoreServices@@@Z 10006f18 f i Exporting:CIFXAuthorCLODEncoderX.obj
 0001:00005f38       ?EncodeX@CIFXAuthorCLODEncoderX@@$4PPPPPPPM@A@AIXAAVIFXString@@AAVIFXDataBlockQueueX@@N@Z 10006f38 f i Exporting:CIFXAuthorCLODEncoderX.obj
 0001:00005f58       ??_ECIFXAnimationModifierEncoder@@EAEPAXI@Z 10006f58 f i Exporting:CIFXAnimationModifierEncoder.obj
 0001:00005f58       ??_GCIFXAnimationModifierEncoder@@EAEPAXI@Z 10006f58 f i Exporting:CIFXAnimationModifierEncoder.obj
 0001:00005f84       ?CIFXAnimationModifierEncoder_Factory@@YIHABUIFXGUID@@PAPAX@Z 10006f84 f   Exporting:CIFXAnimationModifierEncoder.obj
 0001:00006118       ?AddRef@CIFXAnimationModifierEncoder@@UAIIXZ 10007118 f   Exporting:CIFXAnimationModifierEncoder.obj
 0001:00006132       ?Release@CIFXAnimationModifierEncoder@@UAIIXZ 10007132 f   Exporting:CIFXAnimationModifierEncoder.obj
 0001:0000617e       ?QueryInterface@CIFXAnimationModifierEncoder@@UAIHABUIFXGUID@@PAPAX@Z 1000717e f   Exporting:CIFXAnimationModifierEncoder.obj
 0001:00006262       ?EncodeX@CIFXAnimationModifierEncoder@@UAIXAAVIFXString@@AAVIFXDataBlockQueueX@@N@Z 10007262 f   Exporting:CIFXAnimationModifierEncoder.obj
 0001:00006e12       ?InitializeX@CIFXAnimationModifierEncoder@@UAIXAAVIFXCoreServices@@@Z 10007e12 f   Exporting:CIFXAnimationModifierEncoder.obj
 0001:00006f78       ?SetObjectX@CIFXAnimationModifierEncoder@@UAIXAAVIFXUnknown@@@Z 10007f78 f   Exporting:CIFXAnimationModifierEncoder.obj
 0001:00007046       ??0CIFXAnimationModifierEncoder@@AAE@XZ 10008046 f   Exporting:CIFXAnimationModifierEncoder.obj
 0001:00007132       ??1CIFXAnimationModifierEncoder@@EAE@XZ 10008132 f   Exporting:CIFXAnimationModifierEncoder.obj
 0001:000071f4       ?AddRef@CIFXAnimationModifierEncoder@@$4PPPPPPPM@A@AIIXZ 100081f4 f i Exporting:CIFXAnimationModifierEncoder.obj
 0001:00007214       ?Release@CIFXAnimationModifierEncoder@@$4PPPPPPPM@A@AIIXZ 10008214 f i Exporting:CIFXAnimationModifierEncoder.obj
 0001:00007234       ?QueryInterface@CIFXAnimationModifierEncoder@@$4PPPPPPPM@A@AIHABUIFXGUID@@PAPAX@Z 10008234 f i Exporting:CIFXAnimationModifierEncoder.obj
 0001:00007254       ?SetObjectX@CIFXAnimationModifierEncoder@@$4PPPPPPPM@A@AIXAAVIFXUnknown@@@Z 10008254 f i Exporting:CIFXAnimationModifierEncoder.obj
 0001:00007274       ?InitializeX@CIFXAnimationModifierEncoder@@$4PPPPPPPM@A@AIXAAVIFXCoreServices@@@Z 10008274 f i Exporting:CIFXAnimationModifierEncoder.obj
 0001:00007294       ?EncodeX@CIFXAnimationModifierEncoder@@$4PPPPPPPM@A@AIXAAVIFXString@@AAVIFXDataBlockQueueX@@N@Z 10008294 f i Exporting:CIFXAnimationModifierEncoder.obj
 0001:000072b4       ??_ECIFXMaterialResourceEncoder@@EAEPAXI@Z 100082b4 f i Exporting:CIFXMaterialResourceEncoder.obj
 0001:000072b4       ??_GCIFXMaterialResourceEncoder@@EAEPAXI@Z 100082b4 f i Exporting:CIFXMaterialResourceEncoder.obj
 0001:000072e0       ?CIFXMaterialResourceEncoder_Factory@@YIHABUIFXGUID@@PAPAX@Z 100082e0 f   Exporting:CIFXMaterialResourceEncoder.obj
 0001:00007474       ?AddRef@CIFXMaterialResourceEncoder@@UAIIXZ 10008474 f   Exporting:CIFXMaterialResourceEncoder.obj
 0001:0000748e       ?Release@CIFXMaterialResourceEncoder@@UAIIXZ 1000848e f   Exporting:CIFXMaterialResourceEncoder.obj
 0001:000074da       ?QueryInterface@CIFXMaterialResourceEncoder@@UAIHABUIFXGUID@@PAPAX@Z 100084da f   Exporting:CIFXMaterialResourceEncoder.obj
 0001:000075be       ?EncodeX@CIFXMaterialResourceEncoder@@UAIXAAVIFXString@@AAVIFXDataBlockQueueX@@N@Z 100085be f   Exporting:CIFXMaterialResourceEncoder.obj
 0001:00008048       ?InitializeX@CIFXMaterialResourceEncoder@@UAIXAAVIFXCoreServices@@@Z 10009048 f   Exporting:CIFXMaterialResourceEncoder.obj
 0001:000081c2       ?SetObjectX@CIFXMaterialResourceEncoder@@UAIXAAVIFXUnknown@@@Z 100091c2 f   Exporting:CIFXMaterialResourceEncoder.obj
 0001:000082a2       ??0CIFXMaterialResourceEncoder@@AAE@XZ 100092a2 f   Exporting:CIFXMaterialResourceEncoder.obj
 0001:0000838e       ??1CIFXMaterialResourceEncoder@@EAE@XZ 1000938e f   Exporting:CIFXMaterialResourceEncoder.obj
 0001:00008450       ?AddRef@CIFXMaterialResourceEncoder@@$4PPPPPPPM@A@AIIXZ 10009450 f i Exporting:CIFXMaterialResourceEncoder.obj
 0001:00008470       ?Release@CIFXMaterialResourceEncoder@@$4PPPPPPPM@A@AIIXZ 10009470 f i Exporting:CIFXMaterialResourceEncoder.obj
 0001:00008490       ?QueryInterface@CIFXMaterialResourceEncoder@@$4PPPPPPPM@A@AIHABUIFXGUID@@PAPAX@Z 10009490 f i Exporting:CIFXMaterialResourceEncoder.obj
 0001:000084b0       ?SetObjectX@CIFXMaterialResourceEncoder@@$4PPPPPPPM@A@AIXAAVIFXUnknown@@@Z 100094b0 f i Exporting:CIFXMaterialResourceEncoder.obj
 0001:000084d0       ?InitializeX@CIFXMaterialResourceEncoder@@$4PPPPPPPM@A@AIXAAVIFXCoreServices@@@Z 100094d0 f i Exporting:CIFXMaterialResourceEncoder.obj
 0001:000084f0       ?EncodeX@CIFXMaterialResourceEncoder@@$4PPPPPPPM@A@AIXAAVIFXString@@AAVIFXDataBlockQueueX@@N@Z 100094f0 f i Exporting:CIFXMaterialResourceEncoder.obj
 0001:00008510       ??_ECIFXMotionResourceEncoder@@EAEPAXI@Z 10009510 f i Exporting:CIFXMotionResourceEncoder.obj
 0001:00008510       ??_GCIFXMotionResourceEncoder@@EAEPAXI@Z 10009510 f i Exporting:CIFXMotionResourceEncoder.obj
 0001:0000853c       ??_HIFXKeyFrame@@QAEPAV0@I@Z 1000953c f i Exporting:CIFXMotionResourceEncoder.obj
 0001:00008574       ??0IFXVector3@@QAE@MMM@Z   10009574 f i Exporting:CIFXMotionResourceEncoder.obj
 0001:000085a4       ?Set@IFXVector3@@QAEXMMM@Z 100095a4 f i Exporting:CIFXMotionResourceEncoder.obj
 0001:000085cc       ?Add@IFXVector3@@QAEAAV1@ABV1@0@Z 100095cc f i Exporting:CIFXMotionResourceEncoder.obj
 0001:00008614       ?Subtract@IFXVector3@@QAEAAV1@ABV1@0@Z 10009614 f i Exporting:CIFXMotionResourceEncoder.obj
 0001:0000865c       ?CalcMagnitude@IFXVector3@@QBEMXZ 1000965c f i Exporting:CIFXMotionResourceEncoder.obj
 0001:000086a4       ??0IFXQuaternion@@QAE@XZ   100096a4 f i Exporting:CIFXMotionResourceEncoder.obj
 0001:000086d0       ??0IFXQuaternion@@QAE@ABV0@@Z 100096d0 f i Exporting:CIFXMotionResourceEncoder.obj
 0001:000086f0       ??0IFXQuaternion@@QAE@MMMM@Z 100096f0 f i Exporting:CIFXMotionResourceEncoder.obj
 0001:00008728       ??4IFXQuaternion@@QAEAAV0@ABV0@@Z 10009728 f i Exporting:CIFXMotionResourceEncoder.obj
 0001:00008764       ?Set@IFXQuaternion@@QAEXMMMM@Z 10009764 f i Exporting:CIFXMotionResourceEncoder.obj
 0001:00008794       ?MakeIdentity@IFXQuaternion@@QAEXXZ 10009794 f i Exporting:CIFXMotionResourceEncoder.obj
 0001:000087bc       ?Raw@IFXQuaternion@@QAEPAMXZ 100097bc f i Exporting:CIFXMotionResourceEncoder.obj
 0001:000087c8       ?RawConst@IFXQuaternion@@QBEPBMXZ 100097c8 f i Exporting:CIFXMotionResourceEncoder.obj
 0001:000087d4       ?Invert@IFXQuaternion@@QAEAAV1@XZ 100097d4 f i Exporting:CIFXMotionResourceEncoder.obj
 0001:0000880c       ?Multiply@IFXQuaternion@@QAEAAV1@ABV1@0@Z 1000980c f i Exporting:CIFXMotionResourceEncoder.obj
 0001:000089c0       ??0IFXInstant@@QAE@XZ      100099c0 f i Exporting:CIFXMotionResourceEncoder.obj
 0001:000089fc       ?Reset@IFXInstant@@QAEXXZ  100099fc f i Exporting:CIFXMotionResourceEncoder.obj
 0001:00008a40       ?Location@IFXInstant@@QAEAAVIFXVector3@@XZ 10009a40 f i Exporting:CIFXMotionResourceEncoder.obj
 0001:00008a4c       ?Rotation@IFXInstant@@QAEAAVIFXQuaternion@@XZ 10009a4c f i Exporting:CIFXMotionResourceEncoder.obj
 0001:00008a5c       ?Scale@IFXInstant@@QAEAAVIFXVector3@@XZ 10009a5c f i Exporting:CIFXMotionResourceEncoder.obj
 0001:00008a6c       ??4IFXInstant@@QAEAAV0@ABV0@@Z 10009a6c f i Exporting:CIFXMotionResourceEncoder.obj
 0001:00008abc       ??0IFXKeyFrame@@QAE@XZ     10009abc f i Exporting:CIFXMotionResourceEncoder.obj
 0001:00008adc       ?Time@IFXKeyFrame@@QAEAAMXZ 10009adc f i Exporting:CIFXMotionResourceEncoder.obj
 0001:00008aec       ?SetTime@IFXKeyFrame@@QAEXM@Z 10009aec f i Exporting:CIFXMotionResourceEncoder.obj
 0001:00008b00       ??4IFXKeyFrame@@QAEAAV0@ABV0@@Z 10009b00 f i Exporting:CIFXMotionResourceEncoder.obj
 0001:00008b2c       ?CIFXMotionResourceEncoder_Factory@@YIHABUIFXGUID@@PAPAX@Z 10009b2c f   Exporting:CIFXMotionResourceEncoder.obj
 0001:00008cc0       ?AddRef@CIFXMotionResourceEncoder@@UAIIXZ 10009cc0 f   Exporting:CIFXMotionResourceEncoder.obj
 0001:00008cda       ?Release@CIFXMotionResourceEncoder@@UAIIXZ 10009cda f   Exporting:CIFXMotionResourceEncoder.obj
 0001:00008d26       ?QueryInterface@CIFXMotionResourceEncoder@@UAIHABUIFXGUID@@PAPAX@Z 10009d26 f   Exporting:CIFXMotionResourceEncoder.obj
 0001:00008e0a       ?EncodeX@CIFXMotionResourceEncoder@@UAIXAAVIFXString@@AAVIFXDataBlockQueueX@@N@Z 10009e0a f   Exporting:CIFXMotionResourceEncoder.obj
 0001:0000b900       ?InitializeX@CIFXMotionResourceEncoder@@UAIXAAVIFXCoreServices@@@Z 1000c900 f   Exporting:CIFXMotionResourceEncoder.obj
 0001:0000bac0       ?SetObjectX@CIFXMotionResourceEncoder@@UAIXAAVIFXUnknown@@@Z 1000cac0 f   Exporting:CIFXMotionResourceEncoder.obj
 0001:0000bb8e       ??0CIFXMotionResourceEncoder@@AAE@XZ 1000cb8e f   Exporting:CIFXMotionResourceEncoder.obj
 0001:0000bc7a       ??1CIFXMotionResourceEncoder@@EAE@XZ 1000cc7a f   Exporting:CIFXMotionResourceEncoder.obj
 0001:0000bd3c       ?AddRef@CIFXMotionResourceEncoder@@$4PPPPPPPM@A@AIIXZ 1000cd3c f i Exporting:CIFXMotionResourceEncoder.obj
 0001:0000bd5c       ?Release@CIFXMotionResourceEncoder@@$4PPPPPPPM@A@AIIXZ 1000cd5c f i Exporting:CIFXMotionResourceEncoder.obj
 0001:0000bd7c       ?QueryInterface@CIFXMotionResourceEncoder@@$4PPPPPPPM@A@AIHABUIFXGUID@@PAPAX@Z 1000cd7c f i Exporting:CIFXMotionResourceEncoder.obj
 0001:0000bd9c       ?SetObjectX@CIFXMotionResourceEncoder@@$4PPPPPPPM@A@AIXAAVIFXUnknown@@@Z 1000cd9c f i Exporting:CIFXMotionResourceEncoder.obj
 0001:0000bdbc       ?InitializeX@CIFXMotionResourceEncoder@@$4PPPPPPPM@A@AIXAAVIFXCoreServices@@@Z 1000cdbc f i Exporting:CIFXMotionResourceEncoder.obj
 0001:0000bddc       ?EncodeX@CIFXMotionResourceEncoder@@$4PPPPPPPM@A@AIXAAVIFXString@@AAVIFXDataBlockQueueX@@N@Z 1000cddc f i Exporting:CIFXMotionResourceEncoder.obj
 0001:0000bdfc       ??_GCIFXGlyphGeneratorEncoder@@EAEPAXI@Z 1000cdfc f i Exporting:CIFXGlyphModifierEncoder.obj
 0001:0000bdfc       ??_ECIFXGlyphGeneratorEncoder@@EAEPAXI@Z 1000cdfc f i Exporting:CIFXGlyphModifierEncoder.obj
 0001:0000be28       ??0?$IFXAutoRelease@VIFXModifier@@@@QAE@AAPAVIFXModifier@@@Z 1000ce28 f i Exporting:CIFXGlyphModifierEncoder.obj
 0001:0000be84       ??1?$IFXAutoRelease@VIFXModifier@@@@QAE@XZ 1000ce84 f i Exporting:CIFXGlyphModifierEncoder.obj
 0001:0000bf08       ??0IFXMatrix4x4@@QAE@XZ    1000cf08 f i Exporting:CIFXGlyphModifierEncoder.obj
 0001:0000bf14       ??4IFXMatrix4x4@@QAEAAV0@ABV0@@Z 1000cf14 f i Exporting:CIFXGlyphModifierEncoder.obj
 0001:0000bf44       ?Raw@IFXMatrix4x4@@QAEPAMXZ 1000cf44 f i Exporting:CIFXGlyphModifierEncoder.obj
 0001:0000bf50       ?CIFXGlyphGeneratorEncoder_Factory@@YIHABUIFXGUID@@PAPAX@Z 1000cf50 f   Exporting:CIFXGlyphModifierEncoder.obj
 0001:0000c0e4       ?AddRef@CIFXGlyphGeneratorEncoder@@UAIIXZ 1000d0e4 f   Exporting:CIFXGlyphModifierEncoder.obj
 0001:0000c0fe       ?Release@CIFXGlyphGeneratorEncoder@@UAIIXZ 1000d0fe f   Exporting:CIFXGlyphModifierEncoder.obj
 0001:0000c14a       ?QueryInterface@CIFXGlyphGeneratorEncoder@@UAIHABUIFXGUID@@PAPAX@Z 1000d14a f   Exporting:CIFXGlyphModifierEncoder.obj
 0001:0000c22e       ?EncodeX@CIFXGlyphGeneratorEncoder@@UAIXAAVIFXString@@AAVIFXDataBlockQueueX@@N@Z 1000d22e f   Exporting:CIFXGlyphModifierEncoder.obj
 0001:0000d38e       ?InitializeX@CIFXGlyphGeneratorEncoder@@UAIXAAVIFXCoreServices@@@Z 1000e38e f   Exporting:CIFXGlyphModifierEncoder.obj
 0001:0000d504       ?SetObjectX@CIFXGlyphGeneratorEncoder@@UAIXAAVIFXUnknown@@@Z 1000e504 f   Exporting:CIFXGlyphModifierEncoder.obj
 0001:0000d6f4       ??0CIFXGlyphGeneratorEncoder@@AAE@XZ 1000e6f4 f   Exporting:CIFXGlyphModifierEncoder.obj
 0001:0000d862       ??1CIFXGlyphGeneratorEncoder@@EAE@XZ 1000e862 f   Exporting:CIFXGlyphModifierEncoder.obj
 0001:0000d99c       ?AddRef@CIFXGlyphGeneratorEncoder@@$4PPPPPPPM@A@AIIXZ 1000e99c f i Exporting:CIFXGlyphModifierEncoder.obj
 0001:0000d9bc       ?Release@CIFXGlyphGeneratorEncoder@@$4PPPPPPPM@A@AIIXZ 1000e9bc f i Exporting:CIFXGlyphModifierEncoder.obj
 0001:0000d9dc       ?QueryInterface@CIFXGlyphGeneratorEncoder@@$4PPPPPPPM@A@AIHABUIFXGUID@@PAPAX@Z 1000e9dc f i Exporting:CIFXGlyphModifierEncoder.obj
 0001:0000d9fc       ?SetObjectX@CIFXGlyphGeneratorEncoder@@$4PPPPPPPM@A@AIXAAVIFXUnknown@@@Z 1000e9fc f i Exporting:CIFXGlyphModifierEncoder.obj
 0001:0000da1c       ?InitializeX@CIFXGlyphGeneratorEncoder@@$4PPPPPPPM@A@AIXAAVIFXCoreServices@@@Z 1000ea1c f i Exporting:CIFXGlyphModifierEncoder.obj
 0001:0000da3c       ?EncodeX@CIFXGlyphGeneratorEncoder@@$4PPPPPPPM@A@AIXAAVIFXString@@AAVIFXDataBlockQueueX@@N@Z 1000ea3c f i Exporting:CIFXGlyphModifierEncoder.obj
 0001:0000da5c       ??_ECIFXShaderLitTextureEncoder@@EAEPAXI@Z 1000ea5c f i Exporting:CIFXShaderLitTextureEncoder.obj
 0001:0000da5c       ??_GCIFXShaderLitTextureEncoder@@EAEPAXI@Z 1000ea5c f i Exporting:CIFXShaderLitTextureEncoder.obj
 0001:0000da88       ?GetReference@IFXRenderBlend@@QBIMXZ 1000ea88 f i Exporting:CIFXShaderLitTextureEncoder.obj
 0001:0000da98       ?GetBlendFunc@IFXRenderBlend@@QBIIXZ 1000ea98 f i Exporting:CIFXShaderLitTextureEncoder.obj
 0001:0000daa8       ?GetTestFunc@IFXRenderBlend@@QBIIXZ 1000eaa8 f i Exporting:CIFXShaderLitTextureEncoder.obj
 0001:0000dab8       ?GetUseVertexColors@IFXRenderMaterial@@QBIHXZ 1000eab8 f i Exporting:CIFXShaderLitTextureEncoder.obj
 0001:0000dac8       ?CIFXShaderLitTextureEncoder_Factory@@YIHABUIFXGUID@@PAPAX@Z 1000eac8 f   Exporting:CIFXShaderLitTextureEncoder.obj
 0001:0000dc5c       ?AddRef@CIFXShaderLitTextureEncoder@@UAIIXZ 1000ec5c f   Exporting:CIFXShaderLitTextureEncoder.obj
 0001:0000dc76       ?Release@CIFXShaderLitTextureEncoder@@UAIIXZ 1000ec76 f   Exporting:CIFXShaderLitTextureEncoder.obj
 0001:0000dcc2       ?QueryInterface@CIFXShaderLitTextureEncoder@@UAIHABUIFXGUID@@PAPAX@Z 1000ecc2 f   Exporting:CIFXShaderLitTextureEncoder.obj
 0001:0000dda6       ?EncodeX@CIFXShaderLitTextureEncoder@@UAIXAAVIFXString@@AAVIFXDataBlockQueueX@@N@Z 1000eda6 f   Exporting:CIFXShaderLitTextureEncoder.obj
 0001:0000ef3a       ?InitializeX@CIFXShaderLitTextureEncoder@@UAIXAAVIFXCoreServices@@@Z 1000ff3a f   Exporting:CIFXShaderLitTextureEncoder.obj
 0001:0000f0a0       ?SetObjectX@CIFXShaderLitTextureEncoder@@UAIXAAVIFXUnknown@@@Z 100100a0 f   Exporting:CIFXShaderLitTextureEncoder.obj
 0001:0000f16e       ??0CIFXShaderLitTextureEncoder@@AAE@XZ 1001016e f   Exporting:CIFXShaderLitTextureEncoder.obj
 0001:0000f266       ??1CIFXShaderLitTextureEncoder@@EAE@XZ 10010266 f   Exporting:CIFXShaderLitTextureEncoder.obj
 0001:0000f364       ?AddRef@CIFXShaderLitTextureEncoder@@$4PPPPPPPM@A@AIIXZ 10010364 f i Exporting:CIFXShaderLitTextureEncoder.obj
 0001:0000f384       ?Release@CIFXShaderLitTextureEncoder@@$4PPPPPPPM@A@AIIXZ 10010384 f i Exporting:CIFXShaderLitTextureEncoder.obj
 0001:0000f3a4       ?QueryInterface@CIFXShaderLitTextureEncoder@@$4PPPPPPPM@A@AIHABUIFXGUID@@PAPAX@Z 100103a4 f i Exporting:CIFXShaderLitTextureEncoder.obj
 0001:0000f3c4       ?SetObjectX@CIFXShaderLitTextureEncoder@@$4PPPPPPPM@A@AIXAAVIFXUnknown@@@Z 100103c4 f i Exporting:CIFXShaderLitTextureEncoder.obj
 0001:0000f3e4       ?InitializeX@CIFXShaderLitTextureEncoder@@$4PPPPPPPM@A@AIXAAVIFXCoreServices@@@Z 100103e4 f i Exporting:CIFXShaderLitTextureEncoder.obj
 0001:0000f404       ?EncodeX@CIFXShaderLitTextureEncoder@@$4PPPPPPPM@A@AIXAAVIFXString@@AAVIFXDataBlockQueueX@@N@Z 10010404 f i Exporting:CIFXShaderLitTextureEncoder.obj
 0001:0000f424       ??_GCIFXSubdivisionModifierEncoder@@EAEPAXI@Z 10010424 f i Exporting:CIFXSubdivisionModifierEncoder.obj
 0001:0000f424       ??_ECIFXSubdivisionModifierEncoder@@EAEPAXI@Z 10010424 f i Exporting:CIFXSubdivisionModifierEncoder.obj
 0001:0000f450       ?CIFXSubdivisionModifierEncoder_Factory@@YIHABUIFXGUID@@PAPAX@Z 10010450 f   Exporting:CIFXSubdivisionModifierEncoder.obj
 0001:0000f5e4       ?AddRef@CIFXSubdivisionModifierEncoder@@UAIIXZ 100105e4 f   Exporting:CIFXSubdivisionModifierEncoder.obj
 0001:0000f5fe       ?Release@CIFXSubdivisionModifierEncoder@@UAIIXZ 100105fe f   Exporting:CIFXSubdivisionModifierEncoder.obj
 0001:0000f64a       ?QueryInterface@CIFXSubdivisionModifierEncoder@@UAIHABUIFXGUID@@PAPAX@Z 1001064a f   Exporting:CIFXSubdivisionModifierEncoder.obj
 0001:0000f72e       ?EncodeX@CIFXSubdivisionModifierEncoder@@UAIXAAVIFXString@@AAVIFXDataBlockQueueX@@N@Z 1001072e f   Exporting:CIFXSubdivisionModifierEncoder.obj
 0001:0000fe78       ?InitializeX@CIFXSubdivisionModifierEncoder@@UAIXAAVIFXCoreServices@@@Z 10010e78 f   Exporting:CIFXSubdivisionModifierEncoder.obj
 0001:0001000a       ?SetObjectX@CIFXSubdivisionModifierEncoder@@UAIXAAVIFXUnknown@@@Z 1001100a f   Exporting:CIFXSubdivisionModifierEncoder.obj
 0001:000101fa       ??0CIFXSubdivisionModifierEncoder@@AAE@XZ 100111fa f   Exporting:CIFXSubdivisionModifierEncoder.obj
 0001:00010368       ??1CIFXSubdivisionModifierEncoder@@EAE@XZ 10011368 f   Exporting:CIFXSubdivisionModifierEncoder.obj
 0001:000104a4       ?AddRef@CIFXSubdivisionModifierEncoder@@$4PPPPPPPM@A@AIIXZ 100114a4 f i Exporting:CIFXSubdivisionModifierEncoder.obj
 0001:000104c4       ?Release@CIFXSubdivisionModifierEncoder@@$4PPPPPPPM@A@AIIXZ 100114c4 f i Exporting:CIFXSubdivisionModifierEncoder.obj
 0001:000104e4       ?QueryInterface@CIFXSubdivisionModifierEncoder@@$4PPPPPPPM@A@AIHABUIFXGUID@@PAPAX@Z 100114e4 f i Exporting:CIFXSubdivisionModifierEncoder.obj
 0001:00010504       ?SetObjectX@CIFXSubdivisionModifierEncoder@@$4PPPPPPPM@A@AIXAAVIFXUnknown@@@Z 10011504 f i Exporting:CIFXSubdivisionModifierEncoder.obj
 0001:00010524       ?InitializeX@CIFXSubdivisionModifierEncoder@@$4PPPPPPPM@A@AIXAAVIFXCoreServices@@@Z 10011524 f i Exporting:CIFXSubdivisionModifierEncoder.obj
 0001:00010544       ?EncodeX@CIFXSubdivisionModifierEncoder@@$4PPPPPPPM@A@AIXAAVIFXString@@AAVIFXDataBlockQueueX@@N@Z 10011544 f i Exporting:CIFXSubdivisionModifierEncoder.obj
 0001:00010564       ??_GCIFXShadingModifierEncoder@@EAEPAXI@Z 10011564 f i Exporting:CIFXShadingModifierEncoder.obj
 0001:00010564       ??_ECIFXShadingModifierEncoder@@EAEPAXI@Z 10011564 f i Exporting:CIFXShadingModifierEncoder.obj
 0001:00010590       ??0?$IFXAutoRelease@VIFXPalette@@@@QAE@AAPAVIFXPalette@@@Z 10011590 f i Exporting:CIFXShadingModifierEncoder.obj
 0001:000105ec       ??1?$IFXAutoRelease@VIFXPalette@@@@QAE@XZ 100115ec f i Exporting:CIFXShadingModifierEncoder.obj
 0001:00010664       ??0?$IFXAutoRelease@VIFXShaderList@@@@QAE@AAPAVIFXShaderList@@@Z 10011664 f i Exporting:CIFXShadingModifierEncoder.obj
 0001:000106c0       ??1?$IFXAutoRelease@VIFXShaderList@@@@QAE@XZ 100116c0 f i Exporting:CIFXShadingModifierEncoder.obj
 0001:00010744       ?CIFXShadingModifierEncoder_Factory@@YIHABUIFXGUID@@PAPAX@Z 10011744 f   Exporting:CIFXShadingModifierEncoder.obj
 0001:000108d8       ?AddRef@CIFXShadingModifierEncoder@@UAIIXZ 100118d8 f   Exporting:CIFXShadingModifierEncoder.obj
 0001:000108f2       ?Release@CIFXShadingModifierEncoder@@UAIIXZ 100118f2 f   Exporting:CIFXShadingModifierEncoder.obj
 0001:0001093e       ?QueryInterface@CIFXShadingModifierEncoder@@UAIHABUIFXGUID@@PAPAX@Z 1001193e f   Exporting:CIFXShadingModifierEncoder.obj
 0001:00010a22       ?EncodeX@CIFXShadingModifierEncoder@@UAIXAAVIFXString@@AAVIFXDataBlockQueueX@@N@Z 10011a22 f   Exporting:CIFXShadingModifierEncoder.obj
 0001:00011352       ?InitializeX@CIFXShadingModifierEncoder@@UAIXAAVIFXCoreServices@@@Z 10012352 f   Exporting:CIFXShadingModifierEncoder.obj
 0001:000114e4       ?SetObjectX@CIFXShadingModifierEncoder@@UAIXAAVIFXUnknown@@@Z 100124e4 f   Exporting:CIFXShadingModifierEncoder.obj
 0001:000116d4       ??0CIFXShadingModifierEncoder@@AAE@XZ 100126d4 f   Exporting:CIFXShadingModifierEncoder.obj
 0001:00011842       ??1CIFXShadingModifierEncoder@@EAE@XZ 10012842 f   Exporting:CIFXShadingModifierEncoder.obj
 0001:0001197c       ?AddRef@CIFXShadingModifierEncoder@@$4PPPPPPPM@A@AIIXZ 1001297c f i Exporting:CIFXShadingModifierEncoder.obj
 0001:0001199c       ?Release@CIFXShadingModifierEncoder@@$4PPPPPPPM@A@AIIXZ 1001299c f i Exporting:CIFXShadingModifierEncoder.obj
 0001:000119bc       ?QueryInterface@CIFXShadingModifierEncoder@@$4PPPPPPPM@A@AIHABUIFXGUID@@PAPAX@Z 100129bc f i Exporting:CIFXShadingModifierEncoder.obj
 0001:000119dc       ?SetObjectX@CIFXShadingModifierEncoder@@$4PPPPPPPM@A@AIXAAVIFXUnknown@@@Z 100129dc f i Exporting:CIFXShadingModifierEncoder.obj
 0001:000119fc       ?InitializeX@CIFXShadingModifierEncoder@@$4PPPPPPPM@A@AIXAAVIFXCoreServices@@@Z 100129fc f i Exporting:CIFXShadingModifierEncoder.obj
 0001:00011a1c       ?EncodeX@CIFXShadingModifierEncoder@@$4PPPPPPPM@A@AIXAAVIFXString@@AAVIFXDataBlockQueueX@@N@Z 10012a1c f i Exporting:CIFXShadingModifierEncoder.obj
 0001:00011a3c       ??_ECIFXGroupNodeEncoder@@EAEPAXI@Z 10012a3c f i Exporting:CIFXGroupNodeEncoder.obj
 0001:00011a3c       ??_GCIFXGroupNodeEncoder@@EAEPAXI@Z 10012a3c f i Exporting:CIFXGroupNodeEncoder.obj
 0001:00011a68       ?CIFXGroupNodeEncoder_Factory@@YIHABUIFXGUID@@PAPAX@Z 10012a68 f   Exporting:CIFXGroupNodeEncoder.obj
 0001:00011bfc       ?AddRef@CIFXGroupNodeEncoder@@UAIIXZ 10012bfc f   Exporting:CIFXGroupNodeEncoder.obj
 0001:00011c16       ?Release@CIFXGroupNodeEncoder@@UAIIXZ 10012c16 f   Exporting:CIFXGroupNodeEncoder.obj
 0001:00011c62       ?QueryInterface@CIFXGroupNodeEncoder@@UAIHABUIFXGUID@@PAPAX@Z 10012c62 f   Exporting:CIFXGroupNodeEncoder.obj
 0001:00011d46       ?EncodeX@CIFXGroupNodeEncoder@@UAIXAAVIFXString@@AAVIFXDataBlockQueueX@@N@Z 10012d46 f   Exporting:CIFXGroupNodeEncoder.obj
 0001:0001200a       ?InitializeX@CIFXGroupNodeEncoder@@UAIXAAVIFXCoreServices@@@Z 1001300a f   Exporting:CIFXGroupNodeEncoder.obj
 0001:000120be       ?SetObjectX@CIFXGroupNodeEncoder@@UAIXAAVIFXUnknown@@@Z 100130be f   Exporting:CIFXGroupNodeEncoder.obj
 0001:0001222a       ??0CIFXGroupNodeEncoder@@AAE@XZ 1001322a f   Exporting:CIFXGroupNodeEncoder.obj
 0001:00012378       ??1CIFXGroupNodeEncoder@@EAE@XZ 10013378 f   Exporting:CIFXGroupNodeEncoder.obj
 0001:00012428       ?AddRef@CIFXGroupNodeEncoder@@$4PPPPPPPM@A@AIIXZ 10013428 f i Exporting:CIFXGroupNodeEncoder.obj
 0001:00012448       ?Release@CIFXGroupNodeEncoder@@$4PPPPPPPM@A@AIIXZ 10013448 f i Exporting:CIFXGroupNodeEncoder.obj
 0001:00012468       ?QueryInterface@CIFXGroupNodeEncoder@@$4PPPPPPPM@A@AIHABUIFXGUID@@PAPAX@Z 10013468 f i Exporting:CIFXGroupNodeEncoder.obj
 0001:00012488       ?SetObjectX@CIFXGroupNodeEncoder@@$4PPPPPPPM@A@AIXAAVIFXUnknown@@@Z 10013488 f i Exporting:CIFXGroupNodeEncoder.obj
 0001:000124a8       ?InitializeX@CIFXGroupNodeEncoder@@$4PPPPPPPM@A@AIXAAVIFXCoreServices@@@Z 100134a8 f i Exporting:CIFXGroupNodeEncoder.obj
 0001:000124c8       ?EncodeX@CIFXGroupNodeEncoder@@$4PPPPPPPM@A@AIXAAVIFXString@@AAVIFXDataBlockQueueX@@N@Z 100134c8 f i Exporting:CIFXGroupNodeEncoder.obj
 0001:000124e8       ??_ECIFXLightNodeEncoder@@EAEPAXI@Z 100134e8 f i Exporting:CIFXLightNodeEncoder.obj
 0001:000124e8       ??_GCIFXLightNodeEncoder@@EAEPAXI@Z 100134e8 f i Exporting:CIFXLightNodeEncoder.obj
 0001:00012514       ?CIFXLightNodeEncoder_Factory@@YIHABUIFXGUID@@PAPAX@Z 10013514 f   Exporting:CIFXLightNodeEncoder.obj
 0001:000126a8       ?AddRef@CIFXLightNodeEncoder@@UAIIXZ 100136a8 f   Exporting:CIFXLightNodeEncoder.obj
 0001:000126c2       ?Release@CIFXLightNodeEncoder@@UAIIXZ 100136c2 f   Exporting:CIFXLightNodeEncoder.obj
 0001:0001270e       ?QueryInterface@CIFXLightNodeEncoder@@UAIHABUIFXGUID@@PAPAX@Z 1001370e f   Exporting:CIFXLightNodeEncoder.obj
 0001:000127f2       ?EncodeX@CIFXLightNodeEncoder@@UAIXAAVIFXString@@AAVIFXDataBlockQueueX@@N@Z 100137f2 f   Exporting:CIFXLightNodeEncoder.obj
 0001:00012e8a       ?InitializeX@CIFXLightNodeEncoder@@UAIXAAVIFXCoreServices@@@Z 10013e8a f   Exporting:CIFXLightNodeEncoder.obj
 0001:00012f54       ?SetObjectX@CIFXLightNodeEncoder@@UAIXAAVIFXUnknown@@@Z 10013f54 f   Exporting:CIFXLightNodeEncoder.obj
 0001:000130d2       ??0CIFXLightNodeEncoder@@AAE@XZ 100140d2 f   Exporting:CIFXLightNodeEncoder.obj
 0001:00013220       ??1CIFXLightNodeEncoder@@EAE@XZ 10014220 f   Exporting:CIFXLightNodeEncoder.obj
 0001:000132d0       ?AddRef@CIFXLightNodeEncoder@@$4PPPPPPPM@A@AIIXZ 100142d0 f i Exporting:CIFXLightNodeEncoder.obj
 0001:000132f0       ?Release@CIFXLightNodeEncoder@@$4PPPPPPPM@A@AIIXZ 100142f0 f i Exporting:CIFXLightNodeEncoder.obj
 0001:00013310       ?QueryInterface@CIFXLightNodeEncoder@@$4PPPPPPPM@A@AIHABUIFXGUID@@PAPAX@Z 10014310 f i Exporting:CIFXLightNodeEncoder.obj
 0001:00013330       ?SetObjectX@CIFXLightNodeEncoder@@$4PPPPPPPM@A@AIXAAVIFXUnknown@@@Z 10014330 f i Exporting:CIFXLightNodeEncoder.obj
 0001:00013350       ?InitializeX@CIFXLightNodeEncoder@@$4PPPPPPPM@A@AIXAAVIFXCoreServices@@@Z 10014350 f i Exporting:CIFXLightNodeEncoder.obj
 0001:00013370       ?EncodeX@CIFXLightNodeEncoder@@$4PPPPPPPM@A@AIXAAVIFXString@@AAVIFXDataBlockQueueX@@N@Z 10014370 f i Exporting:CIFXLightNodeEncoder.obj
 0001:00013390       ??_ECIFXLightResourceEncoder@@EAEPAXI@Z 10014390 f i Exporting:CIFXLightResourceEncoder.obj
 0001:00013390       ??_GCIFXLightResourceEncoder@@EAEPAXI@Z 10014390 f i Exporting:CIFXLightResourceEncoder.obj
 0001:000133bc       ??0IFXVector4@@QAE@ABV0@@Z 100143bc f i Exporting:CIFXLightResourceEncoder.obj
 0001:000133dc       ??4IFXVector4@@QAEAAV0@ABV0@@Z 100143dc f i Exporting:CIFXLightResourceEncoder.obj
 0001:00013418       ?GetIntensity@IFXRenderLight@@QBIMXZ 10014418 f i Exporting:CIFXLightResourceEncoder.obj
 0001:00013428       ?CIFXLightResourceEncoder_Factory@@YIHABUIFXGUID@@PAPAX@Z 10014428 f   Exporting:CIFXLightResourceEncoder.obj
 0001:000135bc       ?AddRef@CIFXLightResourceEncoder@@UAIIXZ 100145bc f   Exporting:CIFXLightResourceEncoder.obj
 0001:000135d6       ?Release@CIFXLightResourceEncoder@@UAIIXZ 100145d6 f   Exporting:CIFXLightResourceEncoder.obj
 0001:00013622       ?QueryInterface@CIFXLightResourceEncoder@@UAIHABUIFXGUID@@PAPAX@Z 10014622 f   Exporting:CIFXLightResourceEncoder.obj
 0001:00013706       ?EncodeX@CIFXLightResourceEncoder@@UAIXAAVIFXString@@AAVIFXDataBlockQueueX@@N@Z 10014706 f   Exporting:CIFXLightResourceEncoder.obj
 0001:00013e06       ?InitializeX@CIFXLightResourceEncoder@@UAIXAAVIFXCoreServices@@@Z 10014e06 f   Exporting:CIFXLightResourceEncoder.obj
 0001:00013ed0       ?SetObjectX@CIFXLightResourceEncoder@@UAIXAAVIFXUnknown@@@Z 10014ed0 f   Exporting:CIFXLightResourceEncoder.obj
 0001:00013fca       ??0CIFXLightResourceEncoder@@AAE@XZ 10014fca f   Exporting:CIFXLightResourceEncoder.obj
 0001:0001411e       ??1CIFXLightResourceEncoder@@EAE@XZ 1001511e f   Exporting:CIFXLightResourceEncoder.obj
 0001:0001420c       ?AddRef@CIFXLightResourceEncoder@@$4PPPPPPPM@A@AIIXZ 1001520c f i Exporting:CIFXLightResourceEncoder.obj
 0001:0001422c       ?Release@CIFXLightResourceEncoder@@$4PPPPPPPM@A@AIIXZ 1001522c f i Exporting:CIFXLightResourceEncoder.obj
 0001:0001424c       ?QueryInterface@CIFXLightResourceEncoder@@$4PPPPPPPM@A@AIHABUIFXGUID@@PAPAX@Z 1001524c f i Exporting:CIFXLightResourceEncoder.obj
 0001:0001426c       ?SetObjectX@CIFXLightResourceEncoder@@$4PPPPPPPM@A@AIXAAVIFXUnknown@@@Z 1001526c f i Exporting:CIFXLightResourceEncoder.obj
 0001:0001428c       ?InitializeX@CIFXLightResourceEncoder@@$4PPPPPPPM@A@AIXAAVIFXCoreServices@@@Z 1001528c f i Exporting:CIFXLightResourceEncoder.obj
 0001:000142ac       ?EncodeX@CIFXLightResourceEncoder@@$4PPPPPPPM@A@AIXAAVIFXString@@AAVIFXDataBlockQueueX@@N@Z 100152ac f i Exporting:CIFXLightResourceEncoder.obj
 0001:000142cc       ??_ECIFXViewResourceEncoder@@EAEPAXI@Z 100152cc f i Exporting:CIFXViewResourceEncoder.obj
 0001:000142cc       ??_GCIFXViewResourceEncoder@@EAEPAXI@Z 100152cc f i Exporting:CIFXViewResourceEncoder.obj
 0001:000142f8       ?RawConst@IFXVector4@@QBEPBMXZ 100152f8 f i Exporting:CIFXViewResourceEncoder.obj
 0001:00014304       ?GetMode@IFXRenderFog@@QBIIXZ 10015304 f i Exporting:CIFXViewResourceEncoder.obj
 0001:00014314       ?GetColor@IFXRenderFog@@QBIABVIFXVector4@@XZ 10015314 f i Exporting:CIFXViewResourceEncoder.obj
 0001:00014324       ?GetLinearNear@IFXRenderFog@@QBIMXZ 10015324 f i Exporting:CIFXViewResourceEncoder.obj
 0001:00014334       ?GetFar@IFXRenderFog@@QBIMXZ 10015334 f i Exporting:CIFXViewResourceEncoder.obj
 0001:00014344       ?CIFXViewResourceEncoder_Factory@@YIHABUIFXGUID@@PAPAX@Z 10015344 f   Exporting:CIFXViewResourceEncoder.obj
 0001:000144d8       ?AddRef@CIFXViewResourceEncoder@@UAIIXZ 100154d8 f   Exporting:CIFXViewResourceEncoder.obj
 0001:000144f2       ?Release@CIFXViewResourceEncoder@@UAIIXZ 100154f2 f   Exporting:CIFXViewResourceEncoder.obj
 0001:0001453e       ?QueryInterface@CIFXViewResourceEncoder@@UAIHABUIFXGUID@@PAPAX@Z 1001553e f   Exporting:CIFXViewResourceEncoder.obj
 0001:00014622       ?EncodeX@CIFXViewResourceEncoder@@UAIXAAVIFXString@@AAVIFXDataBlockQueueX@@N@Z 10015622 f   Exporting:CIFXViewResourceEncoder.obj
 0001:00015012       ?InitializeX@CIFXViewResourceEncoder@@UAIXAAVIFXCoreServices@@@Z 10016012 f   Exporting:CIFXViewResourceEncoder.obj
 0001:000150c6       ?SetObjectX@CIFXViewResourceEncoder@@UAIXAAVIFXUnknown@@@Z 100160c6 f   Exporting:CIFXViewResourceEncoder.obj
 0001:000151fc       ??0CIFXViewResourceEncoder@@AAE@XZ 100161fc f   Exporting:CIFXViewResourceEncoder.obj
 0001:00015350       ??1CIFXViewResourceEncoder@@EAE@XZ 10016350 f   Exporting:CIFXViewResourceEncoder.obj
 0001:0001543c       ?AddRef@CIFXViewResourceEncoder@@$4PPPPPPPM@A@AIIXZ 1001643c f i Exporting:CIFXViewResourceEncoder.obj
 0001:0001545c       ?Release@CIFXViewResourceEncoder@@$4PPPPPPPM@A@AIIXZ 1001645c f i Exporting:CIFXViewResourceEncoder.obj
 0001:0001547c       ?QueryInterface@CIFXViewResourceEncoder@@$4PPPPPPPM@A@AIHABUIFXGUID@@PAPAX@Z 1001647c f i Exporting:CIFXViewResourceEncoder.obj
 0001:0001549c       ?SetObjectX@CIFXViewResourceEncoder@@$4PPPPPPPM@A@AIXAAVIFXUnknown@@@Z 1001649c f i Exporting:CIFXViewResourceEncoder.obj
 0001:000154bc       ?InitializeX@CIFXViewResourceEncoder@@$4PPPPPPPM@A@AIXAAVIFXCoreServices@@@Z 100164bc f i Exporting:CIFXViewResourceEncoder.obj
 0001:000154dc       ?EncodeX@CIFXViewResourceEncoder@@$4PPPPPPPM@A@AIXAAVIFXString@@AAVIFXDataBlockQueueX@@N@Z 100164dc f i Exporting:CIFXViewResourceEncoder.obj
 0001:000154fc       ??_ECIFXModelNodeEncoder@@EAEPAXI@Z 100164fc f i Exporting:CIFXModelNodeEncoder.obj
 0001:000154fc       ??_GCIFXModelNodeEncoder@@EAEPAXI@Z 100164fc f i Exporting:CIFXModelNodeEncoder.obj
 0001:00015528       ?CIFXModelNodeEncoder_Factory@@YIHABUIFXGUID@@PAPAX@Z 10016528 f   Exporting:CIFXModelNodeEncoder.obj
 0001:000156bc       ?AddRef@CIFXModelNodeEncoder@@UAIIXZ 100166bc f   Exporting:CIFXModelNodeEncoder.obj
 0001:000156d6       ?Release@CIFXModelNodeEncoder@@UAIIXZ 100166d6 f   Exporting:CIFXModelNodeEncoder.obj
 0001:00015722       ?QueryInterface@CIFXModelNodeEncoder@@UAIHABUIFXGUID@@PAPAX@Z 10016722 f   Exporting:CIFXModelNodeEncoder.obj
 0001:00015806       ?EncodeX@CIFXModelNodeEncoder@@UAIXAAVIFXString@@AAVIFXDataBlockQueueX@@N@Z 10016806 f   Exporting:CIFXModelNodeEncoder.obj
 0001:00015fea       ?InitializeX@CIFXModelNodeEncoder@@UAIXAAVIFXCoreServices@@@Z 10016fea f   Exporting:CIFXModelNodeEncoder.obj
 0001:0001609e       ?SetObjectX@CIFXModelNodeEncoder@@UAIXAAVIFXUnknown@@@Z 1001709e f   Exporting:CIFXModelNodeEncoder.obj
 0001:0001620a       ??0CIFXModelNodeEncoder@@AAE@XZ 1001720a f   Exporting:CIFXModelNodeEncoder.obj
 0001:00016358       ??1CIFXModelNodeEncoder@@EAE@XZ 10017358 f   Exporting:CIFXModelNodeEncoder.obj
 0001:00016408       ?AddRef@CIFXModelNodeEncoder@@$4PPPPPPPM@A@AIIXZ 10017408 f i Exporting:CIFXModelNodeEncoder.obj
 0001:00016428       ?Release@CIFXModelNodeEncoder@@$4PPPPPPPM@A@AIIXZ 10017428 f i Exporting:CIFXModelNodeEncoder.obj
 0001:00016448       ?QueryInterface@CIFXModelNodeEncoder@@$4PPPPPPPM@A@AIHABUIFXGUID@@PAPAX@Z 10017448 f i Exporting:CIFXModelNodeEncoder.obj
 0001:00016468       ?SetObjectX@CIFXModelNodeEncoder@@$4PPPPPPPM@A@AIXAAVIFXUnknown@@@Z 10017468 f i Exporting:CIFXModelNodeEncoder.obj
 0001:00016488       ?InitializeX@CIFXModelNodeEncoder@@$4PPPPPPPM@A@AIXAAVIFXCoreServices@@@Z 10017488 f i Exporting:CIFXModelNodeEncoder.obj
 0001:000164a8       ?EncodeX@CIFXModelNodeEncoder@@$4PPPPPPPM@A@AIXAAVIFXString@@AAVIFXDataBlockQueueX@@N@Z 100174a8 f i Exporting:CIFXModelNodeEncoder.obj
 0001:000164c8       ??_GCIFXViewNodeEncoder@@EAEPAXI@Z 100174c8 f i Exporting:CIFXViewNodeEncoder.obj
 0001:000164c8       ??_ECIFXViewNodeEncoder@@EAEPAXI@Z 100174c8 f i Exporting:CIFXViewNodeEncoder.obj
 0001:000164f4       ??_EIFXViewLayer@@UAEPAXI@Z 100174f4 f i Exporting:CIFXViewNodeEncoder.obj
 0001:000164f4       ??_GIFXViewLayer@@UAEPAXI@Z 100174f4 f i Exporting:CIFXViewNodeEncoder.obj
 0001:00016520       ?Set@IFXVector2@@QAEXMM@Z  10017520 f i Exporting:CIFXViewNodeEncoder.obj
 0001:0001653c       ?X@IFXVector2@@QAEAAMXZ    1001753c f i Exporting:CIFXViewNodeEncoder.obj
 0001:00016548       ?Y@IFXVector2@@QAEAAMXZ    10017548 f i Exporting:CIFXViewNodeEncoder.obj
 0001:00016558       ??0?$IFXRectT@M@@QAE@XZ    10017558 f i Exporting:CIFXViewNodeEncoder.obj
 0001:00016594       ??0?$IFXRectT@M@@QAE@MMMM@Z 10017594 f i Exporting:CIFXViewNodeEncoder.obj
 0001:000165c8       ??0IFXViewLayer@@QAE@XZ    100175c8 f i Exporting:CIFXViewNodeEncoder.obj
 0001:0001663c       ??1IFXViewLayer@@UAE@XZ    1001763c f i Exporting:CIFXViewNodeEncoder.obj
 0001:00016650       ?CIFXViewNodeEncoder_Factory@@YIHABUIFXGUID@@PAPAX@Z 10017650 f   Exporting:CIFXViewNodeEncoder.obj
 0001:000167e4       ?AddRef@CIFXViewNodeEncoder@@UAIIXZ 100177e4 f   Exporting:CIFXViewNodeEncoder.obj
 0001:000167fe       ?Release@CIFXViewNodeEncoder@@UAIIXZ 100177fe f   Exporting:CIFXViewNodeEncoder.obj
 0001:0001684a       ?QueryInterface@CIFXViewNodeEncoder@@UAIHABUIFXGUID@@PAPAX@Z 1001784a f   Exporting:CIFXViewNodeEncoder.obj
 0001:0001692e       ?EncodeX@CIFXViewNodeEncoder@@UAIXAAVIFXString@@AAVIFXDataBlockQueueX@@N@Z 1001792e f   Exporting:CIFXViewNodeEncoder.obj
 0001:00017e6c       ?InitializeX@CIFXViewNodeEncoder@@UAIXAAVIFXCoreServices@@@Z 10018e6c f   Exporting:CIFXViewNodeEncoder.obj
 0001:00017f20       ?SetObjectX@CIFXViewNodeEncoder@@UAIXAAVIFXUnknown@@@Z 10018f20 f   Exporting:CIFXViewNodeEncoder.obj
 0001:0001808c       ??0CIFXViewNodeEncoder@@AAE@XZ 1001908c f   Exporting:CIFXViewNodeEncoder.obj
 0001:000181da       ??1CIFXViewNodeEncoder@@EAE@XZ 100191da f   Exporting:CIFXViewNodeEncoder.obj
 0001:0001828c       ?AddRef@CIFXViewNodeEncoder@@$4PPPPPPPM@A@AIIXZ 1001928c f i Exporting:CIFXViewNodeEncoder.obj
 0001:000182ac       ?Release@CIFXViewNodeEncoder@@$4PPPPPPPM@A@AIIXZ 100192ac f i Exporting:CIFXViewNodeEncoder.obj
 0001:000182cc       ?QueryInterface@CIFXViewNodeEncoder@@$4PPPPPPPM@A@AIHABUIFXGUID@@PAPAX@Z 100192cc f i Exporting:CIFXViewNodeEncoder.obj
 0001:000182ec       ?SetObjectX@CIFXViewNodeEncoder@@$4PPPPPPPM@A@AIXAAVIFXUnknown@@@Z 100192ec f i Exporting:CIFXViewNodeEncoder.obj
 0001:0001830c       ?InitializeX@CIFXViewNodeEncoder@@$4PPPPPPPM@A@AIXAAVIFXCoreServices@@@Z 1001930c f i Exporting:CIFXViewNodeEncoder.obj
 0001:0001832c       ?EncodeX@CIFXViewNodeEncoder@@$4PPPPPPPM@A@AIXAAVIFXString@@AAVIFXDataBlockQueueX@@N@Z 1001932c f i Exporting:CIFXViewNodeEncoder.obj
 0001:0001834c       ??_ECIFXFileReferenceEncoder@@EAEPAXI@Z 1001934c f i Exporting:CIFXFileReferenceEncoder.obj
 0001:0001834c       ??_GCIFXFileReferenceEncoder@@EAEPAXI@Z 1001934c f i Exporting:CIFXFileReferenceEncoder.obj
 0001:00018378       ??_GIFXCoreArray@@UAEPAXI@Z 10019378 f i Exporting:CIFXFileReferenceEncoder.obj
 0001:00018378       ??_EIFXCoreArray@@UAEPAXI@Z 10019378 f i Exporting:CIFXFileReferenceEncoder.obj
 0001:000183a4       ??_G?$IFXArray@VIFXString@@@@UAEPAXI@Z 100193a4 f i Exporting:CIFXFileReferenceEncoder.obj
 0001:000183a4       ??_E?$IFXArray@VIFXString@@@@UAEPAXI@Z 100193a4 f i Exporting:CIFXFileReferenceEncoder.obj
 0001:000183d0       ??_G?$IFXArray@UIFXObjectFilter@@@@UAEPAXI@Z 100193d0 f i Exporting:CIFXFileReferenceEncoder.obj
 0001:000183d0       ??_E?$IFXArray@UIFXObjectFilter@@@@UAEPAXI@Z 100193d0 f i Exporting:CIFXFileReferenceEncoder.obj
 0001:000183fc       ??1IFXCoreArray@@UAE@XZ    100193fc f i Exporting:CIFXFileReferenceEncoder.obj
 0001:00018410       ?GetElementName@IFXCoreArray@@UAE?AVIFXString@@I@Z 10019410 f i Exporting:CIFXFileReferenceEncoder.obj
 0001:00018430       ?GetElementSize@IFXCoreArray@@UAEII@Z 10019430 f i Exporting:CIFXFileReferenceEncoder.obj
 0001:00018440       ?GetNumberElements@IFXCoreArray@@QBEABIXZ 10019440 f i Exporting:CIFXFileReferenceEncoder.obj
 0001:00018450       ??0IFXObjectFilter@@QAE@XZ 10019450 f i Exporting:CIFXFileReferenceEncoder.obj
 0001:000184d8       ??1IFXObjectFilter@@QAE@XZ 100194d8 f i Exporting:CIFXFileReferenceEncoder.obj
 0001:0001855c       ??0IFXFileReferenceParams@@QAE@XZ 1001955c f i Exporting:CIFXFileReferenceEncoder.obj
 0001:000186a0       ??1IFXFileReferenceParams@@QAE@XZ 100196a0 f i Exporting:CIFXFileReferenceEncoder.obj
 0001:000187d0       ??0?$IFXArray@VIFXString@@@@QAE@I@Z 100197d0 f i Exporting:CIFXFileReferenceEncoder.obj
 0001:000188a4       ??1?$IFXArray@VIFXString@@@@UAE@XZ 100198a4 f i Exporting:CIFXFileReferenceEncoder.obj
 0001:000189e8       ?ResetElement@?$IFXArray@VIFXString@@@@UAEXAAVIFXString@@@Z 100199e8 f i Exporting:CIFXFileReferenceEncoder.obj
 0001:000189f4       ?GetElement@?$IFXArray@VIFXString@@@@QAEAAVIFXString@@I@Z 100199f4 f i Exporting:CIFXFileReferenceEncoder.obj
 0001:00018a48       ??A?$IFXArray@VIFXString@@@@QAEAAVIFXString@@I@Z 10019a48 f i Exporting:CIFXFileReferenceEncoder.obj
 0001:00018a6c       ?Construct@?$IFXArray@VIFXString@@@@EAEXI@Z 10019a6c f i Exporting:CIFXFileReferenceEncoder.obj
 0001:00018ba4       ?Destruct@?$IFXArray@VIFXString@@@@EAEXI@Z 10019ba4 f i Exporting:CIFXFileReferenceEncoder.obj
 0001:00018c00       ?DestructAll@?$IFXArray@VIFXString@@@@EAEXXZ 10019c00 f i Exporting:CIFXFileReferenceEncoder.obj
 0001:00018d00       ?Preallocate@?$IFXArray@VIFXString@@@@EAEXI@Z 10019d00 f i Exporting:CIFXFileReferenceEncoder.obj
 0001:00018e64       ?Resize@?$IFXArray@VIFXString@@@@EAEXI@Z 10019e64 f i Exporting:CIFXFileReferenceEncoder.obj
 0001:00018f40       ??0?$IFXArray@UIFXObjectFilter@@@@QAE@I@Z 10019f40 f i Exporting:CIFXFileReferenceEncoder.obj
 0001:00019014       ??1?$IFXArray@UIFXObjectFilter@@@@UAE@XZ 1001a014 f i Exporting:CIFXFileReferenceEncoder.obj
 0001:00019158       ?ResetElement@?$IFXArray@UIFXObjectFilter@@@@UAEXAAUIFXObjectFilter@@@Z 1001a158 f i Exporting:CIFXFileReferenceEncoder.obj
 0001:00019164       ?GetElement@?$IFXArray@UIFXObjectFilter@@@@QAEAAUIFXObjectFilter@@I@Z 1001a164 f i Exporting:CIFXFileReferenceEncoder.obj
 0001:000191b8       ??A?$IFXArray@UIFXObjectFilter@@@@QAEAAUIFXObjectFilter@@I@Z 1001a1b8 f i Exporting:CIFXFileReferenceEncoder.obj
 0001:000191dc       ?Construct@?$IFXArray@UIFXObjectFilter@@@@EAEXI@Z 1001a1dc f i Exporting:CIFXFileReferenceEncoder.obj
 0001:0001930c       ?Destruct@?$IFXArray@UIFXObjectFilter@@@@EAEXI@Z 1001a30c f i Exporting:CIFXFileReferenceEncoder.obj
 0001:0001935c       ?DestructAll@?$IFXArray@UIFXObjectFilter@@@@EAEXXZ 1001a35c f i Exporting:CIFXFileReferenceEncoder.obj
 0001:0001945c       ?Preallocate@?$IFXArray@UIFXObjectFilter@@@@EAEXI@Z 1001a45c f i Exporting:CIFXFileReferenceEncoder.obj
 0001:000195c0       ?Resize@?$IFXArray@UIFXObjectFilter@@@@EAEXI@Z 1001a5c0 f i Exporting:CIFXFileReferenceEncoder.obj
 0001:0001969c       ??0?$IFXAutoRelease@VIFXFileReference@@@@QAE@AAPAVIFXFileReference@@@Z 1001a69c f i Exporting:CIFXFileReferenceEncoder.obj
 0001:000196f8       ??1?$IFXAutoRelease@VIFXFileReference@@@@QAE@XZ 1001a6f8 f i Exporting:CIFXFileReferenceEncoder.obj
 0001:0001977c       ?CIFXFileReferenceEncoder_Factory@@YIHABUIFXGUID@@PAPAX@Z 1001a77c f   Exporting:CIFXFileReferenceEncoder.obj
 0001:00019910       ?AddRef@CIFXFileReferenceEncoder@@UAIIXZ 1001a910 f   Exporting:CIFXFileReferenceEncoder.obj
 0001:0001992a       ?Release@CIFXFileReferenceEncoder@@UAIIXZ 1001a92a f   Exporting:CIFXFileReferenceEncoder.obj
 0001:00019978       ?QueryInterface@CIFXFileReferenceEncoder@@UAIHABUIFXGUID@@PAPAX@Z 1001a978 f   Exporting:CIFXFileReferenceEncoder.obj
 0001:00019a5c       ?SetObjectX@CIFXFileReferenceEncoder@@UAIXAAVIFXUnknown@@@Z 1001aa5c f   Exporting:CIFXFileReferenceEncoder.obj
 0001:00019af6       ?InitializeX@CIFXFileReferenceEncoder@@UAIXAAVIFXCoreServices@@@Z 1001aaf6 f   Exporting:CIFXFileReferenceEncoder.obj
 0001:00019b52       ?EncodeX@CIFXFileReferenceEncoder@@UAIXAAVIFXString@@AAVIFXDataBlockQueueX@@N@Z 1001ab52 f   Exporting:CIFXFileReferenceEncoder.obj
 0001:0001a3a4       ??0CIFXFileReferenceEncoder@@AAE@XZ 1001b3a4 f   Exporting:CIFXFileReferenceEncoder.obj
 0001:0001a542       ??1CIFXFileReferenceEncoder@@EAE@XZ 1001b542 f   Exporting:CIFXFileReferenceEncoder.obj
 0001:0001a634       ??_EIFXString@@UAEPAXI@Z   1001b634 f i Exporting:CIFXFileReferenceEncoder.obj
 0001:0001a6a8       ??_EIFXObjectFilter@@QAEPAXI@Z 1001b6a8 f i Exporting:CIFXFileReferenceEncoder.obj
 0001:0001a71c       ?AddRef@CIFXFileReferenceEncoder@@$4PPPPPPPM@A@AIIXZ 1001b71c f i Exporting:CIFXFileReferenceEncoder.obj
 0001:0001a73c       ?Release@CIFXFileReferenceEncoder@@$4PPPPPPPM@A@AIIXZ 1001b73c f i Exporting:CIFXFileReferenceEncoder.obj
 0001:0001a75c       ?QueryInterface@CIFXFileReferenceEncoder@@$4PPPPPPPM@A@AIHABUIFXGUID@@PAPAX@Z 1001b75c f i Exporting:CIFXFileReferenceEncoder.obj
 0001:0001a77c       ?SetObjectX@CIFXFileReferenceEncoder@@$4PPPPPPPM@A@AIXAAVIFXUnknown@@@Z 1001b77c f i Exporting:CIFXFileReferenceEncoder.obj
 0001:0001a79c       ?InitializeX@CIFXFileReferenceEncoder@@$4PPPPPPPM@A@AIXAAVIFXCoreServices@@@Z 1001b79c f i Exporting:CIFXFileReferenceEncoder.obj
 0001:0001a7bc       ?EncodeX@CIFXFileReferenceEncoder@@$4PPPPPPPM@A@AIXAAVIFXString@@AAVIFXDataBlockQueueX@@N@Z 1001b7bc f i Exporting:CIFXFileReferenceEncoder.obj
 0001:0001a7dc       ??_EIFXDataBlockNodeX@@QAEPAXI@Z 1001b7dc f i Exporting:CIFXBlockPriorityQueueX.obj
 0001:0001a7dc       ??_GIFXDataBlockNodeX@@QAEPAXI@Z 1001b7dc f i Exporting:CIFXBlockPriorityQueueX.obj
 0001:0001a808       ??_ECIFXBlockPriorityQueueX@@EAEPAXI@Z 1001b808 f i Exporting:CIFXBlockPriorityQueueX.obj
 0001:0001a808       ??_GCIFXBlockPriorityQueueX@@EAEPAXI@Z 1001b808 f i Exporting:CIFXBlockPriorityQueueX.obj
 0001:0001a834       ??0IFXDataBlockQueueX@@QAE@XZ 1001b834 f i Exporting:CIFXBlockPriorityQueueX.obj
 0001:0001a854       ?CIFXBlockPriorityQueueX_Factory@@YIHABUIFXGUID@@PAPAX@Z 1001b854 f   Exporting:CIFXBlockPriorityQueueX.obj
 0001:0001a9b8       ??0IFXDataBlockNodeX@@QAE@XZ 1001b9b8 f   Exporting:CIFXBlockPriorityQueueX.obj
 0001:0001a9e8       ??1IFXDataBlockNodeX@@QAE@XZ 1001b9e8 f   Exporting:CIFXBlockPriorityQueueX.obj
 0001:0001aaa0       ?ClearX@CIFXBlockPriorityQueueX@@UAIXXZ 1001baa0 f   Exporting:CIFXBlockPriorityQueueX.obj
 0001:0001ab8c       ?GetNextBlockX@CIFXBlockPriorityQueueX@@UAIXAAPAVIFXDataBlockX@@AAH@Z 1001bb8c f   Exporting:CIFXBlockPriorityQueueX.obj
 0001:0001ae66       ?PeekNextBlockX@CIFXBlockPriorityQueueX@@UAIXAAPAVIFXDataBlockX@@@Z 1001be66 f   Exporting:CIFXBlockPriorityQueueX.obj
 0001:0001ae8e       ?AppendBlockX@CIFXBlockPriorityQueueX@@UAIXAAVIFXDataBlockX@@@Z 1001be8e f   Exporting:CIFXBlockPriorityQueueX.obj
 0001:0001b436       ?CopyX@CIFXBlockPriorityQueueX@@UAIXAAPAVIFXDataBlockQueueX@@@Z 1001c436 f   Exporting:CIFXBlockPriorityQueueX.obj
 0001:0001b45e       ?AddRef@CIFXBlockPriorityQueueX@@UAIIXZ 1001c45e f   Exporting:CIFXBlockPriorityQueueX.obj
 0001:0001b474       ?Release@CIFXBlockPriorityQueueX@@UAIIXZ 1001c474 f   Exporting:CIFXBlockPriorityQueueX.obj
 0001:0001b4c0       ?QueryInterface@CIFXBlockPriorityQueueX@@UAIHABUIFXGUID@@PAPAX@Z 1001c4c0 f   Exporting:CIFXBlockPriorityQueueX.obj
 0001:0001b56c       ??0CIFXBlockPriorityQueueX@@AAE@XZ 1001c56c f   Exporting:CIFXBlockPriorityQueueX.obj
 0001:0001b5a0       ??1CIFXBlockPriorityQueueX@@EAE@XZ 1001c5a0 f   Exporting:CIFXBlockPriorityQueueX.obj
 0001:0001b5bc       ??_ECIFXBlockWriterX@@EAEPAXI@Z 1001c5bc f i Exporting:CIFXBlockWriterX.obj
 0001:0001b5bc       ??_GCIFXBlockWriterX@@EAEPAXI@Z 1001c5bc f i Exporting:CIFXBlockWriterX.obj
 0001:0001b5e8       ??0IFXBlockWriterX@@QAE@XZ 1001c5e8 f i Exporting:CIFXBlockWriterX.obj
 0001:0001b608       ??0?$IFXAutoRelease@VIFXWriteBufferX@@@@QAE@AAPAVIFXWriteBufferX@@@Z 1001c608 f i Exporting:CIFXBlockWriterX.obj
 0001:0001b664       ??1?$IFXAutoRelease@VIFXWriteBufferX@@@@QAE@XZ 1001c664 f i Exporting:CIFXBlockWriterX.obj
 0001:0001b6e8       ?CIFXBlockWriterX_Factory@@YIHABUIFXGUID@@PAPAX@Z 1001c6e8 f   Exporting:CIFXBlockWriterX.obj
 0001:0001b84c       ?AddRef@CIFXBlockWriterX@@UAIIXZ 1001c84c f   Exporting:CIFXBlockWriterX.obj
 0001:0001b862       ?Release@CIFXBlockWriterX@@UAIIXZ 1001c862 f   Exporting:CIFXBlockWriterX.obj
 0001:0001b8ae       ?QueryInterface@CIFXBlockWriterX@@UAIHABUIFXGUID@@PAPAX@Z 1001c8ae f   Exporting:CIFXBlockWriterX.obj
 0001:0001b95a       ?InitializeX@CIFXBlockWriterX@@UAIXAAVIFXCoreServices@@AAVIFXWriteBufferX@@I@Z 1001c95a f   Exporting:CIFXBlockWriterX.obj
 0001:0001be30       ?WriteBlockX@CIFXBlockWriterX@@UAIXAAVIFXDataBlockX@@@Z 1001ce30 f   Exporting:CIFXBlockWriterX.obj
 0001:0001cb96       ??0CIFXBlockWriterX@@AAE@XZ 1001db96 f   Exporting:CIFXBlockWriterX.obj
 0001:0001cc58       ??1CIFXBlockWriterX@@EAE@XZ 1001dc58 f   Exporting:CIFXBlockWriterX.obj
 0001:0001cce8       ??_ECIFXWriteManager@@EAEPAXI@Z 1001dce8 f i Exporting:CIFXWriteManager.obj
 0001:0001cce8       ??_GCIFXWriteManager@@EAEPAXI@Z 1001dce8 f i Exporting:CIFXWriteManager.obj
 0001:0001cd14       ??_E?$IFXArray@UIFXExtBlocktype@CIFXWriteManager@@@@UAEPAXI@Z 1001dd14 f i Exporting:CIFXWriteManager.obj
 0001:0001cd14       ??_G?$IFXArray@UIFXExtBlocktype@CIFXWriteManager@@@@UAEPAXI@Z 1001dd14 f i Exporting:CIFXWriteManager.obj
 0001:0001cd40       ??0IFXWriteManager@@QAE@XZ 1001dd40 f i Exporting:CIFXWriteManager.obj
 0001:0001cd60       ??0IFXExtensionData@@QAE@XZ 1001dd60 f i Exporting:CIFXWriteManager.obj
 0001:0001ce84       ??1IFXExtensionData@@QAE@XZ 1001de84 f i Exporting:CIFXWriteManager.obj
 0001:0001cf80       ??0IFXExtBlocktype@CIFXWriteManager@@QAE@XZ 1001df80 f i Exporting:CIFXWriteManager.obj
 0001:0001cf9c       ??1IFXExtBlocktype@CIFXWriteManager@@QAE@XZ 1001df9c f i Exporting:CIFXWriteManager.obj
 0001:0001cfc0       ??0?$IFXAutoRelease@VIFXBlockWriterX@@@@QAE@AAPAVIFXBlockWriterX@@@Z 1001dfc0 f i Exporting:CIFXWriteManager.obj
 0001:0001d01c       ??1?$IFXAutoRelease@VIFXBlockWriterX@@@@QAE@XZ 1001e01c f i Exporting:CIFXWriteManager.obj
 0001:0001d094       ??0?$IFXArray@UIFXExtBlocktype@CIFXWriteManager@@@@QAE@I@Z 1001e094 f i Exporting:CIFXWriteManager.obj
 0001:0001d168       ??1?$IFXArray@UIFXExtBlocktype@CIFXWriteManager@@@@UAE@XZ 1001e168 f i Exporting:CIFXWriteManager.obj
 0001:0001d2ac       ?ResetElement@?$IFXArray@UIFXExtBlocktype@CIFXWriteManager@@@@UAEXAAUIFXExtBlocktype@CIFXWriteManager@@@Z 1001e2ac f i Exporting:CIFXWriteManager.obj
 0001:0001d2b8       ?CreateNewElement@?$IFXArray@UIFXExtBlocktype@CIFXWriteManager@@@@QAEAAUIFXExtBlocktype@CIFXWriteManager@@XZ 1001e2b8 f i Exporting:CIFXWriteManager.obj
 0001:0001d2f4       ?GetElement@?$IFXArray@UIFXExtBlocktype@CIFXWriteManager@@@@QAEAAUIFXExtBlocktype@CIFXWriteManager@@I@Z 1001e2f4 f i Exporting:CIFXWriteManager.obj
 0001:0001d348       ?Construct@?$IFXArray@UIFXExtBlocktype@CIFXWriteManager@@@@EAEXI@Z 1001e348 f i Exporting:CIFXWriteManager.obj
 0001:0001d478       ?Destruct@?$IFXArray@UIFXExtBlocktype@CIFXWriteManager@@@@EAEXI@Z 1001e478 f i Exporting:CIFXWriteManager.obj
 0001:0001d4c8       ?DestructAll@?$IFXArray@UIFXExtBlocktype@CIFXWriteManager@@@@EAEXXZ 1001e4c8 f i Exporting:CIFXWriteManager.obj
 0001:0001d5c8       ?Preallocate@?$IFXArray@UIFXExtBlocktype@CIFXWriteManager@@@@EAEXI@Z 1001e5c8 f i Exporting:CIFXWriteManager.obj
 0001:0001d72c       ?Resize@?$IFXArray@UIFXExtBlocktype@CIFXWriteManager@@@@EAEXI@Z 1001e72c f i Exporting:CIFXWriteManager.obj
 0001:0001d808       ?GetIFXResult@IFXException@@QAEHXZ 1001e808 f i Exporting:CIFXWriteManager.obj
 0001:0001d818       ??0?$IFXAutoRelease@VIFXExtensionEncoderX@@@@QAE@AAPAVIFXExtensionEncoderX@@@Z 1001e818 f i Exporting:CIFXWriteManager.obj
 0001:0001d874       ??1?$IFXAutoRelease@VIFXExtensionEncoderX@@@@QAE@XZ 1001e874 f i Exporting:CIFXWriteManager.obj
 0001:0001d8f8       ??0?$IFXAutoRelease@VIFXEncoderX@@@@QAE@AAPAVIFXEncoderX@@@Z 1001e8f8 f i Exporting:CIFXWriteManager.obj
 0001:0001d954       ??1?$IFXAutoRelease@VIFXEncoderX@@@@QAE@XZ 1001e954 f i Exporting:CIFXWriteManager.obj
 0001:0001d9d8       ??0?$IFXAutoRelease@VIFXModifierChain@@@@QAE@AAPAVIFXModifierChain@@@Z 1001e9d8 f i Exporting:CIFXWriteManager.obj
 0001:0001da34       ??1?$IFXAutoRelease@VIFXModifierChain@@@@QAE@XZ 1001ea34 f i Exporting:CIFXWriteManager.obj
 0001:0001dab8       ?CIFXWriteManager_Factory@@YIHABUIFXGUID@@PAPAX@Z 1001eab8 f   Exporting:CIFXWriteManager.obj
 0001:0001dc1c       ??0CIFXWriteManager@@AAE@XZ 1001ec1c f   Exporting:CIFXWriteManager.obj
 0001:0001de0a       ??1CIFXWriteManager@@EAE@XZ 1001ee0a f   Exporting:CIFXWriteManager.obj
 0001:0001dfa4       ?AddRef@CIFXWriteManager@@UAIIXZ 1001efa4 f   Exporting:CIFXWriteManager.obj
 0001:0001dfba       ?Release@CIFXWriteManager@@UAIIXZ 1001efba f   Exporting:CIFXWriteManager.obj
 0001:0001e002       ?QueryInterface@CIFXWriteManager@@UAIHABUIFXGUID@@PAPAX@Z 1001f002 f   Exporting:CIFXWriteManager.obj
 0001:0001e0ae       ?Initialize@CIFXWriteManager@@UAIHPAVIFXCoreServices@@@Z 1001f0ae f   Exporting:CIFXWriteManager.obj
 0001:0001e220       ?Write@CIFXWriteManager@@UAIHPAVIFXWriteBuffer@@I@Z 1001f220 f   Exporting:CIFXWriteManager.obj
 0001:0001e6f6       ?SetQualityFactor@CIFXWriteManager@@UAIHII@Z 1001f6f6 f   Exporting:CIFXWriteManager.obj
 0001:0001e8aa       ?ComponentIsMarkedForWrite@CIFXWriteManager@@AAEXPAVIFXUnknown@@PAH@Z 1001f8aa f   Exporting:CIFXWriteManager.obj
 0001:0001ea7c       ?PutPalette@CIFXWriteManager@@AAEXW4EIFXPalette@IFXSceneGraph@@@Z 1001fa7c f   Exporting:CIFXWriteManager.obj
 0001:0002027c       ?WriteQueueX@CIFXWriteManager@@AAEXXZ 1002127c f   Exporting:CIFXWriteManager.obj
 0001:000203ac       ?SetQualityOnPalette@CIFXWriteManager@@AAEXIW4EIFXPalette@IFXSceneGraph@@@Z 100213ac f   Exporting:CIFXWriteManager.obj
 0001:0002065a       ?HandleExtensionsX@CIFXWriteManager@@AAEXPAVIFXEncoderX@@PAVIFXDataBlockQueueX@@@Z 1002165a f   Exporting:CIFXWriteManager.obj
 0001:000209b4       ?CreateNewObjectDeclarationBlockX@CIFXWriteManager@@AAEXPAIPAUIFXExtensionData@@AAVIFXDataBlockQueueX@@@Z 100219b4 f   Exporting:CIFXWriteManager.obj
 0001:00020f10       ??_EIFXExtBlocktype@CIFXWriteManager@@QAEPAXI@Z 10021f10 f i Exporting:CIFXWriteManager.obj
 0001:00020f84       ??_ECIFXAuthorGeomCompiler@@UAEPAXI@Z 10021f84 f i Exporting:CIFXAuthorGeomCompiler.obj
 0001:00020f84       ??_GCIFXAuthorGeomCompiler@@UAEPAXI@Z 10021f84 f i Exporting:CIFXAuthorGeomCompiler.obj
 0001:00020fb0       ??0IFXProgressCallback@@QAE@XZ 10021fb0 f i Exporting:CIFXAuthorGeomCompiler.obj
 0001:00020fc8       ??0IFXAuthorCLODGenParam@@QAE@XZ 10021fc8 f i Exporting:CIFXAuthorGeomCompiler.obj
 0001:00021000       ??0IFXAuthorMeshScrubParams@@QAE@XZ 10022000 f i Exporting:CIFXAuthorGeomCompiler.obj
 0001:00021060       ??0IFXAuthorCLODCompressionParams@@QAE@XZ 10022060 f i Exporting:CIFXAuthorGeomCompiler.obj
 0001:00021118       ??0IFXAuthorGeomCompilerParams@@QAE@XZ 10022118 f i Exporting:CIFXAuthorGeomCompiler.obj
 0001:00021170       ??0IFXAuthorGeomCompiler@@QAE@XZ 10022170 f i Exporting:CIFXAuthorGeomCompiler.obj
 0001:00021190       ??0CIFXAuthorGeomCompilerProgress@@QAE@XZ 10022190 f i Exporting:CIFXAuthorGeomCompiler.obj
 0001:000211e0       ?Initialize@CIFXAuthorGeomCompilerProgress@@QAEXPAVCIFXAuthorGeomCompiler@@@Z 100221e0 f i Exporting:CIFXAuthorGeomCompiler.obj
 0001:0002125c       ?NextStep@CIFXAuthorGeomCompilerProgress@@QAEXM@Z 1002225c f i Exporting:CIFXAuthorGeomCompiler.obj
 0001:000212d8       ?InitializeProgress@CIFXAuthorGeomCompilerProgress@@UAIXM@Z 100222d8 f i Exporting:CIFXAuthorGeomCompiler.obj
 0001:000212ec       ?UpdateProgress@CIFXAuthorGeomCompilerProgress@@UAIHM@Z 100222ec f i Exporting:CIFXAuthorGeomCompiler.obj
 0001:000213a8       ?CIFXAuthorGeomCompiler_Factory@@YIHABUIFXGUID@@PAPAX@Z 100223a8 f   Exporting:CIFXAuthorGeomCompiler.obj
 0001:00021506       ??0CIFXAuthorGeomCompiler@@QAE@XZ 10022506 f   Exporting:CIFXAuthorGeomCompiler.obj
 0001:0002153a       ??1CIFXAuthorGeomCompiler@@UAE@XZ 1002253a f   Exporting:CIFXAuthorGeomCompiler.obj
 0001:0002158a       ?AddRef@CIFXAuthorGeomCompiler@@UAIIXZ 1002258a f   Exporting:CIFXAuthorGeomCompiler.obj
 0001:000215a0       ?Release@CIFXAuthorGeomCompiler@@UAIIXZ 100225a0 f   Exporting:CIFXAuthorGeomCompiler.obj
 0001:000215e8       ?QueryInterface@CIFXAuthorGeomCompiler@@UAIHABUIFXGUID@@PAPAX@Z 100225e8 f   Exporting:CIFXAuthorGeomCompiler.obj
 0001:00021694       ?SetSceneGraph@CIFXAuthorGeomCompiler@@UAIHPAVIFXSceneGraph@@@Z 10022694 f   Exporting:CIFXAuthorGeomCompiler.obj
 0001:0002172a       ?Compile@CIFXAuthorGeomCompiler@@UAIHAAVIFXString@@PAVIFXAuthorMesh@@PAPAVIFXAuthorCLODResource@@HPAUIFXAuthorGeomCompilerParams@@@Z 1002272a f   Exporting:CIFXAuthorGeomCompiler.obj
 0001:000229f0       ?Recompile@CIFXAuthorGeomCompiler@@UAIHPAVIFXAuthorCLODResource@@PAVIFXAuthorMeshMap@@PAPAV3@@Z 100239f0 f   Exporting:CIFXAuthorGeomCompiler.obj
 0001:00022a1c       ??_ECIFXStdioWriteBufferX@@EAEPAXI@Z 10023a1c f i Exporting:CIFXStdioWriteBufferX.obj
 0001:00022a1c       ??_GCIFXStdioWriteBufferX@@EAEPAXI@Z 10023a1c f i Exporting:CIFXStdioWriteBufferX.obj
 0001:00022a48       ??0IFXWriteBuffer@@QAE@XZ  10023a48 f i Exporting:CIFXStdioWriteBufferX.obj
 0001:00022aac       ??0IFXWriteBufferX@@QAE@XZ 10023aac f i Exporting:CIFXStdioWriteBufferX.obj
 0001:00022b10       ??0IFXStdio@@QAE@XZ        10023b10 f i Exporting:CIFXStdioWriteBufferX.obj
 0001:00022b74       ?CIFXStdioWriteBufferX_Factory@@YIHABUIFXGUID@@PAPAX@Z 10023b74 f   Exporting:CIFXStdioWriteBufferX.obj
 0001:00022d08       ?Write@CIFXStdioWriteBufferX@@UAIHPAE_KI@Z 10023d08 f   Exporting:CIFXStdioWriteBufferX.obj
 0001:00022e34       ?WriteX@CIFXStdioWriteBufferX@@UAIXPAE_KI@Z 10023e34 f   Exporting:CIFXStdioWriteBufferX.obj
 0001:00022fca       ?Open@CIFXStdioWriteBufferX@@UAIHPAG@Z 10023fca f   Exporting:CIFXStdioWriteBufferX.obj
 0001:00023054       ?Close@CIFXStdioWriteBufferX@@UAIHXZ 10024054 f   Exporting:CIFXStdioWriteBufferX.obj
 0001:000230a8       ?AddRef@CIFXStdioWriteBufferX@@UAIIXZ 100240a8 f   Exporting:CIFXStdioWriteBufferX.obj
 0001:000230c2       ?Release@CIFXStdioWriteBufferX@@UAIIXZ 100240c2 f   Exporting:CIFXStdioWriteBufferX.obj
 0001:0002310e       ?QueryInterface@CIFXStdioWriteBufferX@@UAIHABUIFXGUID@@PAPAX@Z 1002410e f   Exporting:CIFXStdioWriteBufferX.obj
 0001:0002327a       ??0CIFXStdioWriteBufferX@@AAE@XZ 1002427a f   Exporting:CIFXStdioWriteBufferX.obj
 0001:0002336a       ??1CIFXStdioWriteBufferX@@EAE@XZ 1002436a f   Exporting:CIFXStdioWriteBufferX.obj
 0001:000233c8       ?AddRef@CIFXStdioWriteBufferX@@$4PPPPPPPM@A@AIIXZ 100243c8 f i Exporting:CIFXStdioWriteBufferX.obj
 0001:000233e8       ?Release@CIFXStdioWriteBufferX@@$4PPPPPPPM@A@AIIXZ 100243e8 f i Exporting:CIFXStdioWriteBufferX.obj
 0001:00023408       ?QueryInterface@CIFXStdioWriteBufferX@@$4PPPPPPPM@A@AIHABUIFXGUID@@PAPAX@Z 10024408 f i Exporting:CIFXStdioWriteBufferX.obj
 0001:00023428       ??$IFXInitStruct@UIFXAuthorMaterial@@@@YAXPAUIFXAuthorMaterial@@I@Z 10024428 f i Exporting:CIFXPointSetEncoder.obj
 0001:0002347c       ??_ECIFXPointSetEncoder@@EAEPAXI@Z 1002447c f i Exporting:CIFXPointSetEncoder.obj
 0001:0002347c       ??_GCIFXPointSetEncoder@@EAEPAXI@Z 1002447c f i Exporting:CIFXPointSetEncoder.obj
 0001:000234a8       ??_E?$IFXArray@I@@UAEPAXI@Z 100244a8 f i Exporting:CIFXPointSetEncoder.obj
 0001:000234a8       ??_G?$IFXArray@I@@UAEPAXI@Z 100244a8 f i Exporting:CIFXPointSetEncoder.obj
 0001:000234d4       ??0IFXVector3@@QAE@PBM@Z   100244d4 f i Exporting:CIFXPointSetEncoder.obj
 0001:000234f4       ??4IFXVector3@@QAEAAV0@PBM@Z 100244f4 f i Exporting:CIFXPointSetEncoder.obj
 0001:00023524       ?IsNonZero@IFXVector3@@QBEHXZ 10024524 f i Exporting:CIFXPointSetEncoder.obj
 0001:00023574       ?Normalize@IFXVector3@@QAEAAV1@XZ 10024574 f i Exporting:CIFXPointSetEncoder.obj
 0001:000235ec       ??0IFXVector4@@QAE@MMMM@Z  100245ec f i Exporting:CIFXPointSetEncoder.obj
 0001:00023624       ?Add@IFXVector4@@QAEAAV1@ABV1@@Z 10024624 f i Exporting:CIFXPointSetEncoder.obj
 0001:00023680       ?Subtract@IFXVector4@@QAEAAV1@ABV1@0@Z 10024680 f i Exporting:CIFXPointSetEncoder.obj
 0001:000236dc       ?Scale@IFXVector4@@QAEAAV1@M@Z 100246dc f i Exporting:CIFXPointSetEncoder.obj
 0001:0002372c       ?Scale3@IFXVector4@@QAEAAV1@M@Z 1002472c f i Exporting:CIFXPointSetEncoder.obj
 0001:0002376c       ?Normalize3@IFXVector4@@QAEAAV1@XZ 1002476c f i Exporting:CIFXPointSetEncoder.obj
 0001:000237e0       ??0IFXAuthorMaterial@@QAE@XZ 100247e0 f i Exporting:CIFXPointSetEncoder.obj
 0001:00023810       ??0?$IFXAutoRelease@VIFXAuthorPointSetResource@@@@QAE@AAPAVIFXAuthorPointSetResource@@@Z 10024810 f i Exporting:CIFXPointSetEncoder.obj
 0001:0002386c       ??1?$IFXAutoRelease@VIFXAuthorPointSetResource@@@@QAE@XZ 1002486c f i Exporting:CIFXPointSetEncoder.obj
 0001:000238f0       ??0?$IFXAutoRelease@VIFXAuthorPointSet@@@@QAE@AAPAVIFXAuthorPointSet@@@Z 100248f0 f i Exporting:CIFXPointSetEncoder.obj
 0001:0002394c       ??1?$IFXAutoRelease@VIFXAuthorPointSet@@@@QAE@XZ 1002494c f i Exporting:CIFXPointSetEncoder.obj
 0001:000239d0       ??0?$IFXArray@I@@QAE@I@Z   100249d0 f i Exporting:CIFXPointSetEncoder.obj
 0001:00023aa4       ??1?$IFXArray@I@@UAE@XZ    10024aa4 f i Exporting:CIFXPointSetEncoder.obj
 0001:00023be8       ?ResetElement@?$IFXArray@I@@UAEXAAI@Z 10024be8 f i Exporting:CIFXPointSetEncoder.obj
 0001:00023bf4       ?CreateNewElement@?$IFXArray@I@@QAEAAIXZ 10024bf4 f i Exporting:CIFXPointSetEncoder.obj
 0001:00023c30       ?GetElement@?$IFXArray@I@@QAEAAII@Z 10024c30 f i Exporting:CIFXPointSetEncoder.obj
 0001:00023c84       ?Construct@?$IFXArray@I@@EAEXI@Z 10024c84 f i Exporting:CIFXPointSetEncoder.obj
 0001:00023d04       ?Destruct@?$IFXArray@I@@EAEXI@Z 10024d04 f i Exporting:CIFXPointSetEncoder.obj
 0001:00023d44       ?DestructAll@?$IFXArray@I@@EAEXXZ 10024d44 f i Exporting:CIFXPointSetEncoder.obj
 0001:00023e34       ?Preallocate@?$IFXArray@I@@EAEXI@Z 10024e34 f i Exporting:CIFXPointSetEncoder.obj
 0001:00023e98       ?Resize@?$IFXArray@I@@EAEXI@Z 10024e98 f i Exporting:CIFXPointSetEncoder.obj
 0001:00023f74       ??0?$IFXAutoRelease@VIFXBitStreamCompressedX@@@@QAE@AAPAVIFXBitStreamCompressedX@@@Z 10024f74 f i Exporting:CIFXPointSetEncoder.obj
 0001:00023fd0       ??1?$IFXAutoRelease@VIFXBitStreamCompressedX@@@@QAE@XZ 10024fd0 f i Exporting:CIFXPointSetEncoder.obj
 0001:00024048       ?CIFXPointSetEncoder_Factory@@YIHABUIFXGUID@@PAPAX@Z 10025048 f   Exporting:CIFXPointSetEncoder.obj
 0001:000241dc       ?AddRef@CIFXPointSetEncoder@@UAIIXZ 100251dc f   Exporting:CIFXPointSetEncoder.obj
 0001:000241fa       ?Release@CIFXPointSetEncoder@@UAIIXZ 100251fa f   Exporting:CIFXPointSetEncoder.obj
 0001:0002424c       ?QueryInterface@CIFXPointSetEncoder@@UAIHABUIFXGUID@@PAPAX@Z 1002524c f   Exporting:CIFXPointSetEncoder.obj
 0001:00024334       ?SetObjectX@CIFXPointSetEncoder@@UAIXAAVIFXUnknown@@@Z 10025334 f   Exporting:CIFXPointSetEncoder.obj
 0001:00024412       ?InitializeX@CIFXPointSetEncoder@@UAIXAAVIFXCoreServices@@@Z 10025412 f   Exporting:CIFXPointSetEncoder.obj
 0001:00024470       ?EncodeX@CIFXPointSetEncoder@@UAIXAAVIFXString@@AAVIFXDataBlockQueueX@@N@Z 10025470 f   Exporting:CIFXPointSetEncoder.obj
 0001:00024e16       ??0CIFXPointSetEncoder@@AAE@XZ 10025e16 f   Exporting:CIFXPointSetEncoder.obj
 0001:00025062       ??1CIFXPointSetEncoder@@EAE@XZ 10026062 f   Exporting:CIFXPointSetEncoder.obj
 0001:0002518e       ?MakeDeclarationBlockX@CIFXPointSetEncoder@@AAEXAAVIFXString@@AAVIFXDataBlockQueueX@@@Z 1002618e f   Exporting:CIFXPointSetEncoder.obj
 0001:000264ae       ?MakeContinuationBlockX@CIFXPointSetEncoder@@AAEXAAVIFXString@@AAVIFXDataBlockQueueX@@@Z 100274ae f   Exporting:CIFXPointSetEncoder.obj
 0001:00026aa8       ?WritePointUpdateX@CIFXPointSetEncoder@@AAEIIPAVIFXBitStreamCompressedX@@@Z 10027aa8 f   Exporting:CIFXPointSetEncoder.obj
 0001:00027b06       ?GetPointsAtPosition@CIFXPointSetEncoder@@AAEXIAAV?$IFXArray@I@@@Z 10028b06 f   Exporting:CIFXPointSetEncoder.obj
 0001:00027c24       ?CalculateQuantizationFactorsX@CIFXPointSetEncoder@@AAEXXZ 10028c24 f   Exporting:CIFXPointSetEncoder.obj
 0001:00028d74       ?CalculatePredictedNormalAtSplitPosX@CIFXPointSetEncoder@@AAEXIIAAVIFXVector3@@@Z 10029d74 f   Exporting:CIFXPointSetEncoder.obj
 0001:00029006       ?CalculatePredictedColorAtSplitPosX@CIFXPointSetEncoder@@AAEXHIIAAVIFXVector4@@@Z 1002a006 f   Exporting:CIFXPointSetEncoder.obj
 0001:0002939e       ?CalculatePredictedTexCoordAtSplitPosX@CIFXPointSetEncoder@@AAEXIIIAAVIFXVector4@@@Z 1002a39e f   Exporting:CIFXPointSetEncoder.obj
 0001:0002968e       ?QuantizePositionForWrite@CIFXPointSetEncoder@@AAEXAAVIFXVector3@@AAEAAI22@Z 1002a68e f   Exporting:CIFXPointSetEncoder.obj
 0001:0002984e       ?QuantizeNormalForWrite@CIFXPointSetEncoder@@AAEXAAVIFXVector3@@AAEAAI22@Z 1002a84e f   Exporting:CIFXPointSetEncoder.obj
 0001:00029a0e       ?QuantizeColorForWrite@CIFXPointSetEncoder@@AAEXHAAVIFXVector4@@AAEAAI222@Z 1002aa0e f   Exporting:CIFXPointSetEncoder.obj
 0001:00029c6e       ?QuantizeTexCoordForWrite@CIFXPointSetEncoder@@AAEXAAVIFXVector4@@AAEAAI222@Z 1002ac6e f   Exporting:CIFXPointSetEncoder.obj
 0001:00029ec0       ?GetPointAttribIndexes@CIFXPointSetEncoder@@AAEXIW4AttribType@1@AAI@Z 1002aec0 f   Exporting:CIFXPointSetEncoder.obj
 0001:00029fe2       ?PrepareForWriting@CIFXPointSetEncoder@@AAEXXZ 1002afe2 f   Exporting:CIFXPointSetEncoder.obj
 0001:0002a0d0       ?AddRef@CIFXPointSetEncoder@@$4PPPPPPPM@A@AIIXZ 1002b0d0 f i Exporting:CIFXPointSetEncoder.obj
 0001:0002a0f0       ?Release@CIFXPointSetEncoder@@$4PPPPPPPM@A@AIIXZ 1002b0f0 f i Exporting:CIFXPointSetEncoder.obj
 0001:0002a110       ?QueryInterface@CIFXPointSetEncoder@@$4PPPPPPPM@A@AIHABUIFXGUID@@PAPAX@Z 1002b110 f i Exporting:CIFXPointSetEncoder.obj
 0001:0002a130       ?SetObjectX@CIFXPointSetEncoder@@$4PPPPPPPM@A@AIXAAVIFXUnknown@@@Z 1002b130 f i Exporting:CIFXPointSetEncoder.obj
 0001:0002a150       ?InitializeX@CIFXPointSetEncoder@@$4PPPPPPPM@A@AIXAAVIFXCoreServices@@@Z 1002b150 f i Exporting:CIFXPointSetEncoder.obj
 0001:0002a170       ?EncodeX@CIFXPointSetEncoder@@$4PPPPPPPM@A@AIXAAVIFXString@@AAVIFXDataBlockQueueX@@N@Z 1002b170 f i Exporting:CIFXPointSetEncoder.obj
 0001:0002a190       ??_ECIFXLineSetEncoder@@EAEPAXI@Z 1002b190 f i Exporting:CIFXLineSetEncoder.obj
 0001:0002a190       ??_GCIFXLineSetEncoder@@EAEPAXI@Z 1002b190 f i Exporting:CIFXLineSetEncoder.obj
 0001:0002a1bc       ??0?$IFXAutoRelease@VIFXAuthorLineSetResource@@@@QAE@AAPAVIFXAuthorLineSetResource@@@Z 1002b1bc f i Exporting:CIFXLineSetEncoder.obj
 0001:0002a218       ??1?$IFXAutoRelease@VIFXAuthorLineSetResource@@@@QAE@XZ 1002b218 f i Exporting:CIFXLineSetEncoder.obj
 0001:0002a29c       ??0?$IFXAutoRelease@VIFXAuthorLineSet@@@@QAE@AAPAVIFXAuthorLineSet@@@Z 1002b29c f i Exporting:CIFXLineSetEncoder.obj
 0001:0002a2f8       ??1?$IFXAutoRelease@VIFXAuthorLineSet@@@@QAE@XZ 1002b2f8 f i Exporting:CIFXLineSetEncoder.obj
 0001:0002a37c       ?VertexA@?$IFXLineT@I@@QBIIXZ 1002b37c f i Exporting:CIFXLineSetEncoder.obj
 0001:0002a38c       ?VertexB@?$IFXLineT@I@@QBIIXZ 1002b38c f i Exporting:CIFXLineSetEncoder.obj
 0001:0002a39c       ?CIFXLineSetEncoder_Factory@@YIHABUIFXGUID@@PAPAX@Z 1002b39c f   Exporting:CIFXLineSetEncoder.obj
 0001:0002a530       ?AddRef@CIFXLineSetEncoder@@UAIIXZ 1002b530 f   Exporting:CIFXLineSetEncoder.obj
 0001:0002a54e       ?Release@CIFXLineSetEncoder@@UAIIXZ 1002b54e f   Exporting:CIFXLineSetEncoder.obj
 0001:0002a5a0       ?QueryInterface@CIFXLineSetEncoder@@UAIHABUIFXGUID@@PAPAX@Z 1002b5a0 f   Exporting:CIFXLineSetEncoder.obj
 0001:0002a688       ?SetObjectX@CIFXLineSetEncoder@@UAIXAAVIFXUnknown@@@Z 1002b688 f   Exporting:CIFXLineSetEncoder.obj
 0001:0002a766       ?InitializeX@CIFXLineSetEncoder@@UAIXAAVIFXCoreServices@@@Z 1002b766 f   Exporting:CIFXLineSetEncoder.obj
 0001:0002a7c4       ?EncodeX@CIFXLineSetEncoder@@UAIXAAVIFXString@@AAVIFXDataBlockQueueX@@N@Z 1002b7c4 f   Exporting:CIFXLineSetEncoder.obj
 0001:0002b1de       ??0CIFXLineSetEncoder@@AAE@XZ 1002c1de f   Exporting:CIFXLineSetEncoder.obj
 0001:0002b40c       ??1CIFXLineSetEncoder@@EAE@XZ 1002c40c f   Exporting:CIFXLineSetEncoder.obj
 0001:0002b538       ?MakeDeclarationBlockX@CIFXLineSetEncoder@@AAEXAAVIFXString@@AAVIFXDataBlockQueueX@@@Z 1002c538 f   Exporting:CIFXLineSetEncoder.obj
 0001:0002c7d0       ?MakeContinuationBlocksX@CIFXLineSetEncoder@@AAEXAAVIFXString@@AAVIFXDataBlockQueueX@@@Z 1002d7d0 f   Exporting:CIFXLineSetEncoder.obj
 0001:0002ce48       ?WriteLineUpdateX@CIFXLineSetEncoder@@AAEIIPAVIFXBitStreamCompressedX@@@Z 1002de48 f   Exporting:CIFXLineSetEncoder.obj
 0001:0002e8ec       ?CalculateQuantizationFactorsX@CIFXLineSetEncoder@@AAEXXZ 1002f8ec f   Exporting:CIFXLineSetEncoder.obj
 0001:0002fa3c       ?CalculatePredictedNormalAtSplitPosX@CIFXLineSetEncoder@@AAEXIIAAVIFXVector3@@@Z 10030a3c f   Exporting:CIFXLineSetEncoder.obj
 0001:000302a4       ?CalculatePredictedColorAtSplitPosX@CIFXLineSetEncoder@@AAEXHIIAAVIFXVector4@@@Z 100312a4 f   Exporting:CIFXLineSetEncoder.obj
 0001:00030bc6       ?CalculatePredictedTexCoordAtSplitPosX@CIFXLineSetEncoder@@AAEXIIIAAVIFXVector4@@@Z 10031bc6 f   Exporting:CIFXLineSetEncoder.obj
 0001:0003144c       ?QuantizePositionForWrite@CIFXLineSetEncoder@@AAEXAAVIFXVector3@@AAEAAI22@Z 1003244c f   Exporting:CIFXLineSetEncoder.obj
 0001:0003160c       ?QuantizeNormalForWrite@CIFXLineSetEncoder@@AAEXAAVIFXVector3@@AAEAAI22@Z 1003260c f   Exporting:CIFXLineSetEncoder.obj
 0001:000317cc       ?QuantizeColorForWrite@CIFXLineSetEncoder@@AAEXHAAVIFXVector4@@AAEAAI222@Z 100327cc f   Exporting:CIFXLineSetEncoder.obj
 0001:00031a2c       ?QuantizeTexCoordForWrite@CIFXLineSetEncoder@@AAEXAAVIFXVector4@@AAEAAI222@Z 10032a2c f   Exporting:CIFXLineSetEncoder.obj
 0001:00031c7e       ?GetLineAttribIndexes@CIFXLineSetEncoder@@AAEXIIW4AttribType@1@AAI1@Z 10032c7e f   Exporting:CIFXLineSetEncoder.obj
 0001:00031e5c       ?GetLineTexCoord@CIFXLineSetEncoder@@AAEXIIIAAI0@Z 10032e5c f   Exporting:CIFXLineSetEncoder.obj
 0001:00031f96       ?ReconstructPosition@CIFXLineSetEncoder@@AAEXEIIIAAVIFXVector3@@@Z 10032f96 f   Exporting:CIFXLineSetEncoder.obj
 0001:0003212a       ?PrepareForWriting@CIFXLineSetEncoder@@AAEXXZ 1003312a f   Exporting:CIFXLineSetEncoder.obj
 0001:00032218       ?AddRef@CIFXLineSetEncoder@@$4PPPPPPPM@A@AIIXZ 10033218 f i Exporting:CIFXLineSetEncoder.obj
 0001:00032238       ?Release@CIFXLineSetEncoder@@$4PPPPPPPM@A@AIIXZ 10033238 f i Exporting:CIFXLineSetEncoder.obj
 0001:00032258       ?QueryInterface@CIFXLineSetEncoder@@$4PPPPPPPM@A@AIHABUIFXGUID@@PAPAX@Z 10033258 f i Exporting:CIFXLineSetEncoder.obj
 0001:00032278       ?SetObjectX@CIFXLineSetEncoder@@$4PPPPPPPM@A@AIXAAVIFXUnknown@@@Z 10033278 f i Exporting:CIFXLineSetEncoder.obj
 0001:00032298       ?InitializeX@CIFXLineSetEncoder@@$4PPPPPPPM@A@AIXAAVIFXCoreServices@@@Z 10033298 f i Exporting:CIFXLineSetEncoder.obj
 0001:000322b8       ?EncodeX@CIFXLineSetEncoder@@$4PPPPPPPM@A@AIXAAVIFXString@@AAVIFXDataBlockQueueX@@N@Z 100332b8 f i Exporting:CIFXLineSetEncoder.obj
 0001:000322d8       ??_ECIFXBoneWeightsModifierEncoder@@EAEPAXI@Z 100332d8 f i Exporting:CIFXBoneWeightsModifierEncoder.obj
 0001:000322d8       ??_GCIFXBoneWeightsModifierEncoder@@EAEPAXI@Z 100332d8 f i Exporting:CIFXBoneWeightsModifierEncoder.obj
 0001:00032304       ?GetVertexCopy@IFXVertexMap@@QAEHIIPAI0@Z 10033304 f i Exporting:CIFXBoneWeightsModifierEncoder.obj
 0001:0003247c       ??0?$IFXAutoRelease@VIFXModel@@@@QAE@AAPAVIFXModel@@@Z 1003347c f i Exporting:CIFXBoneWeightsModifierEncoder.obj
 0001:000324d8       ??1?$IFXAutoRelease@VIFXModel@@@@QAE@XZ 100334d8 f i Exporting:CIFXBoneWeightsModifierEncoder.obj
 0001:0003255c       ??0?$IFXAutoRelease@VIFXMeshGroup@@@@QAE@AAPAVIFXMeshGroup@@@Z 1003355c f i Exporting:CIFXBoneWeightsModifierEncoder.obj
 0001:000325b8       ??1?$IFXAutoRelease@VIFXMeshGroup@@@@QAE@XZ 100335b8 f i Exporting:CIFXBoneWeightsModifierEncoder.obj
 0001:0003263c       ?CIFXBoneWeightsModifierEncoder_Factory@@YIHABUIFXGUID@@PAPAX@Z 1003363c f   Exporting:CIFXBoneWeightsModifierEncoder.obj
 0001:000327d0       ?GetVertexMapContainerX@@YAXPAVIFXMeshMap@@PAI1I@Z 100337d0 f   Exporting:CIFXBoneWeightsModifierEncoder.obj
 0001:00032916       ?AddRef@CIFXBoneWeightsModifierEncoder@@UAIIXZ 10033916 f   Exporting:CIFXBoneWeightsModifierEncoder.obj
 0001:00032930       ?Release@CIFXBoneWeightsModifierEncoder@@UAIIXZ 10033930 f   Exporting:CIFXBoneWeightsModifierEncoder.obj
 0001:0003297c       ?QueryInterface@CIFXBoneWeightsModifierEncoder@@UAIHABUIFXGUID@@PAPAX@Z 1003397c f   Exporting:CIFXBoneWeightsModifierEncoder.obj
 0001:00032a60       ?EncodeX@CIFXBoneWeightsModifierEncoder@@UAIXAAVIFXString@@AAVIFXDataBlockQueueX@@N@Z 10033a60 f   Exporting:CIFXBoneWeightsModifierEncoder.obj
 0001:00034370       ?InitializeX@CIFXBoneWeightsModifierEncoder@@UAIXAAVIFXCoreServices@@@Z 10035370 f   Exporting:CIFXBoneWeightsModifierEncoder.obj
 0001:0003455c       ?SetObjectX@CIFXBoneWeightsModifierEncoder@@UAIXAAVIFXUnknown@@@Z 1003555c f   Exporting:CIFXBoneWeightsModifierEncoder.obj
 0001:0003474c       ??0CIFXBoneWeightsModifierEncoder@@AAE@XZ 1003574c f   Exporting:CIFXBoneWeightsModifierEncoder.obj
 0001:000348ba       ??1CIFXBoneWeightsModifierEncoder@@EAE@XZ 100358ba f   Exporting:CIFXBoneWeightsModifierEncoder.obj
 0001:000349f4       ?AddRef@CIFXBoneWeightsModifierEncoder@@$4PPPPPPPM@A@AIIXZ 100359f4 f i Exporting:CIFXBoneWeightsModifierEncoder.obj
 0001:00034a14       ?Release@CIFXBoneWeightsModifierEncoder@@$4PPPPPPPM@A@AIIXZ 10035a14 f i Exporting:CIFXBoneWeightsModifierEncoder.obj
 0001:00034a34       ?QueryInterface@CIFXBoneWeightsModifierEncoder@@$4PPPPPPPM@A@AIHABUIFXGUID@@PAPAX@Z 10035a34 f i Exporting:CIFXBoneWeightsModifierEncoder.obj
 0001:00034a54       ?SetObjectX@CIFXBoneWeightsModifierEncoder@@$4PPPPPPPM@A@AIXAAVIFXUnknown@@@Z 10035a54 f i Exporting:CIFXBoneWeightsModifierEncoder.obj
 0001:00034a74       ?InitializeX@CIFXBoneWeightsModifierEncoder@@$4PPPPPPPM@A@AIXAAVIFXCoreServices@@@Z 10035a74 f i Exporting:CIFXBoneWeightsModifierEncoder.obj
 0001:00034a94       ?EncodeX@CIFXBoneWeightsModifierEncoder@@$4PPPPPPPM@A@AIXAAVIFXString@@AAVIFXDataBlockQueueX@@N@Z 10035a94 f i Exporting:CIFXBoneWeightsModifierEncoder.obj
 0001:00034ab4       ??_ECIFXCLODModifierEncoder@@EAEPAXI@Z 10035ab4 f i Exporting:CIFXCLODModifierEncoder.obj
 0001:00034ab4       ??_GCIFXCLODModifierEncoder@@EAEPAXI@Z 10035ab4 f i Exporting:CIFXCLODModifierEncoder.obj
 0001:00034ae0       ?CIFXCLODModifierEncoder_Factory@@YIHABUIFXGUID@@PAPAX@Z 10035ae0 f   Exporting:CIFXCLODModifierEncoder.obj
 0001:00034c74       ?AddRef@CIFXCLODModifierEncoder@@UAIIXZ 10035c74 f   Exporting:CIFXCLODModifierEncoder.obj
 0001:00034c8e       ?Release@CIFXCLODModifierEncoder@@UAIIXZ 10035c8e f   Exporting:CIFXCLODModifierEncoder.obj
 0001:00034cda       ?QueryInterface@CIFXCLODModifierEncoder@@UAIHABUIFXGUID@@PAPAX@Z 10035cda f   Exporting:CIFXCLODModifierEncoder.obj
 0001:00034dbe       ?EncodeX@CIFXCLODModifierEncoder@@UAIXAAVIFXString@@AAVIFXDataBlockQueueX@@N@Z 10035dbe f   Exporting:CIFXCLODModifierEncoder.obj
 0001:000353e2       ?InitializeX@CIFXCLODModifierEncoder@@UAIXAAVIFXCoreServices@@@Z 100363e2 f   Exporting:CIFXCLODModifierEncoder.obj
 0001:00035574       ?SetObjectX@CIFXCLODModifierEncoder@@UAIXAAVIFXUnknown@@@Z 10036574 f   Exporting:CIFXCLODModifierEncoder.obj
 0001:00035764       ??0CIFXCLODModifierEncoder@@AAE@XZ 10036764 f   Exporting:CIFXCLODModifierEncoder.obj
 0001:000358d2       ??1CIFXCLODModifierEncoder@@EAE@XZ 100368d2 f   Exporting:CIFXCLODModifierEncoder.obj
 0001:00035a0c       ?AddRef@CIFXCLODModifierEncoder@@$4PPPPPPPM@A@AIIXZ 10036a0c f i Exporting:CIFXCLODModifierEncoder.obj
 0001:00035a2c       ?Release@CIFXCLODModifierEncoder@@$4PPPPPPPM@A@AIIXZ 10036a2c f i Exporting:CIFXCLODModifierEncoder.obj
 0001:00035a4c       ?QueryInterface@CIFXCLODModifierEncoder@@$4PPPPPPPM@A@AIHABUIFXGUID@@PAPAX@Z 10036a4c f i Exporting:CIFXCLODModifierEncoder.obj
 0001:00035a6c       ?SetObjectX@CIFXCLODModifierEncoder@@$4PPPPPPPM@A@AIXAAVIFXUnknown@@@Z 10036a6c f i Exporting:CIFXCLODModifierEncoder.obj
 0001:00035a8c       ?InitializeX@CIFXCLODModifierEncoder@@$4PPPPPPPM@A@AIXAAVIFXCoreServices@@@Z 10036a8c f i Exporting:CIFXCLODModifierEncoder.obj
 0001:00035aac       ?EncodeX@CIFXCLODModifierEncoder@@$4PPPPPPPM@A@AIXAAVIFXString@@AAVIFXDataBlockQueueX@@N@Z 10036aac f i Exporting:CIFXCLODModifierEncoder.obj
 0001:00035acc       ??_GCIFXDummyModifierEncoder@@EAEPAXI@Z 10036acc f i Exporting:CIFXDummyModifierEncoder.obj
 0001:00035acc       ??_ECIFXDummyModifierEncoder@@EAEPAXI@Z 10036acc f i Exporting:CIFXDummyModifierEncoder.obj
 0001:00035af8       ?CIFXDummyModifierEncoder_Factory@@YIHABUIFXGUID@@PAPAX@Z 10036af8 f   Exporting:CIFXDummyModifierEncoder.obj
 0001:00035c8c       ?AddRef@CIFXDummyModifierEncoder@@UAIIXZ 10036c8c f   Exporting:CIFXDummyModifierEncoder.obj
 0001:00035ca6       ?Release@CIFXDummyModifierEncoder@@UAIIXZ 10036ca6 f   Exporting:CIFXDummyModifierEncoder.obj
 0001:00035cf2       ?QueryInterface@CIFXDummyModifierEncoder@@UAIHABUIFXGUID@@PAPAX@Z 10036cf2 f   Exporting:CIFXDummyModifierEncoder.obj
 0001:00035dd6       ?EncodeX@CIFXDummyModifierEncoder@@UAIXAAVIFXString@@AAVIFXDataBlockQueueX@@N@Z 10036dd6 f   Exporting:CIFXDummyModifierEncoder.obj
 0001:000360fa       ?InitializeX@CIFXDummyModifierEncoder@@UAIXAAVIFXCoreServices@@@Z 100370fa f   Exporting:CIFXDummyModifierEncoder.obj
 0001:0003628c       ?SetObjectX@CIFXDummyModifierEncoder@@UAIXAAVIFXUnknown@@@Z 1003728c f   Exporting:CIFXDummyModifierEncoder.obj
 0001:0003647c       ??0CIFXDummyModifierEncoder@@AAE@XZ 1003747c f   Exporting:CIFXDummyModifierEncoder.obj
 0001:000365ea       ??1CIFXDummyModifierEncoder@@EAE@XZ 100375ea f   Exporting:CIFXDummyModifierEncoder.obj
 0001:00036724       ?AddRef@CIFXDummyModifierEncoder@@$4PPPPPPPM@A@AIIXZ 10037724 f i Exporting:CIFXDummyModifierEncoder.obj
 0001:00036744       ?Release@CIFXDummyModifierEncoder@@$4PPPPPPPM@A@AIIXZ 10037744 f i Exporting:CIFXDummyModifierEncoder.obj
 0001:00036764       ?QueryInterface@CIFXDummyModifierEncoder@@$4PPPPPPPM@A@AIHABUIFXGUID@@PAPAX@Z 10037764 f i Exporting:CIFXDummyModifierEncoder.obj
 0001:00036784       ?SetObjectX@CIFXDummyModifierEncoder@@$4PPPPPPPM@A@AIXAAVIFXUnknown@@@Z 10037784 f i Exporting:CIFXDummyModifierEncoder.obj
 0001:000367a4       ?InitializeX@CIFXDummyModifierEncoder@@$4PPPPPPPM@A@AIXAAVIFXCoreServices@@@Z 100377a4 f i Exporting:CIFXDummyModifierEncoder.obj
 0001:000367c4       ?EncodeX@CIFXDummyModifierEncoder@@$4PPPPPPPM@A@AIXAAVIFXString@@AAVIFXDataBlockQueueX@@N@Z 100377c4 f i Exporting:CIFXDummyModifierEncoder.obj
 0001:000367e4       ??3@YAXPAX@Z               100377e4 f   Exporting:IFXCorePluginStatic.obj
 0001:00036818       ??_V@YAXPAX@Z              10037818 f   Exporting:IFXCorePluginStatic.obj
 0001:0003682a       ??2@YAPAXI@Z               1003782a f   Exporting:IFXCorePluginStatic.obj
 0001:0003685c       ??_U@YAPAXI@Z              1003785c f   Exporting:IFXCorePluginStatic.obj
 0001:00036878       ??_GIFXString@@UAEPAXI@Z   10037878 f i Exporting:IFXString.obj
 0001:000368a4       ?Raw@IFXString@@QBEPBGXZ   100378a4 f i Exporting:IFXString.obj
 0001:000368b4       ?Concatenate@IFXString@@QAEHPBV1@@Z 100378b4 f i Exporting:IFXString.obj
 0001:000368f4       ?Concatenate@IFXString@@QAEHPBE@Z 100378f4 f i Exporting:IFXString.obj
 0001:000369bc       ?NewBuffer@IFXString@@AAEXI@Z 100379bc f i Exporting:IFXString.obj
 0001:00036a08       ?DeleteBuffer@IFXString@@AAEXXZ 10037a08 f i Exporting:IFXString.obj
 0001:00036a3c       ??0IFXString@@QAE@XZ       10037a3c f   Exporting:IFXString.obj
 0001:00036a60       ??0IFXString@@QAE@ABV0@@Z  10037a60 f   Exporting:IFXString.obj
 0001:00036acc       ??0IFXString@@QAE@PBV0@@Z  10037acc f   Exporting:IFXString.obj
 0001:00036b4a       ??0IFXString@@QAE@PBD@Z    10037b4a f   Exporting:IFXString.obj
 0001:00036be4       ??0IFXString@@QAE@PBE@Z    10037be4 f   Exporting:IFXString.obj
 0001:00036c7e       ??0IFXString@@QAE@PBG@Z    10037c7e f   Exporting:IFXString.obj
 0001:00036d00       ??0IFXString@@QAE@I@Z      10037d00 f   Exporting:IFXString.obj
 0001:00036d4c       ??1IFXString@@UAE@XZ       10037d4c f   Exporting:IFXString.obj
 0001:00036d68       ?Clear@IFXString@@QAEHXZ   10037d68 f   Exporting:IFXString.obj
 0001:00036d7e       ?Length@IFXString@@QBEIXZ  10037d7e f   Exporting:IFXString.obj
 0001:00036db6       ?LengthU8@IFXString@@QBEIXZ 10037db6 f   Exporting:IFXString.obj
 0001:00036de6       ?GetLengthU8@IFXString@@QAEHPAI@Z 10037de6 f   Exporting:IFXString.obj
 0001:00036e3c       ?IsEmpty@IFXString@@QAEHXZ 10037e3c f   Exporting:IFXString.obj
 0001:00036e70       ?Assign@IFXString@@QAEHPBV1@@Z 10037e70 f   Exporting:IFXString.obj
 0001:00036eea       ?Assign@IFXString@@QAEHPBE@Z 10037eea f   Exporting:IFXString.obj
 0001:00036f90       ?Assign@IFXString@@QAEHPBG@Z 10037f90 f   Exporting:IFXString.obj
 0001:0003700a       ?Compare@IFXString@@QBEHPBG@Z 1003800a f   Exporting:IFXString.obj
 0001:00037072       ?CompareNoCase@IFXString@@QBEHPBG@Z 10038072 f   Exporting:IFXString.obj
 0001:0003720e       ?ForceUppercase@IFXString@@QAEXXZ 1003820e f   Exporting:IFXString.obj
 0001:00037280       ?ForceLowercase@IFXString@@QAEXXZ 10038280 f   Exporting:IFXString.obj
 0001:000372f2       ?ConvertToRawU8@IFXString@@QAEHPAEI@Z 100382f2 f   Exporting:IFXString.obj
 0001:00037374       ?Substring@IFXString@@QBEHPAV1@II@Z 10038374 f   Exporting:IFXString.obj
 0001:0003740a       ?Substring@IFXString@@QBEHPAGIII@Z 1003840a f   Exporting:IFXString.obj
 0001:0003748e       ?FindSubstring@IFXString@@QBEHPBGPAI@Z 1003848e f   Exporting:IFXString.obj
 0001:000375d6       ?SetAt@IFXString@@QAEHIPAG@Z 100385d6 f   Exporting:IFXString.obj
 0001:0003763a       ?GetAt@IFXString@@QAEHIPAG@Z 1003863a f   Exporting:IFXString.obj
 0001:0003769e       ?IsDigit@IFXString@@QAEHI@Z 1003869e f   Exporting:IFXString.obj
 0001:00037702       ?ToString@IFXString@@QAEHID@Z 10038702 f   Exporting:IFXString.obj
 0001:0003781e       ?ToValue@IFXString@@QAEHPAID@Z 1003881e f   Exporting:IFXString.obj
 0001:00037894       ?Concatenate@IFXString@@QAEHPBG@Z 10038894 f   Exporting:IFXString.obj
 0001:000379ec       ??HIFXString@@QBE?AV0@ABV0@@Z 100389ec f   Exporting:IFXString.obj
 0001:00037a8a       ??HIFXString@@QBE?AV0@PBE@Z 10038a8a f   Exporting:IFXString.obj
 0001:00037b26       ??HIFXString@@QBE?AV0@PBG@Z 10038b26 f   Exporting:IFXString.obj
 0001:00037bc2       ?VSPrintf@IFXString@@QAEAAV1@PBGPAD@Z 10038bc2 f   Exporting:IFXString.obj
 0001:00037c94       ?Match@IFXString@@QAEIPBGI@Z 10038c94 f   Exporting:IFXString.obj
 0001:00037cd8       _cosf                      10038cd8 f i Exporting:IFXMatrix4x4.obj
 0001:00037d00       _sinf                      10038d00 f i Exporting:IFXMatrix4x4.obj
 0001:00037d28       ?cos@@YAMM@Z               10038d28 f i Exporting:IFXMatrix4x4.obj
 0001:00037d44       ?sin@@YAMM@Z               10038d44 f i Exporting:IFXMatrix4x4.obj
 0001:00037d60       ?sqrt@@YAMM@Z              10038d60 f i Exporting:IFXMatrix4x4.obj
 0001:00037d7c       ?Raw@IFXVector3@@QAEPAMXZ  10038d7c f i Exporting:IFXMatrix4x4.obj
 0001:00037d88       ?RawConst@IFXVector3@@QBEPBMXZ 10038d88 f i Exporting:IFXMatrix4x4.obj
 0001:00037d94       ??AIFXVector3@@QAEAAMI@Z   10038d94 f i Exporting:IFXMatrix4x4.obj
 0001:00037de0       ?Subtract@IFXVector3@@QAEAAV1@ABV1@@Z 10038de0 f i Exporting:IFXMatrix4x4.obj
 0001:00037e28       ?DotProduct@IFXVector3@@QBEMABV1@@Z 10038e28 f i Exporting:IFXMatrix4x4.obj
 0001:00037e60       ?X@IFXVector4@@QBEMXZ      10038e60 f i Exporting:IFXMatrix4x4.obj
 0001:00037e70       ?Y@IFXVector4@@QBEMXZ      10038e70 f i Exporting:IFXMatrix4x4.obj
 0001:00037e80       ?Z@IFXVector4@@QBEMXZ      10038e80 f i Exporting:IFXMatrix4x4.obj
 0001:00037e90       ?Set@IFXMatrix4x4@@QAEAAV1@ABVIFXVector3@@000@Z 10038e90 f i Exporting:IFXMatrix4x4.obj
 0001:00037f78       ??AIFXMatrix4x4@@QAEAAMH@Z 10038f78 f i Exporting:IFXMatrix4x4.obj
 0001:00037f8c       ?RotateVector@IFXMatrix4x4@@QBEXABVIFXVector3@@AAV2@@Z 10038f8c f i Exporting:IFXMatrix4x4.obj
 0001:00038090       ?IFXMatrix4x4_Multiply@@YAXPAMPBM1@Z 10039090 f   Exporting:IFXMatrix4x4.obj
 0001:000384e2       ?IFXMatrix4x4_MakeIdentity@@YAXPAM@Z 100394e2 f   Exporting:IFXMatrix4x4.obj
 0001:00038566       ?IFXMatrix4x4_Scale@@YAXPAMPBM@Z 10039566 f   Exporting:IFXMatrix4x4.obj
 0001:00038656       ?IFXMatrix4x4_Transpose@@YAXPAM@Z 10039656 f   Exporting:IFXMatrix4x4.obj
 0001:00038710       ?IFXMatrix4x4_CalcDeterminant3x3@@YAMPBM@Z 10039710 f   Exporting:IFXMatrix4x4.obj
 0001:000387a6       ?CalcDeterminant3x3@@YAMMMMMMMMMM@Z 100397a6 f   Exporting:IFXMatrix4x4.obj
 0001:000387f4       ?IFXMatrix4x4_CalcDeterminant@@YAMPBM@Z 100397f4 f   Exporting:IFXMatrix4x4.obj
 0001:000389ca       ?IFXMatrix4x4_Invert3x4@@YAHPAMPBM@Z 100399ca f   Exporting:IFXMatrix4x4.obj
 0001:00038c62       ?IFXMatrix4x4_Invert@@YAHPAMPBM@Z 10039c62 f   Exporting:IFXMatrix4x4.obj
 0001:00039420       ?IFXMatrix4x4_Multiply3x4@@YAXPAMPBM1@Z 1003a420 f   Exporting:IFXMatrix4x4.obj
 0001:000396a6       ??4IFXMatrix4x4@@QAEAAV0@ABVIFXQuaternion@@@Z 1003a6a6 f   Exporting:IFXMatrix4x4.obj
 0001:00039800       ?MakeIdentity@IFXMatrix4x4@@QAEAAV1@XZ 1003a800 f   Exporting:IFXMatrix4x4.obj
 0001:0003981c       ?Scale@IFXMatrix4x4@@QAEAAV1@ABVIFXVector3@@@Z 1003a81c f   Exporting:IFXMatrix4x4.obj
 0001:00039852       ?Multiply3x4@IFXMatrix4x4@@QAEAAV1@ABV1@0@Z 1003a852 f   Exporting:IFXMatrix4x4.obj
 0001:000398f6       ?Multiply@IFXMatrix4x4@@QAEAAV1@ABV1@0@Z 1003a8f6 f   Exporting:IFXMatrix4x4.obj
 0001:0003999a       ?Invert3x4@IFXMatrix4x4@@QAEHABV1@@Z 1003a99a f   Exporting:IFXMatrix4x4.obj
 0001:00039a00       ?Invert@IFXMatrix4x4@@QAEHABV1@@Z 1003aa00 f   Exporting:IFXMatrix4x4.obj
 0001:00039a2e       ?CalcDeterminant@IFXMatrix4x4@@QBEMXZ 1003aa2e f   Exporting:IFXMatrix4x4.obj
 0001:00039a4c       ?CalcDeterminant3x3@IFXMatrix4x4@@QBEMXZ 1003aa4c f   Exporting:IFXMatrix4x4.obj
 0001:00039a6c       ?CalcDeterminant3x3@IFXMatrix4x4@@SAMMMMMMMMMM@Z 1003aa6c f   Exporting:IFXMatrix4x4.obj
 0001:00039ac2       ?Decompose@IFXMatrix4x4@@QBEHAAVIFXVector3@@AAV1@0@Z 1003aac2 f   Exporting:IFXMatrix4x4.obj
 0001:0003a04a       ?CalcTRS@IFXMatrix4x4@@QBEHPAVIFXVector3@@PAVIFXQuaternion@@0@Z 1003b04a f   Exporting:IFXMatrix4x4.obj
 0001:0003a11c       ?CalcAxisScale@IFXMatrix4x4@@QBEXAAVIFXVector3@@@Z 1003b11c f   Exporting:IFXMatrix4x4.obj
 0001:0003a244       ?Transpose@IFXMatrix4x4@@QAEXXZ 1003b244 f   Exporting:IFXMatrix4x4.obj
 0001:0003a25c       ?RotateAxis@IFXMatrix4x4@@QAEXABVIFXVector4@@M@Z 1003b25c f   Exporting:IFXMatrix4x4.obj
 0001:0003a4c8       ?U@IFXVector4@@QAEAAMXZ    1003b4c8 f i Exporting:CIFXAuthorCLODEncoderX_S.obj
 0001:0003a4d4       ?V@IFXVector4@@QAEAAMXZ    1003b4d4 f i Exporting:CIFXAuthorCLODEncoderX_S.obj
 0001:0003a4e4       ?W@IFXVector4@@QAEAAMXZ    1003b4e4 f i Exporting:CIFXAuthorCLODEncoderX_S.obj
 0001:0003a4f4       ?T@IFXVector4@@QAEAAMXZ    1003b4f4 f i Exporting:CIFXAuthorCLODEncoderX_S.obj
 0001:0003a504       ?VertexA@IFXAuthorFace@@QAEAAIXZ 1003b504 f i Exporting:CIFXAuthorCLODEncoderX_S.obj
 0001:0003a510       ?VertexB@IFXAuthorFace@@QAEAAIXZ 1003b510 f i Exporting:CIFXAuthorCLODEncoderX_S.obj
 0001:0003a520       ?VertexC@IFXAuthorFace@@QAEAAIXZ 1003b520 f i Exporting:CIFXAuthorCLODEncoderX_S.obj
 0001:0003a530       ?Set@IFXAuthorFace@@QAEAAU1@III@Z 1003b530 f i Exporting:CIFXAuthorCLODEncoderX_S.obj
 0001:0003a558       ??0IFXAuthorFace@@QAE@XZ   1003b558 f i Exporting:CIFXAuthorCLODEncoderX_S.obj
 0001:0003a580       ?MakeAuthorCLODStaticGeometryBlockX@CIFXAuthorCLODEncoderX@@AAEXAAVIFXString@@AAVIFXDataBlockQueueX@@AAVIFXMeshMap@@@Z 1003b580 f   Exporting:CIFXAuthorCLODEncoderX_S.obj
 0001:0003c0a8       ??_HIFXAuthorFaceUpdate@@QAEPAU0@I@Z 1003d0a8 f i Exporting:CIFXAuthorCLODEncoderX_P.obj
 0001:0003c0e0       ??_HIFXVector3@@QAEPAV0@I@Z 1003d0e0 f i Exporting:CIFXAuthorCLODEncoderX_P.obj
 0001:0003c118       ?IsApproximately@IFXVector3@@QBEHABV1@M@Z 1003d118 f i Exporting:CIFXAuthorCLODEncoderX_P.obj
 0001:0003c1d4       ?CrossProduct@IFXVector3@@QAEAAV1@ABV1@0@Z 1003d1d4 f i Exporting:CIFXAuthorCLODEncoderX_P.obj
 0001:0003c2c0       ?X@IFXVector4@@QAEAAMXZ    1003d2c0 f i Exporting:CIFXAuthorCLODEncoderX_P.obj
 0001:0003c2cc       ?Y@IFXVector4@@QAEAAMXZ    1003d2cc f i Exporting:CIFXAuthorCLODEncoderX_P.obj
 0001:0003c2dc       ?Z@IFXVector4@@QAEAAMXZ    1003d2dc f i Exporting:CIFXAuthorCLODEncoderX_P.obj
 0001:0003c2ec       ?H@IFXVector4@@QAEAAMXZ    1003d2ec f i Exporting:CIFXAuthorCLODEncoderX_P.obj
 0001:0003c2fc       ??0IFXAuthorFaceUpdate@@QAE@XZ 1003d2fc f i Exporting:CIFXAuthorCLODEncoderX_P.obj
 0001:0003c32c       ??0IFXAuthorVertexUpdate@@QAE@XZ 1003d32c f i Exporting:CIFXAuthorCLODEncoderX_P.obj
 0001:0003c36c       ??1IFXAuthorVertexUpdate@@QAE@XZ 1003d36c f i Exporting:CIFXAuthorCLODEncoderX_P.obj
 0001:0003c3a8       ??4IFXAuthorVertexUpdate@@QAEAAU0@ABU0@@Z 1003d3a8 f i Exporting:CIFXAuthorCLODEncoderX_P.obj
 0001:0003c55c       ??0IFXQuaternion@@QAE@ABVIFXVector3@@@Z 1003d55c f i Exporting:CIFXAuthorCLODEncoderX_P.obj
 0001:0003c57c       ??4IFXQuaternion@@QAEAAV0@ABVIFXVector3@@@Z 1003d57c f i Exporting:CIFXAuthorCLODEncoderX_P.obj
 0001:0003c5cc       ??AIFXQuaternion@@QAEAAMH@Z 1003d5cc f i Exporting:CIFXAuthorCLODEncoderX_P.obj
 0001:0003c5e0       ??0?$IFXAutoRelease@VIFXSetAdjacencyX@@@@QAE@AAPAVIFXSetAdjacencyX@@@Z 1003d5e0 f i Exporting:CIFXAuthorCLODEncoderX_P.obj
 0001:0003c63c       ??1?$IFXAutoRelease@VIFXSetAdjacencyX@@@@QAE@XZ 1003d63c f i Exporting:CIFXAuthorCLODEncoderX_P.obj
 0001:0003c6b4       ??0?$IFXAutoRelease@VIFXSetX@@@@QAE@AAPAVIFXSetX@@@Z 1003d6b4 f i Exporting:CIFXAuthorCLODEncoderX_P.obj
 0001:0003c710       ??1?$IFXAutoRelease@VIFXSetX@@@@QAE@XZ 1003d710 f i Exporting:CIFXAuthorCLODEncoderX_P.obj
 0001:0003c788       ?MakeAuthorCLODProgressiveGeometryBlocksX@CIFXAuthorCLODEncoderX@@AAEXAAVIFXString@@AAVIFXDataBlockQueueX@@AAPAVIFXMeshMap@@@Z 1003d788 f   Exporting:CIFXAuthorCLODEncoderX_P.obj
 0001:0004a08e       ?CalculateFaceNormalX@CIFXAuthorCLODEncoderX@@AAEXIAAVIFXVector3@@@Z 1004b08e f   Exporting:CIFXAuthorCLODEncoderX_P.obj
 0001:0004a3d4       ??_ECIFXNodeBaseEncoder@@MAEPAXI@Z 1004b3d4 f i Exporting:CIFXNodeBaseEncoder.obj
 0001:0004a3d4       ??_GCIFXNodeBaseEncoder@@MAEPAXI@Z 1004b3d4 f i Exporting:CIFXNodeBaseEncoder.obj
 0001:0004a400       ??0IFXMatrix4x4@@QAE@ABV0@@Z 1004b400 f i Exporting:CIFXNodeBaseEncoder.obj
 0001:0004a420       ??0CIFXNodeBaseEncoder@@IAE@XZ 1004b420 f   Exporting:CIFXNodeBaseEncoder.obj
 0001:0004a456       ??1CIFXNodeBaseEncoder@@MAE@XZ 1004b456 f   Exporting:CIFXNodeBaseEncoder.obj
 0001:0004a53a       ?CommonNodeEncodeU3D@CIFXNodeBaseEncoder@@IAEXAAVIFXString@@N@Z 1004b53a f   Exporting:CIFXNodeBaseEncoder.obj
 0001:0004ab44       ?Initialize@CIFXNodeBaseEncoder@@IAEXAAVIFXCoreServices@@@Z 1004bb44 f   Exporting:CIFXNodeBaseEncoder.obj
 0001:0004ad96       ?SetNode@CIFXNodeBaseEncoder@@IAEXAAVIFXNode@@@Z 1004bd96 f   Exporting:CIFXNodeBaseEncoder.obj
 0001:0004ae80       ??0IFXCoreArray@@QAE@I@Z   1004be80 f   Exporting:IFXCoreArray.obj
 0001:0004aebe       ?Clear@IFXCoreArray@@UAEXI@Z 1004bebe f   Exporting:IFXCoreArray.obj
 0001:0004af2a       ?ResizeToExactly@IFXCoreArray@@QAEXI@Z 1004bf2a f   Exporting:IFXCoreArray.obj
 0001:0004afde       ?ResizeToAtLeast@IFXCoreArray@@QAEXI@Z 1004bfde f   Exporting:IFXCoreArray.obj
 0001:0004b068       ?GetNumVertexCopies@IFXVertexMap@@QAEII@Z 1004c068 f i Exporting:IFXVertexMap.obj
 0001:0004b0d8       ??0IFXVertexMap@@QAE@XZ    1004c0d8 f   Exporting:IFXVertexMap.obj
 0001:0004b0fe       ??1IFXVertexMap@@QAE@XZ    1004c0fe f   Exporting:IFXVertexMap.obj
 0001:0004b1dc       ?GetNumMapEntries@IFXVertexMap@@QAEIXZ 1004c1dc f   Exporting:IFXVertexMap.obj
 0001:0004b1ea       ?Concatenate@IFXVertexMap@@QAEHPAII@Z 1004c1ea f   Exporting:IFXVertexMap.obj
 0001:0004b5fe       ?ConcatenateVertexMap@IFXVertexMap@@QAEHPAV1@PAPAV1@@Z 1004c5fe f   Exporting:IFXVertexMap.obj
 0001:0004ba96       ?AllocateMap@IFXVertexMap@@QAEHI@Z 1004ca96 f   Exporting:IFXVertexMap.obj
 0001:0004bca8       ?AddVertex@IFXVertexMap@@QAEHIII@Z 1004cca8 f   Exporting:IFXVertexMap.obj
 0001:0004beb8       ?_wc_specialchar@@YAHH@Z   1004ceb8 f   Exporting:wcmatch.obj
 0001:0004bede       ?_wc_ci_strchr@@YAPBGPBGGH@Z 1004cede f   Exporting:wcmatch.obj
 0001:0004bf7a       _WCPossible                1004cf7a f   Exporting:wcmatch.obj
 0001:0004bffc       ?_equal_chars@@YAHHHH@Z    1004cffc f   Exporting:wcmatch.obj
 0001:0004c064       ?_wc_match@@YAPBGPBG0H@Z   1004d064 f   Exporting:wcmatch.obj
 0001:0004c2ae       _WCMatchPos                1004d2ae f   Exporting:wcmatch.obj
 0001:0004c36a       _WCMatch                   1004d36a f   Exporting:wcmatch.obj
 0001:0004c3a8       _acosf                     1004d3a8 f i Exporting:IFXQuaternion.obj
 0001:0004c3d0       _atan2f                    1004d3d0 f i Exporting:IFXQuaternion.obj
 0001:0004c3fc       ?RawConst@IFXMatrix4x4@@QBEPBMXZ 1004d3fc f i Exporting:IFXQuaternion.obj
 0001:0004c408       ?CalcMagnitudeSquared@IFXQuaternion@@QAEMXZ 1004d408 f i Exporting:IFXQuaternion.obj
 0001:0004c450       ?Normalize@IFXQuaternion@@QAEXXZ 1004d450 f i Exporting:IFXQuaternion.obj
 0001:0004c4e8       ?RotateVector@IFXQuaternion@@QAEXABVIFXVector3@@AAV2@@Z 1004d4e8 f i Exporting:IFXQuaternion.obj
 0001:0004c52c       ?RotateVector@IFXQuaternion@@QAEXPBMPAM@Z 1004d52c f i Exporting:IFXQuaternion.obj
 0001:0004c6a4       ??4IFXQuaternion@@QAEAAV0@ABVIFXMatrix4x4@@@Z 1004d6a4 f   Exporting:IFXQuaternion.obj
 0001:0004c91e       ?MakeRotation@IFXQuaternion@@QAEXMW4IFXAxisID@@@Z 1004d91e f   Exporting:IFXQuaternion.obj
 0001:0004c986       ?MakeRotation@IFXQuaternion@@QAEXMABVIFXVector3@@@Z 1004d986 f   Exporting:IFXQuaternion.obj
 0001:0004ca86       ?MakeRotation@IFXQuaternion@@QAEXABVIFXVector3@@0@Z 1004da86 f   Exporting:IFXQuaternion.obj
 0001:0004cd54       ?ComputeAngleAxis@IFXQuaternion@@QBEXAAMAAVIFXVector3@@@Z 1004dd54 f   Exporting:IFXQuaternion.obj
 0001:0004ceee       ?ForcePositiveW@IFXQuaternion@@QAEXXZ 1004deee f   Exporting:IFXQuaternion.obj
 0001:0004cf40       ?Interpolate@IFXQuaternion@@QAEXMABV1@0@Z 1004df40 f   Exporting:IFXQuaternion.obj
 0001:0004d126       ?ExtractEulerZ@IFXQuaternion@@QAEMXZ 1004e126 f   Exporting:IFXQuaternion.obj
 0001:0004d284       @IFXCreateComponent@12     1004e284 f   IFXCore:IFXCore.dll
 0001:0004d28a       @IFXGetMemoryFunctions@12  1004e28a f   IFXCore:IFXCore.dll
 0001:0004d290       @IFXSetMemoryFunctions@12  1004e290 f   IFXCore:IFXCore.dll
 0001:0004d296       @IFXReallocate@8           1004e296 f   IFXCore:IFXCore.dll
 0001:0004d29c       @IFXDeallocate@4           1004e29c f   IFXCore:IFXCore.dll
 0001:0004d2a2       @IFXAllocate@4             1004e2a2 f   IFXCore:IFXCore.dll
 0001:0004d2a8       _fabs                      1004e2a8 f   libmmt:fabs.omu
 0001:0004d2b0       _sqrt                      1004e2b0 f   libmmt:sqrt_stub.omu
 0001:0004d2d8       _pow                       1004e2d8 f   libmmt:pow_stub.omu
 0001:0004d300       _cos                       1004e300 f   libmmt:cos_stub.omu
 0001:0004d328       _sin                       1004e328 f   libmmt:sin_stub.omu
 0001:0004d350       _acos                      1004e350 f   libmmt:acos_stub.omu
 0001:0004d378       _atan2                     1004e378 f   libmmt:atan2_stub.omu
 0001:0004d3a0       _sqrt.J                    1004e3a0 f   libmmt:sqrt_wmt.omu
 0001:0004d420       _sqrt.A                    1004e420 f   libmmt:sqrt_gen.omu
 0001:0004d49c       _pow.J                     1004e49c f   libmmt:pow_wmt.omu
 0001:0004e51c       _pow.A                     1004f51c f   libmmt:pow_gen.omu
 0001:0004f550       _cos.J                     10050550 f   libmmt:cos_wmt.omu
 0001:0004f71c       _cos.A                     1005071c f   libmmt:cos_gen.omu
 0001:0004fbd4       _sin.J                     10050bd4 f   libmmt:sin_wmt.omu
 0001:0004fdb8       _sin.A                     10050db8 f   libmmt:sin_gen.omu
 0001:000502cc       _acos.J                    100512cc f   libmmt:acos_wmt.omu
 0001:000507e8       _acos.A                    100517e8 f   libmmt:acos_gen.omu
 0001:00050c20       _atan2.J                   10051c20 f   libmmt:atan2_wmt.omu
 0001:0005121c       _atan2.A                   1005221c f   libmmt:atan2_gen.omu
 0001:000512a8       ___libm_error_support      100522a8 f   libmmt:libm_error.omu
 0001:000580dc       ___libm_setusermatherrl    100590dc f   libmmt:libm_error.omu
 0001:000580f4       ___libm_setusermatherr     100590f4 f   libmmt:libm_error.omu
 0001:0005810c       ___libm_setusermatherrf    1005910c f   libmmt:libm_error.omu
 0001:00058124       ___libm_sincos_huge        10059124 f   libmmt:libm_sincos_huge.omu
 0001:00058644       ___libm_reduce_pi04l       10059644 f   libmmt:libm_reduce_pi04l.omu
 0001:00058a30       _matherrl                  10059a30 f   libmmt:matherrl.omu
 0001:00058a38       _matherr                   10059a38 f   libmmt:matherr.omu
 0001:00058a40       _matherrf                  10059a40 f   libmmt:matherrf.omu
 0001:00058a50       __CRT_INIT@12              10059a50 f   LIBCMTD:dllcrt0.obj
 0001:00058ca0       __DllMainCRTStartup@12     10059ca0 f   LIBCMTD:dllcrt0.obj
 0001:00058e20       __amsg_exit                10059e20 f   LIBCMTD:dllcrt0.obj
 0001:00058e60       __fpmath                   10059e60 f   LIBCMTD:fpinit.obj
 0001:00058e90       __fpclear                  10059e90 f   LIBCMTD:fpinit.obj
 0001:00058ea0       __cfltcvt_init             10059ea0 f   LIBCMTD:fpinit.obj
 0001:00058ef0       ___setfflag                10059ef0 f   LIBCMTD:fpinit.obj
 0001:00058f10       __CxxThrowException@8      10059f10 f   LIBCMTD:throw.obj
 0001:00058f54       __global_unwind2           10059f54 f   LIBCMTD:exsup.obj
 0001:00058f96       __local_unwind2            10059f96 f   LIBCMTD:exsup.obj
 0001:00058fee       __NLG_Return2              10059fee     LIBCMTD:exsup.obj
 0001:00058ffe       __abnormal_termination     10059ffe f   LIBCMTD:exsup.obj
 0001:00059021       __NLG_Notify1              1005a021 f   LIBCMTD:exsup.obj
 0001:0005902a       __NLG_Notify               1005a02a f   LIBCMTD:exsup.obj
 0001:0005903d       __NLG_Dispatch             1005a03d     LIBCMTD:exsup.obj
 0001:00059050       ?_JumpToContinuation@@YGXPAXPAUEHRegistrationNode@@@Z 1005a050 f   LIBCMTD:trnsctrl.obj
 0001:00059090       ?_CallMemberFunction0@@YGXPAX0@Z 1005a090 f   LIBCMTD:trnsctrl.obj
 0001:000590a0       ?_CallMemberFunction1@@YGXPAX00@Z 1005a0a0 f   LIBCMTD:trnsctrl.obj
 0001:000590b0       ?_CallMemberFunction2@@YGXPAX00H@Z 1005a0b0 f   LIBCMTD:trnsctrl.obj
 0001:000590c0       ?_UnwindNestedFrames@@YGXPAUEHRegistrationNode@@PAUEHExceptionRecord@@@Z 1005a0c0 f   LIBCMTD:trnsctrl.obj
 0001:00059120       ___CxxFrameHandler         1005a120 f   LIBCMTD:trnsctrl.obj
 0001:00059160       ___CxxLongjmpUnwind@4      1005a160 f   LIBCMTD:trnsctrl.obj
 0001:00059190       ?_CallCatchBlock2@@YAPAXPAUEHRegistrationNode@@PBU_s_FuncInfo@@PAXHK@Z 1005a190 f   LIBCMTD:trnsctrl.obj
 0001:00059260       ?_CallSETranslator@@YAHPAUEHExceptionRecord@@PAUEHRegistrationNode@@PAX2PBU_s_FuncInfo@@H1@Z 1005a260 f   LIBCMTD:trnsctrl.obj
 0001:00059410       ?_GetRangeOfTrysToCheck@@YAPBU_s_TryBlockMapEntry@@PBU_s_FuncInfo@@HHPAI1@Z 1005a410 f   LIBCMTD:trnsctrl.obj
 0001:000594a0       ?_CreateFrameInfo@@YAPAUFrameInfo@@PAU1@PAX@Z 1005a4a0 f   LIBCMTD:trnsctrl.obj
 0001:000594d0       ?IsExceptionObjectToBeDestroyed@@YAHPAX@Z 1005a4d0 f   LIBCMTD:trnsctrl.obj
 0001:00059500       ?_FindAndUnlinkFrame@@YAXPAUFrameInfo@@@Z 1005a500 f   LIBCMTD:trnsctrl.obj
 0001:00059560       ??1type_info@@UAE@XZ       1005a560 f   LIBCMTD:typinfo.obj
 0001:000595f0       ??_Etype_info@@UAEPAXI@Z   1005a5f0 f i LIBCMTD:typinfo.obj
 0001:000595f0       ??_Gtype_info@@UAEPAXI@Z   1005a5f0 f i LIBCMTD:typinfo.obj
 0001:00059620       ??8type_info@@QBEHABV0@@Z  1005a620 f   LIBCMTD:typinfo.obj
 0001:00059650       ??9type_info@@QBEHABV0@@Z  1005a650 f   LIBCMTD:typinfo.obj
 0001:00059680       ?before@type_info@@QBEHABV1@@Z 1005a680 f   LIBCMTD:typinfo.obj
 0001:000596b0       ?raw_name@type_info@@QBEPBDXZ 1005a6b0 f   LIBCMTD:typinfo.obj
 0001:000596d0       ??0type_info@@AAE@ABV0@@Z  1005a6d0 f   LIBCMTD:typinfo.obj
 0001:000596f0       ??4type_info@@AAEAAV0@ABV0@@Z 1005a6f0 f   LIBCMTD:typinfo.obj
 0001:00059700       __purecall                 1005a700 f   LIBCMTD:purevirt.obj
 0001:00059720       __set_purecall_handler     1005a720 f   LIBCMTD:purevirt.obj
 0001:00059750       _memcpy                    1005a750 f   LIBCMTD:memcpy.obj
 0001:00059a90       ??_L@YGXPAXIHP6EX0@Z1@Z    1005aa90 f   LIBCMTD:ehvecctr.obj
 0001:00059b30       ??_M@YGXPAXIHP6EX0@Z@Z     1005ab30 f   LIBCMTD:ehvecdtr.obj
 0001:00059bd0       ?__ArrayUnwind@@YGXPAXIHP6EX0@Z@Z 1005abd0 f   LIBCMTD:ehvecdtr.obj
 0001:00059c80       _fseek                     1005ac80 f   LIBCMTD:fseek.obj
 0001:00059d20       __fseek_lk                 1005ad20 f   LIBCMTD:fseek.obj
 0001:00059e30       _fwrite                    1005ae30 f   LIBCMTD:fwrite.obj
 0001:00059eb0       __fwrite_lk                1005aeb0 f   LIBCMTD:fwrite.obj
 0001:0005a0d0       _fclose                    1005b0d0 f   LIBCMTD:fclose.obj
 0001:0005a190       __fclose_lk                1005b190 f   LIBCMTD:fclose.obj
 0001:0005a240       _memset                    1005b240 f   LIBCMTD:memset.obj
 0001:0005a2a0       _wcscat                    1005b2a0 f   LIBCMTD:wcscat.obj
 0001:0005a2f0       _wcscpy                    1005b2f0 f   LIBCMTD:wcscat.obj
 0001:0005a330       _wcslen                    1005b330 f   LIBCMTD:wcslen.obj
 0001:0005a360       _wcscmp                    1005b360 f   LIBCMTD:wcscmp.obj
 0001:0005a3c0       _towupper                  1005b3c0 f   LIBCMTD:towupper.obj
 0001:0005a430       ___towupper_mt             1005b430 f   LIBCMTD:towupper.obj
 0001:0005a4b0       _towlower                  1005b4b0 f   LIBCMTD:towlower.obj
 0001:0005a530       ___towlower_mt             1005b530 f   LIBCMTD:towlower.obj
 0001:0005a5b0       _wcsncpy                   1005b5b0 f   LIBCMTD:wcsncpy.obj
 0001:0005a620       _wcsncmp                   1005b620 f   LIBCMTD:wcsncmp.obj
 0001:0005a680       _isleadbyte                1005b680 f   LIBCMTD:_wctype.obj
 0001:0005a6a0       _iswalpha                  1005b6a0 f   LIBCMTD:_wctype.obj
 0001:0005a6c0       _iswupper                  1005b6c0 f   LIBCMTD:_wctype.obj
 0001:0005a6e0       _iswlower                  1005b6e0 f   LIBCMTD:_wctype.obj
 0001:0005a700       _iswdigit                  1005b700 f   LIBCMTD:_wctype.obj
 0001:0005a720       _iswxdigit                 1005b720 f   LIBCMTD:_wctype.obj
 0001:0005a740       _iswspace                  1005b740 f   LIBCMTD:_wctype.obj
 0001:0005a760       _iswpunct                  1005b760 f   LIBCMTD:_wctype.obj
 0001:0005a780       _iswalnum                  1005b780 f   LIBCMTD:_wctype.obj
 0001:0005a7a0       _iswprint                  1005b7a0 f   LIBCMTD:_wctype.obj
 0001:0005a7c0       _iswgraph                  1005b7c0 f   LIBCMTD:_wctype.obj
 0001:0005a7e0       _iswcntrl                  1005b7e0 f   LIBCMTD:_wctype.obj
 0001:0005a800       _iswascii                  1005b800 f   LIBCMTD:_wctype.obj
 0001:0005a820       _wcstol                    1005b820 f   LIBCMTD:wcstol.obj
 0001:0005ab40       _wcstoul                   1005bb40 f   LIBCMTD:wcstol.obj
 0001:0005ab60       ?vswprintf@@YAHPAGIPBGPAD@Z 1005bb60 f   LIBCMTD:vswprinn.obj
 0001:0005ab80       ?vswprintf@@YAHPA_WIPB_WPAD@Z 1005bb80 f   LIBCMTD:vswprinn.obj
 0001:0005acb0       __alloca_probe             1005bcb0     LIBCMTD:chkstk.obj
 0001:0005acb0       __chkstk                   1005bcb0 f   LIBCMTD:chkstk.obj
 0001:0005acf0       _wcschr                    1005bcf0 f   LIBCMTD:wcschr.obj
 0001:0005ad30       __toupper                  1005bd30 f   LIBCMTD:toupper.obj
 0001:0005ad40       _toupper                   1005bd40 f   LIBCMTD:toupper.obj
 0001:0005ad80       ___toupper_mt              1005bd80 f   LIBCMTD:toupper.obj
 0001:0005aec0       ___iob_func                1005bec0 f   LIBCMTD:_file.obj
 0001:0005aed0       ___initstdio               1005bed0 f   LIBCMTD:_file.obj
 0001:0005b000       ___endstdio                1005c000 f   LIBCMTD:_file.obj
 0001:0005b020       __lock_file                1005c020 f   LIBCMTD:_file.obj
 0001:0005b060       __lock_file2               1005c060 f   LIBCMTD:_file.obj
 0001:0005b090       __unlock_file              1005c090 f   LIBCMTD:_file.obj
 0001:0005b0d0       __unlock_file2             1005c0d0 f   LIBCMTD:_file.obj
 0001:0005b100       __dosmaperr                1005c100 f   LIBCMTD:dosmap.obj
 0001:0005b1a0       __errno                    1005c1a0 f   LIBCMTD:dosmap.obj
 0001:0005b1b0       ___doserrno                1005c1b0 f   LIBCMTD:dosmap.obj
 0001:0005b1c0       _fputs                     1005c1c0 f   LIBCMTD:fputs.obj
 0001:0005b2c0       __cinit                    1005c2c0 f   LIBCMTD:crt0dat.obj
 0001:0005b320       _exit                      1005c320 f   LIBCMTD:crt0dat.obj
 0001:0005b340       __exit                     1005c340 f   LIBCMTD:crt0dat.obj
 0001:0005b360       __cexit                    1005c360 f   LIBCMTD:crt0dat.obj
 0001:0005b380       __c_exit                   1005c380 f   LIBCMTD:crt0dat.obj
 0001:0005b4d0       ___crtExitProcess          1005c4d0 f   LIBCMTD:crt0dat.obj
 0001:0005b520       __lockexit                 1005c520 f   LIBCMTD:crt0dat.obj
 0001:0005b530       __unlockexit               1005c530 f   LIBCMTD:crt0dat.obj
 0001:0005b5b0       ___crtTlsAlloc@4           1005c5b0 f   LIBCMTD:tidtable.obj
 0001:0005b5c0       __mtinit                   1005c5c0 f   LIBCMTD:tidtable.obj
 0001:0005b710       __mtterm                   1005c710 f   LIBCMTD:tidtable.obj
 0001:0005b740       __initptd                  1005c740 f   LIBCMTD:tidtable.obj
 0001:0005b760       __getptd                   1005c760 f   LIBCMTD:tidtable.obj
 0001:0005b800       __freefls@4                1005c800 f   LIBCMTD:tidtable.obj
 0001:0005ba80       __freeptd                  1005ca80 f   LIBCMTD:tidtable.obj
 0001:0005bac0       ___threadid                1005cac0 f   LIBCMTD:tidtable.obj
 0001:0005bad0       ___threadhandle            1005cad0 f   LIBCMTD:tidtable.obj
 0001:0005bae0       _malloc                    1005cae0 f   LIBCMTD:dbgheap.obj
 0001:0005bb10       __malloc_dbg               1005cb10 f   LIBCMTD:dbgheap.obj
 0001:0005bb40       __nh_malloc                1005cb40 f   LIBCMTD:dbgheap.obj
 0001:0005bb60       __nh_malloc_dbg            1005cb60 f   LIBCMTD:dbgheap.obj
 0001:0005bc00       __heap_alloc               1005cc00 f   LIBCMTD:dbgheap.obj
 0001:0005bc20       __heap_alloc_dbg           1005cc20 f   LIBCMTD:dbgheap.obj
 0001:0005bf40       _calloc                    1005cf40 f   LIBCMTD:dbgheap.obj
 0001:0005bf70       __calloc_dbg               1005cf70 f   LIBCMTD:dbgheap.obj
 0001:0005bfd0       _realloc                   1005cfd0 f   LIBCMTD:dbgheap.obj
 0001:0005c000       __realloc_dbg              1005d000 f   LIBCMTD:dbgheap.obj
 0001:0005c5a0       __expand                   1005d5a0 f   LIBCMTD:dbgheap.obj
 0001:0005c5d0       __expand_dbg               1005d5d0 f   LIBCMTD:dbgheap.obj
 0001:0005c660       _free                      1005d660 f   LIBCMTD:dbgheap.obj
 0001:0005c680       __free_lk                  1005d680 f   LIBCMTD:dbgheap.obj
 0001:0005c6a0       __free_dbg                 1005d6a0 f   LIBCMTD:dbgheap.obj
 0001:0005c710       __free_dbg_lk              1005d710 f   LIBCMTD:dbgheap.obj
 0001:0005cb20       __msize                    1005db20 f   LIBCMTD:dbgheap.obj
 0001:0005cb40       __msize_dbg                1005db40 f   LIBCMTD:dbgheap.obj
 0001:0005ccb0       __CrtSetBreakAlloc         1005dcb0 f   LIBCMTD:dbgheap.obj
 0001:0005ccd0       __CrtSetDbgBlockType       1005dcd0 f   LIBCMTD:dbgheap.obj
 0001:0005cdb0       __CrtSetAllocHook          1005ddb0 f   LIBCMTD:dbgheap.obj
 0001:0005ce20       __CrtCheckMemory           1005de20 f   LIBCMTD:dbgheap.obj
 0001:0005d190       __CrtSetDbgFlag            1005e190 f   LIBCMTD:dbgheap.obj
 0001:0005d240       __CrtDoForAllClientObjects 1005e240 f   LIBCMTD:dbgheap.obj
 0001:0005d2f0       __CrtIsValidPointer        1005e2f0 f   LIBCMTD:dbgheap.obj
 0001:0005d340       __CrtIsValidHeapPointer    1005e340 f   LIBCMTD:dbgheap.obj
 0001:0005d3f0       __CrtIsMemoryBlock         1005e3f0 f   LIBCMTD:dbgheap.obj
 0001:0005d520       __CrtReportBlockType       1005e520 f   LIBCMTD:dbgheap.obj
 0001:0005d550       __CrtSetDumpClient         1005e550 f   LIBCMTD:dbgheap.obj
 0001:0005d570       __CrtMemCheckpoint         1005e570 f   LIBCMTD:dbgheap.obj
 0001:0005d710       __CrtMemDifference         1005e710 f   LIBCMTD:dbgheap.obj
 0001:0005d830       __CrtMemDumpAllObjectsSince 1005e830 f   LIBCMTD:dbgheap.obj
 0001:0005dc30       __CrtDumpMemoryLeaks       1005ec30 f   LIBCMTD:dbgheap.obj
 0001:0005dca0       __CrtMemDumpStatistics     1005eca0 f   LIBCMTD:dbgheap.obj
 0001:0005dd50       __aligned_malloc           1005ed50 f   LIBCMTD:dbgheap.obj
 0001:0005dd70       __aligned_malloc_dbg       1005ed70 f   LIBCMTD:dbgheap.obj
 0001:0005dd90       __aligned_realloc          1005ed90 f   LIBCMTD:dbgheap.obj
 0001:0005ddb0       __aligned_realloc_dbg      1005edb0 f   LIBCMTD:dbgheap.obj
 0001:0005dde0       __aligned_offset_malloc    1005ede0 f   LIBCMTD:dbgheap.obj
 0001:0005de00       __aligned_offset_malloc_dbg 1005ee00 f   LIBCMTD:dbgheap.obj
 0001:0005df40       __aligned_offset_realloc   1005ef40 f   LIBCMTD:dbgheap.obj
 0001:0005df70       __aligned_offset_realloc_dbg 1005ef70 f   LIBCMTD:dbgheap.obj
 0001:0005e1d0       __aligned_free             1005f1d0 f   LIBCMTD:dbgheap.obj
 0001:0005e1f0       __aligned_free_dbg         1005f1f0 f   LIBCMTD:dbgheap.obj
 0001:0005e2a0       __ioinit                   1005f2a0 f   LIBCMTD:ioinit.obj
 0001:0005e630       __ioterm                   1005f630 f   LIBCMTD:ioinit.obj
 0001:0005e6d0       __setenvp                  1005f6d0 f   LIBCMTD:stdenvp.obj
 0001:0005e850       __setargv                  1005f850 f   LIBCMTD:stdargv.obj
 0001:0005ecb0       ___crtGetEnvironmentStringsA 1005fcb0 f   LIBCMTD:a_env.obj
 0001:0005eed0       __RTC_Initialize           1005fed0 f   LIBCMTD:initsect.obj
 0001:0005ef50       __RTC_Terminate            1005ff50 f   LIBCMTD:initsect.obj
 0001:0005efd0       ___heap_select             1005ffd0 f   LIBCMTD:heapinit.obj
 0001:0005f000       __heap_init                10060000 f   LIBCMTD:heapinit.obj
 0001:0005f070       __heap_term                10060070 f   LIBCMTD:heapinit.obj
 0001:0005f120       __get_heap_handle          10060120 f   LIBCMTD:heapinit.obj
 0001:0005f130       ___CppXcptFilter           10060130 f   LIBCMTD:winxfltr.obj
 0001:0005f160       __XcptFilter               10060160 f   LIBCMTD:winxfltr.obj
 0001:0005f380       __except_handler3          10060380 f   LIBCMTD:exsup3.obj
 0001:0005f466       __seh_longjmp_unwind@4     10060466 f   LIBCMTD:exsup3.obj
 0001:0005f490       __FF_MSGBANNER             10060490 f   LIBCMTD:crt0msg.obj
 0001:0005f4e0       __NMSG_WRITE               100604e0 f   LIBCMTD:crt0msg.obj
 0001:0005f6f0       __GET_RTERRMSG             100606f0 f   LIBCMTD:crt0msg.obj
 0001:0005f740       __setdefaultprecision      10060740 f   LIBCMTD:fp8.obj
 0001:0005f760       __ms_p5_test_fdiv          10060760 f   LIBCMTD:testfdiv.obj
 0001:0005f7b0       __ms_p5_mp_test_fdiv       100607b0 f   LIBCMTD:testfdiv.obj
 0001:0005f800       __forcdecpt                10060800 f   LIBCMTD:cvt.obj
 0001:0005f880       __cropzeros                10060880 f   LIBCMTD:cvt.obj
 0001:0005f960       __positive                 10060960 f   LIBCMTD:cvt.obj
 0001:0005f990       __fassign                  10060990 f   LIBCMTD:cvt.obj
 0001:0005f9e0       __cftoe                    100609e0 f   LIBCMTD:cvt.obj
 0001:0005fbe0       __cftof                    10060be0 f   LIBCMTD:cvt.obj
 0001:0005fda0       __cftog                    10060da0 f   LIBCMTD:cvt.obj
 0001:0005fea0       __cfltcvt                  10060ea0 f   LIBCMTD:cvt.obj
 0001:0005ff30       ?__CxxUnhandledExceptionFilter@@YGJPAU_EXCEPTION_POINTERS@@@Z 10060f30 f   LIBCMTD:unhandld.obj
 0001:0005ffa0       ?__CxxSetUnhandledExceptionFilter@@YAHXZ 10060fa0 f   LIBCMTD:unhandld.obj
 0001:0005ffc0       ?__CxxRestoreUnhandledExceptionFilter@@YAXXZ 10060fc0 f   LIBCMTD:unhandld.obj
 0001:0005ffe0       ___InternalCxxFrameHandler 10060fe0 f   LIBCMTD:frame.obj
 0001:00060550       ___FrameUnwindToState      10061550 f   LIBCMTD:frame.obj
 0001:00060cc0       ___DestructExceptionObject 10061cc0 f   LIBCMTD:frame.obj
 0001:00060da0       ?__uncaught_exception@@YA_NXZ 10061da0 f   LIBCMTD:frame.obj
 0001:00060dc0       ___CxxExceptionFilter      10061dc0 f   LIBCMTD:frame.obj
 0001:00060f70       ___CxxRegisterExceptionObject 10061f70 f   LIBCMTD:frame.obj
 0001:00061090       ___CxxDetectRethrow        10062090 f   LIBCMTD:frame.obj
 0001:000610f0       ___CxxUnregisterExceptionObject 100620f0 f   LIBCMTD:frame.obj
 0001:000611c0       ___CxxQueryExceptionSize   100621c0 f   LIBCMTD:frame.obj
 0001:000611d0       ___CxxCallUnwindDtor       100621d0 f   LIBCMTD:frame.obj
 0001:00061240       ___CxxCallUnwindVecDtor    10062240 f   LIBCMTD:frame.obj
 0001:000612c0       __CallSettingFrame@12      100622c0 f   LIBCMTD:lowhelpr.obj
 0001:000612e7       __NLG_Return               100622e7     LIBCMTD:lowhelpr.obj
 0001:00061310       ?terminate@@YAXXZ          10062310 f   LIBCMTD:hooks.obj
 0001:00061380       ?unexpected@@YAXXZ         10062380 f   LIBCMTD:hooks.obj
 0001:000613a0       ?_inconsistency@@YAXXZ     100623a0 f   LIBCMTD:hooks.obj
 0001:00061410       __mtinitlocks              10062410 f   LIBCMTD:mlock.obj
 0001:000614a0       __mtdeletelocks            100624a0 f   LIBCMTD:mlock.obj
 0001:00061560       __mtinitlocknum            10062560 f   LIBCMTD:mlock.obj
 0001:00061680       __lock                     10062680 f   LIBCMTD:mlock.obj
 0001:000616c0       __unlock                   100626c0 f   LIBCMTD:mlock.obj
 0001:000616e0       __lockerr_exit             100626e0 f   LIBCMTD:mlock.obj
 0001:00061700       __free_base                10062700 f   LIBCMTD:free.obj
 0001:000617d0       _strcmp                    100627d0 f   LIBCMTD:strcmp.obj
 0001:00061860       __CrtDbgBreak              10062860 f   LIBCMTD:dbgrpt.obj
 0001:00061870       __CrtSetReportMode         10062870 f   LIBCMTD:dbgrpt.obj
 0001:000618d0       __CrtSetReportFile         100628d0 f   LIBCMTD:dbgrpt.obj
 0001:00061950       __CrtSetReportHook         10062950 f   LIBCMTD:dbgrpt.obj
 0001:00061970       __CrtSetReportHook2        10062970 f   LIBCMTD:dbgrpt.obj
 0001:00061bc0       __CrtDbgReport             10062bc0 f   LIBCMTD:dbgrpt.obj
 0001:00062330       __lseek                    10063330 f   LIBCMTD:lseek.obj
 0001:00062440       __lseek_lk                 10063440 f   LIBCMTD:lseek.obj
 0001:00062500       _fflush                    10063500 f   LIBCMTD:fflush.obj
 0001:00062590       __fflush_lk                10063590 f   LIBCMTD:fflush.obj
 0001:000625d0       __flush                    100635d0 f   LIBCMTD:fflush.obj
 0001:00062690       __flushall                 10063690 f   LIBCMTD:fflush.obj
 0001:00062830       _ftell                     10063830 f   LIBCMTD:ftell.obj
 0001:000628d0       __ftell_lk                 100638d0 f   LIBCMTD:ftell.obj
 0001:00062b50       __flsbuf                   10063b50 f   LIBCMTD:_flsbuf.obj
 0001:00062db0       __write                    10063db0 f   LIBCMTD:write.obj
 0001:00062ec0       __write_lk                 10063ec0 f   LIBCMTD:write.obj
 0001:000631b0       __close                    100641b0 f   LIBCMTD:close.obj
 0001:000632a0       __close_lk                 100642a0 f   LIBCMTD:close.obj
 0001:00063350       __freebuf                  10064350 f   LIBCMTD:_freebuf.obj
 0001:000633e0       ____setlc_active_func      100643e0 f   LIBCMTD:setlocal.obj
 0001:000633f0       ____unguarded_readlc_active_add_func 100643f0 f   LIBCMTD:setlocal.obj
 0001:00063400       ___freetlocinfo            10064400 f   LIBCMTD:setlocal.obj
 0001:00063580       ___updatetlocinfo          10064580 f   LIBCMTD:setlocal.obj
 0001:000637c0       _setlocale                 100647c0 f   LIBCMTD:setlocal.obj
 0001:00064270       __expandlocale             10065270 f   LIBCMTD:setlocal.obj
 0001:00064450       ___init_dummy              10065450 f   LIBCMTD:setlocal.obj
 0001:00064460       __strcats                  10065460 f   LIBCMTD:setlocal.obj
 0001:000644b0       ___lc_strtolc              100654b0 f   LIBCMTD:setlocal.obj
 0001:00064620       ___lc_lctostr              10065620 f   LIBCMTD:setlocal.obj
 0001:00064690       ___crtLCMapStringW         10065690 f   LIBCMTD:w_map.obj
 0001:00064a70       _iswctype                  10065a70 f   LIBCMTD:iswctype.obj
 0001:00064ae0       ___iswctype_mt             10065ae0 f   LIBCMTD:iswctype.obj
 0001:00064b50       _is_wctype                 10065b50 f   LIBCMTD:iswctype.obj
 0001:00064b70       ___pwctype_func            10065b70 f   LIBCMTD:ctype.obj
 0001:00064b80       ___pctype_func             10065b80 f   LIBCMTD:ctype.obj
 0001:00064b90       __wchartodigit             10065b90 f   LIBCMTD:wchtodig.obj
 0001:00064eb0       __woutput                  10065eb0 f   LIBCMTD:woutput.obj
 0001:00065d80       ___crtLCMapStringA         10066d80 f   LIBCMTD:a_map.obj
 0001:00066340       __chvalidator              10067340 f   LIBCMTD:isctype.obj
 0001:00066380       __chvalidator_mt           10067380 f   LIBCMTD:isctype.obj
 0001:000663c0       __isctype                  100673c0 f   LIBCMTD:isctype.obj
 0001:00066400       ___isctype_mt              10067400 f   LIBCMTD:isctype.obj
 0001:000664c0       __fcloseall                100674c0 f   LIBCMTD:closeall.obj
 0001:000665e0       __stbuf                    100675e0 f   LIBCMTD:_sftbuf.obj
 0001:00066730       __ftbuf                    10067730 f   LIBCMTD:_sftbuf.obj
 0001:000667c0       _strlen                    100677c0 f   LIBCMTD:strlen.obj
 0001:00066850       __onexit                   10067850 f   LIBCMTD:onexit.obj
 0001:000669b0       _atexit                    100679b0 f   LIBCMTD:onexit.obj
 0001:000669d0       ___onexitinit              100679d0 f   LIBCMTD:onexit.obj
 0001:00066a20       ___updatetmbcinfo          10067a20 f   LIBCMTD:mbctype.obj
 0001:00066af0       __setmbcp                  10067af0 f   LIBCMTD:mbctype.obj
 0001:00067430       __getmbcp                  10068430 f   LIBCMTD:mbctype.obj
 0001:00067450       ___initmbctable            10068450 f   LIBCMTD:mbctype.obj
 0001:00067480       ?_set_new_handler@@YAP6AHI@ZP6AHI@Z@Z 10068480 f   LIBCMTD:handler.obj
 0001:000674b0       ?_query_new_handler@@YAP6AHI@ZXZ 100684b0 f   LIBCMTD:handler.obj
 0001:000674c0       __callnewh                 100684c0 f   LIBCMTD:handler.obj
 0001:000674f0       __malloc_base              100684f0 f   LIBCMTD:malloc.obj
 0001:00067510       __nh_malloc_base           10068510 f   LIBCMTD:malloc.obj
 0001:00067570       __heap_alloc_base          10068570 f   LIBCMTD:malloc.obj
 0001:00067640       __CrtDefaultAllocHook      10068640 f   LIBCMTD:dbghook.obj
 0001:00067650       __expand_base              10068650 f   LIBCMTD:expand.obj
 0001:00067770       __realloc_base             10068770 f   LIBCMTD:realloc.obj
 0001:00067a20       __heapchk                  10068a20 f   LIBCMTD:heapchk.obj
 0001:00067ae0       __heapset                  10068ae0 f   LIBCMTD:heapchk.obj
 0001:00067af0       __get_sbh_threshold        10068af0 f   LIBCMTD:sbheap.obj
 0001:00067b10       __set_sbh_threshold        10068b10 f   LIBCMTD:sbheap.obj
 0001:00067b80       ___sbh_heap_init           10068b80 f   LIBCMTD:sbheap.obj
 0001:00067bf0       ___sbh_find_block          10068bf0 f   LIBCMTD:sbheap.obj
 0001:00067c50       ___sbh_verify_block        10068c50 f   LIBCMTD:sbheap.obj
 0001:00067cb0       ___sbh_free_block          10068cb0 f   LIBCMTD:sbheap.obj
 0001:00068270       ___sbh_alloc_block         10069270 f   LIBCMTD:sbheap.obj
 0001:00068790       ___sbh_alloc_new_region    10069790 f   LIBCMTD:sbheap.obj
 0001:000688a0       ___sbh_alloc_new_group     100698a0 f   LIBCMTD:sbheap.obj
 0001:00068a90       ___sbh_resize_block        10069a90 f   LIBCMTD:sbheap.obj
 0001:00069060       ___sbh_heapmin             1006a060 f   LIBCMTD:sbheap.obj
 0001:00069190       ___sbh_heap_check          1006a190 f   LIBCMTD:sbheap.obj
 0001:000696a0       _sprintf                   1006a6a0 f   LIBCMTD:sprintf.obj
 0001:00069790       __scprintf                 1006a790 f   LIBCMTD:sprintf.obj
 0001:00069810       @__security_check_cookie@4 1006a810 f   LIBCMTD:secchk.obj
 0001:00069890       ___crtInitCritSecAndSpinCount 1006a890 f   LIBCMTD:initcrit.obj
 0001:000699b0       _strcpy                    1006a9b0 f   LIBCMTD:strcat.obj
 0001:000699c0       _strcat                    1006a9c0 f   LIBCMTD:strcat.obj
 0001:00069ab0       __ValidateEH3RN            1006aab0 f   LIBCMTD:eh3valid.obj
 0001:00069ea0       ___crtMessageBoxA          1006aea0 f   LIBCMTD:crtmbox.obj
 0001:0006a010       _strncpy                   1006b010 f   LIBCMTD:strncpy.obj
 0001:0006a140       __statusfp                 1006b140 f   LIBCMTD:ieee87.obj
 0001:0006a160       __clearfp                  1006b160 f   LIBCMTD:ieee87.obj
 0001:0006a180       __control87                1006b180 f   LIBCMTD:ieee87.obj
 0001:0006a1d0       __controlfp                1006b1d0 f   LIBCMTD:ieee87.obj
 0001:0006a1f0       __fpreset                  1006b1f0 f   LIBCMTD:ieee87.obj
 0001:0006a580       _isalpha                   1006b580 f   LIBCMTD:_ctype.obj
 0001:0006a5f0       _isupper                   1006b5f0 f   LIBCMTD:_ctype.obj
 0001:0006a650       _islower                   1006b650 f   LIBCMTD:_ctype.obj
 0001:0006a6b0       _isdigit                   1006b6b0 f   LIBCMTD:_ctype.obj
 0001:0006a710       _isxdigit                  1006b710 f   LIBCMTD:_ctype.obj
 0001:0006a780       _isspace                   1006b780 f   LIBCMTD:_ctype.obj
 0001:0006a7e0       _ispunct                   1006b7e0 f   LIBCMTD:_ctype.obj
 0001:0006a840       _isalnum                   1006b840 f   LIBCMTD:_ctype.obj
 0001:0006a8b0       _isprint                   1006b8b0 f   LIBCMTD:_ctype.obj
 0001:0006a920       _isgraph                   1006b920 f   LIBCMTD:_ctype.obj
 0001:0006a990       _iscntrl                   1006b990 f   LIBCMTD:_ctype.obj
 0001:0006a9f0       ___isascii                 1006b9f0 f   LIBCMTD:_ctype.obj
 0001:0006aa00       ___toascii                 1006ba00 f   LIBCMTD:_ctype.obj
 0001:0006aa10       ___iscsymf                 1006ba10 f   LIBCMTD:_ctype.obj
 0001:0006aa50       ___iscsym                  1006ba50 f   LIBCMTD:_ctype.obj
 0001:0006aa90       __tolower                  1006ba90 f   LIBCMTD:tolower.obj
 0001:0006aaa0       _tolower                   1006baa0 f   LIBCMTD:tolower.obj
 0001:0006aae0       ___tolower_mt              1006bae0 f   LIBCMTD:tolower.obj
 0001:0006ac20       __ZeroTail                 1006bc20 f   LIBCMTD:intrncvt.obj
 0001:0006acb0       __IncMan                   1006bcb0 f   LIBCMTD:intrncvt.obj
 0001:0006ad60       __RoundMan                 1006bd60 f   LIBCMTD:intrncvt.obj
 0001:0006ae40       __CopyMan                  1006be40 f   LIBCMTD:intrncvt.obj
 0001:0006ae90       __FillZeroMan              1006be90 f   LIBCMTD:intrncvt.obj
 0001:0006aec0       __IsZeroMan                1006bec0 f   LIBCMTD:intrncvt.obj
 0001:0006af00       __ShrMan                   1006bf00 f   LIBCMTD:intrncvt.obj
 0001:0006aff0       __ld12cvt                  1006bff0 f   LIBCMTD:intrncvt.obj
 0001:0006b230       __ld12tod                  1006c230 f   LIBCMTD:intrncvt.obj
 0001:0006b250       __ld12tof                  1006c250 f   LIBCMTD:intrncvt.obj
 0001:0006b270       __ld12told                 1006c270 f   LIBCMTD:intrncvt.obj
 0001:0006b320       __atodbl                   1006c320 f   LIBCMTD:intrncvt.obj
 0001:0006b370       __atoldbl                  1006c370 f   LIBCMTD:intrncvt.obj
 0001:0006b3c0       __atoflt                   1006c3c0 f   LIBCMTD:intrncvt.obj
 0001:0006b410       __fptostr                  1006c410 f   LIBCMTD:_fptostr.obj
 0001:0006b510       __fltout2                  1006c510 f   LIBCMTD:cfout.obj
 0001:0006b5a0       ___dtold                   1006c5a0 f   LIBCMTD:cfout.obj
 0001:0006b6f0       _memmove                   1006c6f0 f   LIBCMTD:memmove.obj
 0001:0006ba30       __fptrap                   1006ca30 f   LIBCMTD:crt0fp.obj
 0001:0006ba40       ?_ValidateRead@@YAHPBXI@Z  1006ca40 f   LIBCMTD:validate.obj
 0001:0006ba70       ?_ValidateWrite@@YAHPAXI@Z 1006ca70 f   LIBCMTD:validate.obj
 0001:0006baa0       ?_ValidateExecute@@YAHP6GHXZ@Z 1006caa0 f   LIBCMTD:validate.obj
 0001:0006bad0       _abort                     1006cad0 f   LIBCMTD:abort.obj
 0001:0006baf0       __itoa                     1006caf0 f   LIBCMTD:xtoa.obj
 0001:0006bc10       __ltoa                     1006cc10 f   LIBCMTD:xtoa.obj
 0001:0006bc50       __ultoa                    1006cc50 f   LIBCMTD:xtoa.obj
 0001:0006bc70       __i64toa                   1006cc70 f   LIBCMTD:xtoa.obj
 0001:0006bdc0       __ui64toa                  1006cdc0 f   LIBCMTD:xtoa.obj
 0001:0006bde0       __snprintf                 1006cde0 f   LIBCMTD:snprintf.obj
 0001:0006bed0       __vsnprintf                1006ced0 f   LIBCMTD:vsnprint.obj
 0001:0006bfa0       _signal                    1006cfa0 f   LIBCMTD:winsig.obj
 0001:0006c2e0       _raise                     1006d2e0 f   LIBCMTD:winsig.obj
 0001:0006c5a0       ___fpecode                 1006d5a0 f   LIBCMTD:winsig.obj
 0001:0006c5b0       ___pxcptinfoptrs           1006d5b0 f   LIBCMTD:winsig.obj
 0001:0006c5c0       __alloc_osfhnd             1006d5c0 f   LIBCMTD:osfinfo.obj
 0001:0006c840       __set_osfhnd               1006d840 f   LIBCMTD:osfinfo.obj
 0001:0006c900       __free_osfhnd              1006d900 f   LIBCMTD:osfinfo.obj
 0001:0006c9e0       __get_osfhandle            1006d9e0 f   LIBCMTD:osfinfo.obj
 0001:0006ca50       __open_osfhandle           1006da50 f   LIBCMTD:osfinfo.obj
 0001:0006cba0       __lock_fhandle             1006dba0 f   LIBCMTD:osfinfo.obj
 0001:0006cc90       __unlock_fhandle           1006dc90 f   LIBCMTD:osfinfo.obj
 0001:0006ccc0       __commit                   1006dcc0 f   LIBCMTD:commit.obj
 0001:0006cdd0       __getbuf                   1006ddd0 f   LIBCMTD:_getbuf.obj
 0001:0006ce90       __isatty                   1006de90 f   LIBCMTD:isatty.obj
 0001:0006ced0       __lseeki64                 1006ded0 f   LIBCMTD:lseeki64.obj
 0001:0006cff0       __lseeki64_lk              1006dff0 f   LIBCMTD:lseeki64.obj
 0001:0006d0c0       __Getdays                  1006e0c0 f   LIBCMTD:strftime.obj
 0001:0006d1f0       __Getmonths                1006e1f0 f   LIBCMTD:strftime.obj
 0001:0006d320       __Gettnames                1006e320 f   LIBCMTD:strftime.obj
 0001:0006d6b0       _strftime                  1006e6b0 f   LIBCMTD:strftime.obj
 0001:0006d6d0       __Strftime                 1006e6d0 f   LIBCMTD:strftime.obj
 0001:0006d720       __Strftime_mt              1006e720 f   LIBCMTD:strftime.obj
 0001:0006e940       _localeconv                1006f940 f   LIBCMTD:lconv.obj
 0001:0006e950       ___init_time               1006f950 f   LIBCMTD:inittime.obj
 0001:0006ef60       ___free_lc_time            1006ff60 f   LIBCMTD:inittime.obj
 0001:0006f270       ___init_numeric            10070270 f   LIBCMTD:initnum.obj
 0001:0006f5b0       ___free_lconv_num          100705b0 f   LIBCMTD:initnum.obj
 0001:0006f650       ___init_monetary           10070650 f   LIBCMTD:initmon.obj
 0001:0006fa50       ___free_lconv_mon          10070a50 f   LIBCMTD:initmon.obj
 0001:0006fbb0       ___init_ctype              10070bb0 f   LIBCMTD:initctyp.obj
 0001:0006fe70       ____mb_cur_max_func        10070e70 f   LIBCMTD:initctyp.obj
 0001:0006fe80       ____lc_codepage_func       10070e80 f   LIBCMTD:initctyp.obj
 0001:0006feb0       ____lc_collate_cp_func     10070eb0 f   LIBCMTD:initctyp.obj
 0001:0006fee0       ____lc_handle_func         10070ee0 f   LIBCMTD:initctyp.obj
 0001:0006ff10       ___init_collate            10070f10 f   LIBCMTD:initcoll.obj
 0001:0006ff20       _strcspn                   10070f20 f   LIBCMTD:strcspn.obj
 0001:0006ff70       _strncmp                   10070f70 f   LIBCMTD:strncmp.obj
 0001:0006ffb0       _strpbrk                   10070fb0 f   LIBCMTD:strpbrk.obj
 0001:0006fff0       _memcmp                    10070ff0 f   LIBCMTD:memcmp.obj
 0001:000700b0       ___crtGetStringTypeA       100710b0 f   LIBCMTD:a_str.obj
 0001:00070350       ___get_qualified_locale    10071350 f   LIBCMTD:getqloc.obj
 0001:00071180       __resetstkoflw             10072180 f   LIBCMTD:resetstk.obj
 0001:000712d0       ___ansicp                  100722d0 f   LIBCMTD:convrtcp.obj
 0001:00071330       ___convertcp               10072330 f   LIBCMTD:convrtcp.obj
 0001:000715d0       ___crtGetStringTypeW       100725d0 f   LIBCMTD:w_str.obj
 0001:00071900       __output                   10072900 f   LIBCMTD:output.obj
 0001:00072880       _mbtowc                    10073880 f   LIBCMTD:mbtowc.obj
 0001:000728c0       ___mbtowc_mt               100738c0 f   LIBCMTD:mbtowc.obj
 0001:00072a10       __aulldiv                  10073a10 f   LIBCMTD:ulldiv.obj
 0001:00072a80       __aullrem                  10073a80 f   LIBCMTD:ullrem.obj
 0001:00072b00       _fputwc                    10073b00 f   LIBCMTD:fputwc.obj
 0001:00072bb0       __putwc_lk                 10073bb0 f   LIBCMTD:fputwc.obj
 0001:00072d40       _putwc                     10073d40 f   LIBCMTD:fputwc.obj
 0001:00072d60       ___security_init_cookie    10073d60 f   LIBCMTD:seccinit.obj
 0001:00072e00       ___security_error_handler  10073e00 f   LIBCMTD:secfail.obj
 0001:00073030       __set_security_error_handler 10074030 f   LIBCMTD:secfail.obj
 0001:00073050       ___buffer_overrun          10074050 f   LIBCMTD:secfail.obj
 0001:00073070       ___set_buffer_overrun_handler 10074070 f   LIBCMTD:secfail.obj
 0001:00073090       ___addl                    10074090 f   LIBCMTD:mantold.obj
 0001:000730d0       ___add_12                  100740d0 f   LIBCMTD:mantold.obj
 0001:00073180       ___shl_12                  10074180 f   LIBCMTD:mantold.obj
 0001:000731e0       ___shr_12                  100741e0 f   LIBCMTD:mantold.obj
 0001:00073250       ___mtold12                 10074250 f   LIBCMTD:mantold.obj
 0001:000733a0       ___strgtold12              100743a0 f   LIBCMTD:strgtold.obj
 0001:00073da0       ___STRINGTOLD              10074da0 f   LIBCMTD:strgtold.obj
 0001:00073e00       _$I10_OUTPUT               10074e00 f   LIBCMTD:x10fout.obj
 0001:000742e0       ___tzset                   100752e0 f   LIBCMTD:tzset.obj
 0001:00074370       __tzset                    10075370 f   LIBCMTD:tzset.obj
 0001:00074800       __isindst                  10075800 f   LIBCMTD:tzset.obj
 0001:00074de0       ___ascii_stricmp           10075de0 f   LIBCMTD:_stricmp.obj
 0001:00074e30       ___getlocaleinfo           10075e30 f   LIBCMTD:inithelp.obj
 0001:00075090       __stricmp                  10076090 f   LIBCMTD:stricmp.obj
 0001:00075140       __strnicmp                 10076140 f   LIBCMTD:strnicmp.obj
 0001:00075200       _atol                      10076200 f   LIBCMTD:atox.obj
 0001:00075310       _atoi                      10076310 f   LIBCMTD:atox.obj
 0001:00075330       __atoi64                   10076330 f   LIBCMTD:atox.obj
 0001:00075470       _wctomb                    10076470 f   LIBCMTD:wctomb.obj
 0001:000754b0       ___wctomb_mt               100764b0 f   LIBCMTD:wctomb.obj
 0001:00075550       __flswbuf                  10076550 f   LIBCMTD:_flswbuf.obj
 0001:000757c0       ___ld12mul                 100767c0 f   LIBCMTD:tenpow.obj
 0001:00075bb0       ___multtenpow12            10076bb0 f   LIBCMTD:tenpow.obj
 0001:00075c80       _getenv                    10076c80 f   LIBCMTD:getenv.obj
 0001:00075cf0       __getenv_lk                10076cf0 f   LIBCMTD:getenv.obj
 0001:00075dc0       ___crtGetLocaleInfoW       10076dc0 f   LIBCMTD:w_loc.obj
 0001:00075fa0       ___crtGetLocaleInfoA       10076fa0 f   LIBCMTD:a_loc.obj
 0001:00076190       ___ascii_strnicmp          10077190 f   LIBCMTD:_strnicm.obj
 0001:00076200       __allmul                   10077200 f   LIBCMTD:llmul.obj
 0001:00076240       __mbsnbicoll               10077240 f   LIBCMTD:mbsnbico.obj
 0001:000762b0       ___wtomb_environ           100772b0 f   LIBCMTD:wtombenv.obj
 0001:000763a0       ___crtCompareStringA       100773a0 f   LIBCMTD:a_cmp.obj
 0001:00076960       ___crtsetenv               10077960 f   LIBCMTD:setenv.obj
 0001:00076e50       __mbschr                   10077e50 f   LIBCMTD:mbschr.obj
 0001:00076f30       _strchr                    10077f30 f   LIBCMTD:strchr.obj
 0001:00076f36       ___from_strstr_to_strchr   10077f36     LIBCMTD:strchr.obj
 0001:00076ff0       ___intel_cpu_indicator_init 10077ff0 f   libirc:cpu_disp.obj
 0001:0007715c       _GetCurrentThreadId@0      1007815c f   kernel32:KERNEL32.dll
 0001:00077162       _GetCommandLineA@0         10078162 f   kernel32:KERNEL32.dll
 0001:00077168       _GetVersionExA@4           10078168 f   kernel32:KERNEL32.dll
 0001:0007716e       _RaiseException@16         1007816e f   kernel32:KERNEL32.dll
 0001:00077174       _RtlUnwind@16              10078174 f   kernel32:KERNEL32.dll
 0001:0007717a       _EnterCriticalSection@4    1007817a f   kernel32:KERNEL32.dll
 0001:00077180       _LeaveCriticalSection@4    10078180 f   kernel32:KERNEL32.dll
 0001:00077186       _TerminateProcess@8        10078186 f   kernel32:KERNEL32.dll
 0001:0007718c       _GetCurrentProcess@0       1007818c f   kernel32:KERNEL32.dll
 0001:00077192       _ExitProcess@4             10078192 f   kernel32:KERNEL32.dll
 0001:00077198       _GetProcAddress@8          10078198 f   kernel32:KERNEL32.dll
 0001:0007719e       _GetModuleHandleA@4        1007819e f   kernel32:KERNEL32.dll
 0001:000771a4       _TlsAlloc@0                100781a4 f   kernel32:KERNEL32.dll
 0001:000771aa       _TlsFree@4                 100781aa f   kernel32:KERNEL32.dll
 0001:000771b0       _TlsSetValue@8             100781b0 f   kernel32:KERNEL32.dll
 0001:000771b6       _TlsGetValue@4             100781b6 f   kernel32:KERNEL32.dll
 0001:000771bc       _SetLastError@4            100781bc f   kernel32:KERNEL32.dll
 0001:000771c2       _GetLastError@0            100781c2 f   kernel32:KERNEL32.dll
 0001:000771c8       _GetCurrentThread@0        100781c8 f   kernel32:KERNEL32.dll
 0001:000771ce       _IsBadWritePtr@8           100781ce f   kernel32:KERNEL32.dll
 0001:000771d4       _IsBadReadPtr@8            100781d4 f   kernel32:KERNEL32.dll
 0001:000771da       _HeapValidate@12           100781da f   kernel32:KERNEL32.dll
 0001:000771e0       _SetHandleCount@4          100781e0 f   kernel32:KERNEL32.dll
 0001:000771e6       _GetStdHandle@4            100781e6 f   kernel32:KERNEL32.dll
 0001:000771ec       _GetFileType@4             100781ec f   kernel32:KERNEL32.dll
 0001:000771f2       _GetStartupInfoA@4         100781f2 f   kernel32:KERNEL32.dll
 0001:000771f8       _DeleteCriticalSection@4   100781f8 f   kernel32:KERNEL32.dll
 0001:000771fe       _GetModuleFileNameA@12     100781fe f   kernel32:KERNEL32.dll
 0001:00077204       _FreeEnvironmentStringsA@4 10078204 f   kernel32:KERNEL32.dll
 0001:0007720a       _GetEnvironmentStrings@0   1007820a f   kernel32:KERNEL32.dll
 0001:00077210       _FreeEnvironmentStringsW@4 10078210 f   kernel32:KERNEL32.dll
 0001:00077216       _WideCharToMultiByte@32    10078216 f   kernel32:KERNEL32.dll
 0001:0007721c       _GetEnvironmentStringsW@0  1007821c f   kernel32:KERNEL32.dll
 0001:00077222       _HeapDestroy@4             10078222 f   kernel32:KERNEL32.dll
 0001:00077228       _HeapCreate@12             10078228 f   kernel32:KERNEL32.dll
 0001:0007722e       _HeapFree@12               1007822e f   kernel32:KERNEL32.dll
 0001:00077234       _VirtualFree@12            10078234 f   kernel32:KERNEL32.dll
 0001:0007723a       _UnhandledExceptionFilter@4 1007823a f   kernel32:KERNEL32.dll
 0001:00077240       _WriteFile@20              10078240 f   kernel32:KERNEL32.dll
 0001:00077246       _SetUnhandledExceptionFilter@4 10078246 f   kernel32:KERNEL32.dll
 0001:0007724c       _FatalAppExitA@8           1007824c f   kernel32:KERNEL32.dll
 0001:00077252       _DebugBreak@0              10078252 f   kernel32:KERNEL32.dll
 0001:00077258       _InterlockedDecrement@4    10078258 f   kernel32:KERNEL32.dll
 0001:0007725e       _OutputDebugStringA@4      1007825e f   kernel32:KERNEL32.dll
 0001:00077264       _LoadLibraryA@4            10078264 f   kernel32:KERNEL32.dll
 0001:0007726a       _InterlockedIncrement@4    1007826a f   kernel32:KERNEL32.dll
 0001:00077270       _SetFilePointer@16         10078270 f   kernel32:KERNEL32.dll
 0001:00077276       _CloseHandle@4             10078276 f   kernel32:KERNEL32.dll
 0001:0007727c       _MultiByteToWideChar@24    1007827c f   kernel32:KERNEL32.dll
 0001:00077282       _LCMapStringA@24           10078282 f   kernel32:KERNEL32.dll
 0001:00077288       _LCMapStringW@24           10078288 f   kernel32:KERNEL32.dll
 0001:0007728e       _GetACP@0                  1007828e f   kernel32:KERNEL32.dll
 0001:00077294       _GetOEMCP@0                10078294 f   kernel32:KERNEL32.dll
 0001:0007729a       _GetCPInfo@8               1007829a f   kernel32:KERNEL32.dll
 0001:000772a0       _HeapAlloc@12              100782a0 f   kernel32:KERNEL32.dll
 0001:000772a6       _HeapReAlloc@16            100782a6 f   kernel32:KERNEL32.dll
 0001:000772ac       _VirtualAlloc@16           100782ac f   kernel32:KERNEL32.dll
 0001:000772b2       _InitializeCriticalSection@4 100782b2 f   kernel32:KERNEL32.dll
 0001:000772b8       _VirtualQuery@12           100782b8 f   kernel32:KERNEL32.dll
 0001:000772be       _InterlockedExchange@8     100782be f   kernel32:KERNEL32.dll
 0001:000772c4       _IsBadCodePtr@4            100782c4 f   kernel32:KERNEL32.dll
 0001:000772ca       _SetConsoleCtrlHandler@8   100782ca f   kernel32:KERNEL32.dll
 0001:000772d0       _SetStdHandle@8            100782d0 f   kernel32:KERNEL32.dll
 0001:000772d6       _FlushFileBuffers@4        100782d6 f   kernel32:KERNEL32.dll
 0001:000772dc       _GetTimeFormatA@24         100782dc f   kernel32:KERNEL32.dll
 0001:000772e2       _GetDateFormatA@24         100782e2 f   kernel32:KERNEL32.dll
 0001:000772e8       _GetStringTypeA@20         100782e8 f   kernel32:KERNEL32.dll
 0001:000772ee       _GetStringTypeW@16         100782ee f   kernel32:KERNEL32.dll
 0001:000772f4       _IsValidLocale@8           100782f4 f   kernel32:KERNEL32.dll
 0001:000772fa       _IsValidCodePage@4         100782fa f   kernel32:KERNEL32.dll
 0001:00077300       _GetLocaleInfoA@16         10078300 f   kernel32:KERNEL32.dll
 0001:00077306       _EnumSystemLocalesA@8      10078306 f   kernel32:KERNEL32.dll
 0001:0007730c       _GetUserDefaultLCID@0      1007830c f   kernel32:KERNEL32.dll
 0001:00077312       _VirtualProtect@16         10078312 f   kernel32:KERNEL32.dll
 0001:00077318       _GetSystemInfo@4           10078318 f   kernel32:KERNEL32.dll
 0001:0007731e       _QueryPerformanceCounter@4 1007831e f   kernel32:KERNEL32.dll
 0001:00077324       _GetTickCount@0            10078324 f   kernel32:KERNEL32.dll
 0001:0007732a       _GetCurrentProcessId@0     1007832a f   kernel32:KERNEL32.dll
 0001:00077330       _GetSystemTimeAsFileTime@4 10078330 f   kernel32:KERNEL32.dll
 0001:00077336       _GetTimeZoneInformation@4  10078336 f   kernel32:KERNEL32.dll
 0001:0007733c       _GetLocaleInfoW@16         1007833c f   kernel32:KERNEL32.dll
 0001:00077342       _CompareStringA@24         10078342 f   kernel32:KERNEL32.dll
 0001:00077348       _CompareStringW@24         10078348 f   kernel32:KERNEL32.dll
 0001:0007734e       _SetEnvironmentVariableA@8 1007834e f   kernel32:KERNEL32.dll
 0001:00077394       @IFXGetSystemDefaultLangID@0 10078394 f   Platform:IFXOSUtilities.obj
 0001:000773a8       @IFXOSCheckCPUFeature@4    100783a8 f   Platform:IFXOSUtilities.obj
 0001:0007741c       @IFXOSInitialize@0         1007841c f   Platform:IFXOSUtilities.obj
 0001:000774aa       @IFXOSUninitialize@0       100784aa f   Platform:IFXOSUtilities.obj
 0001:000774d2       @IFXOSGetTime@0            100784d2 f   Platform:IFXOSUtilities.obj
 0001:00077566       @IFXOSSleep@4              10078566 f   Platform:IFXOSUtilities.obj
 0001:00077592       @IFXOSControlFP@8          10078592 f   Platform:IFXOSUtilities.obj
 0001:000775be       @IFXOSGetDebugLevel@0      100785be f   Platform:IFXOSUtilities.obj
 0001:00077668       @IFXOSOutputDebugString@4  10078668 f   Platform:IFXOSUtilities.obj
 0001:00077680       @IFXOSGetUtf8StrSize@8     10078680 f   Platform:IFXOSUtilities.obj
 0001:00077716       @IFXOSGetWideCharStrSize@8 10078716 f   Platform:IFXOSUtilities.obj
 0001:000777a4       @IFXOSConvertWideCharStrToUtf8@12 100787a4 f   Platform:IFXOSUtilities.obj
 0001:0007783c       @IFXOSConvertUtf8StrToWideChar@12 1007883c f   Platform:IFXOSUtilities.obj
 0001:000778ce       @IFXOSDebugOutput@16       100788ce f   Platform:IFXOSUtilities.obj
 0001:000779aa       @IFXSetDefaultLocale@0     100789aa f   Platform:IFXOSUtilities.obj
 0001:000779f0       ?IFXAssert@@YAHHPADI00H@Z  100789f0 f   Platform:IFXDebug.obj
 0001:00077c26       @IFXDebugAssertBox@24      10078c26 f   Platform:IFXDebug.obj
 0001:00077cae       @IFXDebugStartUp@0         10078cae f   Platform:IFXDebug.obj
 0001:00077cc4       @IFXDebugShutDown@0        10078cc4 f   Platform:IFXDebug.obj
 0001:00077cd4       _IFXDebugTraceCustom       10078cd4 f   Platform:IFXDebug.obj
 0001:00077dc6       _IFXDebugTraceGeneric      10078dc6 f   Platform:IFXDebug.obj
 0001:00077eb6       ?_GetStringFromIFXRESULT@@YAPBDH@Z 10078eb6 f   Platform:IFXDebug.obj
 0001:00078088       ?_GetStringFromIFXRESULT_Component@@YAPBGI@Z 10079088 f   Platform:IFXDebug.obj
 0001:00078174       @IFXLoadLibrary@4          10079174 f   Platform:IFXOSLoader.obj
 0001:0007819a       @IFXLoadCoreLibrary@0      1007919a f   Platform:IFXOSLoader.obj
 0001:000781b2       @IFXLoadOpenGLLibrary@0    100791b2 f   Platform:IFXOSLoader.obj
 0001:000781ca       @IFXOSGetCoreLibraryPath@4 100791ca f   Platform:IFXOSLoader.obj
 0001:00078388       @IFXGetAddress@8           10079388 f   Platform:IFXOSLoader.obj
 0001:000783b4       @IFXReleaseLibrary@4       100793b4 f   Platform:IFXOSLoader.obj
 0001:000783e8       @IFXOSFileOpen@8           100793e8 f   Platform:IFXOSLoader.obj
 0001:00078430       __alldiv                   10079430 f   LIBCMTD:lldiv.obj
 0001:000784e0       _swprintf                  100794e0 f   LIBCMTD:swprintf.obj
 0001:00078620       __scwprintf                10079620 f   LIBCMTD:swprintf.obj
 0001:000786a0       _mbstowcs                  100796a0 f   LIBCMTD:mbstowcs.obj
 0001:000786e0       ___mbstowcs_mt             100796e0 f   LIBCMTD:mbstowcs.obj
 0001:000788e0       ?swprintf@@YAHPAGIPBGZZ    100798e0 f   LIBCMTD:swprintn.obj
 0001:00078900       ?swprintf@@YAHPA_WIPB_WZZ  10079900 f   LIBCMTD:swprintn.obj
 0001:00078a40       __wfsopen                  10079a40 f   LIBCMTD:wfopen.obj
 0001:00078b70       __wfopen                   10079b70 f   LIBCMTD:wfopen.obj
 0001:00078b90       __wopenfile                10079b90 f   LIBCMTD:_wopen.obj
 0001:00078f20       __getstream                10079f20 f   LIBCMTD:stream.obj
 0001:00079150       __wopen                    1007a150 f   LIBCMTD:wopen.obj
 0001:00079200       __wsopen                   1007a200 f   LIBCMTD:wopen.obj
 0001:000797b0       __chsize                   1007a7b0 f   LIBCMTD:chsize.obj
 0001:000798a0       __chsize_lk                1007a8a0 f   LIBCMTD:chsize.obj
 0001:00079a80       __read                     1007aa80 f   LIBCMTD:read.obj
 0001:00079b90       __read_lk                  1007ab90 f   LIBCMTD:read.obj
 0001:00079fd0       __setmode                  1007afd0 f   LIBCMTD:setmode.obj
 0001:0007a0c0       __setmode_lk               1007b0c0 f   LIBCMTD:setmode.obj
 0001:0007a198       _GetSystemDefaultLangID@0  1007b198 f   kernel32:KERNEL32.dll
 0001:0007a19e       _QueryPerformanceFrequency@4 1007b19e f   kernel32:KERNEL32.dll
 0001:0007a1a4       _Sleep@4                   1007b1a4 f   kernel32:KERNEL32.dll
 0001:0007a1aa       _OutputDebugStringW@4      1007b1aa f   kernel32:KERNEL32.dll
 0001:0007a1b0       _LoadLibraryW@4            1007b1b0 f   kernel32:KERNEL32.dll
 0001:0007a1b6       _GetModuleHandleW@4        1007b1b6 f   kernel32:KERNEL32.dll
 0001:0007a1bc       _GetModuleFileNameW@12     1007b1bc f   kernel32:KERNEL32.dll
 0001:0007a1c2       _FreeLibrary@4             1007b1c2 f   kernel32:KERNEL32.dll
 0001:0007a1c8       _CreateFileW@28            1007b1c8 f   kernel32:KERNEL32.dll
 0001:0007a1ce       _SetEndOfFile@4            1007b1ce f   kernel32:KERNEL32.dll
 0001:0007a1d4       _ReadFile@20               1007b1d4 f   kernel32:KERNEL32.dll
 0001:0007a1da       _MessageBoxW@16            1007b1da f   user32:USER32.dll
 0001:0007a1e0       _RegOpenKeyExW@20          1007b1e0 f   advapi32:ADVAPI32.dll
 0001:0007a1e6       _RegQueryValueExW@24       1007b1e6 f   advapi32:ADVAPI32.dll
 0001:0007a1ec       _RegCloseKey@4             1007b1ec f   advapi32:ADVAPI32.dll
 0001:0007a1f2       _timeBeginPeriod@4         1007b1f2 f   winmm:WINMM.dll
 0001:0007a1f8       _timeEndPeriod@4           1007b1f8 f   winmm:WINMM.dll
 0001:0007a1fe       _timeGetTime@0             1007b1fe f   winmm:WINMM.dll
 0002:0000001c       _IID_IFXUnknown            1009b01c     Exporting:IFXExportingGuids.obj
 0002:0000002c       _IID_IFXMetaDataX          1009b02c     Exporting:IFXExportingGuids.obj
 0002:0000003c       _IID_IFXDataBlockX         1009b03c     Exporting:IFXExportingGuids.obj
 0002:0000004c       _IID_IFXDataBlockQueueX    1009b04c     Exporting:IFXExportingGuids.obj
 0002:0000005c       _IID_IFXPalette            1009b05c     Exporting:IFXExportingGuids.obj
 0002:0000006c       _IID_IFXCoreServices       1009b06c     Exporting:IFXExportingGuids.obj
 0002:0000007c       _IID_IFXEncoderX           1009b07c     Exporting:IFXExportingGuids.obj
 0002:0000008c       _IID_IFXExtensionEncoderX  1009b08c     Exporting:IFXExportingGuids.obj
 0002:0000009c       _IID_IFXMarker             1009b09c     Exporting:IFXExportingGuids.obj
 0002:000000ac       _IID_IFXMarkerX            1009b0ac     Exporting:IFXExportingGuids.obj
 0002:000000bc       _IID_IFXSubject            1009b0bc     Exporting:IFXExportingGuids.obj
 0002:000000cc       _IID_IFXSceneGraph         1009b0cc     Exporting:IFXExportingGuids.obj
 0002:000000e0       _IID_IFXSpatial            1009b0e0     Exporting:IFXExportingGuids.obj
 0002:000000f0       _IID_IFXCollection         1009b0f0     Exporting:IFXExportingGuids.obj
 0002:00000100       _IID_IFXModifier           1009b100     Exporting:IFXExportingGuids.obj
 0002:00000110       _IID_IFXSimpleList         1009b110     Exporting:IFXExportingGuids.obj
 0002:00000120       _IID_IFXNode               1009b120     Exporting:IFXExportingGuids.obj
 0002:00000130       _IID_IFXResourceClient     1009b130     Exporting:IFXExportingGuids.obj
 0002:00000140       _IID_IFXSpatialAssociation 1009b140     Exporting:IFXExportingGuids.obj
 0002:00000150       _IID_IFXShaderList         1009b150     Exporting:IFXExportingGuids.obj
 0002:00000160       _IID_IFXModel              1009b160     Exporting:IFXExportingGuids.obj
 0002:00000170       _IID_IFXSpatialSetQuery    1009b170     Exporting:IFXExportingGuids.obj
 0002:00000180       _IID_IFXRenderClear        1009b180     Exporting:IFXExportingGuids.obj
 0002:00000190       _CID_IFXNameMap            1009b190     Exporting:IFXExportingGuids.obj
 0002:000001a0       _CID_IFXDevice             1009b1a0     Exporting:IFXExportingGuids.obj
 0002:000001b0       _CID_IFXCLODManager        1009b1b0     Exporting:IFXExportingGuids.obj
 0002:000001c0       _CID_IFXSetAdjacencyX      1009b1c0     Exporting:IFXExportingGuids.obj
 0002:000001d0       _CID_IFXSetX               1009b1d0     Exporting:IFXExportingGuids.obj
 0002:000001e0       _CID_IFXAuthorCLODGen      1009b1e0     Exporting:IFXExportingGuids.obj
 0002:000001f0       _CID_IFXAuthorLineSetAnalyzer 1009b1f0     Exporting:IFXExportingGuids.obj
 0002:00000200       _CID_IFXMetaDataX          1009b200     Exporting:IFXExportingGuids.obj
 0002:00000210       _CID_IFXFileReference      1009b210     Exporting:IFXExportingGuids.obj
 0002:00000220       _CID_IFXMeshCompiler       1009b220     Exporting:IFXExportingGuids.obj
 0002:00000230       _CID_IFXMeshMap            1009b230     Exporting:IFXExportingGuids.obj
 0002:00000240       _CID_IFXAuthorMeshMap      1009b240     Exporting:IFXExportingGuids.obj
 0002:00000250       _CID_IFXGlyph2DCommands    1009b250     Exporting:IFXExportingGuids.obj
 0002:00000260       _CID_IFXGlyphCommandList   1009b260     Exporting:IFXExportingGuids.obj
 0002:00000270       _CID_IFXGlyph3DGenerator   1009b270     Exporting:IFXExportingGuids.obj
 0002:00000280       _CID_IFXAuthorMeshScrub    1009b280     Exporting:IFXExportingGuids.obj
 0002:00000290       _CID_IFXAuthorMesh         1009b290     Exporting:IFXExportingGuids.obj
 0002:000002a0       _CID_IFXAuthorCLODResource 1009b2a0     Exporting:IFXExportingGuids.obj
 0002:000002b0       _CID_IFXBitStreamX         1009b2b0     Exporting:IFXExportingGuids.obj
 0002:000002c0       _CID_IFXSkeleton           1009b2c0     Exporting:IFXExportingGuids.obj
 0002:000002d0       _CID_IFXBoneWeightsModifier 1009b2d0     Exporting:IFXExportingGuids.obj
 0002:000002e0       _CID_IFXBoundHierarchy     1009b2e0     Exporting:IFXExportingGuids.obj
 0002:000002f0       _CID_IFXBoundSphereDataElement 1009b2f0     Exporting:IFXExportingGuids.obj
 0002:00000300       _CID_IFXConnector          1009b300     Exporting:IFXExportingGuids.obj
 0002:00000310       _CID_IFXContour            1009b310     Exporting:IFXExportingGuids.obj
 0002:00000320       _CID_IFXContourExtruder    1009b320     Exporting:IFXExportingGuids.obj
 0002:00000330       _CID_IFXContourGenerator   1009b330     Exporting:IFXExportingGuids.obj
 0002:00000340       _CID_IFXContourTessellator 1009b340     Exporting:IFXExportingGuids.obj
 0002:00000350       _CID_IFXCoreServices       1009b350     Exporting:IFXExportingGuids.obj
 0002:00000360       _CID_IFXCoreServicesRef    1009b360     Exporting:IFXExportingGuids.obj
 0002:00000370       _CID_IFXDataBlock          1009b370     Exporting:IFXExportingGuids.obj
 0002:00000380       _CID_IFXDataBlockX         1009b380     Exporting:IFXExportingGuids.obj
 0002:00000390       _CID_IFXDataBlockQueueX    1009b390     Exporting:IFXExportingGuids.obj
 0002:000003a0       _CID_IFXModifierDataPacket 1009b3a0     Exporting:IFXExportingGuids.obj
 0002:000003b0       _CID_IFXGlyphCurveToBlock  1009b3b0     Exporting:IFXExportingGuids.obj
 0002:000003c0       _CID_IFXGlyphLineToBlock   1009b3c0     Exporting:IFXExportingGuids.obj
 0002:000003d0       _CID_IFXGlyphMoveToBlock   1009b3d0     Exporting:IFXExportingGuids.obj
 0002:000003e0       _CID_IFXGlyphTagBlock      1009b3e0     Exporting:IFXExportingGuids.obj
 0002:000003f0       _CID_IFXGroup              1009b3f0     Exporting:IFXExportingGuids.obj
 0002:00000400       _CID_IFXHashMap            1009b400     Exporting:IFXExportingGuids.obj
 0002:00000410       _CID_IFXIDManager          1009b410     Exporting:IFXExportingGuids.obj
 0002:00000420       _CID_IFXLight              1009b420     Exporting:IFXExportingGuids.obj
 0002:00000430       _CID_IFXLightResource      1009b430     Exporting:IFXExportingGuids.obj
 0002:00000440       _CID_IFXViewResource       1009b440     Exporting:IFXExportingGuids.obj
 0002:00000450       _CID_IFXLightSet           1009b450     Exporting:IFXExportingGuids.obj
 0002:00000460       _CID_IFXImageCodec         1009b460     Exporting:IFXExportingGuids.obj
 0002:00000470       _CID_IFXCLODModifier       1009b470     Exporting:IFXExportingGuids.obj
 0002:00000480       _CID_IFXMaterialResource   1009b480     Exporting:IFXExportingGuids.obj
 0002:00000490       _CID_IFXMesh               1009b490     Exporting:IFXExportingGuids.obj
 0002:000004a0       _CID_IFXInterleavedData    1009b4a0     Exporting:IFXExportingGuids.obj
 0002:000004b0       _CID_IFXMeshGroup          1009b4b0     Exporting:IFXExportingGuids.obj
 0002:000004c0       _CID_IFXNeighborMesh       1009b4c0     Exporting:IFXExportingGuids.obj
 0002:000004d0       _CID_IFXMixerConstruct     1009b4d0     Exporting:IFXExportingGuids.obj
 0002:000004e0       _CID_IFXModel              1009b4e0     Exporting:IFXExportingGuids.obj
 0002:000004f0       _CID_IFXModifierChain      1009b4f0     Exporting:IFXExportingGuids.obj
 0002:00000500       _CID_IFXDidRegistry        1009b500     Exporting:IFXExportingGuids.obj
 0002:00000510       _CID_IFXMotionResource     1009b510     Exporting:IFXExportingGuids.obj
 0002:00000520       _CID_IFXShaderList         1009b520     Exporting:IFXExportingGuids.obj
 0002:00000530       _CID_IFXGlyph2DModifier    1009b530     Exporting:IFXExportingGuids.obj
 0002:00000540       _CID_IFXPalette            1009b540     Exporting:IFXExportingGuids.obj
 0002:00000550       _CID_IFXPerformanceTimer   1009b550     Exporting:IFXExportingGuids.obj
 0002:00000560       _CID_IFXPickObject         1009b560     Exporting:IFXExportingGuids.obj
 0002:00000570       _CID_IFXRenderPass         1009b570     Exporting:IFXExportingGuids.obj
 0002:00000580       _CID_IFXSceneGraph         1009b580     Exporting:IFXExportingGuids.obj
 0002:00000590       _CID_IFXSimpleCollection   1009b590     Exporting:IFXExportingGuids.obj
 0002:000005a0       _CID_IFXAnimationModifier  1009b5a0     Exporting:IFXExportingGuids.obj
 0002:000005b0       _CID_IFXAuthorPointSet     1009b5b0     Exporting:IFXExportingGuids.obj
 0002:000005c0       _CID_IFXAuthorPointSetResource 1009b5c0     Exporting:IFXExportingGuids.obj
 0002:000005d0       _CID_IFXAuthorLineSet      1009b5d0     Exporting:IFXExportingGuids.obj
 0002:000005e0       _CID_IFXAuthorLineSetResource 1009b5e0     Exporting:IFXExportingGuids.obj
 0002:000005f0       _CID_IFXSimpleHash         1009b5f0     Exporting:IFXExportingGuids.obj
 0002:00000600       _CID_IFXSimpleList         1009b600     Exporting:IFXExportingGuids.obj
 0002:00000610       _CID_IFXSimpleObject       1009b610     Exporting:IFXExportingGuids.obj
 0002:00000620       _CID_IFXSpatialSubdiv      1009b620     Exporting:IFXExportingGuids.obj
 0002:00000630       _CID_IFXSubdivModifier     1009b630     Exporting:IFXExportingGuids.obj
 0002:00000640       _CID_IFXTextureImageTools  1009b640     Exporting:IFXExportingGuids.obj
 0002:00000650       _CID_IFXTextureObject      1009b650     Exporting:IFXExportingGuids.obj
 0002:00000660       _CID_IFXUVGenerator        1009b660     Exporting:IFXExportingGuids.obj
 0002:00000670       _CID_IFXUVMapperCylindrical 1009b670     Exporting:IFXExportingGuids.obj
 0002:00000680       _CID_IFXUVMapperNone       1009b680     Exporting:IFXExportingGuids.obj
 0002:00000690       _CID_IFXUVMapperPlanar     1009b690     Exporting:IFXExportingGuids.obj
 0002:000006a0       _CID_IFXUVMapperSpherical  1009b6a0     Exporting:IFXExportingGuids.obj
 0002:000006b0       _CID_IFXUVMapperReflection 1009b6b0     Exporting:IFXExportingGuids.obj
 0002:000006c0       _CID_IFXView               1009b6c0     Exporting:IFXExportingGuids.obj
 0002:000006d0       _CID_IFXVoidWrapper        1009b6d0     Exporting:IFXExportingGuids.obj
 0002:000006e0       _CID_IFXShadingModifier    1009b6e0     Exporting:IFXExportingGuids.obj
 0002:000006f0       _CID_IFXDummyModifier      1009b6f0     Exporting:IFXExportingGuids.obj
 0002:00000700       _CID_IFXShaderLitTexture   1009b700     Exporting:IFXExportingGuids.obj
 0002:00000710       _IID_IFXRenderable         1009b710     Exporting:IFXExportingGuids.obj
 0002:00000720       _IID_IFXMeshGroup          1009b720     Exporting:IFXExportingGuids.obj
 0002:00000730       _IID_IFXInterleavedData    1009b730     Exporting:IFXExportingGuids.obj
 0002:00000740       _IID_IFXMesh               1009b740     Exporting:IFXExportingGuids.obj
 0002:000007d4       _IID_IFXTextureObject      1009b7d4     Exporting:IFXExportingGuids.obj
 0002:000007e4       _IID_IFXTextureImageTools  1009b7e4     Exporting:IFXExportingGuids.obj
 0002:000007f8       _IID_IFXRenderServices     1009b7f8     Exporting:IFXExportingGuids.obj
 0002:00000808       _IID_IFXRenderContext      1009b808     Exporting:IFXExportingGuids.obj
 0002:00000818       _IID_IFXViewResource       1009b818     Exporting:IFXExportingGuids.obj
 0002:00000828       _IID_IFXView               1009b828     Exporting:IFXExportingGuids.obj
 0002:00000838       _IID_IFXBitStreamX         1009b838     Exporting:IFXExportingGuids.obj
 0002:00000848       _IID_IFXSetX               1009b848     Exporting:IFXExportingGuids.obj
 0002:0000085c       _IID_IFXAuthorMesh         1009b85c     Exporting:IFXExportingGuids.obj
 0002:00000870       _IID_IFXAuthorCLODMesh     1009b870     Exporting:IFXExportingGuids.obj
 0002:00000880       _IID_IFXSetAdjacencyX      1009b880     Exporting:IFXExportingGuids.obj
 0002:00000890       _IID_IFXWriteBuffer        1009b890     Exporting:IFXExportingGuids.obj
 0002:000008a0       _IID_IFXWriteManager       1009b8a0     Exporting:IFXExportingGuids.obj
 0002:000008b0       _IID_IFXWriteBufferX       1009b8b0     Exporting:IFXExportingGuids.obj
 0002:000008c0       _IID_IFXAnimationModifier  1009b8c0     Exporting:IFXExportingGuids.obj
 0002:000008d0       _IID_IFXDataPacket         1009b8d0     Exporting:IFXExportingGuids.obj
 0002:000008e0       _IID_IFXModifierDataPacket 1009b8e0     Exporting:IFXExportingGuids.obj
 0002:000008f0       _IID_IFXShader             1009b8f0     Exporting:IFXExportingGuids.obj
 0002:00000900       _IID_IFXShaderLitTexture   1009b900     Exporting:IFXExportingGuids.obj
 0002:00000910       _IID_IFXSubdivModifier     1009b910     Exporting:IFXExportingGuids.obj
 0002:00000920       _IID_IFXSkeleton           1009b920     Exporting:IFXExportingGuids.obj
 0002:00000930       _IID_IFXBlockWriterX       1009b930     Exporting:IFXExportingGuids.obj
 0002:00000940       _IID_IFXCLODModifier       1009b940     Exporting:IFXExportingGuids.obj
 0002:00000950       _IID_IFXFileReference      1009b950     Exporting:IFXExportingGuids.obj
 0002:00000960       _IID_IFXGlyph2DCommands    1009b960     Exporting:IFXExportingGuids.obj
 0002:00000970       _IID_IFXGlyphTagBlock      1009b970     Exporting:IFXExportingGuids.obj
 0002:00000980       _IID_IFXGlyphMoveToBlock   1009b980     Exporting:IFXExportingGuids.obj
 0002:00000990       _IID_IFXGlyphLineToBlock   1009b990     Exporting:IFXExportingGuids.obj
 0002:000009a0       _IID_IFXGlyphCurveToBlock  1009b9a0     Exporting:IFXExportingGuids.obj
 0002:000009b0       _IID_IFXMotionResource     1009b9b0     Exporting:IFXExportingGuids.obj
 0002:000009c0       _IID_IFXLightResource      1009b9c0     Exporting:IFXExportingGuids.obj
 0002:000009d0       _IID_IFXLight              1009b9d0     Exporting:IFXExportingGuids.obj
 0002:000009e0       _IID_IFXGlyph2DModifier    1009b9e0     Exporting:IFXExportingGuids.obj
 0002:000009f0       _IID_IFXAuthorCLODAccess   1009b9f0     Exporting:IFXExportingGuids.obj
 0002:00000a00       _IID_IFXAuthorLineSet      1009ba00     Exporting:IFXExportingGuids.obj
 0002:00000a10       _IID_IFXAuthorPointSet     1009ba10     Exporting:IFXExportingGuids.obj
 0002:00000a20       _IID_IFXMeshMap            1009ba20     Exporting:IFXExportingGuids.obj
 0002:00000a30       _IID_IFXAuthorMeshMap      1009ba30     Exporting:IFXExportingGuids.obj
 0002:00000a40       _IID_IFXBitStreamCompressedX 1009ba40     Exporting:IFXExportingGuids.obj
 0002:00000a50       _IID_IFXMaterialResource   1009ba50     Exporting:IFXExportingGuids.obj
 0002:00000a60       _IID_IFXGenerator          1009ba60     Exporting:IFXExportingGuids.obj
 0002:00000a70       _IID_IFXAuthorCLODResource 1009ba70     Exporting:IFXExportingGuids.obj
 0002:00000a80       _IID_IFXBoneWeightsModifier 1009ba80     Exporting:IFXExportingGuids.obj
 0002:00000a90       _IID_IFXAuthorCLODGen      1009ba90     Exporting:IFXExportingGuids.obj
 0002:00000aa0       _IID_IFXAuthorMeshScrub    1009baa0     Exporting:IFXExportingGuids.obj
 0002:00000ab0       _IID_IFXAuthorGeomCompiler 1009bab0     Exporting:IFXExportingGuids.obj
 0002:00000ac0       _IID_IFXMeshCompiler       1009bac0     Exporting:IFXExportingGuids.obj
 0002:00000ad0       _IID_IFXStdio              1009bad0     Exporting:IFXExportingGuids.obj
 0002:00000ae0       _IID_IFXShadingModifier    1009bae0     Exporting:IFXExportingGuids.obj
 0002:00000af0       _IID_IFXAuthorLineSetResource 1009baf0     Exporting:IFXExportingGuids.obj
 0002:00000b00       _IID_IFXAuthorPointSetResource 1009bb00     Exporting:IFXExportingGuids.obj
 0002:00000b10       _IID_IFXAuthorLineSetAnalyzer 1009bb10     Exporting:IFXExportingGuids.obj
 0002:00000b20       _IID_IFXDummyModifier      1009bb20     Exporting:IFXExportingGuids.obj
 0002:00000b30       _CID_IFXAuthorCLODEncoderX 1009bb30     Exporting:IFXExportingGuids.obj
 0002:00000b40       _CID_IFXMaterialResourceEncoder 1009bb40     Exporting:IFXExportingGuids.obj
 0002:00000b50       _CID_IFXMotionResourceEncoder 1009bb50     Exporting:IFXExportingGuids.obj
 0002:00000b60       _CID_IFXCLODGeneratorEncoder 1009bb60     Exporting:IFXExportingGuids.obj
 0002:00000b70       _CID_IFXGlyphGeneratorEncoder 1009bb70     Exporting:IFXExportingGuids.obj
 0002:00000b80       _CID_IFXBoxGeneratorEncoder 1009bb80     Exporting:IFXExportingGuids.obj
 0002:00000b90       _CID_IFXCylinderGeneratorEncoder 1009bb90     Exporting:IFXExportingGuids.obj
 0002:00000ba0       _CID_IFXPlaneGeneratorEncoder 1009bba0     Exporting:IFXExportingGuids.obj
 0002:00000bb0       _CID_IFXSphereGeneratorEncoder 1009bbb0     Exporting:IFXExportingGuids.obj
 0002:00000bc0       _CID_IFXShaderLitTextureEncoder 1009bbc0     Exporting:IFXExportingGuids.obj
 0002:00000bd0       _CID_IFXSkeletonModifierEncoder 1009bbd0     Exporting:IFXExportingGuids.obj
 0002:00000be0       _CID_IFXSubdivisionModifierEncoder 1009bbe0     Exporting:IFXExportingGuids.obj
 0002:00000bf0       _CID_IFXShadingModifierEncoder 1009bbf0     Exporting:IFXExportingGuids.obj
 0002:00000c00       _CID_IFXInkerModifierEncoder 1009bc00     Exporting:IFXExportingGuids.obj
 0002:00000c10       _CID_IFXCLODGeneratorParamEncoder 1009bc10     Exporting:IFXExportingGuids.obj
 0002:00000c20       _CID_IFXAnimationModifierEncoder 1009bc20     Exporting:IFXExportingGuids.obj
 0002:00000c30       _CID_IFXGroupNodeEncoder   1009bc30     Exporting:IFXExportingGuids.obj
 0002:00000c40       _CID_IFXLightNodeEncoder   1009bc40     Exporting:IFXExportingGuids.obj
 0002:00000c50       _CID_IFXLightResourceEncoder 1009bc50     Exporting:IFXExportingGuids.obj
 0002:00000c60       _CID_IFXModelNodeEncoder   1009bc60     Exporting:IFXExportingGuids.obj
 0002:00000c70       _CID_IFXViewNodeEncoder    1009bc70     Exporting:IFXExportingGuids.obj
 0002:00000c80       _CID_IFXViewResourceEncoder 1009bc80     Exporting:IFXExportingGuids.obj
 0002:00000c90       _CID_IFXFileReferenceEncoder 1009bc90     Exporting:IFXExportingGuids.obj
 0002:00000ca0       _CID_IFXBlockPriorityQueueX 1009bca0     Exporting:IFXExportingGuids.obj
 0002:00000cb0       _CID_IFXBlockWriterX       1009bcb0     Exporting:IFXExportingGuids.obj
 0002:00000cc0       _CID_IFXWriteManager       1009bcc0     Exporting:IFXExportingGuids.obj
 0002:00000cd0       _CID_IFXAuthorGeomCompiler 1009bcd0     Exporting:IFXExportingGuids.obj
 0002:00000ce0       _CID_IFXStdioWriteBuffer   1009bce0     Exporting:IFXExportingGuids.obj
 0002:00000cf0       _CID_IFXStdioWriteBufferX  1009bcf0     Exporting:IFXExportingGuids.obj
 0002:00000d00       _CID_IFXPointSetEncoder    1009bd00     Exporting:IFXExportingGuids.obj
 0002:00000d10       _CID_IFXLineSetEncoderX    1009bd10     Exporting:IFXExportingGuids.obj
 0002:00000d20       _CID_IFXBoneWeightsModifierEncoder 1009bd20     Exporting:IFXExportingGuids.obj
 0002:00000d30       _CID_IFXCLODModifierEncoder 1009bd30     Exporting:IFXExportingGuids.obj
 0002:00000d40       _CID_IFXDummyModifierEncoder 1009bd40     Exporting:IFXExportingGuids.obj
 0002:0000100c       ?m_puNumResChangesPerGeomBlock@CIFXAuthorCLODEncoderX@@0QBIB 1009c00c     Exporting:CIFXAuthorCLODEncoderX.obj
 0002:00001020       ?m_uNumGeomBlockResChanges@CIFXAuthorCLODEncoderX@@0IB 1009c020     Exporting:CIFXAuthorCLODEncoderX.obj
 0002:0000d2a4       ___libm_float_zero         100a82a4     libmmt:libm_error.omu
 0002:0000d2ac       ___libm_float_one          100a82ac     libmmt:libm_error.omu
 0002:0000d2b4       ___libm_float_inf          100a82b4     libmmt:libm_error.omu
 0002:0000d2bc       ___libm_float_huge         100a82bc     libmmt:libm_error.omu
 0002:0000d2c4       ___libm_double_zero        100a82c4     libmmt:libm_error.omu
 0002:0000d2d4       ___libm_double_one         100a82d4     libmmt:libm_error.omu
 0002:0000d2e4       ___libm_double_inf         100a82e4     libmmt:libm_error.omu
 0002:0000d2f4       ___libm_double_huge        100a82f4     libmmt:libm_error.omu
 0002:0000d304       ___libm_ldouble_zero       100a8304     libmmt:libm_error.omu
 0002:0000d314       ___libm_ldouble_neg_zero   100a8314     libmmt:libm_error.omu
 0002:0000d324       ___libm_ldouble_one        100a8324     libmmt:libm_error.omu
 0002:0000d334       ___libm_ldouble_neg_one    100a8334     libmmt:libm_error.omu
 0002:0000d344       ___libm_ldouble_inf        100a8344     libmmt:libm_error.omu
 0002:0000d354       ___libm_ldouble_neg_inf    100a8354     libmmt:libm_error.omu
 0002:0000d364       ___libm_ldouble_huge       100a8364     libmmt:libm_error.omu
 0002:0000d374       ___libm_ldouble_neg_huge   100a8374     libmmt:libm_error.omu
 0002:0000d3a0       ___libm_exp_hi_table_64    100a83a0     libmmt:exp_table.omu
 0002:0000d5c0       ___libm_exp_mi_table_64    100a85c0     libmmt:exp_table.omu
 0002:0000d7e0       ___libm_exp_lo_table_64    100a87e0     libmmt:exp_table.omu
 0002:0000da00       ___libm_exp_table_128      100a8a00     libmmt:exp_table.omu
 0002:0000e220       ___libm_log_table_256      100a9220     libmmt:log_table.omu
 0002:0000f220       ___libm_rcp_table_256      100aa220     libmmt:rcp_table.omu
 0002:0000f620       ___libm_double_rcp_table_256 100aa620     libmmt:rcp_table.omu
 0002:000121a0       ??_C@_09IFKEODFF@dllcrt0?4c?$AA@ 100ad1a0     LIBCMTD:dllcrt0.obj
 0002:000121e0       ??_7type_info@@6B@         100ad1e0     LIBCMTD:typinfo.obj
 0002:00012224       ??_C@_07MIBGAGEE@fseek?4c?$AA@ 100ad224     LIBCMTD:fseek.obj
 0002:0001222c       ??_C@_0P@FELNCIKG@stream?5?$CB?$DN?5NULL?$AA@ 100ad22c     LIBCMTD:fseek.obj
 0002:0001224c       ??_C@_0M@CMNAFCJK@str?5?$CB?$DN?5NULL?$AA@ 100ad24c     LIBCMTD:fseek.obj
 0002:00012264       ??_C@_08BDNGOBJJ@fclose?4c?$AA@ 100ad264     LIBCMTD:fclose.obj
 0002:0001227c       ??_C@_0P@NHGFNCDP@format?5?$CB?$DN?5NULL?$AA@ 100ad27c     LIBCMTD:vswprinn.obj
 0002:0001228c       ??_C@_0N@EMDEFKLH@vswprinn?4cpp?$AA@ 100ad28c     LIBCMTD:vswprinn.obj
 0002:0001229c       ??_C@_0P@NFGNABCI@string?5?$CB?$DN?5NULL?$AA@ 100ad29c     LIBCMTD:vswprinn.obj
 0002:000122ac       ??_C@_07PNHPCIEC@_file?4c?$AA@ 100ad2ac     LIBCMTD:_file.obj
 0002:000122b4       ??_C@_07DCAFNPAA@fputs?4c?$AA@ 100ad2b4     LIBCMTD:fputs.obj
 0002:000122dc       ??_C@_0P@MIGLKIOC@CorExitProcess?$AA@ 100ad2dc     LIBCMTD:crt0dat.obj
 0002:000122ec       ??_C@_0M@MBOPBNBK@mscoree?4dll?$AA@ 100ad2ec     LIBCMTD:crt0dat.obj
 0002:000122f8       ??_C@_0L@JKCACIOJ@tidtable?4c?$AA@ 100ad2f8     LIBCMTD:tidtable.obj
 0002:00012304       ??_C@_07PEJMOBNF@FlsFree?$AA@ 100ad304     LIBCMTD:tidtable.obj
 0002:0001230c       ??_C@_0M@JCPCPOEF@FlsSetValue?$AA@ 100ad30c     LIBCMTD:tidtable.obj
 0002:00012318       ??_C@_0M@GDNOONDI@FlsGetValue?$AA@ 100ad318     LIBCMTD:tidtable.obj
 0002:00012324       ??_C@_08KNHFBNJ@FlsAlloc?$AA@ 100ad324     LIBCMTD:tidtable.obj
 0002:00012330       ??_C@_0N@MDJJJHMB@kernel32?4dll?$AA@ 100ad330     LIBCMTD:tidtable.obj
 0002:00012358       ??_C@_06PJIGMIJB@Client?$AA@ 100ad358     LIBCMTD:dbgheap.obj
 0002:00012360       ??_C@_06KMEJCCGM@Ignore?$AA@ 100ad360     LIBCMTD:dbgheap.obj
 0002:00012368       ??_C@_03OGPFLFLO@CRT?$AA@  100ad368     LIBCMTD:dbgheap.obj
 0002:0001236c       ??_C@_06EFAGIKOH@Normal?$AA@ 100ad36c     LIBCMTD:dbgheap.obj
 0002:00012374       ??_C@_04HJMOFLDF@Free?$AA@ 100ad374     LIBCMTD:dbgheap.obj
 0002:0001238c       ??_C@_0DC@JEMAGEKG@Error?3?5memory?5allocation?3?5bad?5me@ 100ad38c     LIBCMTD:dbgheap.obj
 0002:000123c0       ??_C@_0CF@BICKFLAF@Invalid?5allocation?5size?3?5?$CFIu?5byt@ 100ad3c0     LIBCMTD:dbgheap.obj
 0002:000123e8       ??_C@_02DKCKIIND@?$CFs?$AA@ 100ad3e8     LIBCMTD:dbgheap.obj
 0002:000123ec       ??_C@_0CB@CCLOLAHO@Client?5hook?5allocation?5failure?4?6@ 100ad3ec     LIBCMTD:dbgheap.obj
 0002:00012410       ??_C@_0DF@BBEGIFEK@Client?5hook?5allocation?5failure?5a@ 100ad410     LIBCMTD:dbgheap.obj
 0002:00012448       ??_C@_09DPMMACIH@dbgheap?4c?$AA@ 100ad448     LIBCMTD:dbgheap.obj
 0002:00012454       ??_C@_0BC@FKEPGOPH@_CrtCheckMemory?$CI?$CJ?$AA@ 100ad454     LIBCMTD:dbgheap.obj
 0002:00012474       ??_C@_0BK@DJDKJKNJ@_pFirstBlock?5?$DN?$DN?5pOldBlock?$AA@ 100ad474     LIBCMTD:dbgheap.obj
 0002:00012490       ??_C@_0BJ@PGMLBCKP@_pLastBlock?5?$DN?$DN?5pOldBlock?$AA@ 100ad490     LIBCMTD:dbgheap.obj
 0002:000124ac       ??_C@_0DC@LIEEBBFH@fRealloc?5?$HM?$HM?5?$CI?$CBfRealloc?5?$CG?$CG?5pNewBl@ 100ad4ac     LIBCMTD:dbgheap.obj
 0002:000124e0       ??_C@_0EF@BKJNHFDP@pOldBlock?9?$DOnLine?5?$DN?$DN?5IGNORE_LINE?5@ 100ad4e0     LIBCMTD:dbgheap.obj
 0002:00012528       ??_C@_0CC@MCCNOMLK@_CrtIsValidHeapPointer?$CIpUserData@ 100ad528     LIBCMTD:dbgheap.obj
 0002:00012550       ??_C@_0EM@LGFLMAGJ@The?5Block?5at?50x?$CFp?5was?5allocated?5@ 100ad550     LIBCMTD:dbgheap.obj
 0002:0001259c       ??_C@_0CO@KPNFNEPA@Allocation?5too?5large?5or?5negative@ 100ad59c     LIBCMTD:dbgheap.obj
 0002:000125cc       ??_C@_0CE@DOFMDOL@Client?5hook?5re?9allocation?5failur@ 100ad5cc     LIBCMTD:dbgheap.obj
 0002:000125f0       ??_C@_0DI@KKJPDPGM@Client?5hook?5re?9allocation?5failur@ 100ad5f0     LIBCMTD:dbgheap.obj
 0002:00012644       ??_C@_0BG@JDINNDDC@_pFirstBlock?5?$DN?$DN?5pHead?$AA@ 100ad644     LIBCMTD:dbgheap.obj
 0002:0001265c       ??_C@_0BF@LMGMGAEG@_pLastBlock?5?$DN?$DN?5pHead?$AA@ 100ad65c     LIBCMTD:dbgheap.obj
 0002:00012674       ??_C@_0BO@LGCGBMOH@pHead?9?$DOnBlockUse?5?$DN?$DN?5nBlockUse?$AA@ 100ad674     LIBCMTD:dbgheap.obj
 0002:00012694       ??_C@_0DN@GKKPDMLN@pHead?9?$DOnLine?5?$DN?$DN?5IGNORE_LINE?5?$CG?$CG?5p@ 100ad694     LIBCMTD:dbgheap.obj
 0002:000126d4       ??_C@_0CI@CMGHMNIC@DAMAGE?3?5after?5?$CFhs?5block?5?$CI?$CD?$CFd?$CJ?5at@ 100ad6d4     LIBCMTD:dbgheap.obj
 0002:000126fc       ??_C@_0CJ@OHOOBLKI@DAMAGE?3?5before?5?$CFhs?5block?5?$CI?$CD?$CFd?$CJ?5a@ 100ad6fc     LIBCMTD:dbgheap.obj
 0002:00012728       ??_C@_0CH@IAGMNLOM@_BLOCK_TYPE_IS_VALID?$CIpHead?9?$DOnBlo@ 100ad728     LIBCMTD:dbgheap.obj
 0002:00012750       ??_C@_0BL@KEIPLFAC@Client?5hook?5free?5failure?4?6?$AA@ 100ad750     LIBCMTD:dbgheap.obj
 0002:00012770       ??_C@_0EJ@HEIBCIMJ@The?5Block?5at?50x?$CFp?5was?5allocated?5@ 100ad770     LIBCMTD:dbgheap.obj
 0002:000127dc       ??_C@_0CI@JMLBEDHJ@?$CFhs?5located?5at?50x?$CFp?5is?5?$CFIu?5bytes@ 100ad7dc     LIBCMTD:dbgheap.obj
 0002:00012804       ??_C@_0CA@FGFAGAOM@?$CFhs?5allocated?5at?5file?5?$CFhs?$CI?$CFd?$CJ?4?6?$AA@ 100ad804     LIBCMTD:dbgheap.obj
 0002:00012824       ??_C@_0CH@JKKAOBEK@DAMAGE?3?5on?5top?5of?5Free?5block?5at?5@ 100ad824     LIBCMTD:dbgheap.obj
 0002:0001284c       ??_C@_07OHKEFPKJ@DAMAGED?$AA@ 100ad84c     LIBCMTD:dbgheap.obj
 0002:00012854       ??_C@_0CL@HNNNMKMJ@_heapchk?5fails?5with?5unknown?5retu@ 100ad854     LIBCMTD:dbgheap.obj
 0002:00012880       ??_C@_0CC@MFFCHFHO@_heapchk?5fails?5with?5_HEAPBADPTR?4@ 100ad880     LIBCMTD:dbgheap.obj
 0002:000128a4       ??_C@_0CC@MJGLGBDG@_heapchk?5fails?5with?5_HEAPBADEND?4@ 100ad8a4     LIBCMTD:dbgheap.obj
 0002:000128c8       ??_C@_0CD@CPKEAPBD@_heapchk?5fails?5with?5_HEAPBADNODE@ 100ad8c8     LIBCMTD:dbgheap.obj
 0002:000128ec       ??_C@_0CE@MKKHMBMK@_heapchk?5fails?5with?5_HEAPBADBEGI@ 100ad8ec     LIBCMTD:dbgheap.obj
 0002:0001294c       ??_C@_0CB@EAAIGELO@Bad?5memory?5block?5found?5at?50x?$CFp?4?6@ 100ad94c     LIBCMTD:dbgheap.obj
 0002:00012970       ??_C@_0CI@KDKEAJEJ@_CrtMemCheckPoint?3?5NULL?5state?5po@ 100ad970     LIBCMTD:dbgheap.obj
 0002:000129a4       ??_C@_0CI@ENCLCMLG@_CrtMemDifference?3?5NULL?5state?5po@ 100ad9a4     LIBCMTD:dbgheap.obj
 0002:000129cc       ??_C@_0BH@GFGKJDCO@Object?5dump?5complete?4?6?$AA@ 100ad9cc     LIBCMTD:dbgheap.obj
 0002:000129e4       ??_C@_0DA@MDLBNIBM@crt?5block?5at?50x?$CFp?0?5subtype?5?$CFx?0?5?$CF@ 100ad9e4     LIBCMTD:dbgheap.obj
 0002:00012a14       ??_C@_0CH@FAGDDGPN@normal?5block?5at?50x?$CFp?0?5?$CFIu?5bytes?5@ 100ada14     LIBCMTD:dbgheap.obj
 0002:00012a3c       ??_C@_0DD@GHNAAKBB@client?5block?5at?50x?$CFp?0?5subtype?5?$CFx@ 100ada3c     LIBCMTD:dbgheap.obj
 0002:00012a70       ??_C@_06PKLGBFGM@?$HL?$CFld?$HN?5?$AA@ 100ada70     LIBCMTD:dbgheap.obj
 0002:00012a78       ??_C@_0L@JMEFFCCJ@?$CFhs?$CI?$CFd?$CJ?5?3?5?$AA@ 100ada78     LIBCMTD:dbgheap.obj
 0002:00012a84       ??_C@_0BE@OIEFNFL@?$CDFile?5Error?$CD?$CI?$CFd?$CJ?5?3?5?$AA@ 100ada84     LIBCMTD:dbgheap.obj
 0002:00012a98       ??_C@_0BE@KCIPKCIA@Dumping?5objects?5?9?$DO?6?$AA@ 100ada98     LIBCMTD:dbgheap.obj
 0002:00012abc       ??_C@_0BA@HJBKCELP@?5Data?3?5?$DM?$CFs?$DO?5?$CFs?6?$AA@ 100adabc     LIBCMTD:dbgheap.obj
 0002:00012acc       ??_C@_05MKKEDADM@?$CF?42X?5?$AA@ 100adacc     LIBCMTD:dbgheap.obj
 0002:00012ad4       ??_C@_0BI@JBFPOEJA@Detected?5memory?5leaks?$CB?6?$AA@ 100adad4     LIBCMTD:dbgheap.obj
 0002:00012aec       ??_C@_0BP@DEDHGGGI@Total?5allocations?3?5?$CFId?5bytes?4?6?$AA@ 100adaec     LIBCMTD:dbgheap.obj
 0002:00012b0c       ??_C@_0CB@BLHDAFNE@Largest?5number?5used?3?5?$CFId?5bytes?4?6@ 100adb0c     LIBCMTD:dbgheap.obj
 0002:00012b30       ??_C@_0BO@DACNIABB@?$CFId?5bytes?5in?5?$CFId?5?$CFhs?5Blocks?4?6?$AA@ 100adb30     LIBCMTD:dbgheap.obj
 0002:00012b50       ??_C@_0CC@GFBJAAAH@?$CI?$CCoffset?5must?5be?5within?5size?$CC?0?50@ 100adb50     LIBCMTD:dbgheap.obj
 0002:00012b74       ??_C@_0CF@PGBEDOC@?$CI?$CCalignment?5must?5be?5a?5power?5of?52@ 100adb74     LIBCMTD:dbgheap.obj
 0002:00012b9c       ??_C@_0DL@PGHMMKNE@Damage?5before?50x?$CFp?5which?5was?5all@ 100adb9c     LIBCMTD:dbgheap.obj
 0002:00012bd8       ??_C@_0EI@NDNJMAJK@The?5block?5at?50x?$CFp?5was?5not?5alloca@ 100adbd8     LIBCMTD:dbgheap.obj
 0002:00012c20       ??_C@_0EF@PGELACII@The?5block?5at?50x?$CFp?5was?5not?5alloca@ 100adc20     LIBCMTD:dbgheap.obj
 0002:00012c68       ??_C@_08MAFBHINM@ioinit?4c?$AA@ 100adc68     LIBCMTD:ioinit.obj
 0002:00012c74       ??_C@_09HCDLHOJP@stdenvp?4c?$AA@ 100adc74     LIBCMTD:stdenvp.obj
 0002:00012c80       ??_C@_09IKILHJIC@stdargv?4c?$AA@ 100adc80     LIBCMTD:stdargv.obj
 0002:00012c8c       ??_C@_07BPGNOCOG@a_env?4c?$AA@ 100adc8c     LIBCMTD:a_env.obj
 0002:00012cb4       ??_C@_0P@GGKDKEEG@runtime?5error?5?$AA@ 100adcb4     LIBCMTD:crt0msg.obj
 0002:00012cc4       ??_C@_02PCIJFNDE@?$AN?6?$AA@ 100adcc4     LIBCMTD:crt0msg.obj
 0002:00012cc8       ??_C@_0O@MJNIPGOH@TLOSS?5error?$AN?6?$AA@ 100adcc8     LIBCMTD:crt0msg.obj
 0002:00012cd8       ??_C@_0N@BONNPDHF@SING?5error?$AN?6?$AA@ 100adcd8     LIBCMTD:crt0msg.obj
 0002:00012ce8       ??_C@_0P@MBDAJNE@DOMAIN?5error?$AN?6?$AA@ 100adce8     LIBCMTD:crt0msg.obj
 0002:00012cf8       ??_C@_0KC@BDDGGBEJ@R6029?$AN?6?9?5This?5application?5cannot@ 100adcf8     LIBCMTD:crt0msg.obj
 0002:00012d9c       ??_C@_0CF@KJDAIALP@R6028?$AN?6?9?5unable?5to?5initialize?5he@ 100add9c     LIBCMTD:crt0msg.obj
 0002:00012dc4       ??_C@_0DF@GAKBPDFP@R6027?$AN?6?9?5not?5enough?5space?5for?5lo@ 100addc4     LIBCMTD:crt0msg.obj
 0002:00012dfc       ??_C@_0DF@IBLNNAIG@R6026?$AN?6?9?5not?5enough?5space?5for?5st@ 100addfc     LIBCMTD:crt0msg.obj
 0002:00012e34       ??_C@_0CG@IOHKGFNJ@R6025?$AN?6?9?5pure?5virtual?5function?5c@ 100ade34     LIBCMTD:crt0msg.obj
 0002:00012e5c       ??_C@_0DF@JIJJFJDC@R6024?$AN?6?9?5not?5enough?5space?5for?5_o@ 100ade5c     LIBCMTD:crt0msg.obj
 0002:00012e94       ??_C@_0CJ@EGEJHFME@R6019?$AN?6?9?5unable?5to?5open?5console?5@ 100ade94     LIBCMTD:crt0msg.obj
 0002:00012ec0       ??_C@_0CB@GNHNIELH@R6018?$AN?6?9?5unexpected?5heap?5error?$AN?6@ 100adec0     LIBCMTD:crt0msg.obj
 0002:00012ee4       ??_C@_0CN@FOLDKNG@R6017?$AN?6?9?5unexpected?5multithread?5@ 100adee4     LIBCMTD:crt0msg.obj
 0002:00012f14       ??_C@_0CM@FAHFJNHO@R6016?$AN?6?9?5not?5enough?5space?5for?5th@ 100adf14     LIBCMTD:crt0msg.obj
 0002:00012f40       ??_C@_0JG@LBKMGKLD@?$AN?6This?5application?5has?5requested@ 100adf40     LIBCMTD:crt0msg.obj
 0002:00012fd8       ??_C@_0CM@FLCNIPKK@R6009?$AN?6?9?5not?5enough?5space?5for?5en@ 100adfd8     LIBCMTD:crt0msg.obj
 0002:00013004       ??_C@_0CK@KMMJOAPP@R6008?$AN?6?9?5not?5enough?5space?5for?5ar@ 100ae004     LIBCMTD:crt0msg.obj
 0002:00013030       ??_C@_0CF@HOHMHDEK@R6002?$AN?6?9?5floating?5point?5not?5load@ 100ae030     LIBCMTD:crt0msg.obj
 0002:00013058       ??_C@_0CF@GOGNBNAK@Microsoft?5Visual?5C?$CL?$CL?5Runtime?5Lib@ 100ae058     LIBCMTD:crt0msg.obj
 0002:00013080       ??_C@_02PHMGELLB@?6?6?$AA@ 100ae080     LIBCMTD:crt0msg.obj
 0002:00013084       ??_C@_0BK@OFGJDLJJ@Runtime?5Error?$CB?6?6Program?3?5?$AA@ 100ae084     LIBCMTD:crt0msg.obj
 0002:000130a0       ??_C@_03KHICJKCI@?4?4?4?$AA@ 100ae0a0     LIBCMTD:crt0msg.obj
 0002:000130a4       ??_C@_0BH@DNAGHKFM@?$DMprogram?5name?5unknown?$DO?$AA@ 100ae0a4     LIBCMTD:crt0msg.obj
 0002:000130c0       __real@3ff0000000000000    100ae0c0     LIBCMTD:testfdiv.obj
 0002:000130c8       __real@4150017ec0000000    100ae0c8     LIBCMTD:testfdiv.obj
 0002:000130d0       __real@4147ffff80000000    100ae0d0     LIBCMTD:testfdiv.obj
 0002:000130d8       ??_C@_0BK@NHEOCAHP@IsProcessorFeaturePresent?$AA@ 100ae0d8     LIBCMTD:testfdiv.obj
 0002:000130f4       ??_C@_08CPNIBGIE@KERNEL32?$AA@ 100ae0f4     LIBCMTD:testfdiv.obj
 0002:00013100       __real@0000000000000000    100ae100     LIBCMTD:cvt.obj
 0002:00013108       ??_C@_05KLBDPFGC@e?$CL000?$AA@ 100ae108     LIBCMTD:cvt.obj
 0002:0001319c       ??_C@_07CKDBCAPD@mlock?4c?$AA@ 100ae19c     LIBCMTD:mlock.obj
 0002:000131c4       ??_C@_0BB@NAGLCMLI@Assertion?5Failed?$AA@ 100ae1c4     LIBCMTD:dbgrpt.obj
 0002:000131d8       ??_C@_05NAOIJFC@Error?$AA@ 100ae1d8     LIBCMTD:dbgrpt.obj
 0002:000131e0       ??_C@_07KGMMFLDN@Warning?$AA@ 100ae1e0     LIBCMTD:dbgrpt.obj
 0002:000131e8       ??_C@_08ODMAMGBE@dbgrpt?4c?$AA@ 100ae1e8     LIBCMTD:dbgrpt.obj
 0002:00013204       ??_C@_0M@IPILFDFN@?$CFs?$CI?$CFd?$CJ?5?3?5?$CFs?$AA@ 100ae204     LIBCMTD:dbgrpt.obj
 0002:00013210       ??_C@_01EEMJAFIK@?6?$AA@   100ae210     LIBCMTD:dbgrpt.obj
 0002:00013214       ??_C@_01LIIJDEN@?$AN?$AA@  100ae214     LIBCMTD:dbgrpt.obj
 0002:00013218       ??_C@_0BC@LAIDCHCH@Assertion?5failed?$CB?$AA@ 100ae218     LIBCMTD:dbgrpt.obj
 0002:0001322c       ??_C@_0BD@CAENFOHP@Assertion?5failed?3?5?$AA@ 100ae22c     LIBCMTD:dbgrpt.obj
 0002:00013240       ??_C@_0CL@EACFGMNB@_CrtDbgReport?3?5String?5too?5long?5o@ 100ae240     LIBCMTD:dbgrpt.obj
 0002:0001326c       ??_C@_0DC@HLHDIIKH@Second?5Chance?5Assertion?5Failed?3?5@ 100ae26c     LIBCMTD:dbgrpt.obj
 0002:000132a0       ??_C@_09FOPFMPEJ@wsprintfA?$AA@ 100ae2a0     LIBCMTD:dbgrpt.obj
 0002:000132ac       ??_C@_0L@GMPLCCII@user32?4dll?$AA@ 100ae2ac     LIBCMTD:dbgrpt.obj
 0002:000132c4       ??_C@_0CD@EBCGLDDL@Microsoft?5Visual?5C?$CL?$CL?5Debug?5Libra@ 100ae2c4     LIBCMTD:dbgrpt.obj
 0002:000132e8       ??_C@_0FD@IIKNDPHJ@Debug?5?$CFs?$CB?6?6Program?3?5?$CFs?$CFs?$CFs?$CFs?$CFs?$CFs@ 100ae2e8     LIBCMTD:dbgrpt.obj
 0002:0001333c       ??_C@_09OFBFHMBK@?6Module?3?5?$AA@ 100ae33c     LIBCMTD:dbgrpt.obj
 0002:00013348       ??_C@_07OPHPPLBG@?6File?3?5?$AA@ 100ae348     LIBCMTD:dbgrpt.obj
 0002:00013350       ??_C@_07DBMPPHDI@?6Line?3?5?$AA@ 100ae350     LIBCMTD:dbgrpt.obj
 0002:00013358       ??_C@_0N@MEECIJGN@Expression?3?5?$AA@ 100ae358     LIBCMTD:dbgrpt.obj
 0002:00013365       ??_C@_00CNPNBAHC@?$AA@     100ae365     LIBCMTD:dbgrpt.obj
 0002:00013368       ??_C@_0HD@GNBNFCCL@?6?6For?5information?5on?5how?5your?5pr@ 100ae368     LIBCMTD:dbgrpt.obj
 0002:000133dc       ??_C@_0BG@IHOEIIEJ@szUserMessage?5?$CB?$DN?5NULL?$AA@ 100ae3dc     LIBCMTD:dbgrpt.obj
 0002:00013430       ??_C@_07JNHGGCAC@ftell?4c?$AA@ 100ae430     LIBCMTD:ftell.obj
 0002:00013444       ??_C@_0DP@FICHPIPH@?$CI?$CCinconsistent?5IOB?5fields?$CC?0?5stre@ 100ae444     LIBCMTD:_flsbuf.obj
 0002:00013484       ??_C@_09DHJHPHJP@_flsbuf?4c?$AA@ 100ae484     LIBCMTD:_flsbuf.obj
 0002:000134ac       ??_C@_0L@CKFHAPLH@_freebuf?4c?$AA@ 100ae4ac     LIBCMTD:_freebuf.obj
 0002:00013638       ??_C@_07LCBHPJJN@LC_TIME?$AA@ 100ae638     LIBCMTD:setlocal.obj
 0002:00013640       ??_C@_0L@DLHIECNL@LC_NUMERIC?$AA@ 100ae640     LIBCMTD:setlocal.obj
 0002:0001364c       ??_C@_0M@MIENIKLA@LC_MONETARY?$AA@ 100ae64c     LIBCMTD:setlocal.obj
 0002:00013658       ??_C@_08EADHIDAD@LC_CTYPE?$AA@ 100ae658     LIBCMTD:setlocal.obj
 0002:00013664       ??_C@_0L@KFJHEKIK@LC_COLLATE?$AA@ 100ae664     LIBCMTD:setlocal.obj
 0002:00013670       ??_C@_06NEFDFEKB@LC_ALL?$AA@ 100ae670     LIBCMTD:setlocal.obj
 0002:00013684       ??_C@_0L@LEECJGMI@setlocal?4c?$AA@ 100ae684     LIBCMTD:setlocal.obj
 0002:0001369c       ??_C@_01ICJEACDI@?$DL?$AA@ 100ae69c     LIBCMTD:setlocal.obj
 0002:000136a0       ??_C@_02BALPLPBG@?$DN?$DL?$AA@ 100ae6a0     LIBCMTD:setlocal.obj
 0002:000136a4       ??_C@_01NEMOKFLO@?$DN?$AA@ 100ae6a4     LIBCMTD:setlocal.obj
 0002:000136a8       ??_C@_03EGDHDPFD@_?4?0?$AA@ 100ae6a8     LIBCMTD:setlocal.obj
 0002:000136ac       ??_C@_01LFCBOECM@?4?$AA@   100ae6ac     LIBCMTD:setlocal.obj
 0002:000136b0       ??_C@_01IDAFKMJL@_?$AA@    100ae6b0     LIBCMTD:setlocal.obj
 0002:000136b4       ??_C@_07OONBJACK@w_map?4c?$AA@ 100ae6b4     LIBCMTD:w_map.obj
 0002:000136bc       ??_C@_13NOLLCAOD@?$AA?$AA?$AA?$AA@ 100ae6bc     LIBCMTD:w_map.obj
 0002:000136d8       ___newctype                100ae6d8     LIBCMTD:ctype.obj
 0002:000139d8       __wctype                   100ae9d8     LIBCMTD:ctype.obj
 0002:00013bdc       ??_C@_0CO@OCFDICDP@f?3?2vs70builds?23077?2vc?2crtbld?2crt@ 100aebdc     LIBCMTD:woutput.obj
 0002:00013c0c       ??_C@_07FEAFKIIG@a_map?4c?$AA@ 100aec0c     LIBCMTD:a_map.obj
 0002:00013c3c       ??_C@_09BLOOPMDK@isctype?4c?$AA@ 100aec3c     LIBCMTD:isctype.obj
 0002:00013c48       ??_C@_0BJ@IAKBGELC@?$CIunsigned?$CJ?$CIc?5?$CL?51?$CJ?5?$DM?$DN?5256?$AA@ 100aec48     LIBCMTD:isctype.obj
 0002:00013c74       ??_C@_09IFKHNCOH@_sftbuf?4c?$AA@ 100aec74     LIBCMTD:_sftbuf.obj
 0002:00013c80       ??_C@_0BH@HIGALIFJ@flag?5?$DN?$DN?50?5?$HM?$HM?5flag?5?$DN?$DN?51?$AA@ 100aec80     LIBCMTD:_sftbuf.obj
 0002:00013ca4       ??_C@_08GNMOIKDK@onexit?4c?$AA@ 100aeca4     LIBCMTD:onexit.obj
 0002:00013cbc       ??_C@_09KJLOAKHC@mbctype?4c?$AA@ 100aecbc     LIBCMTD:mbctype.obj
 0002:00013d14       ??_C@_09FNBBCGGI@sprintf?4c?$AA@ 100aed14     LIBCMTD:sprintf.obj
 0002:00013d2c       ??_C@_0CG@PKBDLMEO@InitializeCriticalSectionAndSpin@ 100aed2c     LIBCMTD:initcrit.obj
 0002:00013d64       ??_C@_0BI@DFKBFLJE@GetProcessWindowStation?$AA@ 100aed64     LIBCMTD:crtmbox.obj
 0002:00013d7c       ??_C@_0BK@CIDNPOGP@GetUserObjectInformationA?$AA@ 100aed7c     LIBCMTD:crtmbox.obj
 0002:00013d98       ??_C@_0BD@HHGDFDBJ@GetLastActivePopup?$AA@ 100aed98     LIBCMTD:crtmbox.obj
 0002:00013dac       ??_C@_0BA@HNOPNCHB@GetActiveWindow?$AA@ 100aedac     LIBCMTD:crtmbox.obj
 0002:00013dbc       ??_C@_0M@CHKKJDAI@MessageBoxA?$AA@ 100aedbc     LIBCMTD:crtmbox.obj
 0002:00013dc8       ??_C@_0CP@PEILCOHB@f?3?2vs70builds?23077?2vc?2crtbld?2crt@ 100aedc8     LIBCMTD:snprintf.obj
 0002:00013df8       ??_C@_0DA@KHEJFFIK@f?3?2vs70builds?23077?2vc?2crtbld?2crt@ 100aedf8     LIBCMTD:vsnprint.obj
 0002:00013e28       ??_C@_08FKHPDPAC@winsig?4c?$AA@ 100aee28     LIBCMTD:winsig.obj
 0002:00013e64       ??_C@_09MGNHMPHC@osfinfo?4c?$AA@ 100aee64     LIBCMTD:osfinfo.obj
 0002:00013eb4       ??_C@_09PKAEMGHJ@_getbuf?4c?$AA@ 100aeeb4     LIBCMTD:_getbuf.obj
 0002:00013ecc       ??_C@_08JCCMCCIL@HH?3mm?3ss?$AA@ 100aeecc     LIBCMTD:strftime.obj
 0002:00013ed8       ??_C@_0BE@CKGJFCPC@dddd?0?5MMMM?5dd?0?5yyyy?$AA@ 100aeed8     LIBCMTD:strftime.obj
 0002:00013eec       ??_C@_08BPBNCDIB@MM?1dd?1yy?$AA@ 100aeeec     LIBCMTD:strftime.obj
 0002:00013ef8       ??_C@_02CJNFDJBF@PM?$AA@   100aeef8     LIBCMTD:strftime.obj
 0002:00013efc       ??_C@_02DEDBPAFC@AM?$AA@   100aeefc     LIBCMTD:strftime.obj
 0002:00013f00       ??_C@_08EDHMEBNP@December?$AA@ 100aef00     LIBCMTD:strftime.obj
 0002:00013f0c       ??_C@_08HCHEGEOA@November?$AA@ 100aef0c     LIBCMTD:strftime.obj
 0002:00013f18       ??_C@_07JJNFCEND@October?$AA@ 100aef18     LIBCMTD:strftime.obj
 0002:00013f20       ??_C@_09BHHEALKD@September?$AA@ 100aef20     LIBCMTD:strftime.obj
 0002:00013f2c       ??_C@_06LBBHFDDG@August?$AA@ 100aef2c     LIBCMTD:strftime.obj
 0002:00013f34       ??_C@_04MIEPOIFP@July?$AA@ 100aef34     LIBCMTD:strftime.obj
 0002:00013f3c       ??_C@_04CNLMGBGM@June?$AA@ 100aef3c     LIBCMTD:strftime.obj
 0002:00013f44       ??_C@_05DMJDNLEJ@April?$AA@ 100aef44     LIBCMTD:strftime.obj
 0002:00013f4c       ??_C@_05HPCKOFNC@March?$AA@ 100aef4c     LIBCMTD:strftime.obj
 0002:00013f54       ??_C@_08GNJGEPFN@February?$AA@ 100aef54     LIBCMTD:strftime.obj
 0002:00013f60       ??_C@_07CGJPFGJA@January?$AA@ 100aef60     LIBCMTD:strftime.obj
 0002:00013f68       ??_C@_03MKABNOCG@Dec?$AA@  100aef68     LIBCMTD:strftime.obj
 0002:00013f6c       ??_C@_03JPJOFNIA@Nov?$AA@  100aef6c     LIBCMTD:strftime.obj
 0002:00013f70       ??_C@_03BMAOKBAD@Oct?$AA@  100aef70     LIBCMTD:strftime.obj
 0002:00013f74       ??_C@_03GGCAPAJC@Sep?$AA@  100aef74     LIBCMTD:strftime.obj
 0002:00013f78       ??_C@_03IFJFEIGA@Aug?$AA@  100aef78     LIBCMTD:strftime.obj
 0002:00013f7c       ??_C@_03LBGABGKK@Jul?$AA@  100aef7c     LIBCMTD:strftime.obj
 0002:00013f80       ??_C@_03IDFGHECI@Jun?$AA@  100aef80     LIBCMTD:strftime.obj
 0002:00013f84       ??_C@_03CNMDKL@May?$AA@    100aef84     LIBCMTD:strftime.obj
 0002:00013f88       ??_C@_03LEOLGMJP@Apr?$AA@  100aef88     LIBCMTD:strftime.obj
 0002:00013f8c       ??_C@_03ODNJBKGA@Mar?$AA@  100aef8c     LIBCMTD:strftime.obj
 0002:00013f90       ??_C@_03HJBDCHOM@Feb?$AA@  100aef90     LIBCMTD:strftime.obj
 0002:00013f94       ??_C@_03JIHJHPIE@Jan?$AA@  100aef94     LIBCMTD:strftime.obj
 0002:00013f98       ??_C@_08INBOOONO@Saturday?$AA@ 100aef98     LIBCMTD:strftime.obj
 0002:00013fa4       ??_C@_06JECMNKMI@Friday?$AA@ 100aefa4     LIBCMTD:strftime.obj
 0002:00013fac       ??_C@_08HACCIKIA@Thursday?$AA@ 100aefac     LIBCMTD:strftime.obj
 0002:00013fb8       ??_C@_09DLIGFAKA@Wednesday?$AA@ 100aefb8     LIBCMTD:strftime.obj
 0002:00013fc4       ??_C@_07BAAGCFCM@Tuesday?$AA@ 100aefc4     LIBCMTD:strftime.obj
 0002:00013fcc       ??_C@_06JLEDEDGH@Monday?$AA@ 100aefcc     LIBCMTD:strftime.obj
 0002:00013fd4       ??_C@_06OOPIFAJ@Sunday?$AA@ 100aefd4     LIBCMTD:strftime.obj
 0002:00013fdc       ??_C@_03FEFJNEK@Sat?$AA@   100aefdc     LIBCMTD:strftime.obj
 0002:00013fe0       ??_C@_03IDIOELNC@Fri?$AA@  100aefe0     LIBCMTD:strftime.obj
 0002:00013fe4       ??_C@_03IOFIKPDN@Thu?$AA@  100aefe4     LIBCMTD:strftime.obj
 0002:00013fe8       ??_C@_03MHOMLAJA@Wed?$AA@  100aefe8     LIBCMTD:strftime.obj
 0002:00013fec       ??_C@_03NAGEINEP@Tue?$AA@  100aefec     LIBCMTD:strftime.obj
 0002:00013ff0       ??_C@_03PDAGKDH@Mon?$AA@   100aeff0     LIBCMTD:strftime.obj
 0002:00013ff4       ??_C@_03KOEHGMDN@Sun?$AA@  100aeff4     LIBCMTD:strftime.obj
 0002:00013ff8       ??_C@_0L@OCEOFAIF@strftime?4c?$AA@ 100aeff8     LIBCMTD:strftime.obj
 0002:00014004       ??_C@_0DJ@BLPIACFC@?$CI?$CCInvalid?5MBCS?5character?5sequenc@ 100af004     LIBCMTD:strftime.obj
 0002:00014040       ??_C@_0DD@GLPHLKIC@?$CI?$CCZero?5length?5output?5buffer?5pass@ 100af040     LIBCMTD:strftime.obj
 0002:00014074       ??_C@_0DL@LLHFCBKO@?$CI?$CCInvalid?5MBCS?5character?5sequenc@ 100af074     LIBCMTD:strftime.obj
 0002:000140b0       ??_C@_0EC@CJNAOFBG@?$CI?$CCInvalid?5MBCS?5character?5sequenc@ 100af0b0     LIBCMTD:strftime.obj
 0002:000140f4       ??_C@_03EBAPMIKO@a?1p?$AA@ 100af0f4     LIBCMTD:strftime.obj
 0002:000140f8       ??_C@_05JAMEPDIN@am?1pm?$AA@ 100af0f8     LIBCMTD:strftime.obj
 0002:0001410c       ??_C@_0L@IOJADHBB@inittime?4c?$AA@ 100af10c     LIBCMTD:inittime.obj
 0002:00014118       ??_C@_09MECGNAGI@initnum?4c?$AA@ 100af118     LIBCMTD:initnum.obj
 0002:00014124       ??_C@_09HKFHICAL@initmon?4c?$AA@ 100af124     LIBCMTD:initmon.obj
 0002:00014130       ??_C@_0L@GBAGBCPL@initctyp?4c?$AA@ 100af130     LIBCMTD:initctyp.obj
 0002:0001413c       ??_C@_07GPNABLBE@a_str?4c?$AA@ 100af13c     LIBCMTD:a_str.obj
 0002:00014158       ___rgLocInfo               100af158     LIBCMTD:getqloc.obj
 0002:000145fc       ??_C@_08PKBIPKE@Paraguay?$AA@ 100af5fc     LIBCMTD:getqloc.obj
 0002:00014608       ??_C@_07GHBIBIBP@Uruguay?$AA@ 100af608     LIBCMTD:getqloc.obj
 0002:00014610       ??_C@_05HBNKAPDN@Chile?$AA@ 100af610     LIBCMTD:getqloc.obj
 0002:00014618       ??_C@_07FEIFIPNF@Ecuador?$AA@ 100af618     LIBCMTD:getqloc.obj
 0002:00014620       ??_C@_09PGNFPGME@Argentina?$AA@ 100af620     LIBCMTD:getqloc.obj
 0002:0001462c       ??_C@_04IALPBJF@Peru?$AA@  100af62c     LIBCMTD:getqloc.obj
 0002:00014634       ??_C@_08IJPLNLKH@Colombia?$AA@ 100af634     LIBCMTD:getqloc.obj
 0002:00014640       ??_C@_09IDMFKCN@Venezuela?$AA@ 100af640     LIBCMTD:getqloc.obj
 0002:0001464c       ??_C@_0BD@DNEJOGOK@Dominican?5Republic?$AA@ 100af64c     LIBCMTD:getqloc.obj
 0002:00014660       ??_C@_0N@LPINDNDB@South?5Africa?$AA@ 100af660     LIBCMTD:getqloc.obj
 0002:00014670       ??_C@_06BLJPEOBG@Panama?$AA@ 100af670     LIBCMTD:getqloc.obj
 0002:00014678       ??_C@_0L@BOCNDGON@Luxembourg?$AA@ 100af678     LIBCMTD:getqloc.obj
 0002:00014684       ??_C@_0L@CONEHKA@Costa?5Rica?$AA@ 100af684     LIBCMTD:getqloc.obj
 0002:00014690       ??_C@_0M@KGBPELAM@Switzerland?$AA@ 100af690     LIBCMTD:getqloc.obj
 0002:0001469c       ??_C@_09FJGLIMAG@Guatemala?$AA@ 100af69c     LIBCMTD:getqloc.obj
 0002:000146a8       ??_C@_06ECHIPDMK@Canada?$AA@ 100af6a8     LIBCMTD:getqloc.obj
 0002:000146b0       ??_C@_0BG@CCEBNPGH@Spanish?5?9?5Modern?5Sort?$AA@ 100af6b0     LIBCMTD:getqloc.obj
 0002:000146c8       ??_C@_09EFGJAPAD@Australia?$AA@ 100af6c8     LIBCMTD:getqloc.obj
 0002:000146d4       ??_C@_07NEKHPBCG@English?$AA@ 100af6d4     LIBCMTD:getqloc.obj
 0002:000146dc       ??_C@_07LKIIOGFH@Austria?$AA@ 100af6dc     LIBCMTD:getqloc.obj
 0002:000146e4       ??_C@_06EDDDIONA@German?$AA@ 100af6e4     LIBCMTD:getqloc.obj
 0002:000146ec       ??_C@_07LIIIOFOA@Belgium?$AA@ 100af6ec     LIBCMTD:getqloc.obj
 0002:000146f4       ??_C@_06DIAOLLEH@Mexico?$AA@ 100af6f4     LIBCMTD:getqloc.obj
 0002:000146fc       ??_C@_07PFALJOGE@Spanish?$AA@ 100af6fc     LIBCMTD:getqloc.obj
 0002:00014704       ??_C@_06FFOOPAJB@Basque?$AA@ 100af704     LIBCMTD:getqloc.obj
 0002:0001470c       ??_C@_06DGHNDJFJ@Sweden?$AA@ 100af70c     LIBCMTD:getqloc.obj
 0002:00014714       ??_C@_07OBINPKFN@Swedish?$AA@ 100af714     LIBCMTD:getqloc.obj
 0002:0001471c       ??_C@_07NCOIHDGC@Iceland?$AA@ 100af71c     LIBCMTD:getqloc.obj
 0002:00014724       ??_C@_09JHBBDDIA@Icelandic?$AA@ 100af724     LIBCMTD:getqloc.obj
 0002:00014730       ??_C@_06COBCPIFO@France?$AA@ 100af730     LIBCMTD:getqloc.obj
 0002:00014738       ??_C@_06GODMCAND@French?$AA@ 100af738     LIBCMTD:getqloc.obj
 0002:00014740       ??_C@_07MFHPMOED@Finland?$AA@ 100af740     LIBCMTD:getqloc.obj
 0002:00014748       ??_C@_07MCEAMKOD@Finnish?$AA@ 100af748     LIBCMTD:getqloc.obj
 0002:00014750       ??_C@_05CBHOCCK@Spain?$AA@ 100af750     LIBCMTD:getqloc.obj
 0002:00014758       ??_C@_0BL@GIOEGDHB@Spanish?5?9?5Traditional?5Sort?$AA@ 100af758     LIBCMTD:getqloc.obj
 0002:00014774       ___rglangidNotDefault      100af774     LIBCMTD:getqloc.obj
 0002:00014788       ___rg_country              100af788     LIBCMTD:getqloc.obj
 0002:00014840       ??_C@_0O@FMJNFNKE@united?9states?$AA@ 100af840     LIBCMTD:getqloc.obj
 0002:00014850       ??_C@_0P@NDHFFKCA@united?9kingdom?$AA@ 100af850     LIBCMTD:getqloc.obj
 0002:00014860       ??_C@_0BC@HHDADLGF@trinidad?5?$CG?5tobago?$AA@ 100af860     LIBCMTD:getqloc.obj
 0002:00014874       ??_C@_0M@IOAEBDAC@south?9korea?$AA@ 100af874     LIBCMTD:getqloc.obj
 0002:00014880       ??_C@_0N@FIELFKIJ@south?9africa?$AA@ 100af880     LIBCMTD:getqloc.obj
 0002:00014890       ??_C@_0M@OPNDHCMC@south?5korea?$AA@ 100af890     LIBCMTD:getqloc.obj
 0002:0001489c       ??_C@_0N@MDEOEPFI@south?5africa?$AA@ 100af89c     LIBCMTD:getqloc.obj
 0002:000148ac       ??_C@_06FKAPCJLB@slovak?$AA@ 100af8ac     LIBCMTD:getqloc.obj
 0002:000148b4       ??_C@_0M@EFJANOAL@puerto?9rico?$AA@ 100af8b4     LIBCMTD:getqloc.obj
 0002:000148c0       ??_C@_08PGOJKDAI@pr?9china?$AA@ 100af8c0     LIBCMTD:getqloc.obj
 0002:000148cc       ??_C@_08JHDOMCMI@pr?5china?$AA@ 100af8cc     LIBCMTD:getqloc.obj
 0002:000148d8       ??_C@_02JHCHFBLL@nz?$AA@   100af8d8     LIBCMTD:getqloc.obj
 0002:000148dc       ??_C@_0M@LINHDHKP@new?9zealand?$AA@ 100af8dc     LIBCMTD:getqloc.obj
 0002:000148e8       ??_C@_09IIIPPBDB@hong?9kong?$AA@ 100af8e8     LIBCMTD:getqloc.obj
 0002:000148f4       ??_C@_07HJLCKBG@holland?$AA@ 100af8f4     LIBCMTD:getqloc.obj
 0002:000148fc       ??_C@_0O@LEHGMHAG@great?5britain?$AA@ 100af8fc     LIBCMTD:getqloc.obj
 0002:0001490c       ??_C@_07FACOMELA@england?$AA@ 100af90c     LIBCMTD:getqloc.obj
 0002:00014914       ??_C@_05JIHCEICB@czech?$AA@ 100af914     LIBCMTD:getqloc.obj
 0002:0001491c       ??_C@_05BBJOBLGB@china?$AA@ 100af91c     LIBCMTD:getqloc.obj
 0002:00014924       ??_C@_07GPKPHICP@britain?$AA@ 100af924     LIBCMTD:getqloc.obj
 0002:0001492c       ??_C@_07MHIPBHMG@america?$AA@ 100af92c     LIBCMTD:getqloc.obj
 0002:00014938       ___rg_language             100af938     LIBCMTD:getqloc.obj
 0002:00014b40       ??_C@_03KIALPMKC@usa?$AA@  100afb40     LIBCMTD:getqloc.obj
 0002:00014b44       ??_C@_02FGJGKGGD@us?$AA@   100afb44     LIBCMTD:getqloc.obj
 0002:00014b48       ??_C@_02NEINDODK@uk?$AA@   100afb48     LIBCMTD:getqloc.obj
 0002:00014b4c       ??_C@_05JMPCFJFJ@swiss?$AA@ 100afb4c     LIBCMTD:getqloc.obj
 0002:00014b54       ??_C@_0BA@HLOCPIOD@swedish?9finland?$AA@ 100afb54     LIBCMTD:getqloc.obj
 0002:00014b64       ??_C@_0BC@PKCNIABK@spanish?9venezuela?$AA@ 100afb64     LIBCMTD:getqloc.obj
 0002:00014b78       ??_C@_0BA@GBHHMIJI@spanish?9uruguay?$AA@ 100afb78     LIBCMTD:getqloc.obj
 0002:00014b88       ??_C@_0BE@BHDOHPMC@spanish?9puerto?5rico?$AA@ 100afb88     LIBCMTD:getqloc.obj
 0002:00014b9c       ??_C@_0N@KMOIDGGN@spanish?9peru?$AA@ 100afb9c     LIBCMTD:getqloc.obj
 0002:00014bac       ??_C@_0BB@HMHLPGPH@spanish?9paraguay?$AA@ 100afbac     LIBCMTD:getqloc.obj
 0002:00014bc0       ??_C@_0P@MCPKNGFD@spanish?9panama?$AA@ 100afbc0     LIBCMTD:getqloc.obj
 0002:00014bd0       ??_C@_0BC@IHOHGAIL@spanish?9nicaragua?$AA@ 100afbd0     LIBCMTD:getqloc.obj
 0002:00014be4       ??_C@_0P@KLMJDNFJ@spanish?9modern?$AA@ 100afbe4     LIBCMTD:getqloc.obj
 0002:00014bf4       ??_C@_0BA@BPAPGBCM@spanish?9mexican?$AA@ 100afbf4     LIBCMTD:getqloc.obj
 0002:00014c04       ??_C@_0BB@PDECHHHE@spanish?9honduras?$AA@ 100afc04     LIBCMTD:getqloc.obj
 0002:00014c18       ??_C@_0BC@KLHKFGDB@spanish?9guatemala?$AA@ 100afc18     LIBCMTD:getqloc.obj
 0002:00014c2c       ??_C@_0BE@MFOOKJAI@spanish?9el?5salvador?$AA@ 100afc2c     LIBCMTD:getqloc.obj
 0002:00014c40       ??_C@_0BA@FCOKFPFC@spanish?9ecuador?$AA@ 100afc40     LIBCMTD:getqloc.obj
 0002:00014c50       ??_C@_0BL@PLMGIMOO@spanish?9dominican?5republic?$AA@ 100afc50     LIBCMTD:getqloc.obj
 0002:00014c6c       ??_C@_0BD@HLGDNMHB@spanish?9costa?5rica?$AA@ 100afc6c     LIBCMTD:getqloc.obj
 0002:00014c80       ??_C@_0BB@PKCBKCPE@spanish?9colombia?$AA@ 100afc80     LIBCMTD:getqloc.obj
 0002:00014c94       ??_C@_0O@MCBIJGNE@spanish?9chile?$AA@ 100afc94     LIBCMTD:getqloc.obj
 0002:00014ca4       ??_C@_0BA@BEFEIGJJ@spanish?9bolivia?$AA@ 100afca4     LIBCMTD:getqloc.obj
 0002:00014cb4       ??_C@_0BC@EMECMPD@spanish?9argentina?$AA@ 100afcb4     LIBCMTD:getqloc.obj
 0002:00014cc8       ??_C@_0BF@EALFLENP@portuguese?9brazilian?$AA@ 100afcc8     LIBCMTD:getqloc.obj
 0002:00014ce0       ??_C@_0BC@HBLEBLNN@norwegian?9nynorsk?$AA@ 100afce0     LIBCMTD:getqloc.obj
 0002:00014cf4       ??_C@_0BB@HMACDDCK@norwegian?9bokmal?$AA@ 100afcf4     LIBCMTD:getqloc.obj
 0002:00014d08       ??_C@_09BAFFPPHE@norwegian?$AA@ 100afd08     LIBCMTD:getqloc.obj
 0002:00014d14       ??_C@_0O@EAJFJDFG@italian?9swiss?$AA@ 100afd14     LIBCMTD:getqloc.obj
 0002:00014d24       ??_C@_0O@CNOMPGD@irish?9english?$AA@ 100afd24     LIBCMTD:getqloc.obj
 0002:00014d34       ??_C@_0N@EDHBGCKG@german?9swiss?$AA@ 100afd34     LIBCMTD:getqloc.obj
 0002:00014d44       ??_C@_0BC@JACMHNBP@german?9luxembourg?$AA@ 100afd44     LIBCMTD:getqloc.obj
 0002:00014d58       ??_C@_0BE@HBGMGFEG@german?9lichtenstein?$AA@ 100afd58     LIBCMTD:getqloc.obj
 0002:00014d6c       ??_C@_0BA@HKKBIBKL@german?9austrian?$AA@ 100afd6c     LIBCMTD:getqloc.obj
 0002:00014d7c       ??_C@_0N@GCAEPEBK@french?9swiss?$AA@ 100afd7c     LIBCMTD:getqloc.obj
 0002:00014d8c       ??_C@_0BC@DJFJJCK@french?9luxembourg?$AA@ 100afd8c     LIBCMTD:getqloc.obj
 0002:00014da0       ??_C@_0BA@NNCEDFIC@french?9canadian?$AA@ 100afda0     LIBCMTD:getqloc.obj
 0002:00014db0       ??_C@_0P@CMPOCLM@french?9belgian?$AA@ 100afdb0     LIBCMTD:getqloc.obj
 0002:00014dc0       ??_C@_0M@GHHDJOK@english?9usa?$AA@ 100afdc0     LIBCMTD:getqloc.obj
 0002:00014dcc       ??_C@_0L@PLDJKEIL@english?9us?$AA@ 100afdcc     LIBCMTD:getqloc.obj
 0002:00014dd8       ??_C@_0L@HJCCDMNC@english?9uk?$AA@ 100afdd8     LIBCMTD:getqloc.obj
 0002:00014de4       ??_C@_0BK@CKLIAGJB@english?9trinidad?5y?5tobago?$AA@ 100afde4     LIBCMTD:getqloc.obj
 0002:00014e00       ??_C@_0BF@JMJMGNNF@english?9south?5africa?$AA@ 100afe00     LIBCMTD:getqloc.obj
 0002:00014e18       ??_C@_0L@DKIIFDFD@english?9nz?$AA@ 100afe18     LIBCMTD:getqloc.obj
 0002:00014e24       ??_C@_0BA@ONHGJCLH@english?9jamaica?$AA@ 100afe24     LIBCMTD:getqloc.obj
 0002:00014e34       ??_C@_0M@HJBGHOPO@english?9ire?$AA@ 100afe34     LIBCMTD:getqloc.obj
 0002:00014e40       ??_C@_0BC@LFEKMIFB@english?9caribbean?$AA@ 100afe40     LIBCMTD:getqloc.obj
 0002:00014e54       ??_C@_0M@OLDPFKHI@english?9can?$AA@ 100afe54     LIBCMTD:getqloc.obj
 0002:00014e60       ??_C@_0P@OMDEHBMP@english?9belize?$AA@ 100afe60     LIBCMTD:getqloc.obj
 0002:00014e70       ??_C@_0M@KFHFPFED@english?9aus?$AA@ 100afe70     LIBCMTD:getqloc.obj
 0002:00014e7c       ??_C@_0BB@MNMBKDFE@english?9american?$AA@ 100afe7c     LIBCMTD:getqloc.obj
 0002:00014e90       ??_C@_0O@KIDLNNBA@dutch?9belgian?$AA@ 100afe90     LIBCMTD:getqloc.obj
 0002:00014ea0       ??_C@_0BE@JBKABBMH@chinese?9traditional?$AA@ 100afea0     LIBCMTD:getqloc.obj
 0002:00014eb4       ??_C@_0BC@MJJMPKCG@chinese?9singapore?$AA@ 100afeb4     LIBCMTD:getqloc.obj
 0002:00014ec8       ??_C@_0BD@FDKADDCP@chinese?9simplified?$AA@ 100afec8     LIBCMTD:getqloc.obj
 0002:00014edc       ??_C@_0BB@DBEFDDME@chinese?9hongkong?$AA@ 100afedc     LIBCMTD:getqloc.obj
 0002:00014ef0       ??_C@_07DHNMFMCI@chinese?$AA@ 100afef0     LIBCMTD:getqloc.obj
 0002:00014ef8       ??_C@_03FNDDCHI@chi?$AA@   100afef8     LIBCMTD:getqloc.obj
 0002:00014efc       ??_C@_03BMMIADDJ@chh?$AA@  100afefc     LIBCMTD:getqloc.obj
 0002:00014f00       ??_C@_08OAIPJDGI@canadian?$AA@ 100aff00     LIBCMTD:getqloc.obj
 0002:00014f0c       ??_C@_07HBPMNPNJ@belgian?$AA@ 100aff0c     LIBCMTD:getqloc.obj
 0002:00014f14       ??_C@_0L@OEKOPBEL@australian?$AA@ 100aff14     LIBCMTD:getqloc.obj
 0002:00014f20       ??_C@_0BB@MEIMBEDG@american?9english?$AA@ 100aff20     LIBCMTD:getqloc.obj
 0002:00014f34       ??_C@_0BB@DFMDPDGB@american?5english?$AA@ 100aff34     LIBCMTD:getqloc.obj
 0002:00014f48       ??_C@_08IJLOKOLL@american?$AA@ 100aff48     LIBCMTD:getqloc.obj
 0002:00014f54       ??_C@_0BC@NFIEMBLL@Norwegian?9Nynorsk?$AA@ 100aff54     LIBCMTD:getqloc.obj
 0002:00014f68       ??_C@_03NFKLAGEF@OCP?$AA@  100aff68     LIBCMTD:getqloc.obj
 0002:00014f6c       ??_C@_03DFHEHBHG@ACP?$AA@  100aff6c     LIBCMTD:getqloc.obj
 0002:00014f70       ??_C@_0L@KBNGFDKM@convrtcp?4c?$AA@ 100aff70     LIBCMTD:convrtcp.obj
 0002:00014f8c       ??_C@_07NFAECDLI@w_str?4c?$AA@ 100aff8c     LIBCMTD:w_str.obj
 0002:00014fb0       ___lookuptable             100affb0     LIBCMTD:output.obj
 0002:0001500c       ??_C@_1O@CEDCILHN@?$AA?$CI?$AAn?$AAu?$AAl?$AAl?$AA?$CJ?$AA?$AA@ 100b000c     LIBCMTD:output.obj
 0002:0001501c       ??_C@_06OJHGLDPL@?$CInull?$CJ?$AA@ 100b001c     LIBCMTD:output.obj
 0002:00015024       ??_C@_08MEPFMIND@output?4c?$AA@ 100b0024     LIBCMTD:output.obj
 0002:00015030       ??_C@_0P@LGFCLPDP@ch?5?$CB?$DN?5_T?$CI?8?20?8?$CJ?$AA@ 100b0030     LIBCMTD:output.obj
 0002:00015040       ??_C@_08NJPDFEGP@mbtowc?4c?$AA@ 100b0040     LIBCMTD:mbtowc.obj
 0002:0001504c       ??_C@_0DD@FIIGOHOA@ptloci?9?$DOmb_cur_max?5?$DN?$DN?51?5?$HM?$HM?5ptloc@ 100b004c     LIBCMTD:mbtowc.obj
 0002:00015080       ??_C@_08KKFOAFAI@fputwc?4c?$AA@ 100b0080     LIBCMTD:fputwc.obj
 0002:0001509c       ??_C@_09KLGCKDOD@Program?3?5?$AA@ 100b009c     LIBCMTD:secfail.obj
 0002:000150a8       ??_C@_0KA@JEHFIFGP@A?5buffer?5overrun?5has?5been?5detect@ 100b00a8     LIBCMTD:secfail.obj
 0002:00015148       ??_C@_0BJ@MDEKIEOJ@Buffer?5overrun?5detected?$CB?$AA@ 100b0148     LIBCMTD:secfail.obj
 0002:00015168       ??_C@_0LB@BPLHHLFD@A?5security?5error?5of?5unknown?5caus@ 100b0168     LIBCMTD:secfail.obj
 0002:0001521c       ??_C@_0CD@GMKACBEK@Unknown?5security?5failure?5detecte@ 100b021c     LIBCMTD:secfail.obj
 0002:0001524c       ??_C@_06IMKFLFPG@1?$CDQNAN?$AA@ 100b024c     LIBCMTD:x10fout.obj
 0002:00015254       ??_C@_05DNEBIAHO@1?$CDINF?$AA@ 100b0254     LIBCMTD:x10fout.obj
 0002:0001525c       ??_C@_05PHHOCPM@1?$CDIND?$AA@ 100b025c     LIBCMTD:x10fout.obj
 0002:00015264       ??_C@_06PGGFOGJG@1?$CDSNAN?$AA@ 100b0264     LIBCMTD:x10fout.obj
 0002:0001526c       ___dnames                  100b026c     LIBCMTD:timeset.obj
 0002:00015284       ___mnames                  100b0284     LIBCMTD:timeset.obj
 0002:000152cc       ??_C@_07LOOFNDIO@tzset?4c?$AA@ 100b02cc     LIBCMTD:tzset.obj
 0002:000152d4       ??_C@_02CLFPBFFP@TZ?$AA@   100b02d4     LIBCMTD:tzset.obj
 0002:000152f4       ??_C@_0L@DILIPMN@inithelp?4c?$AA@ 100b02f4     LIBCMTD:inithelp.obj
 0002:00015300       ??_C@_0CP@JOANPPIG@f?3?2vs70builds?23077?2vc?2crtbld?2crt@ 100b0300     LIBCMTD:_flswbuf.obj
 0002:0001533c       ??_C@_07NIBBAFJP@w_loc?4c?$AA@ 100b033c     LIBCMTD:w_loc.obj
 0002:00015354       ??_C@_07GCMFDNDD@a_loc?4c?$AA@ 100b0354     LIBCMTD:a_loc.obj
 0002:0001536c       ??_C@_0L@CELCHBFJ@wtombenv?4c?$AA@ 100b036c     LIBCMTD:wtombenv.obj
 0002:00015378       ??_C@_07KLPPCEPH@a_cmp?4c?$AA@ 100b0378     LIBCMTD:a_cmp.obj
 0002:00015380       ??_C@_0DN@NFIMOOFE@cchCount1?$DN?$DN0?5?$CG?$CG?5cchCount2?$DN?$DN1?5?$HM?$HM?5@ 100b0380     LIBCMTD:a_cmp.obj
 0002:000153d8       ??_C@_08BMJILFKN@setenv?4c?$AA@ 100b03d8     LIBCMTD:setenv.obj
 0002:000153e4       ??_C@_05MAJJAKPI@FALSE?$AA@ 100b03e4     LIBCMTD:setenv.obj
 0002:000158a0       ??_C@_0L@LLDHGLHK@swprintf?4c?$AA@ 100b08a0     LIBCMTD:swprintf.obj
 0002:000158ac       ??_C@_0L@ILNMHBAP@mbstowcs?4c?$AA@ 100b08ac     LIBCMTD:mbstowcs.obj
 0002:000158b8       ??_C@_09EGGCOFMI@s?5?$CB?$DN?5NULL?$AA@ 100b08b8     LIBCMTD:mbstowcs.obj
 0002:000158c4       ??_C@_0N@JICNABFA@swprintn?4cpp?$AA@ 100b08c4     LIBCMTD:swprintn.obj
 0002:000158d4       ??_C@_0BC@LDFCGPMK@?$CKmode?5?$CB?$DN?5_T?$CI?8?20?8?$CJ?$AA@ 100b08d4     LIBCMTD:wfopen.obj
 0002:000158e8       ??_C@_0N@HDDIJGHA@mode?5?$CB?$DN?5NULL?$AA@ 100b08e8     LIBCMTD:wfopen.obj
 0002:000158f8       ??_C@_0BC@JKMANOLD@?$CKfile?5?$CB?$DN?5_T?$CI?8?20?8?$CJ?$AA@ 100b08f8     LIBCMTD:wfopen.obj
 0002:0001590c       ??_C@_0CN@HDNHNDNE@f?3?2vs70builds?23077?2vc?2crtbld?2crt@ 100b090c     LIBCMTD:wfopen.obj
 0002:0001593c       ??_C@_0N@MBAPGNHG@file?5?$CB?$DN?5NULL?$AA@ 100b093c     LIBCMTD:wfopen.obj
 0002:0001595c       ??_C@_0CN@OJFFJLIC@f?3?2vs70builds?23077?2vc?2crtbld?2crt@ 100b095c     LIBCMTD:_wopen.obj
 0002:0001598c       ??_C@_0BB@KFELMOAG@filename?5?$CB?$DN?5NULL?$AA@ 100b098c     LIBCMTD:_wopen.obj
 0002:000159a0       ??_C@_08MKBBPGGN@stream?4c?$AA@ 100b09a0     LIBCMTD:stream.obj
 0002:000159ec       ??_C@_08EOPENFML@chsize?4c?$AA@ 100b09ec     LIBCMTD:chsize.obj
 0002:000159f8       ??_C@_09OJCCCDEJ@size?5?$DO?$DN?50?$AA@ 100b09f8     LIBCMTD:chsize.obj
 0002:00015a28       __load_config_used         100b0a28     LIBCMTD:loadcfg.obj
 0002:0001a268       ??_R1A@?0A@A@type_info@@8  100b5268     LIBCMTD:typinfo.obj
 0002:0001a280       ??_R2type_info@@8          100b5280     LIBCMTD:typinfo.obj
 0002:0001a288       ??_R3type_info@@8          100b5288     LIBCMTD:typinfo.obj
 0002:0001a298       ??_R4type_info@@6B@        100b5298     LIBCMTD:typinfo.obj
 0002:0001a3c0       ___safe_se_handler_table   100b53c0     <linker-defined>
 0002:0001a83c       ___rtc_iaa                 100b583c     LIBCMTD:initsect.obj
 0002:0001a940       ___rtc_izz                 100b5940     LIBCMTD:initsect.obj
 0002:0001aa44       ___rtc_taa                 100b5a44     LIBCMTD:initsect.obj
 0002:0001ab48       ___rtc_tzz                 100b5b48     LIBCMTD:initsect.obj
 0003:00000000       ___xc_a                    100b6000     LIBCMTD:crt0init.obj
 0003:0000030c       ___xc_z                    100b630c     LIBCMTD:crt0init.obj
 0003:00000410       ___xi_a                    100b6410     LIBCMTD:crt0init.obj
 0003:00000728       ___xi_z                    100b6728     LIBCMTD:crt0init.obj
 0003:0000082c       ___xp_a                    100b682c     LIBCMTD:crt0init.obj
 0003:00000a34       ___xp_z                    100b6a34     LIBCMTD:crt0init.obj
 0003:00000b38       ___xt_a                    100b6b38     LIBCMTD:crt0init.obj
 0003:00000d40       ___xt_z                    100b6d40     LIBCMTD:crt0init.obj
 0003:00000fa0       ??_R4CIFXAuthorMeshLocker@@6B@ 100b6fa0     Exporting:CIFXAuthorCLODEncoderX.obj
 0003:00000fb8       ??_R0?AVCIFXAuthorMeshLocker@@@8 100b6fb8     Exporting:CIFXAuthorCLODEncoderX.obj
 0003:00000fe0       ??_R3CIFXAuthorMeshLocker@@8 100b6fe0     Exporting:CIFXAuthorCLODEncoderX.obj
 0003:00000ff0       ??_R2CIFXAuthorMeshLocker@@8 100b6ff0     Exporting:CIFXAuthorCLODEncoderX.obj
 0003:00000ff8       ??_R1A@?0A@A@CIFXAuthorMeshLocker@@8 100b6ff8     Exporting:CIFXAuthorCLODEncoderX.obj
 0003:00001010       ??_R4IFXUnknown@@6B@       100b7010     Exporting:CIFXAuthorCLODEncoderX.obj
 0003:00001028       ??_R0?AVIFXUnknown@@@8     100b7028     Exporting:CIFXAuthorCLODEncoderX.obj
 0003:00001048       ??_R3IFXUnknown@@8         100b7048     Exporting:CIFXAuthorCLODEncoderX.obj
 0003:00001058       ??_R2IFXUnknown@@8         100b7058     Exporting:CIFXAuthorCLODEncoderX.obj
 0003:00001060       ??_R1A@?0A@A@IFXUnknown@@8 100b7060     Exporting:CIFXAuthorCLODEncoderX.obj
 0003:00001078       ??_R4IFXException@@6B@     100b7078     Exporting:CIFXAuthorCLODEncoderX.obj
 0003:00001090       ??_R0?AVIFXException@@@8   100b7090     Exporting:CIFXAuthorCLODEncoderX.obj
 0003:000010b0       ??_R3IFXException@@8       100b70b0     Exporting:CIFXAuthorCLODEncoderX.obj
 0003:000010c0       ??_R2IFXException@@8       100b70c0     Exporting:CIFXAuthorCLODEncoderX.obj
 0003:000010c8       ??_R1A@?0A@A@IFXException@@8 100b70c8     Exporting:CIFXAuthorCLODEncoderX.obj
 0003:000010e0       ??_R4IFXEncoderX@@6B0@@    100b70e0     Exporting:CIFXAuthorCLODEncoderX.obj
 0003:000010f8       ??_R0?AVIFXEncoderX@@@8    100b70f8     Exporting:CIFXAuthorCLODEncoderX.obj
 0003:00001118       ??_R3IFXEncoderX@@8        100b7118     Exporting:CIFXAuthorCLODEncoderX.obj
 0003:00001128       ??_R2IFXEncoderX@@8        100b7128     Exporting:CIFXAuthorCLODEncoderX.obj
 0003:00001130       ??_R1A@?0A@A@IFXEncoderX@@8 100b7130     Exporting:CIFXAuthorCLODEncoderX.obj
 0003:00001148       ??_R1A@33BA@IFXUnknown@@8  100b7148     Exporting:CIFXAuthorCLODEncoderX.obj
 0003:00001160       ??_R4IFXEncoderX@@6BIFXUnknown@@@ 100b7160     Exporting:CIFXAuthorCLODEncoderX.obj
 0003:00001178       ??_8IFXEncoderX@@7B@       100b7178     Exporting:CIFXAuthorCLODEncoderX.obj
 0003:00001180       ??_R4CIFXAuthorCLODEncoderX@@6B0@@ 100b7180     Exporting:CIFXAuthorCLODEncoderX.obj
 0003:00001198       ??_R0?AVCIFXAuthorCLODEncoderX@@@8 100b7198     Exporting:CIFXAuthorCLODEncoderX.obj
 0003:000011c0       ??_R3CIFXAuthorCLODEncoderX@@8 100b71c0     Exporting:CIFXAuthorCLODEncoderX.obj
 0003:000011d0       ??_R2CIFXAuthorCLODEncoderX@@8 100b71d0     Exporting:CIFXAuthorCLODEncoderX.obj
 0003:000011e0       ??_R1A@?0A@A@CIFXAuthorCLODEncoderX@@8 100b71e0     Exporting:CIFXAuthorCLODEncoderX.obj
 0003:000011f8       ??_R1A@77BA@IFXEncoderX@@8 100b71f8     Exporting:CIFXAuthorCLODEncoderX.obj
 0003:00001210       ??_R1A@73BA@IFXUnknown@@8  100b7210     Exporting:CIFXAuthorCLODEncoderX.obj
 0003:00001228       ??_R4CIFXAuthorCLODEncoderX@@6BIFXUnknown@@@ 100b7228     Exporting:CIFXAuthorCLODEncoderX.obj
 0003:00001240       ??_R4CIFXAuthorCLODEncoderX@@6BIFXEncoderX@@@ 100b7240     Exporting:CIFXAuthorCLODEncoderX.obj
 0003:00001258       ??_8CIFXAuthorCLODEncoderX@@7B0@@ 100b7258     Exporting:CIFXAuthorCLODEncoderX.obj
 0003:00001264       ??_8CIFXAuthorCLODEncoderX@@7BIFXEncoderX@@@ 100b7264     Exporting:CIFXAuthorCLODEncoderX.obj
 0003:00001270       __CTA1?AVIFXException@@    100b7270     Exporting:CIFXAuthorCLODEncoderX.obj
 0003:00001278       __CT??_R0?AVIFXException@@@8IFXException@20 100b7278     Exporting:CIFXAuthorCLODEncoderX.obj
 0003:00001298       __TI1?AVIFXException@@     100b7298     Exporting:CIFXAuthorCLODEncoderX.obj
 0003:000012a8       ??_R4CIFXAnimationModifierEncoder@@6B0@@ 100b72a8     Exporting:CIFXAnimationModifierEncoder.obj
 0003:000012c0       ??_R0?AVCIFXAnimationModifierEncoder@@@8 100b72c0     Exporting:CIFXAnimationModifierEncoder.obj
 0003:000012f0       ??_R3CIFXAnimationModifierEncoder@@8 100b72f0     Exporting:CIFXAnimationModifierEncoder.obj
 0003:00001300       ??_R2CIFXAnimationModifierEncoder@@8 100b7300     Exporting:CIFXAnimationModifierEncoder.obj
 0003:00001310       ??_R1A@?0A@A@CIFXAnimationModifierEncoder@@8 100b7310     Exporting:CIFXAnimationModifierEncoder.obj
 0003:00001328       ??_R1A@37BA@IFXEncoderX@@8 100b7328     Exporting:CIFXAnimationModifierEncoder.obj
 0003:00001340       ??_R4CIFXAnimationModifierEncoder@@6BIFXUnknown@@@ 100b7340     Exporting:CIFXAnimationModifierEncoder.obj
 0003:00001358       ??_R4CIFXAnimationModifierEncoder@@6BIFXEncoderX@@@ 100b7358     Exporting:CIFXAnimationModifierEncoder.obj
 0003:00001370       ??_8CIFXAnimationModifierEncoder@@7B0@@ 100b7370     Exporting:CIFXAnimationModifierEncoder.obj
 0003:0000137c       ??_8CIFXAnimationModifierEncoder@@7BIFXEncoderX@@@ 100b737c     Exporting:CIFXAnimationModifierEncoder.obj
 0003:00001388       ??_R4CIFXMaterialResourceEncoder@@6B0@@ 100b7388     Exporting:CIFXMaterialResourceEncoder.obj
 0003:000013a0       ??_R0?AVCIFXMaterialResourceEncoder@@@8 100b73a0     Exporting:CIFXMaterialResourceEncoder.obj
 0003:000013d0       ??_R3CIFXMaterialResourceEncoder@@8 100b73d0     Exporting:CIFXMaterialResourceEncoder.obj
 0003:000013e0       ??_R2CIFXMaterialResourceEncoder@@8 100b73e0     Exporting:CIFXMaterialResourceEncoder.obj
 0003:000013f0       ??_R1A@?0A@A@CIFXMaterialResourceEncoder@@8 100b73f0     Exporting:CIFXMaterialResourceEncoder.obj
 0003:00001408       ??_R4CIFXMaterialResourceEncoder@@6BIFXUnknown@@@ 100b7408     Exporting:CIFXMaterialResourceEncoder.obj
 0003:00001420       ??_R4CIFXMaterialResourceEncoder@@6BIFXEncoderX@@@ 100b7420     Exporting:CIFXMaterialResourceEncoder.obj
 0003:00001438       ??_8CIFXMaterialResourceEncoder@@7B0@@ 100b7438     Exporting:CIFXMaterialResourceEncoder.obj
 0003:00001444       ??_8CIFXMaterialResourceEncoder@@7BIFXEncoderX@@@ 100b7444     Exporting:CIFXMaterialResourceEncoder.obj
 0003:00001450       ??_R4CIFXMotionResourceEncoder@@6B0@@ 100b7450     Exporting:CIFXMotionResourceEncoder.obj
 0003:00001468       ??_R0?AVCIFXMotionResourceEncoder@@@8 100b7468     Exporting:CIFXMotionResourceEncoder.obj
 0003:00001490       ??_R3CIFXMotionResourceEncoder@@8 100b7490     Exporting:CIFXMotionResourceEncoder.obj
 0003:000014a0       ??_R2CIFXMotionResourceEncoder@@8 100b74a0     Exporting:CIFXMotionResourceEncoder.obj
 0003:000014b0       ??_R1A@?0A@A@CIFXMotionResourceEncoder@@8 100b74b0     Exporting:CIFXMotionResourceEncoder.obj
 0003:000014c8       ??_R4CIFXMotionResourceEncoder@@6BIFXUnknown@@@ 100b74c8     Exporting:CIFXMotionResourceEncoder.obj
 0003:000014e0       ??_R4CIFXMotionResourceEncoder@@6BIFXEncoderX@@@ 100b74e0     Exporting:CIFXMotionResourceEncoder.obj
 0003:000014f8       ??_8CIFXMotionResourceEncoder@@7B0@@ 100b74f8     Exporting:CIFXMotionResourceEncoder.obj
 0003:00001504       ??_8CIFXMotionResourceEncoder@@7BIFXEncoderX@@@ 100b7504     Exporting:CIFXMotionResourceEncoder.obj
 0003:00001510       ??_R4CIFXGlyphGeneratorEncoder@@6B0@@ 100b7510     Exporting:CIFXGlyphModifierEncoder.obj
 0003:00001528       ??_R0?AVCIFXGlyphGeneratorEncoder@@@8 100b7528     Exporting:CIFXGlyphModifierEncoder.obj
 0003:00001550       ??_R3CIFXGlyphGeneratorEncoder@@8 100b7550     Exporting:CIFXGlyphModifierEncoder.obj
 0003:00001560       ??_R2CIFXGlyphGeneratorEncoder@@8 100b7560     Exporting:CIFXGlyphModifierEncoder.obj
 0003:00001570       ??_R1A@?0A@A@CIFXGlyphGeneratorEncoder@@8 100b7570     Exporting:CIFXGlyphModifierEncoder.obj
 0003:00001588       ??_R4CIFXGlyphGeneratorEncoder@@6BIFXUnknown@@@ 100b7588     Exporting:CIFXGlyphModifierEncoder.obj
 0003:000015a0       ??_R4CIFXGlyphGeneratorEncoder@@6BIFXEncoderX@@@ 100b75a0     Exporting:CIFXGlyphModifierEncoder.obj
 0003:000015b8       ??_8CIFXGlyphGeneratorEncoder@@7B0@@ 100b75b8     Exporting:CIFXGlyphModifierEncoder.obj
 0003:000015c4       ??_8CIFXGlyphGeneratorEncoder@@7BIFXEncoderX@@@ 100b75c4     Exporting:CIFXGlyphModifierEncoder.obj
 0003:000015d0       ??_R4CIFXShaderLitTextureEncoder@@6B0@@ 100b75d0     Exporting:CIFXShaderLitTextureEncoder.obj
 0003:000015e8       ??_R0?AVCIFXShaderLitTextureEncoder@@@8 100b75e8     Exporting:CIFXShaderLitTextureEncoder.obj
 0003:00001618       ??_R3CIFXShaderLitTextureEncoder@@8 100b7618     Exporting:CIFXShaderLitTextureEncoder.obj
 0003:00001628       ??_R2CIFXShaderLitTextureEncoder@@8 100b7628     Exporting:CIFXShaderLitTextureEncoder.obj
 0003:00001638       ??_R1A@?0A@A@CIFXShaderLitTextureEncoder@@8 100b7638     Exporting:CIFXShaderLitTextureEncoder.obj
 0003:00001650       ??_R4CIFXShaderLitTextureEncoder@@6BIFXUnknown@@@ 100b7650     Exporting:CIFXShaderLitTextureEncoder.obj
 0003:00001668       ??_R4CIFXShaderLitTextureEncoder@@6BIFXEncoderX@@@ 100b7668     Exporting:CIFXShaderLitTextureEncoder.obj
 0003:00001680       ??_8CIFXShaderLitTextureEncoder@@7B0@@ 100b7680     Exporting:CIFXShaderLitTextureEncoder.obj
 0003:0000168c       ??_8CIFXShaderLitTextureEncoder@@7BIFXEncoderX@@@ 100b768c     Exporting:CIFXShaderLitTextureEncoder.obj
 0003:00001698       ??_R4CIFXSubdivisionModifierEncoder@@6B0@@ 100b7698     Exporting:CIFXSubdivisionModifierEncoder.obj
 0003:000016b0       ??_R0?AVCIFXSubdivisionModifierEncoder@@@8 100b76b0     Exporting:CIFXSubdivisionModifierEncoder.obj
 0003:000016e0       ??_R3CIFXSubdivisionModifierEncoder@@8 100b76e0     Exporting:CIFXSubdivisionModifierEncoder.obj
 0003:000016f0       ??_R2CIFXSubdivisionModifierEncoder@@8 100b76f0     Exporting:CIFXSubdivisionModifierEncoder.obj
 0003:00001700       ??_R1A@?0A@A@CIFXSubdivisionModifierEncoder@@8 100b7700     Exporting:CIFXSubdivisionModifierEncoder.obj
 0003:00001718       ??_R4CIFXSubdivisionModifierEncoder@@6BIFXUnknown@@@ 100b7718     Exporting:CIFXSubdivisionModifierEncoder.obj
 0003:00001730       ??_R4CIFXSubdivisionModifierEncoder@@6BIFXEncoderX@@@ 100b7730     Exporting:CIFXSubdivisionModifierEncoder.obj
 0003:00001748       ??_8CIFXSubdivisionModifierEncoder@@7B0@@ 100b7748     Exporting:CIFXSubdivisionModifierEncoder.obj
 0003:00001754       ??_8CIFXSubdivisionModifierEncoder@@7BIFXEncoderX@@@ 100b7754     Exporting:CIFXSubdivisionModifierEncoder.obj
 0003:00001760       ??_R4CIFXShadingModifierEncoder@@6B0@@ 100b7760     Exporting:CIFXShadingModifierEncoder.obj
 0003:00001778       ??_R0?AVCIFXShadingModifierEncoder@@@8 100b7778     Exporting:CIFXShadingModifierEncoder.obj
 0003:000017a8       ??_R3CIFXShadingModifierEncoder@@8 100b77a8     Exporting:CIFXShadingModifierEncoder.obj
 0003:000017b8       ??_R2CIFXShadingModifierEncoder@@8 100b77b8     Exporting:CIFXShadingModifierEncoder.obj
 0003:000017c8       ??_R1A@?0A@A@CIFXShadingModifierEncoder@@8 100b77c8     Exporting:CIFXShadingModifierEncoder.obj
 0003:000017e0       ??_R4CIFXShadingModifierEncoder@@6BIFXUnknown@@@ 100b77e0     Exporting:CIFXShadingModifierEncoder.obj
 0003:000017f8       ??_R4CIFXShadingModifierEncoder@@6BIFXEncoderX@@@ 100b77f8     Exporting:CIFXShadingModifierEncoder.obj
 0003:00001810       ??_8CIFXShadingModifierEncoder@@7B0@@ 100b7810     Exporting:CIFXShadingModifierEncoder.obj
 0003:0000181c       ??_8CIFXShadingModifierEncoder@@7BIFXEncoderX@@@ 100b781c     Exporting:CIFXShadingModifierEncoder.obj
 0003:00001828       ??_R4CIFXGroupNodeEncoder@@6BIFXUnknown@@@ 100b7828     Exporting:CIFXGroupNodeEncoder.obj
 0003:00001840       ??_R0?AVCIFXGroupNodeEncoder@@@8 100b7840     Exporting:CIFXGroupNodeEncoder.obj
 0003:00001868       ??_R3CIFXGroupNodeEncoder@@8 100b7868     Exporting:CIFXGroupNodeEncoder.obj
 0003:00001878       ??_R2CIFXGroupNodeEncoder@@8 100b7878     Exporting:CIFXGroupNodeEncoder.obj
 0003:00001888       ??_R1A@?0A@A@CIFXGroupNodeEncoder@@8 100b7888     Exporting:CIFXGroupNodeEncoder.obj
 0003:000018a0       ??_R1A@BI@7BA@IFXEncoderX@@8 100b78a0     Exporting:CIFXGroupNodeEncoder.obj
 0003:000018b8       ??_R1A@BI@3BA@IFXUnknown@@8 100b78b8     Exporting:CIFXGroupNodeEncoder.obj
 0003:000018d0       ??_R1A@?0A@A@CIFXNodeBaseEncoder@@8 100b78d0     Exporting:CIFXGroupNodeEncoder.obj
 0003:000018e8       ??_R0?AVCIFXNodeBaseEncoder@@@8 100b78e8     Exporting:CIFXGroupNodeEncoder.obj
 0003:00001910       ??_R4CIFXGroupNodeEncoder@@6BIFXEncoderX@@@ 100b7910     Exporting:CIFXGroupNodeEncoder.obj
 0003:00001928       ??_R4CIFXGroupNodeEncoder@@6BCIFXNodeBaseEncoder@@@ 100b7928     Exporting:CIFXGroupNodeEncoder.obj
 0003:00001940       ??_8CIFXGroupNodeEncoder@@7B0@@ 100b7940     Exporting:CIFXGroupNodeEncoder.obj
 0003:0000194c       ??_8CIFXGroupNodeEncoder@@7BIFXEncoderX@@@ 100b794c     Exporting:CIFXGroupNodeEncoder.obj
 0003:00001958       ??_R4CIFXLightNodeEncoder@@6BIFXUnknown@@@ 100b7958     Exporting:CIFXLightNodeEncoder.obj
 0003:00001970       ??_R0?AVCIFXLightNodeEncoder@@@8 100b7970     Exporting:CIFXLightNodeEncoder.obj
 0003:00001998       ??_R3CIFXLightNodeEncoder@@8 100b7998     Exporting:CIFXLightNodeEncoder.obj
 0003:000019a8       ??_R2CIFXLightNodeEncoder@@8 100b79a8     Exporting:CIFXLightNodeEncoder.obj
 0003:000019b8       ??_R1A@?0A@A@CIFXLightNodeEncoder@@8 100b79b8     Exporting:CIFXLightNodeEncoder.obj
 0003:000019d0       ??_R4CIFXLightNodeEncoder@@6BIFXEncoderX@@@ 100b79d0     Exporting:CIFXLightNodeEncoder.obj
 0003:000019e8       ??_R4CIFXLightNodeEncoder@@6BCIFXNodeBaseEncoder@@@ 100b79e8     Exporting:CIFXLightNodeEncoder.obj
 0003:00001a00       ??_8CIFXLightNodeEncoder@@7B0@@ 100b7a00     Exporting:CIFXLightNodeEncoder.obj
 0003:00001a0c       ??_8CIFXLightNodeEncoder@@7BIFXEncoderX@@@ 100b7a0c     Exporting:CIFXLightNodeEncoder.obj
 0003:00001a18       ??_R4CIFXLightResourceEncoder@@6BIFXUnknown@@@ 100b7a18     Exporting:CIFXLightResourceEncoder.obj
 0003:00001a30       ??_R0?AVCIFXLightResourceEncoder@@@8 100b7a30     Exporting:CIFXLightResourceEncoder.obj
 0003:00001a58       ??_R3CIFXLightResourceEncoder@@8 100b7a58     Exporting:CIFXLightResourceEncoder.obj
 0003:00001a68       ??_R2CIFXLightResourceEncoder@@8 100b7a68     Exporting:CIFXLightResourceEncoder.obj
 0003:00001a78       ??_R1A@?0A@A@CIFXLightResourceEncoder@@8 100b7a78     Exporting:CIFXLightResourceEncoder.obj
 0003:00001a90       ??_R4CIFXLightResourceEncoder@@6BIFXEncoderX@@@ 100b7a90     Exporting:CIFXLightResourceEncoder.obj
 0003:00001aa8       ??_R4CIFXLightResourceEncoder@@6BCIFXNodeBaseEncoder@@@ 100b7aa8     Exporting:CIFXLightResourceEncoder.obj
 0003:00001ac0       ??_8CIFXLightResourceEncoder@@7B0@@ 100b7ac0     Exporting:CIFXLightResourceEncoder.obj
 0003:00001acc       ??_8CIFXLightResourceEncoder@@7BIFXEncoderX@@@ 100b7acc     Exporting:CIFXLightResourceEncoder.obj
 0003:00001ad8       ??_R4CIFXViewResourceEncoder@@6BIFXUnknown@@@ 100b7ad8     Exporting:CIFXViewResourceEncoder.obj
 0003:00001af0       ??_R0?AVCIFXViewResourceEncoder@@@8 100b7af0     Exporting:CIFXViewResourceEncoder.obj
 0003:00001b18       ??_R3CIFXViewResourceEncoder@@8 100b7b18     Exporting:CIFXViewResourceEncoder.obj
 0003:00001b28       ??_R2CIFXViewResourceEncoder@@8 100b7b28     Exporting:CIFXViewResourceEncoder.obj
 0003:00001b38       ??_R1A@?0A@A@CIFXViewResourceEncoder@@8 100b7b38     Exporting:CIFXViewResourceEncoder.obj
 0003:00001b50       ??_R4CIFXViewResourceEncoder@@6BIFXEncoderX@@@ 100b7b50     Exporting:CIFXViewResourceEncoder.obj
 0003:00001b68       ??_R4CIFXViewResourceEncoder@@6BCIFXNodeBaseEncoder@@@ 100b7b68     Exporting:CIFXViewResourceEncoder.obj
 0003:00001b80       ??_8CIFXViewResourceEncoder@@7B0@@ 100b7b80     Exporting:CIFXViewResourceEncoder.obj
 0003:00001b8c       ??_8CIFXViewResourceEncoder@@7BIFXEncoderX@@@ 100b7b8c     Exporting:CIFXViewResourceEncoder.obj
 0003:00001b98       ??_R4CIFXModelNodeEncoder@@6BIFXUnknown@@@ 100b7b98     Exporting:CIFXModelNodeEncoder.obj
 0003:00001bb0       ??_R0?AVCIFXModelNodeEncoder@@@8 100b7bb0     Exporting:CIFXModelNodeEncoder.obj
 0003:00001bd8       ??_R3CIFXModelNodeEncoder@@8 100b7bd8     Exporting:CIFXModelNodeEncoder.obj
 0003:00001be8       ??_R2CIFXModelNodeEncoder@@8 100b7be8     Exporting:CIFXModelNodeEncoder.obj
 0003:00001bf8       ??_R1A@?0A@A@CIFXModelNodeEncoder@@8 100b7bf8     Exporting:CIFXModelNodeEncoder.obj
 0003:00001c10       ??_R4CIFXModelNodeEncoder@@6BIFXEncoderX@@@ 100b7c10     Exporting:CIFXModelNodeEncoder.obj
 0003:00001c28       ??_R4CIFXModelNodeEncoder@@6BCIFXNodeBaseEncoder@@@ 100b7c28     Exporting:CIFXModelNodeEncoder.obj
 0003:00001c40       ??_8CIFXModelNodeEncoder@@7B0@@ 100b7c40     Exporting:CIFXModelNodeEncoder.obj
 0003:00001c4c       ??_8CIFXModelNodeEncoder@@7BIFXEncoderX@@@ 100b7c4c     Exporting:CIFXModelNodeEncoder.obj
 0003:00001c58       ??_R4IFXViewLayer@@6B@     100b7c58     Exporting:CIFXViewNodeEncoder.obj
 0003:00001c70       ??_R0?AVIFXViewLayer@@@8   100b7c70     Exporting:CIFXViewNodeEncoder.obj
 0003:00001c90       ??_R3IFXViewLayer@@8       100b7c90     Exporting:CIFXViewNodeEncoder.obj
 0003:00001ca0       ??_R2IFXViewLayer@@8       100b7ca0     Exporting:CIFXViewNodeEncoder.obj
 0003:00001ca8       ??_R1A@?0A@A@IFXViewLayer@@8 100b7ca8     Exporting:CIFXViewNodeEncoder.obj
 0003:00001cc0       ??_R4CIFXViewNodeEncoder@@6BIFXUnknown@@@ 100b7cc0     Exporting:CIFXViewNodeEncoder.obj
 0003:00001cd8       ??_R0?AVCIFXViewNodeEncoder@@@8 100b7cd8     Exporting:CIFXViewNodeEncoder.obj
 0003:00001d00       ??_R3CIFXViewNodeEncoder@@8 100b7d00     Exporting:CIFXViewNodeEncoder.obj
 0003:00001d10       ??_R2CIFXViewNodeEncoder@@8 100b7d10     Exporting:CIFXViewNodeEncoder.obj
 0003:00001d20       ??_R1A@?0A@A@CIFXViewNodeEncoder@@8 100b7d20     Exporting:CIFXViewNodeEncoder.obj
 0003:00001d38       ??_R4CIFXViewNodeEncoder@@6BIFXEncoderX@@@ 100b7d38     Exporting:CIFXViewNodeEncoder.obj
 0003:00001d50       ??_R4CIFXViewNodeEncoder@@6BCIFXNodeBaseEncoder@@@ 100b7d50     Exporting:CIFXViewNodeEncoder.obj
 0003:00001d68       ??_8CIFXViewNodeEncoder@@7B0@@ 100b7d68     Exporting:CIFXViewNodeEncoder.obj
 0003:00001d74       ??_8CIFXViewNodeEncoder@@7BIFXEncoderX@@@ 100b7d74     Exporting:CIFXViewNodeEncoder.obj
 0003:00001d80       ??_R4IFXCoreArray@@6B@     100b7d80     Exporting:CIFXFileReferenceEncoder.obj
 0003:00001d98       ??_R0?AVIFXCoreArray@@@8   100b7d98     Exporting:CIFXFileReferenceEncoder.obj
 0003:00001db8       ??_R3IFXCoreArray@@8       100b7db8     Exporting:CIFXFileReferenceEncoder.obj
 0003:00001dc8       ??_R2IFXCoreArray@@8       100b7dc8     Exporting:CIFXFileReferenceEncoder.obj
 0003:00001dd0       ??_R1A@?0A@A@IFXCoreArray@@8 100b7dd0     Exporting:CIFXFileReferenceEncoder.obj
 0003:00001de8       ??_R4CIFXFileReferenceEncoder@@6B0@@ 100b7de8     Exporting:CIFXFileReferenceEncoder.obj
 0003:00001e00       ??_R0?AVCIFXFileReferenceEncoder@@@8 100b7e00     Exporting:CIFXFileReferenceEncoder.obj
 0003:00001e28       ??_R3CIFXFileReferenceEncoder@@8 100b7e28     Exporting:CIFXFileReferenceEncoder.obj
 0003:00001e38       ??_R2CIFXFileReferenceEncoder@@8 100b7e38     Exporting:CIFXFileReferenceEncoder.obj
 0003:00001e48       ??_R1A@?0A@A@CIFXFileReferenceEncoder@@8 100b7e48     Exporting:CIFXFileReferenceEncoder.obj
 0003:00001e60       ??_R4CIFXFileReferenceEncoder@@6BIFXUnknown@@@ 100b7e60     Exporting:CIFXFileReferenceEncoder.obj
 0003:00001e78       ??_R4CIFXFileReferenceEncoder@@6BIFXEncoderX@@@ 100b7e78     Exporting:CIFXFileReferenceEncoder.obj
 0003:00001e90       ??_8CIFXFileReferenceEncoder@@7B0@@ 100b7e90     Exporting:CIFXFileReferenceEncoder.obj
 0003:00001e9c       ??_8CIFXFileReferenceEncoder@@7BIFXEncoderX@@@ 100b7e9c     Exporting:CIFXFileReferenceEncoder.obj
 0003:00001ea8       ??_R4?$IFXArray@VIFXString@@@@6B@ 100b7ea8     Exporting:CIFXFileReferenceEncoder.obj
 0003:00001ec0       ??_R0?AV?$IFXArray@VIFXString@@@@@8 100b7ec0     Exporting:CIFXFileReferenceEncoder.obj
 0003:00001ee8       ??_R3?$IFXArray@VIFXString@@@@8 100b7ee8     Exporting:CIFXFileReferenceEncoder.obj
 0003:00001ef8       ??_R2?$IFXArray@VIFXString@@@@8 100b7ef8     Exporting:CIFXFileReferenceEncoder.obj
 0003:00001f00       ??_R1A@?0A@A@?$IFXArray@VIFXString@@@@8 100b7f00     Exporting:CIFXFileReferenceEncoder.obj
 0003:00001f18       ??_R4?$IFXArray@UIFXObjectFilter@@@@6B@ 100b7f18     Exporting:CIFXFileReferenceEncoder.obj
 0003:00001f30       ??_R0?AV?$IFXArray@UIFXObjectFilter@@@@@8 100b7f30     Exporting:CIFXFileReferenceEncoder.obj
 0003:00001f60       ??_R3?$IFXArray@UIFXObjectFilter@@@@8 100b7f60     Exporting:CIFXFileReferenceEncoder.obj
 0003:00001f70       ??_R2?$IFXArray@UIFXObjectFilter@@@@8 100b7f70     Exporting:CIFXFileReferenceEncoder.obj
 0003:00001f78       ??_R1A@?0A@A@?$IFXArray@UIFXObjectFilter@@@@8 100b7f78     Exporting:CIFXFileReferenceEncoder.obj
 0003:00001f90       ??_R4IFXDataBlockQueueX@@6B@ 100b7f90     Exporting:CIFXBlockPriorityQueueX.obj
 0003:00001fa8       ??_R0?AVIFXDataBlockQueueX@@@8 100b7fa8     Exporting:CIFXBlockPriorityQueueX.obj
 0003:00001fd0       ??_R3IFXDataBlockQueueX@@8 100b7fd0     Exporting:CIFXBlockPriorityQueueX.obj
 0003:00001fe0       ??_R2IFXDataBlockQueueX@@8 100b7fe0     Exporting:CIFXBlockPriorityQueueX.obj
 0003:00001fe8       ??_R1A@?0A@A@IFXDataBlockQueueX@@8 100b7fe8     Exporting:CIFXBlockPriorityQueueX.obj
 0003:00002000       ??_R4CIFXBlockPriorityQueueX@@6B@ 100b8000     Exporting:CIFXBlockPriorityQueueX.obj
 0003:00002018       ??_R0?AVCIFXBlockPriorityQueueX@@@8 100b8018     Exporting:CIFXBlockPriorityQueueX.obj
 0003:00002040       ??_R3CIFXBlockPriorityQueueX@@8 100b8040     Exporting:CIFXBlockPriorityQueueX.obj
 0003:00002050       ??_R2CIFXBlockPriorityQueueX@@8 100b8050     Exporting:CIFXBlockPriorityQueueX.obj
 0003:00002060       ??_R1A@?0A@A@CIFXBlockPriorityQueueX@@8 100b8060     Exporting:CIFXBlockPriorityQueueX.obj
 0003:00002078       ??_R4IFXBlockWriterX@@6B@  100b8078     Exporting:CIFXBlockWriterX.obj
 0003:00002090       ??_R0?AVIFXBlockWriterX@@@8 100b8090     Exporting:CIFXBlockWriterX.obj
 0003:000020b0       ??_R3IFXBlockWriterX@@8    100b80b0     Exporting:CIFXBlockWriterX.obj
 0003:000020c0       ??_R2IFXBlockWriterX@@8    100b80c0     Exporting:CIFXBlockWriterX.obj
 0003:000020c8       ??_R1A@?0A@A@IFXBlockWriterX@@8 100b80c8     Exporting:CIFXBlockWriterX.obj
 0003:000020e0       ??_R4CIFXBlockWriterX@@6B@ 100b80e0     Exporting:CIFXBlockWriterX.obj
 0003:000020f8       ??_R0?AVCIFXBlockWriterX@@@8 100b80f8     Exporting:CIFXBlockWriterX.obj
 0003:00002118       ??_R3CIFXBlockWriterX@@8   100b8118     Exporting:CIFXBlockWriterX.obj
 0003:00002128       ??_R2CIFXBlockWriterX@@8   100b8128     Exporting:CIFXBlockWriterX.obj
 0003:00002138       ??_R1A@?0A@A@CIFXBlockWriterX@@8 100b8138     Exporting:CIFXBlockWriterX.obj
 0003:00002150       ??_R4IFXWriteManager@@6B@  100b8150     Exporting:CIFXWriteManager.obj
 0003:00002168       ??_R0?AVIFXWriteManager@@@8 100b8168     Exporting:CIFXWriteManager.obj
 0003:00002188       ??_R3IFXWriteManager@@8    100b8188     Exporting:CIFXWriteManager.obj
 0003:00002198       ??_R2IFXWriteManager@@8    100b8198     Exporting:CIFXWriteManager.obj
 0003:000021a0       ??_R1A@?0A@A@IFXWriteManager@@8 100b81a0     Exporting:CIFXWriteManager.obj
 0003:000021b8       ??_R4CIFXWriteManager@@6B@ 100b81b8     Exporting:CIFXWriteManager.obj
 0003:000021d0       ??_R0?AVCIFXWriteManager@@@8 100b81d0     Exporting:CIFXWriteManager.obj
 0003:000021f0       ??_R3CIFXWriteManager@@8   100b81f0     Exporting:CIFXWriteManager.obj
 0003:00002200       ??_R2CIFXWriteManager@@8   100b8200     Exporting:CIFXWriteManager.obj
 0003:00002210       ??_R1A@?0A@A@CIFXWriteManager@@8 100b8210     Exporting:CIFXWriteManager.obj
 0003:00002228       ??_R4?$IFXArray@UIFXExtBlocktype@CIFXWriteManager@@@@6B@ 100b8228     Exporting:CIFXWriteManager.obj
 0003:00002240       ??_R0?AV?$IFXArray@UIFXExtBlocktype@CIFXWriteManager@@@@@8 100b8240     Exporting:CIFXWriteManager.obj
 0003:00002280       ??_R3?$IFXArray@UIFXExtBlocktype@CIFXWriteManager@@@@8 100b8280     Exporting:CIFXWriteManager.obj
 0003:00002290       ??_R2?$IFXArray@UIFXExtBlocktype@CIFXWriteManager@@@@8 100b8290     Exporting:CIFXWriteManager.obj
 0003:00002298       ??_R1A@?0A@A@?$IFXArray@UIFXExtBlocktype@CIFXWriteManager@@@@8 100b8298     Exporting:CIFXWriteManager.obj
 0003:000022b0       ??_R4IFXProgressCallback@@6B@ 100b82b0     Exporting:CIFXAuthorGeomCompiler.obj
 0003:000022c8       ??_R0?AVIFXProgressCallback@@@8 100b82c8     Exporting:CIFXAuthorGeomCompiler.obj
 0003:000022f0       ??_R3IFXProgressCallback@@8 100b82f0     Exporting:CIFXAuthorGeomCompiler.obj
 0003:00002300       ??_R2IFXProgressCallback@@8 100b8300     Exporting:CIFXAuthorGeomCompiler.obj
 0003:00002308       ??_R1A@?0A@A@IFXProgressCallback@@8 100b8308     Exporting:CIFXAuthorGeomCompiler.obj
 0003:00002320       ??_R4CIFXAuthorGeomCompilerProgress@@6B@ 100b8320     Exporting:CIFXAuthorGeomCompiler.obj
 0003:00002338       ??_R0?AVCIFXAuthorGeomCompilerProgress@@@8 100b8338     Exporting:CIFXAuthorGeomCompiler.obj
 0003:00002368       ??_R3CIFXAuthorGeomCompilerProgress@@8 100b8368     Exporting:CIFXAuthorGeomCompiler.obj
 0003:00002378       ??_R2CIFXAuthorGeomCompilerProgress@@8 100b8378     Exporting:CIFXAuthorGeomCompiler.obj
 0003:00002380       ??_R1A@?0A@A@CIFXAuthorGeomCompilerProgress@@8 100b8380     Exporting:CIFXAuthorGeomCompiler.obj
 0003:00002398       ??_R4IFXAuthorGeomCompiler@@6B@ 100b8398     Exporting:CIFXAuthorGeomCompiler.obj
 0003:000023b0       ??_R0?AVIFXAuthorGeomCompiler@@@8 100b83b0     Exporting:CIFXAuthorGeomCompiler.obj
 0003:000023d8       ??_R3IFXAuthorGeomCompiler@@8 100b83d8     Exporting:CIFXAuthorGeomCompiler.obj
 0003:000023e8       ??_R2IFXAuthorGeomCompiler@@8 100b83e8     Exporting:CIFXAuthorGeomCompiler.obj
 0003:000023f0       ??_R1A@?0A@A@IFXAuthorGeomCompiler@@8 100b83f0     Exporting:CIFXAuthorGeomCompiler.obj
 0003:00002408       ??_R4CIFXAuthorGeomCompiler@@6B@ 100b8408     Exporting:CIFXAuthorGeomCompiler.obj
 0003:00002420       ??_R0?AVCIFXAuthorGeomCompiler@@@8 100b8420     Exporting:CIFXAuthorGeomCompiler.obj
 0003:00002448       ??_R3CIFXAuthorGeomCompiler@@8 100b8448     Exporting:CIFXAuthorGeomCompiler.obj
 0003:00002458       ??_R2CIFXAuthorGeomCompiler@@8 100b8458     Exporting:CIFXAuthorGeomCompiler.obj
 0003:00002468       ??_R1A@?0A@A@CIFXAuthorGeomCompiler@@8 100b8468     Exporting:CIFXAuthorGeomCompiler.obj
 0003:00002480       ??_R4IFXWriteBuffer@@6B0@@ 100b8480     Exporting:CIFXStdioWriteBufferX.obj
 0003:00002498       ??_R0?AVIFXWriteBuffer@@@8 100b8498     Exporting:CIFXStdioWriteBufferX.obj
 0003:000024b8       ??_R3IFXWriteBuffer@@8     100b84b8     Exporting:CIFXStdioWriteBufferX.obj
 0003:000024c8       ??_R2IFXWriteBuffer@@8     100b84c8     Exporting:CIFXStdioWriteBufferX.obj
 0003:000024d0       ??_R1A@?0A@A@IFXWriteBuffer@@8 100b84d0     Exporting:CIFXStdioWriteBufferX.obj
 0003:000024e8       ??_R4IFXWriteBuffer@@6BIFXUnknown@@@ 100b84e8     Exporting:CIFXStdioWriteBufferX.obj
 0003:00002500       ??_8IFXWriteBuffer@@7B@    100b8500     Exporting:CIFXStdioWriteBufferX.obj
 0003:00002508       ??_R4IFXWriteBufferX@@6B0@@ 100b8508     Exporting:CIFXStdioWriteBufferX.obj
 0003:00002520       ??_R0?AVIFXWriteBufferX@@@8 100b8520     Exporting:CIFXStdioWriteBufferX.obj
 0003:00002540       ??_R3IFXWriteBufferX@@8    100b8540     Exporting:CIFXStdioWriteBufferX.obj
 0003:00002550       ??_R2IFXWriteBufferX@@8    100b8550     Exporting:CIFXStdioWriteBufferX.obj
 0003:00002558       ??_R1A@?0A@A@IFXWriteBufferX@@8 100b8558     Exporting:CIFXStdioWriteBufferX.obj
 0003:00002570       ??_R4IFXWriteBufferX@@6BIFXUnknown@@@ 100b8570     Exporting:CIFXStdioWriteBufferX.obj
 0003:00002588       ??_8IFXWriteBufferX@@7B@   100b8588     Exporting:CIFXStdioWriteBufferX.obj
 0003:00002590       ??_R4IFXStdio@@6B0@@       100b8590     Exporting:CIFXStdioWriteBufferX.obj
 0003:000025a8       ??_R0?AVIFXStdio@@@8       100b85a8     Exporting:CIFXStdioWriteBufferX.obj
 0003:000025c0       ??_R3IFXStdio@@8           100b85c0     Exporting:CIFXStdioWriteBufferX.obj
 0003:000025d0       ??_R2IFXStdio@@8           100b85d0     Exporting:CIFXStdioWriteBufferX.obj
 0003:000025d8       ??_R1A@?0A@A@IFXStdio@@8   100b85d8     Exporting:CIFXStdioWriteBufferX.obj
 0003:000025f0       ??_R4IFXStdio@@6BIFXUnknown@@@ 100b85f0     Exporting:CIFXStdioWriteBufferX.obj
 0003:00002608       ??_8IFXStdio@@7B@          100b8608     Exporting:CIFXStdioWriteBufferX.obj
 0003:00002610       ??_R4CIFXStdioWriteBufferX@@6BIFXUnknown@@@ 100b8610     Exporting:CIFXStdioWriteBufferX.obj
 0003:00002628       ??_R0?AVCIFXStdioWriteBufferX@@@8 100b8628     Exporting:CIFXStdioWriteBufferX.obj
 0003:00002650       ??_R3CIFXStdioWriteBufferX@@8 100b8650     Exporting:CIFXStdioWriteBufferX.obj
 0003:00002660       ??_R2CIFXStdioWriteBufferX@@8 100b8660     Exporting:CIFXStdioWriteBufferX.obj
 0003:00002680       ??_R1A@?0A@A@CIFXStdioWriteBufferX@@8 100b8680     Exporting:CIFXStdioWriteBufferX.obj
 0003:00002698       ??_R17?0A@A@IFXWriteBufferX@@8 100b8698     Exporting:CIFXStdioWriteBufferX.obj
 0003:000026b0       ??_R1BA@?0A@A@IFXStdio@@8  100b86b0     Exporting:CIFXStdioWriteBufferX.obj
 0003:000026c8       ??_R4CIFXStdioWriteBufferX@@6BIFXWriteBuffer@@@ 100b86c8     Exporting:CIFXStdioWriteBufferX.obj
 0003:000026e0       ??_R4CIFXStdioWriteBufferX@@6BIFXWriteBufferX@@@ 100b86e0     Exporting:CIFXStdioWriteBufferX.obj
 0003:000026f8       ??_R4CIFXStdioWriteBufferX@@6BIFXStdio@@@ 100b86f8     Exporting:CIFXStdioWriteBufferX.obj
 0003:00002710       ??_8CIFXStdioWriteBufferX@@7BIFXWriteBuffer@@@ 100b8710     Exporting:CIFXStdioWriteBufferX.obj
 0003:00002718       ??_8CIFXStdioWriteBufferX@@7BIFXWriteBufferX@@@ 100b8718     Exporting:CIFXStdioWriteBufferX.obj
 0003:00002720       ??_8CIFXStdioWriteBufferX@@7BIFXStdio@@@ 100b8720     Exporting:CIFXStdioWriteBufferX.obj
 0003:00002728       ??_R4CIFXPointSetEncoder@@6B0@@ 100b8728     Exporting:CIFXPointSetEncoder.obj
 0003:00002740       ??_R0?AVCIFXPointSetEncoder@@@8 100b8740     Exporting:CIFXPointSetEncoder.obj
 0003:00002768       ??_R3CIFXPointSetEncoder@@8 100b8768     Exporting:CIFXPointSetEncoder.obj
 0003:00002778       ??_R2CIFXPointSetEncoder@@8 100b8778     Exporting:CIFXPointSetEncoder.obj
 0003:00002788       ??_R1A@?0A@A@CIFXPointSetEncoder@@8 100b8788     Exporting:CIFXPointSetEncoder.obj
 0003:000027a0       ??_R4CIFXPointSetEncoder@@6BIFXUnknown@@@ 100b87a0     Exporting:CIFXPointSetEncoder.obj
 0003:000027b8       ??_R4CIFXPointSetEncoder@@6BIFXEncoderX@@@ 100b87b8     Exporting:CIFXPointSetEncoder.obj
 0003:000027d0       ??_8CIFXPointSetEncoder@@7B0@@ 100b87d0     Exporting:CIFXPointSetEncoder.obj
 0003:000027dc       ??_8CIFXPointSetEncoder@@7BIFXEncoderX@@@ 100b87dc     Exporting:CIFXPointSetEncoder.obj
 0003:000027e8       ??_R4?$IFXArray@I@@6B@     100b87e8     Exporting:CIFXPointSetEncoder.obj
 0003:00002800       ??_R0?AV?$IFXArray@I@@@8   100b8800     Exporting:CIFXPointSetEncoder.obj
 0003:00002820       ??_R3?$IFXArray@I@@8       100b8820     Exporting:CIFXPointSetEncoder.obj
 0003:00002830       ??_R2?$IFXArray@I@@8       100b8830     Exporting:CIFXPointSetEncoder.obj
 0003:00002838       ??_R1A@?0A@A@?$IFXArray@I@@8 100b8838     Exporting:CIFXPointSetEncoder.obj
 0003:00002850       ??_R4CIFXLineSetEncoder@@6B0@@ 100b8850     Exporting:CIFXLineSetEncoder.obj
 0003:00002868       ??_R0?AVCIFXLineSetEncoder@@@8 100b8868     Exporting:CIFXLineSetEncoder.obj
 0003:00002890       ??_R3CIFXLineSetEncoder@@8 100b8890     Exporting:CIFXLineSetEncoder.obj
 0003:000028a0       ??_R2CIFXLineSetEncoder@@8 100b88a0     Exporting:CIFXLineSetEncoder.obj
 0003:000028b0       ??_R1A@?0A@A@CIFXLineSetEncoder@@8 100b88b0     Exporting:CIFXLineSetEncoder.obj
 0003:000028c8       ??_R4CIFXLineSetEncoder@@6BIFXUnknown@@@ 100b88c8     Exporting:CIFXLineSetEncoder.obj
 0003:000028e0       ??_R4CIFXLineSetEncoder@@6BIFXEncoderX@@@ 100b88e0     Exporting:CIFXLineSetEncoder.obj
 0003:000028f8       ??_8CIFXLineSetEncoder@@7B0@@ 100b88f8     Exporting:CIFXLineSetEncoder.obj
 0003:00002904       ??_8CIFXLineSetEncoder@@7BIFXEncoderX@@@ 100b8904     Exporting:CIFXLineSetEncoder.obj
 0003:00002910       ??_R4CIFXBoneWeightsModifierEncoder@@6B0@@ 100b8910     Exporting:CIFXBoneWeightsModifierEncoder.obj
 0003:00002928       ??_R0?AVCIFXBoneWeightsModifierEncoder@@@8 100b8928     Exporting:CIFXBoneWeightsModifierEncoder.obj
 0003:00002958       ??_R3CIFXBoneWeightsModifierEncoder@@8 100b8958     Exporting:CIFXBoneWeightsModifierEncoder.obj
 0003:00002968       ??_R2CIFXBoneWeightsModifierEncoder@@8 100b8968     Exporting:CIFXBoneWeightsModifierEncoder.obj
 0003:00002978       ??_R1A@?0A@A@CIFXBoneWeightsModifierEncoder@@8 100b8978     Exporting:CIFXBoneWeightsModifierEncoder.obj
 0003:00002990       ??_R4CIFXBoneWeightsModifierEncoder@@6BIFXUnknown@@@ 100b8990     Exporting:CIFXBoneWeightsModifierEncoder.obj
 0003:000029a8       ??_R4CIFXBoneWeightsModifierEncoder@@6BIFXEncoderX@@@ 100b89a8     Exporting:CIFXBoneWeightsModifierEncoder.obj
 0003:000029c0       ??_8CIFXBoneWeightsModifierEncoder@@7B0@@ 100b89c0     Exporting:CIFXBoneWeightsModifierEncoder.obj
 0003:000029cc       ??_8CIFXBoneWeightsModifierEncoder@@7BIFXEncoderX@@@ 100b89cc     Exporting:CIFXBoneWeightsModifierEncoder.obj
 0003:000029d8       ??_R4CIFXCLODModifierEncoder@@6B0@@ 100b89d8     Exporting:CIFXCLODModifierEncoder.obj
 0003:000029f0       ??_R0?AVCIFXCLODModifierEncoder@@@8 100b89f0     Exporting:CIFXCLODModifierEncoder.obj
 0003:00002a18       ??_R3CIFXCLODModifierEncoder@@8 100b8a18     Exporting:CIFXCLODModifierEncoder.obj
 0003:00002a28       ??_R2CIFXCLODModifierEncoder@@8 100b8a28     Exporting:CIFXCLODModifierEncoder.obj
 0003:00002a38       ??_R1A@?0A@A@CIFXCLODModifierEncoder@@8 100b8a38     Exporting:CIFXCLODModifierEncoder.obj
 0003:00002a50       ??_R4CIFXCLODModifierEncoder@@6BIFXUnknown@@@ 100b8a50     Exporting:CIFXCLODModifierEncoder.obj
 0003:00002a68       ??_R4CIFXCLODModifierEncoder@@6BIFXEncoderX@@@ 100b8a68     Exporting:CIFXCLODModifierEncoder.obj
 0003:00002a80       ??_8CIFXCLODModifierEncoder@@7B0@@ 100b8a80     Exporting:CIFXCLODModifierEncoder.obj
 0003:00002a8c       ??_8CIFXCLODModifierEncoder@@7BIFXEncoderX@@@ 100b8a8c     Exporting:CIFXCLODModifierEncoder.obj
 0003:00002a98       ??_R4CIFXDummyModifierEncoder@@6B0@@ 100b8a98     Exporting:CIFXDummyModifierEncoder.obj
 0003:00002ab0       ??_R0?AVCIFXDummyModifierEncoder@@@8 100b8ab0     Exporting:CIFXDummyModifierEncoder.obj
 0003:00002ad8       ??_R3CIFXDummyModifierEncoder@@8 100b8ad8     Exporting:CIFXDummyModifierEncoder.obj
 0003:00002ae8       ??_R2CIFXDummyModifierEncoder@@8 100b8ae8     Exporting:CIFXDummyModifierEncoder.obj
 0003:00002af8       ??_R1A@?0A@A@CIFXDummyModifierEncoder@@8 100b8af8     Exporting:CIFXDummyModifierEncoder.obj
 0003:00002b10       ??_R4CIFXDummyModifierEncoder@@6BIFXUnknown@@@ 100b8b10     Exporting:CIFXDummyModifierEncoder.obj
 0003:00002b28       ??_R4CIFXDummyModifierEncoder@@6BIFXEncoderX@@@ 100b8b28     Exporting:CIFXDummyModifierEncoder.obj
 0003:00002b40       ??_8CIFXDummyModifierEncoder@@7B0@@ 100b8b40     Exporting:CIFXDummyModifierEncoder.obj
 0003:00002b4c       ??_8CIFXDummyModifierEncoder@@7BIFXEncoderX@@@ 100b8b4c     Exporting:CIFXDummyModifierEncoder.obj
 0003:00002b58       ??_R4IFXString@@6B@        100b8b58     Exporting:IFXString.obj
 0003:00002b70       ??_R0?AVIFXString@@@8      100b8b70     Exporting:IFXString.obj
 0003:00002b88       ??_R3IFXString@@8          100b8b88     Exporting:IFXString.obj
 0003:00002b98       ??_R2IFXString@@8          100b8b98     Exporting:IFXString.obj
 0003:00002ba0       ??_R1A@?0A@A@IFXString@@8  100b8ba0     Exporting:IFXString.obj
 0003:00002bb8       ?_IFXMatrix4x4_Multiply@@3P6AXPAMPBM1@ZA 100b8bb8     Exporting:IFXMatrix4x4.obj
 0003:00002bbc       ?_IFXMatrix4x4_MakeIdentity@@3P6AXPAM@ZA 100b8bbc     Exporting:IFXMatrix4x4.obj
 0003:00002bc0       ?_IFXMatrix4x4_Scale@@3P6AXPAMPBM@ZA 100b8bc0     Exporting:IFXMatrix4x4.obj
 0003:00002bc4       ?_IFXMatrix4x4_Transpose@@3P6AXPAM@ZA 100b8bc4     Exporting:IFXMatrix4x4.obj
 0003:00002bc8       ?_IFXMatrix4x4_CalcDeterminant3x3@@3P6AMPBM@ZA 100b8bc8     Exporting:IFXMatrix4x4.obj
 0003:00002bcc       ?_IFXMatrix4x4_CalcDeterminant@@3P6AMPBM@ZA 100b8bcc     Exporting:IFXMatrix4x4.obj
 0003:00002bd0       ?_IFXMatrix4x4_Invert3x4@@3P6AHPAMPBM@ZA 100b8bd0     Exporting:IFXMatrix4x4.obj
 0003:00002bd4       ?_IFXMatrix4x4_Invert@@3P6AHPAMPBM@ZA 100b8bd4     Exporting:IFXMatrix4x4.obj
 0003:00002bd8       ?_IFXMatrix4x4_Multiply3x4@@3P6AXPAMPBM1@ZA 100b8bd8     Exporting:IFXMatrix4x4.obj
 0003:00002be0       ??_R4CIFXNodeBaseEncoder@@6B@ 100b8be0     Exporting:CIFXNodeBaseEncoder.obj
 0003:00002bf8       ??_R3CIFXNodeBaseEncoder@@8 100b8bf8     Exporting:CIFXNodeBaseEncoder.obj
 0003:00002c08       ??_R2CIFXNodeBaseEncoder@@8 100b8c08     Exporting:CIFXNodeBaseEncoder.obj
 0003:00002c10       __LIB_VERSIONIMF           100b8c10     libmmt:libm_error.omu
 0003:00002c14       _pmatherrf                 100b8c14     libmmt:libm_error.omu
 0003:00002c18       _pmatherr                  100b8c18     libmmt:libm_error.omu
 0003:00002c1c       _pmatherrl                 100b8c1c     libmmt:libm_error.omu
 0003:00002c20       __aexit_rtn                100b8c20     LIBCMTD:dllcrt0.obj
 0003:00002c24       __fltused                  100b8c24     LIBCMTD:fpinit.obj
 0003:00002c28       __ldused                   100b8c28     LIBCMTD:fpinit.obj
 0003:00002c2c       __FPinit                   100b8c2c     LIBCMTD:fpinit.obj
 0003:00002c30       __FPmtinit                 100b8c30     LIBCMTD:fpinit.obj
 0003:00002c34       __FPmtterm                 100b8c34     LIBCMTD:fpinit.obj
 0003:00002c38       ?__pMyUnhandledExceptionFilter@@3PAXA 100b8c38     LIBCMTD:throw.obj
 0003:00002c3c       __NLG_Destination          100b8c3c     LIBCMTD:exsup.obj
 0003:00002c4c       ??_R0?AVtype_info@@@8      100b8c4c     LIBCMTD:typinfo.obj
 0003:00002c70       __iob                      100b8c70     LIBCMTD:_file.obj
 0003:00003058       ___tlsindex                100b9058     LIBCMTD:tidtable.obj
 0003:0000305c       __crtDbgFlag               100b905c     LIBCMTD:dbgheap.obj
 0003:00003064       __crtBreakAlloc            100b9064     LIBCMTD:dbgheap.obj
 0003:00003080       ___badioinfo               100b9080     LIBCMTD:ioinit.obj
 0003:000030a4       __amblksiz                 100b90a4     LIBCMTD:heapinit.obj
 0003:000030a8       __XcptActTab               100b90a8     LIBCMTD:winxfltr.obj
 0003:00003120       __First_FPE_Indx           100b9120     LIBCMTD:winxfltr.obj
 0003:00003124       __Num_FPE                  100b9124     LIBCMTD:winxfltr.obj
 0003:00003128       __XcptActTabSize           100b9128     LIBCMTD:winxfltr.obj
 0003:0000312c       __XcptActTabCount          100b912c     LIBCMTD:winxfltr.obj
 0003:000031c8       __cfltcvt_tab              100b91c8     LIBCMTD:cmiscdat.obj
 0003:000031f0       ___security_cookie         100b91f0     LIBCMTD:seccook.obj
 0003:000031f4       ?__pInconsistency@@3P6AXXZA 100b91f4     LIBCMTD:hooks.obj
 0003:00003320       __crtAssertBusy            100b9320     LIBCMTD:dbgrpt.obj
 0003:00003324       __CrtDbgMode               100b9324     LIBCMTD:dbgrpt.obj
 0003:00003330       __CrtDbgFile               100b9330     LIBCMTD:dbgrpt.obj
 0003:00003350       ___initiallocinfo          100b9350     LIBCMTD:setlocal.obj
 0003:000033a4       ___ptlocinfo               100b93a4     LIBCMTD:setlocal.obj
 0003:000034e0       ___lc_category             100b94e0     LIBCMTD:setlocal.obj
 0003:00003528       __pctype                   100b9528     LIBCMTD:ctype.obj
 0003:0000352c       __pwctype                  100b952c     LIBCMTD:ctype.obj
 0003:00003628       __pfnAllocHook             100b9628     LIBCMTD:dbghook.obj
 0003:00003630       ___mb_cur_max              100b9630     LIBCMTD:nlsdata1.obj
 0003:00003634       ___decimal_point           100b9634     LIBCMTD:nlsdata1.obj
 0003:00003638       ___decimal_point_length    100b9638     LIBCMTD:nlsdata1.obj
 0003:00003670       ___lc_time_curr            100b9670     LIBCMTD:strftime.obj
 0003:00003678       ___lc_time_c               100b9678     LIBCMTD:strftime.obj
 0003:00003730       ___lconv_static_decimal    100b9730     LIBCMTD:lconv.obj
 0003:00003734       ___lconv_c                 100b9734     LIBCMTD:lconv.obj
 0003:00003764       ___lconv                   100b9764     LIBCMTD:lconv.obj
 0003:00003768       ___lc_clike                100b9768     LIBCMTD:nlsdata2.obj
 0003:00003770       ___nullstring              100b9770     LIBCMTD:output.obj
 0003:00003774       ___wnullstring             100b9774     LIBCMTD:output.obj
 0003:00003780       __timezone                 100b9780     LIBCMTD:timeset.obj
 0003:00003784       __daylight                 100b9784     LIBCMTD:timeset.obj
 0003:00003788       __dstbias                  100b9788     LIBCMTD:timeset.obj
 0003:00003810       __tzname                   100b9810     LIBCMTD:timeset.obj
 0003:00003830       __lpdays                   100b9830     LIBCMTD:days.obj
 0003:00003864       __days                     100b9864     LIBCMTD:days.obj
 0003:000038a0       __pow10pos                 100b98a0     LIBCMTD:constpow.obj
 0003:00003a00       __pow10neg                 100b9a00     LIBCMTD:constpow.obj
 0003:00004640       ?g_countActiveObjects@@3IA 100ba640     Exporting:IFXCorePluginStatic.obj
 0003:00004648       __aenvptr                  100ba648     LIBCMTD:dllcrt0.obj
 0003:0000464c       __wenvptr                  100ba64c     LIBCMTD:dllcrt0.obj
 0003:00004650       ___error_mode              100ba650     LIBCMTD:dllcrt0.obj
 0003:00004654       ___app_type                100ba654     LIBCMTD:dllcrt0.obj
 0003:00004658       ___fastflag                100ba658     LIBCMTD:fpinit.obj
 0003:0000465c       __adjust_fdiv              100ba65c     LIBCMTD:fpinit.obj
 0003:00004660       ___pPurecall               100ba660     LIBCMTD:purevirt.obj
 0003:00004664       __cflush                   100ba664     LIBCMTD:_file.obj
 0003:00004668       __umaskval                 100ba668     LIBCMTD:crt0dat.obj
 0003:0000466c       __osplatform               100ba66c     LIBCMTD:crt0dat.obj
 0003:00004670       __osver                    100ba670     LIBCMTD:crt0dat.obj
 0003:00004674       __winver                   100ba674     LIBCMTD:crt0dat.obj
 0003:00004678       __winmajor                 100ba678     LIBCMTD:crt0dat.obj
 0003:0000467c       __winminor                 100ba67c     LIBCMTD:crt0dat.obj
 0003:00004680       ___argc                    100ba680     LIBCMTD:crt0dat.obj
 0003:00004684       ___argv                    100ba684     LIBCMTD:crt0dat.obj
 0003:00004688       ___wargv                   100ba688     LIBCMTD:crt0dat.obj
 0003:0000468c       __environ                  100ba68c     LIBCMTD:crt0dat.obj
 0003:00004690       ___initenv                 100ba690     LIBCMTD:crt0dat.obj
 0003:00004694       __wenviron                 100ba694     LIBCMTD:crt0dat.obj
 0003:00004698       ___winitenv                100ba698     LIBCMTD:crt0dat.obj
 0003:0000469c       __pgmptr                   100ba69c     LIBCMTD:crt0dat.obj
 0003:000046a0       __wpgmptr                  100ba6a0     LIBCMTD:crt0dat.obj
 0003:000046a4       __exitflag                 100ba6a4     LIBCMTD:crt0dat.obj
 0003:000046a8       __C_Termination_Done       100ba6a8     LIBCMTD:crt0dat.obj
 0003:000046ac       __C_Exit_Done              100ba6ac     LIBCMTD:crt0dat.obj
 0003:000046b4       _gpFlsAlloc                100ba6b4     LIBCMTD:tidtable.obj
 0003:000046b8       _gpFlsGetValue             100ba6b8     LIBCMTD:tidtable.obj
 0003:000046bc       _gpFlsSetValue             100ba6bc     LIBCMTD:tidtable.obj
 0003:000046c0       _gpFlsFree                 100ba6c0     LIBCMTD:tidtable.obj
 0003:000047ec       __adbgmsg                  100ba7ec     LIBCMTD:crt0msg.obj
 0003:00004960       __stdbuf                   100ba960     LIBCMTD:_sftbuf.obj
 0003:0000496c       __newmode                  100ba96c     LIBCMTD:_newmode.obj
 0003:00004970       ?_pnhHeap@@3P6AHI@ZA       100ba970     LIBCMTD:handler.obj
 0003:000049ec       ___lconv_static_null       100ba9ec     LIBCMTD:lconv.obj
 0003:000049f0       ___lc_time_intl            100ba9f0     LIBCMTD:inittime.obj
 0003:000049f4       ___lconv_intl              100ba9f4     LIBCMTD:initmon.obj
 0003:000049f8       ___lc_handle               100ba9f8     LIBCMTD:nlsdata2.obj
 0003:00004a10       ___lc_codepage             100baa10     LIBCMTD:nlsdata2.obj
 0003:00004a14       ___lc_collate_cp           100baa14     LIBCMTD:nlsdata2.obj
 0003:00004a1c       ___lc_id                   100baa1c     LIBCMTD:nlsdata3.obj
 0003:00004b3c       ___intel_cpu_indicator     100bab3c     libirc:cpu_disp.obj
 0003:00005340       ?g_QPCFrequency@@3T_LARGE_INTEGER@@A 100bb340     Platform:IFXOSUtilities.obj
 0003:00005348       ?g_bUseQPC@@3HA            100bb348     Platform:IFXOSUtilities.obj
 0003:0000534c       ?g_bInitialized@@3HA       100bb34c     Platform:IFXOSUtilities.obj
 0003:00005350       ?g_eax@@3IA                100bb350     Platform:IFXOSUtilities.obj
 0003:00005354       ?g_ebx@@3IA                100bb354     Platform:IFXOSUtilities.obj
 0003:00005358       ?g_ecx@@3IA                100bb358     Platform:IFXOSUtilities.obj
 0003:0000535c       ?g_edx@@3IA                100bb35c     Platform:IFXOSUtilities.obj
 0003:00005b80       __commode                  100bbb80     LIBCMTD:ncommode.obj
 0003:00005b84       __fmode                    100bbb84     LIBCMTD:txtmode.obj
 0003:00005b88       ??_B?1??Identity@IFXQuaternion@@SAABV1@XZ@51 100bbb88     <common>
 0003:00005ba0       ?identity@?1??Identity@IFXQuaternion@@SAABV2@XZ@4V2@B 100bbba0     <common>
 0003:00005bb0       ___ctype1                  100bbbb0     <common>
 0003:00005bc0       ___ctype1_refcount         100bbbc0     <common>
 0003:00005bc4       ___lconv_mon_refcount      100bbbc4     <common>
 0003:00005bd4       ___lconv_intl_refcount     100bbbd4     <common>
 0003:00005bd8       ___lconv_num_refcount      100bbbd8     <common>
 0003:00005be4       ___sbh_initialized         100bbbe4     <common>
 0003:00005bf8       ___sbh_pHeaderDefer        100bbbf8     <common>
 0003:00005bfc       ___sbh_cntHeaderList       100bbbfc     <common>
 0003:00005c00       ___sbh_pHeaderList         100bbc00     <common>
 0003:00005c04       ___sbh_threshold           100bbc04     <common>
 0003:00005c08       ___sbh_pHeaderScan         100bbc08     <common>
 0003:00005c0c       ___sbh_sizeHeaderList      100bbc0c     <common>
 0003:00005c10       ___sbh_indGroupDefer       100bbc10     <common>
 0003:00005c14       ___mblcid                  100bbc14     <common>
 0003:00005c8c       ___ptmbcinfo               100bbc8c     <common>
 0003:00005c90       ___ismbcodepage            100bbc90     <common>
 0003:00005ca0       __mbctype                  100bbca0     <common>
 0003:00005da4       ___mbcodepage              100bbda4     <common>
 0003:00005db0       ___mbulinfo                100bbdb0     <common>
 0003:00005dc0       __mbcasemap                100bbdc0     <common>
 0003:00005ec0       ___setlc_active            100bbec0     <common>
 0003:00005ed0       ___unguarded_readlc_active 100bbed0     <common>
 0003:00005ed4       __pfnReportHook            100bbed4     <common>
 0003:00005ee4       __pReportHookList          100bbee4     <common>
 0003:00005ee8       __crtheap                  100bbee8     <common>
 0003:00005ef8       ___active_heap             100bbef8     <common>
 0003:00005efc       __nhandle                  100bbefc     <common>
 0003:00005f40       ___pioinfo                 100bbf40     <common>
 0003:00006040       __pfnDumpClient            100bc040     <common>
 0003:0000604c       ___env_initialized         100bc04c     <common>
 0003:0000605c       ___onexitend               100bc05c     <common>
 0003:00006060       ___onexitbegin             100bc060     <common>
 0003:00006064       ___mbctype_initialized     100bc064     <common>
 0003:00006068       ___piob                    100bc068     <common>
 0003:000063c0       __bufin                    100bc3c0     <common>
 0003:000073c0       __nstream                  100bd3c0     <common>
 0003:000073c4       __acmdln                   100bd3c4     <common>
 0003:000073d4       __pRawDllMain              100bd3d4     <common>
 0004:00000000       __IMPORT_DESCRIPTOR_KERNEL32 100be000     kernel32:KERNEL32.dll
 0004:00000014       __IMPORT_DESCRIPTOR_IFXCore 100be014     IFXCore:IFXCore.dll
 0004:00000028       __IMPORT_DESCRIPTOR_USER32 100be028     user32:USER32.dll
 0004:0000003c       __IMPORT_DESCRIPTOR_ADVAPI32 100be03c     advapi32:ADVAPI32.dll
 0004:00000050       __IMPORT_DESCRIPTOR_WINMM  100be050     winmm:WINMM.dll
 0004:00000064       __NULL_IMPORT_DESCRIPTOR   100be064     kernel32:KERNEL32.dll
 0004:00000358       __imp__RegQueryValueExW@24 100be358     advapi32:ADVAPI32.dll
 0004:0000035c       __imp__RegCloseKey@4       100be35c     advapi32:ADVAPI32.dll
 0004:00000360       __imp__RegOpenKeyExW@20    100be360     advapi32:ADVAPI32.dll
 0004:00000364       \177ADVAPI32_NULL_THUNK_DATA 100be364     advapi32:ADVAPI32.dll
 0004:00000390       __imp_@IFXSetMemoryFunctions@12 100be390     IFXCore:IFXCore.dll
 0004:00000394       __imp_@IFXReallocate@8     100be394     IFXCore:IFXCore.dll
 0004:00000398       __imp_@IFXDeallocate@4     100be398     IFXCore:IFXCore.dll
 0004:0000039c       __imp_@IFXAllocate@4       100be39c     IFXCore:IFXCore.dll
 0004:000003a0       __imp_@IFXCreateComponent@12 100be3a0     IFXCore:IFXCore.dll
 0004:000003a4       __imp_@IFXGetMemoryFunctions@12 100be3a4     IFXCore:IFXCore.dll
 0004:000003a8       \177IFXCore_NULL_THUNK_DATA 100be3a8     IFXCore:IFXCore.dll
 0004:000003d8       __imp__GetVersionExA@4     100be3d8     kernel32:KERNEL32.dll
 0004:000003dc       __imp__RaiseException@16   100be3dc     kernel32:KERNEL32.dll
 0004:000003e0       __imp__RtlUnwind@16        100be3e0     kernel32:KERNEL32.dll
 0004:000003e4       __imp__EnterCriticalSection@4 100be3e4     kernel32:KERNEL32.dll
 0004:000003e8       __imp__LeaveCriticalSection@4 100be3e8     kernel32:KERNEL32.dll
 0004:000003ec       __imp__TerminateProcess@8  100be3ec     kernel32:KERNEL32.dll
 0004:000003f0       __imp__GetCurrentProcess@0 100be3f0     kernel32:KERNEL32.dll
 0004:000003f4       __imp__ExitProcess@4       100be3f4     kernel32:KERNEL32.dll
 0004:000003f8       __imp__GetProcAddress@8    100be3f8     kernel32:KERNEL32.dll
 0004:000003fc       __imp__GetModuleHandleA@4  100be3fc     kernel32:KERNEL32.dll
 0004:00000400       __imp__TlsAlloc@0          100be400     kernel32:KERNEL32.dll
 0004:00000404       __imp__TlsFree@4           100be404     kernel32:KERNEL32.dll
 0004:00000408       __imp__TlsSetValue@8       100be408     kernel32:KERNEL32.dll
 0004:0000040c       __imp__TlsGetValue@4       100be40c     kernel32:KERNEL32.dll
 0004:00000410       __imp__SetLastError@4      100be410     kernel32:KERNEL32.dll
 0004:00000414       __imp__GetLastError@0      100be414     kernel32:KERNEL32.dll
 0004:00000418       __imp__GetCurrentThread@0  100be418     kernel32:KERNEL32.dll
 0004:0000041c       __imp__IsBadWritePtr@8     100be41c     kernel32:KERNEL32.dll
 0004:00000420       __imp__IsBadReadPtr@8      100be420     kernel32:KERNEL32.dll
 0004:00000424       __imp__HeapValidate@12     100be424     kernel32:KERNEL32.dll
 0004:00000428       __imp__SetHandleCount@4    100be428     kernel32:KERNEL32.dll
 0004:0000042c       __imp__GetStdHandle@4      100be42c     kernel32:KERNEL32.dll
 0004:00000430       __imp__GetFileType@4       100be430     kernel32:KERNEL32.dll
 0004:00000434       __imp__GetStartupInfoA@4   100be434     kernel32:KERNEL32.dll
 0004:00000438       __imp__DeleteCriticalSection@4 100be438     kernel32:KERNEL32.dll
 0004:0000043c       __imp__GetModuleFileNameA@12 100be43c     kernel32:KERNEL32.dll
 0004:00000440       __imp__FreeEnvironmentStringsA@4 100be440     kernel32:KERNEL32.dll
 0004:00000444       __imp__GetEnvironmentStrings@0 100be444     kernel32:KERNEL32.dll
 0004:00000448       __imp__FreeEnvironmentStringsW@4 100be448     kernel32:KERNEL32.dll
 0004:0000044c       __imp__WideCharToMultiByte@32 100be44c     kernel32:KERNEL32.dll
 0004:00000450       __imp__GetEnvironmentStringsW@0 100be450     kernel32:KERNEL32.dll
 0004:00000454       __imp__HeapDestroy@4       100be454     kernel32:KERNEL32.dll
 0004:00000458       __imp__HeapCreate@12       100be458     kernel32:KERNEL32.dll
 0004:0000045c       __imp__HeapFree@12         100be45c     kernel32:KERNEL32.dll
 0004:00000460       __imp__VirtualFree@12      100be460     kernel32:KERNEL32.dll
 0004:00000464       __imp__UnhandledExceptionFilter@4 100be464     kernel32:KERNEL32.dll
 0004:00000468       __imp__WriteFile@20        100be468     kernel32:KERNEL32.dll
 0004:0000046c       __imp__SetUnhandledExceptionFilter@4 100be46c     kernel32:KERNEL32.dll
 0004:00000470       __imp__FatalAppExitA@8     100be470     kernel32:KERNEL32.dll
 0004:00000474       __imp__DebugBreak@0        100be474     kernel32:KERNEL32.dll
 0004:00000478       __imp__InterlockedDecrement@4 100be478     kernel32:KERNEL32.dll
 0004:0000047c       __imp__OutputDebugStringA@4 100be47c     kernel32:KERNEL32.dll
 0004:00000480       __imp__GetCommandLineA@0   100be480     kernel32:KERNEL32.dll
 0004:00000484       __imp__GetCurrentThreadId@0 100be484     kernel32:KERNEL32.dll
 0004:00000488       __imp__SetFilePointer@16   100be488     kernel32:KERNEL32.dll
 0004:0000048c       __imp__CloseHandle@4       100be48c     kernel32:KERNEL32.dll
 0004:00000490       __imp__MultiByteToWideChar@24 100be490     kernel32:KERNEL32.dll
 0004:00000494       __imp__LCMapStringA@24     100be494     kernel32:KERNEL32.dll
 0004:00000498       __imp__LCMapStringW@24     100be498     kernel32:KERNEL32.dll
 0004:0000049c       __imp__GetACP@0            100be49c     kernel32:KERNEL32.dll
 0004:000004a0       __imp__GetOEMCP@0          100be4a0     kernel32:KERNEL32.dll
 0004:000004a4       __imp__GetCPInfo@8         100be4a4     kernel32:KERNEL32.dll
 0004:000004a8       __imp__HeapAlloc@12        100be4a8     kernel32:KERNEL32.dll
 0004:000004ac       __imp__HeapReAlloc@16      100be4ac     kernel32:KERNEL32.dll
 0004:000004b0       __imp__VirtualAlloc@16     100be4b0     kernel32:KERNEL32.dll
 0004:000004b4       __imp__InitializeCriticalSection@4 100be4b4     kernel32:KERNEL32.dll
 0004:000004b8       __imp__VirtualQuery@12     100be4b8     kernel32:KERNEL32.dll
 0004:000004bc       __imp__InterlockedExchange@8 100be4bc     kernel32:KERNEL32.dll
 0004:000004c0       __imp__IsBadCodePtr@4      100be4c0     kernel32:KERNEL32.dll
 0004:000004c4       __imp__SetConsoleCtrlHandler@8 100be4c4     kernel32:KERNEL32.dll
 0004:000004c8       __imp__SetStdHandle@8      100be4c8     kernel32:KERNEL32.dll
 0004:000004cc       __imp__FlushFileBuffers@4  100be4cc     kernel32:KERNEL32.dll
 0004:000004d0       __imp__GetTimeFormatA@24   100be4d0     kernel32:KERNEL32.dll
 0004:000004d4       __imp__GetDateFormatA@24   100be4d4     kernel32:KERNEL32.dll
 0004:000004d8       __imp__GetStringTypeA@20   100be4d8     kernel32:KERNEL32.dll
 0004:000004dc       __imp__GetStringTypeW@16   100be4dc     kernel32:KERNEL32.dll
 0004:000004e0       __imp__IsValidLocale@8     100be4e0     kernel32:KERNEL32.dll
 0004:000004e4       __imp__IsValidCodePage@4   100be4e4     kernel32:KERNEL32.dll
 0004:000004e8       __imp__GetLocaleInfoA@16   100be4e8     kernel32:KERNEL32.dll
 0004:000004ec       __imp__EnumSystemLocalesA@8 100be4ec     kernel32:KERNEL32.dll
 0004:000004f0       __imp__GetUserDefaultLCID@0 100be4f0     kernel32:KERNEL32.dll
 0004:000004f4       __imp__VirtualProtect@16   100be4f4     kernel32:KERNEL32.dll
 0004:000004f8       __imp__GetSystemInfo@4     100be4f8     kernel32:KERNEL32.dll
 0004:000004fc       __imp__QueryPerformanceCounter@4 100be4fc     kernel32:KERNEL32.dll
 0004:00000500       __imp__GetTickCount@0      100be500     kernel32:KERNEL32.dll
 0004:00000504       __imp__GetCurrentProcessId@0 100be504     kernel32:KERNEL32.dll
 0004:00000508       __imp__GetSystemTimeAsFileTime@4 100be508     kernel32:KERNEL32.dll
 0004:0000050c       __imp__GetTimeZoneInformation@4 100be50c     kernel32:KERNEL32.dll
 0004:00000510       __imp__GetLocaleInfoW@16   100be510     kernel32:KERNEL32.dll
 0004:00000514       __imp__CompareStringA@24   100be514     kernel32:KERNEL32.dll
 0004:00000518       __imp__CompareStringW@24   100be518     kernel32:KERNEL32.dll
 0004:0000051c       __imp__SetEnvironmentVariableA@8 100be51c     kernel32:KERNEL32.dll
 0004:00000520       __imp__GetSystemDefaultLangID@0 100be520     kernel32:KERNEL32.dll
 0004:00000524       __imp__QueryPerformanceFrequency@4 100be524     kernel32:KERNEL32.dll
 0004:00000528       __imp__Sleep@4             100be528     kernel32:KERNEL32.dll
 0004:0000052c       __imp__OutputDebugStringW@4 100be52c     kernel32:KERNEL32.dll
 0004:00000530       __imp__LoadLibraryW@4      100be530     kernel32:KERNEL32.dll
 0004:00000534       __imp__GetModuleHandleW@4  100be534     kernel32:KERNEL32.dll
 0004:00000538       __imp__GetModuleFileNameW@12 100be538     kernel32:KERNEL32.dll
 0004:0000053c       __imp__FreeLibrary@4       100be53c     kernel32:KERNEL32.dll
 0004:00000540       __imp__CreateFileW@28      100be540     kernel32:KERNEL32.dll
 0004:00000544       __imp__SetEndOfFile@4      100be544     kernel32:KERNEL32.dll
 0004:00000548       __imp__ReadFile@20         100be548     kernel32:KERNEL32.dll
 0004:0000054c       __imp__InterlockedIncrement@4 100be54c     kernel32:KERNEL32.dll
 0004:00000550       __imp__LoadLibraryA@4      100be550     kernel32:KERNEL32.dll
 0004:00000554       __imp__DisableThreadLibraryCalls@4 100be554     kernel32:KERNEL32.dll
 0004:00000558       \177KERNEL32_NULL_THUNK_DATA 100be558     kernel32:KERNEL32.dll
 0004:000005d0       __imp__MessageBoxW@16      100be5d0     user32:USER32.dll
 0004:000005d4       \177USER32_NULL_THUNK_DATA 100be5d4     user32:USER32.dll
 0004:00000600       __imp__timeEndPeriod@4     100be600     winmm:WINMM.dll
 0004:00000604       __imp__timeGetTime@0       100be604     winmm:WINMM.dll
 0004:00000608       __imp__timeBeginPeriod@4   100be608     winmm:WINMM.dll
 0004:0000060c       \177WINMM_NULL_THUNK_DATA  100be60c     winmm:WINMM.dll
 0005:000026d4       ??_7CIFXAuthorMeshLocker@@6B@ 100c26d4     Exporting:CIFXAuthorCLODEncoderX.obj
 0005:000026dc       ??_7IFXUnknown@@6B@        100c26dc     Exporting:CIFXAuthorCLODEncoderX.obj
 0005:000026ec       ??_7IFXException@@6B@      100c26ec     Exporting:CIFXAuthorCLODEncoderX.obj
 0005:000026f4       ??_7IFXEncoderX@@6B0@@     100c26f4     Exporting:CIFXAuthorCLODEncoderX.obj
 0005:00002704       ??_7IFXEncoderX@@6BIFXUnknown@@@ 100c2704     Exporting:CIFXAuthorCLODEncoderX.obj
 0005:00002714       ??_7CIFXAuthorCLODEncoderX@@6B0@@ 100c2714     Exporting:CIFXAuthorCLODEncoderX.obj
 0005:0000271c       ??_7CIFXAuthorCLODEncoderX@@6BIFXUnknown@@@ 100c271c     Exporting:CIFXAuthorCLODEncoderX.obj
 0005:0000272c       ??_7CIFXAuthorCLODEncoderX@@6BIFXEncoderX@@@ 100c272c     Exporting:CIFXAuthorCLODEncoderX.obj
 0005:00002c44       ??_7CIFXAnimationModifierEncoder@@6B0@@ 100c2c44     Exporting:CIFXAnimationModifierEncoder.obj
 0005:00002c4c       ??_7CIFXAnimationModifierEncoder@@6BIFXUnknown@@@ 100c2c4c     Exporting:CIFXAnimationModifierEncoder.obj
 0005:00002c5c       ??_7CIFXAnimationModifierEncoder@@6BIFXEncoderX@@@ 100c2c5c     Exporting:CIFXAnimationModifierEncoder.obj
 0005:000034e4       ??_7CIFXMaterialResourceEncoder@@6B0@@ 100c34e4     Exporting:CIFXMaterialResourceEncoder.obj
 0005:000034ec       ??_7CIFXMaterialResourceEncoder@@6BIFXUnknown@@@ 100c34ec     Exporting:CIFXMaterialResourceEncoder.obj
 0005:000034fc       ??_7CIFXMaterialResourceEncoder@@6BIFXEncoderX@@@ 100c34fc     Exporting:CIFXMaterialResourceEncoder.obj
 0005:00003f84       ??_7CIFXMotionResourceEncoder@@6B0@@ 100c3f84     Exporting:CIFXMotionResourceEncoder.obj
 0005:00003f8c       ??_7CIFXMotionResourceEncoder@@6BIFXUnknown@@@ 100c3f8c     Exporting:CIFXMotionResourceEncoder.obj
 0005:00003f9c       ??_7CIFXMotionResourceEncoder@@6BIFXEncoderX@@@ 100c3f9c     Exporting:CIFXMotionResourceEncoder.obj
 0005:00005364       ??_7CIFXGlyphGeneratorEncoder@@6B0@@ 100c5364     Exporting:CIFXGlyphModifierEncoder.obj
 0005:0000536c       ??_7CIFXGlyphGeneratorEncoder@@6BIFXUnknown@@@ 100c536c     Exporting:CIFXGlyphModifierEncoder.obj
 0005:0000537c       ??_7CIFXGlyphGeneratorEncoder@@6BIFXEncoderX@@@ 100c537c     Exporting:CIFXGlyphModifierEncoder.obj
 0005:00006444       ??_7CIFXShaderLitTextureEncoder@@6B0@@ 100c6444     Exporting:CIFXShaderLitTextureEncoder.obj
 0005:0000644c       ??_7CIFXShaderLitTextureEncoder@@6BIFXUnknown@@@ 100c644c     Exporting:CIFXShaderLitTextureEncoder.obj
 0005:0000645c       ??_7CIFXShaderLitTextureEncoder@@6BIFXEncoderX@@@ 100c645c     Exporting:CIFXShaderLitTextureEncoder.obj
 0005:00006de4       ??_7CIFXSubdivisionModifierEncoder@@6B0@@ 100c6de4     Exporting:CIFXSubdivisionModifierEncoder.obj
 0005:00006dec       ??_7CIFXSubdivisionModifierEncoder@@6BIFXUnknown@@@ 100c6dec     Exporting:CIFXSubdivisionModifierEncoder.obj
 0005:00006dfc       ??_7CIFXSubdivisionModifierEncoder@@6BIFXEncoderX@@@ 100c6dfc     Exporting:CIFXSubdivisionModifierEncoder.obj
 0005:00007504       ??_7CIFXShadingModifierEncoder@@6B0@@ 100c7504     Exporting:CIFXShadingModifierEncoder.obj
 0005:0000750c       ??_7CIFXShadingModifierEncoder@@6BIFXUnknown@@@ 100c750c     Exporting:CIFXShadingModifierEncoder.obj
 0005:0000751c       ??_7CIFXShadingModifierEncoder@@6BIFXEncoderX@@@ 100c751c     Exporting:CIFXShadingModifierEncoder.obj
 0005:00007704       ??_7CIFXGroupNodeEncoder@@6BIFXUnknown@@@ 100c7704     Exporting:CIFXGroupNodeEncoder.obj
 0005:00007714       ??_7CIFXGroupNodeEncoder@@6BIFXEncoderX@@@ 100c7714     Exporting:CIFXGroupNodeEncoder.obj
 0005:00007724       ??_7CIFXGroupNodeEncoder@@6BCIFXNodeBaseEncoder@@@ 100c7724     Exporting:CIFXGroupNodeEncoder.obj
 0005:00007c24       ??_7CIFXLightNodeEncoder@@6BIFXUnknown@@@ 100c7c24     Exporting:CIFXLightNodeEncoder.obj
 0005:00007c34       ??_7CIFXLightNodeEncoder@@6BIFXEncoderX@@@ 100c7c34     Exporting:CIFXLightNodeEncoder.obj
 0005:00007c44       ??_7CIFXLightNodeEncoder@@6BCIFXNodeBaseEncoder@@@ 100c7c44     Exporting:CIFXLightNodeEncoder.obj
 0005:00007f24       ??_7CIFXLightResourceEncoder@@6BIFXUnknown@@@ 100c7f24     Exporting:CIFXLightResourceEncoder.obj
 0005:00007f34       ??_7CIFXLightResourceEncoder@@6BIFXEncoderX@@@ 100c7f34     Exporting:CIFXLightResourceEncoder.obj
 0005:00007f44       ??_7CIFXLightResourceEncoder@@6BCIFXNodeBaseEncoder@@@ 100c7f44     Exporting:CIFXLightResourceEncoder.obj
 0005:00008584       ??_7CIFXViewResourceEncoder@@6BIFXUnknown@@@ 100c8584     Exporting:CIFXViewResourceEncoder.obj
 0005:00008594       ??_7CIFXViewResourceEncoder@@6BIFXEncoderX@@@ 100c8594     Exporting:CIFXViewResourceEncoder.obj
 0005:000085a4       ??_7CIFXViewResourceEncoder@@6BCIFXNodeBaseEncoder@@@ 100c85a4     Exporting:CIFXViewResourceEncoder.obj
 0005:00008c44       ??_7CIFXModelNodeEncoder@@6BIFXUnknown@@@ 100c8c44     Exporting:CIFXModelNodeEncoder.obj
 0005:00008c54       ??_7CIFXModelNodeEncoder@@6BIFXEncoderX@@@ 100c8c54     Exporting:CIFXModelNodeEncoder.obj
 0005:00008c64       ??_7CIFXModelNodeEncoder@@6BCIFXNodeBaseEncoder@@@ 100c8c64     Exporting:CIFXModelNodeEncoder.obj
 0005:00009b64       ??_7IFXViewLayer@@6B@      100c9b64     Exporting:CIFXViewNodeEncoder.obj
 0005:00009b6c       ??_7CIFXViewNodeEncoder@@6BIFXUnknown@@@ 100c9b6c     Exporting:CIFXViewNodeEncoder.obj
 0005:00009b7c       ??_7CIFXViewNodeEncoder@@6BIFXEncoderX@@@ 100c9b7c     Exporting:CIFXViewNodeEncoder.obj
 0005:00009b8c       ??_7CIFXViewNodeEncoder@@6BCIFXNodeBaseEncoder@@@ 100c9b8c     Exporting:CIFXViewNodeEncoder.obj
 0005:0000a794       ??_7IFXCoreArray@@6B@      100ca794     Exporting:CIFXFileReferenceEncoder.obj
 0005:0000a7bc       ??_7CIFXFileReferenceEncoder@@6B0@@ 100ca7bc     Exporting:CIFXFileReferenceEncoder.obj
 0005:0000a7c4       ??_7CIFXFileReferenceEncoder@@6BIFXUnknown@@@ 100ca7c4     Exporting:CIFXFileReferenceEncoder.obj
 0005:0000a7d4       ??_7CIFXFileReferenceEncoder@@6BIFXEncoderX@@@ 100ca7d4     Exporting:CIFXFileReferenceEncoder.obj
 0005:0000a7e4       ??_7?$IFXArray@VIFXString@@@@6B@ 100ca7e4     Exporting:CIFXFileReferenceEncoder.obj
 0005:0000a810       ??_7?$IFXArray@UIFXObjectFilter@@@@6B@ 100ca810     Exporting:CIFXFileReferenceEncoder.obj
 0005:0000afa4       ??_7IFXDataBlockQueueX@@6B@ 100cafa4     Exporting:CIFXBlockPriorityQueueX.obj
 0005:0000afc8       ??_7CIFXBlockPriorityQueueX@@6B@ 100cafc8     Exporting:CIFXBlockPriorityQueueX.obj
 0005:0000ba44       ??_7IFXBlockWriterX@@6B@   100cba44     Exporting:CIFXBlockWriterX.obj
 0005:0000ba5c       ??_7CIFXBlockWriterX@@6B@  100cba5c     Exporting:CIFXBlockWriterX.obj
 0005:0000dd24       ??_7IFXWriteManager@@6B@   100cdd24     Exporting:CIFXWriteManager.obj
 0005:0000dd40       ??_7CIFXWriteManager@@6B@  100cdd40     Exporting:CIFXWriteManager.obj
 0005:0000dd60       ??_7?$IFXArray@UIFXExtBlocktype@CIFXWriteManager@@@@6B@ 100cdd60     Exporting:CIFXWriteManager.obj
 0005:0000e2c4       ??_7IFXProgressCallback@@6B@ 100ce2c4     Exporting:CIFXAuthorGeomCompiler.obj
 0005:0000e2d0       ??_7CIFXAuthorGeomCompilerProgress@@6B@ 100ce2d0     Exporting:CIFXAuthorGeomCompiler.obj
 0005:0000e2dc       ??_7IFXAuthorGeomCompiler@@6B@ 100ce2dc     Exporting:CIFXAuthorGeomCompiler.obj
 0005:0000e2f8       ??_7CIFXAuthorGeomCompiler@@6B@ 100ce2f8     Exporting:CIFXAuthorGeomCompiler.obj
 0005:0000e320       ??_7IFXWriteBuffer@@6B0@@  100ce320     Exporting:CIFXStdioWriteBufferX.obj
 0005:0000e328       ??_7IFXWriteBuffer@@6BIFXUnknown@@@ 100ce328     Exporting:CIFXStdioWriteBufferX.obj
 0005:0000e338       ??_7IFXWriteBufferX@@6B0@@ 100ce338     Exporting:CIFXStdioWriteBufferX.obj
 0005:0000e340       ??_7IFXWriteBufferX@@6BIFXUnknown@@@ 100ce340     Exporting:CIFXStdioWriteBufferX.obj
 0005:0000e350       ??_7IFXStdio@@6B0@@        100ce350     Exporting:CIFXStdioWriteBufferX.obj
 0005:0000e35c       ??_7IFXStdio@@6BIFXUnknown@@@ 100ce35c     Exporting:CIFXStdioWriteBufferX.obj
 0005:0000e36c       ??_7CIFXStdioWriteBufferX@@6BIFXUnknown@@@ 100ce36c     Exporting:CIFXStdioWriteBufferX.obj
 0005:0000e37c       ??_7CIFXStdioWriteBufferX@@6BIFXWriteBuffer@@@ 100ce37c     Exporting:CIFXStdioWriteBufferX.obj
 0005:0000e388       ??_7CIFXStdioWriteBufferX@@6BIFXWriteBufferX@@@ 100ce388     Exporting:CIFXStdioWriteBufferX.obj
 0005:0000e394       ??_7CIFXStdioWriteBufferX@@6BIFXStdio@@@ 100ce394     Exporting:CIFXStdioWriteBufferX.obj
 0005:0000ff44       ??_7CIFXPointSetEncoder@@6B0@@ 100cff44     Exporting:CIFXPointSetEncoder.obj
 0005:0000ff4c       ??_7CIFXPointSetEncoder@@6BIFXUnknown@@@ 100cff4c     Exporting:CIFXPointSetEncoder.obj
 0005:0000ff5c       ??_7CIFXPointSetEncoder@@6BIFXEncoderX@@@ 100cff5c     Exporting:CIFXPointSetEncoder.obj
 0005:0000ff6c       ??_7?$IFXArray@I@@6B@      100cff6c     Exporting:CIFXPointSetEncoder.obj
 0005:00012564       ??_7CIFXLineSetEncoder@@6B0@@ 100d2564     Exporting:CIFXLineSetEncoder.obj
 0005:0001256c       ??_7CIFXLineSetEncoder@@6BIFXUnknown@@@ 100d256c     Exporting:CIFXLineSetEncoder.obj
 0005:0001257c       ??_7CIFXLineSetEncoder@@6BIFXEncoderX@@@ 100d257c     Exporting:CIFXLineSetEncoder.obj
 0005:00014684       ??_7CIFXBoneWeightsModifierEncoder@@6B0@@ 100d4684     Exporting:CIFXBoneWeightsModifierEncoder.obj
 0005:0001468c       ??_7CIFXBoneWeightsModifierEncoder@@6BIFXUnknown@@@ 100d468c     Exporting:CIFXBoneWeightsModifierEncoder.obj
 0005:0001469c       ??_7CIFXBoneWeightsModifierEncoder@@6BIFXEncoderX@@@ 100d469c     Exporting:CIFXBoneWeightsModifierEncoder.obj
 0005:00014e24       ??_7CIFXCLODModifierEncoder@@6B0@@ 100d4e24     Exporting:CIFXCLODModifierEncoder.obj
 0005:00014e2c       ??_7CIFXCLODModifierEncoder@@6BIFXUnknown@@@ 100d4e2c     Exporting:CIFXCLODModifierEncoder.obj
 0005:00014e3c       ??_7CIFXCLODModifierEncoder@@6BIFXEncoderX@@@ 100d4e3c     Exporting:CIFXCLODModifierEncoder.obj
 0005:00015184       ??_7CIFXDummyModifierEncoder@@6B0@@ 100d5184     Exporting:CIFXDummyModifierEncoder.obj
 0005:0001518c       ??_7CIFXDummyModifierEncoder@@6BIFXUnknown@@@ 100d518c     Exporting:CIFXDummyModifierEncoder.obj
 0005:0001519c       ??_7CIFXDummyModifierEncoder@@6BIFXEncoderX@@@ 100d519c     Exporting:CIFXDummyModifierEncoder.obj
 0005:00015284       ??_7IFXString@@6B@         100d5284     Exporting:IFXString.obj
 0005:0001c284       ??_7CIFXNodeBaseEncoder@@6B@ 100dc284     Exporting:CIFXNodeBaseEncoder.obj
 0006:00000000       ??_C@_05A@sqrtl?$AA@       100e3000     libmmt:libm_error.omu
 0006:00000008       ??_C@_0BG@A@?$ANsqrtl?3?5DOMAIN?5error?6?$AA@ 100e3008     libmmt:libm_error.omu
 0006:00000020       ??_C@_04A@sqrt?$AA@        100e3020     libmmt:libm_error.omu
 0006:00000028       ??_C@_0BF@A@?$ANsqrt?3?5DOMAIN?5error?6?$AA@ 100e3028     libmmt:libm_error.omu
 0006:00000040       ??_C@_05A@sqrtf?$AA@       100e3040     libmmt:libm_error.omu
 0006:00000048       ??_C@_0BG@A@?$ANsqrtf?3?5DOMAIN?5error?6?$AA@ 100e3048     libmmt:libm_error.omu
 0006:00000060       ??_C@_04A@logl?$AA@        100e3060     libmmt:libm_error.omu
 0006:00000068       ??_C@_0BD@A@?$ANlogl?3?5SING?5error?6?$AA@ 100e3068     libmmt:libm_error.omu
 0006:0000007c       ??_C@_03A@log?$AA@         100e307c     libmmt:libm_error.omu
 0006:00000080       ??_C@_0BC@A@?$ANlog?3?5SING?5error?6?$AA@ 100e3080     libmmt:libm_error.omu
 0006:00000094       ??_C@_04A@logf?$AA@        100e3094     libmmt:libm_error.omu
 0006:0000009c       ??_C@_0BD@A@?$ANlogf?3?5SING?5error?6?$AA@ 100e309c     libmmt:libm_error.omu
 0006:000000b0       ??_C@_0BF@A@?$ANlogl?3?5DOMAIN?5error?6?$AA@ 100e30b0     libmmt:libm_error.omu
 0006:000000c8       ??_C@_0BE@A@?$ANlog?3?5DOMAIN?5error?6?$AA@ 100e30c8     libmmt:libm_error.omu
 0006:000000dc       ??_C@_0BF@A@?$ANlogf?3?5DOMAIN?5error?6?$AA@ 100e30dc     libmmt:libm_error.omu
 0006:000000f4       ??_C@_06A@log1pl?$AA@      100e30f4     libmmt:libm_error.omu
 0006:000000fc       ??_C@_0BF@A@?$ANlog1pl?3?5SING?5error?6?$AA@ 100e30fc     libmmt:libm_error.omu
 0006:00000114       ??_C@_05A@log1p?$AA@       100e3114     libmmt:libm_error.omu
 0006:0000011c       ??_C@_0BE@A@?$ANlog1p?3?5SING?5error?6?$AA@ 100e311c     libmmt:libm_error.omu
 0006:00000130       ??_C@_06A@log1pf?$AA@      100e3130     libmmt:libm_error.omu
 0006:00000138       ??_C@_0BF@A@?$ANlog1pf?3?5SING?5error?6?$AA@ 100e3138     libmmt:libm_error.omu
 0006:00000150       ??_C@_0BH@A@?$ANlog1pl?3?5DOMAIN?5error?6?$AA@ 100e3150     libmmt:libm_error.omu
 0006:00000168       ??_C@_0BG@A@?$ANlog1p?3?5DOMAIN?5error?6?$AA@ 100e3168     libmmt:libm_error.omu
 0006:00000180       ??_C@_0BH@A@?$ANlog1pf?3?5DOMAIN?5error?6?$AA@ 100e3180     libmmt:libm_error.omu
 0006:00000198       ??_C@_06A@log10l?$AA@      100e3198     libmmt:libm_error.omu
 0006:000001a0       ??_C@_0BF@A@?$ANlog10l?3?5SING?5error?6?$AA@ 100e31a0     libmmt:libm_error.omu
 0006:000001b8       ??_C@_05A@log10?$AA@       100e31b8     libmmt:libm_error.omu
 0006:000001c0       ??_C@_0BE@A@?$ANlog10?3?5SING?5error?6?$AA@ 100e31c0     libmmt:libm_error.omu
 0006:000001d4       ??_C@_06A@log10f?$AA@      100e31d4     libmmt:libm_error.omu
 0006:000001dc       ??_C@_0BF@A@?$ANlog10f?3?5SING?5error?6?$AA@ 100e31dc     libmmt:libm_error.omu
 0006:000001f4       ??_C@_0BH@A@?$ANlog10l?3?5DOMAIN?5error?6?$AA@ 100e31f4     libmmt:libm_error.omu
 0006:0000020c       ??_C@_0BG@A@?$ANlog10?3?5DOMAIN?5error?6?$AA@ 100e320c     libmmt:libm_error.omu
 0006:00000224       ??_C@_0BH@A@?$ANlog10f?3?5DOMAIN?5error?6?$AA@ 100e3224     libmmt:libm_error.omu
 0006:0000023c       ??_C@_05A@log2l?$AA@       100e323c     libmmt:libm_error.omu
 0006:00000244       ??_C@_0BE@A@?$ANlog2l?3?5SING?5error?6?$AA@ 100e3244     libmmt:libm_error.omu
 0006:00000258       ??_C@_04A@log2?$AA@        100e3258     libmmt:libm_error.omu
 0006:00000260       ??_C@_0BD@A@?$ANlog2?3?5SING?5error?6?$AA@ 100e3260     libmmt:libm_error.omu
 0006:00000274       ??_C@_05A@log2f?$AA@       100e3274     libmmt:libm_error.omu
 0006:0000027c       ??_C@_0BE@A@?$ANlog2f?3?5SING?5error?6?$AA@ 100e327c     libmmt:libm_error.omu
 0006:00000290       ??_C@_0BG@A@?$ANlog2l?3?5DOMAIN?5error?6?$AA@ 100e3290     libmmt:libm_error.omu
 0006:000002a8       ??_C@_0BF@A@?$ANlog2?3?5DOMAIN?5error?6?$AA@ 100e32a8     libmmt:libm_error.omu
 0006:000002c0       ??_C@_0BG@A@?$ANlog2f?3?5DOMAIN?5error?6?$AA@ 100e32c0     libmmt:libm_error.omu
 0006:000002d8       ??_C@_04A@expl?$AA@        100e32d8     libmmt:libm_error.omu
 0006:000002e0       ??_C@_03A@exp?$AA@         100e32e0     libmmt:libm_error.omu
 0006:000002e4       ??_C@_04A@expf?$AA@        100e32e4     libmmt:libm_error.omu
 0006:000002ec       ??_C@_04A@powl?$AA@        100e32ec     libmmt:libm_error.omu
 0006:000002f4       ??_C@_0BK@A@?$ANpowl?$CI0?00?$CJ?3?5DOMAIN?5error?6?$AA@ 100e32f4     libmmt:libm_error.omu
 0006:00000310       ??_C@_03A@pow?$AA@         100e3310     libmmt:libm_error.omu
 0006:00000314       ??_C@_0BJ@A@?$ANpow?$CI0?00?$CJ?3?5DOMAIN?5error?6?$AA@ 100e3314     libmmt:libm_error.omu
 0006:00000330       ??_C@_04A@powf?$AA@        100e3330     libmmt:libm_error.omu
 0006:00000338       ??_C@_0BK@A@?$ANpowf?$CI0?00?$CJ?3?5DOMAIN?5error?6?$AA@ 100e3338     libmmt:libm_error.omu
 0006:00000354       ??_C@_0CB@A@?$ANpowl?$CI0?0negative?$CJ?3?5DOMAIN?5error?6?$AA@ 100e3354     libmmt:libm_error.omu
 0006:00000378       ??_C@_0CA@A@?$ANpow?$CI0?0negative?$CJ?3?5DOMAIN?5error?6?$AA@ 100e3378     libmmt:libm_error.omu
 0006:00000398       ??_C@_0CB@A@?$ANpowf?$CI0?0negative?$CJ?3?5DOMAIN?5error?6?$AA@ 100e3398     libmmt:libm_error.omu
 0006:000003bc       ??_C@_0CL@A@?$ANpowl?$CInegative?0non?9integer?$CJ?3?5DOMAIN?5error?6?$AA@ 100e33bc     libmmt:libm_error.omu
 0006:000003e8       ??_C@_0CK@A@?$ANpow?$CInegative?0non?9integer?$CJ?3?5DOMAIN?5error?6?$AA@ 100e33e8     libmmt:libm_error.omu
 0006:00000414       ??_C@_0CL@A@?$ANpowf?$CInegative?0non?9integer?$CJ?3?5DOMAIN?5error?6?$AA@ 100e3414     libmmt:libm_error.omu
 0006:00000440       ??_C@_06A@atan2l?$AA@      100e3440     libmmt:libm_error.omu
 0006:00000448       ??_C@_0BH@A@?$ANatan2l?3?5DOMAIN?5error?6?$AA@ 100e3448     libmmt:libm_error.omu
 0006:00000460       ??_C@_05A@atan2?$AA@       100e3460     libmmt:libm_error.omu
 0006:00000468       ??_C@_0BG@A@?$ANatan2?3?5DOMAIN?5error?6?$AA@ 100e3468     libmmt:libm_error.omu
 0006:00000480       ??_C@_06A@atan2f?$AA@      100e3480     libmmt:libm_error.omu
 0006:00000488       ??_C@_0BH@A@?$ANatan2f?3?5DOMAIN?5error?6?$AA@ 100e3488     libmmt:libm_error.omu
 0006:000004a0       ??_C@_07A@atan2dl?$AA@     100e34a0     libmmt:libm_error.omu
 0006:000004a8       ??_C@_0BI@A@?$ANatan2dl?3?5DOMAIN?5error?6?$AA@ 100e34a8     libmmt:libm_error.omu
 0006:000004c0       ??_C@_06A@atan2d?$AA@      100e34c0     libmmt:libm_error.omu
 0006:000004c8       ??_C@_0BH@A@?$ANatan2d?3?5DOMAIN?5error?6?$AA@ 100e34c8     libmmt:libm_error.omu
 0006:000004e0       ??_C@_07A@atan2df?$AA@     100e34e0     libmmt:libm_error.omu
 0006:000004e8       ??_C@_0BI@A@?$ANatan2df?3?5DOMAIN?5error?6?$AA@ 100e34e8     libmmt:libm_error.omu
 0006:00000500       ??_C@_06A@scalbl?$AA@      100e3500     libmmt:libm_error.omu
 0006:00000508       ??_C@_05A@scalb?$AA@       100e3508     libmmt:libm_error.omu
 0006:00000510       ??_C@_06A@scalbf?$AA@      100e3510     libmmt:libm_error.omu
 0006:00000518       ??_C@_06A@hypotl?$AA@      100e3518     libmmt:libm_error.omu
 0006:00000520       ??_C@_05A@hypot?$AA@       100e3520     libmmt:libm_error.omu
 0006:00000528       ??_C@_06A@hypotf?$AA@      100e3528     libmmt:libm_error.omu
 0006:00000530       ??_C@_05A@acosl?$AA@       100e3530     libmmt:libm_error.omu
 0006:00000538       ??_C@_0BG@A@?$ANacosl?3?5DOMAIN?5error?6?$AA@ 100e3538     libmmt:libm_error.omu
 0006:00000550       ??_C@_04A@acos?$AA@        100e3550     libmmt:libm_error.omu
 0006:00000558       ??_C@_0BF@A@?$ANacos?3?5DOMAIN?5error?6?$AA@ 100e3558     libmmt:libm_error.omu
 0006:00000570       ??_C@_05A@acosf?$AA@       100e3570     libmmt:libm_error.omu
 0006:00000578       ??_C@_0BG@A@?$ANacosf?3?5DOMAIN?5error?6?$AA@ 100e3578     libmmt:libm_error.omu
 0006:00000590       ??_C@_05A@asinl?$AA@       100e3590     libmmt:libm_error.omu
 0006:00000598       ??_C@_0BG@A@?$ANasinl?3?5DOMAIN?5error?6?$AA@ 100e3598     libmmt:libm_error.omu
 0006:000005b0       ??_C@_04A@asin?$AA@        100e35b0     libmmt:libm_error.omu
 0006:000005b8       ??_C@_0BF@A@?$ANasin?3?5DOMAIN?5error?6?$AA@ 100e35b8     libmmt:libm_error.omu
 0006:000005d0       ??_C@_05A@asinf?$AA@       100e35d0     libmmt:libm_error.omu
 0006:000005d8       ??_C@_0BG@A@?$ANasinf?3?5DOMAIN?5error?6?$AA@ 100e35d8     libmmt:libm_error.omu
 0006:000005f0       ??_C@_06A@acosdl?$AA@      100e35f0     libmmt:libm_error.omu
 0006:000005f8       ??_C@_0BH@A@?$ANacosdl?3?5DOMAIN?5error?6?$AA@ 100e35f8     libmmt:libm_error.omu
 0006:00000610       ??_C@_05A@acosd?$AA@       100e3610     libmmt:libm_error.omu
 0006:00000618       ??_C@_0BG@A@?$ANacosd?3?5DOMAIN?5error?6?$AA@ 100e3618     libmmt:libm_error.omu
 0006:00000630       ??_C@_06A@acosdf?$AA@      100e3630     libmmt:libm_error.omu
 0006:00000638       ??_C@_0BH@A@?$ANacosdf?3?5DOMAIN?5error?6?$AA@ 100e3638     libmmt:libm_error.omu
 0006:00000650       ??_C@_06A@asindl?$AA@      100e3650     libmmt:libm_error.omu
 0006:00000658       ??_C@_0BH@A@?$ANasindl?3?5DOMAIN?5error?6?$AA@ 100e3658     libmmt:libm_error.omu
 0006:00000670       ??_C@_05A@asind?$AA@       100e3670     libmmt:libm_error.omu
 0006:00000678       ??_C@_0BG@A@?$ANasind?3?5DOMAIN?5error?6?$AA@ 100e3678     libmmt:libm_error.omu
 0006:00000690       ??_C@_06A@asindf?$AA@      100e3690     libmmt:libm_error.omu
 0006:00000698       ??_C@_0BH@A@?$ANasindf?3?5DOMAIN?5error?6?$AA@ 100e3698     libmmt:libm_error.omu
 0006:000006b0       ??_C@_05A@coshl?$AA@       100e36b0     libmmt:libm_error.omu
 0006:000006b8       ??_C@_04A@cosh?$AA@        100e36b8     libmmt:libm_error.omu
 0006:000006c0       ??_C@_05A@coshf?$AA@       100e36c0     libmmt:libm_error.omu
 0006:000006c8       ??_C@_05A@sinhl?$AA@       100e36c8     libmmt:libm_error.omu
 0006:000006d0       ??_C@_04A@sinh?$AA@        100e36d0     libmmt:libm_error.omu
 0006:000006d8       ??_C@_05A@sinhf?$AA@       100e36d8     libmmt:libm_error.omu
 0006:000006e0       ??_C@_06A@acoshl?$AA@      100e36e0     libmmt:libm_error.omu
 0006:000006e8       ??_C@_0BH@A@?$ANacoshl?3?5DOMAIN?5error?6?$AA@ 100e36e8     libmmt:libm_error.omu
 0006:00000700       ??_C@_05A@acosh?$AA@       100e3700     libmmt:libm_error.omu
 0006:00000708       ??_C@_0BG@A@?$ANacosh?3?5DOMAIN?5error?6?$AA@ 100e3708     libmmt:libm_error.omu
 0006:00000720       ??_C@_06A@acoshf?$AA@      100e3720     libmmt:libm_error.omu
 0006:00000728       ??_C@_0BH@A@?$ANacoshf?3?5DOMAIN?5error?6?$AA@ 100e3728     libmmt:libm_error.omu
 0006:00000740       ??_C@_06A@atanhl?$AA@      100e3740     libmmt:libm_error.omu
 0006:00000748       ??_C@_0BH@A@?$ANatanhl?3?5DOMAIN?5error?6?$AA@ 100e3748     libmmt:libm_error.omu
 0006:00000760       ??_C@_05A@atanh?$AA@       100e3760     libmmt:libm_error.omu
 0006:00000768       ??_C@_0BG@A@?$ANatanh?3?5DOMAIN?5error?6?$AA@ 100e3768     libmmt:libm_error.omu
 0006:00000780       ??_C@_06A@atanhf?$AA@      100e3780     libmmt:libm_error.omu
 0006:00000788       ??_C@_0BH@A@?$ANatanhf?3?5DOMAIN?5error?6?$AA@ 100e3788     libmmt:libm_error.omu
 0006:000007a0       ??_C@_0BF@A@?$ANatanhl?3?5SING?5error?6?$AA@ 100e37a0     libmmt:libm_error.omu
 0006:000007b8       ??_C@_0BE@A@?$ANatanh?3?5SING?5error?6?$AA@ 100e37b8     libmmt:libm_error.omu
 0006:000007cc       ??_C@_0BF@A@?$ANatanhf?3?5SING?5error?6?$AA@ 100e37cc     libmmt:libm_error.omu
 0006:000007e4       ??_C@_06A@gammal?$AA@      100e37e4     libmmt:libm_error.omu
 0006:000007ec       ??_C@_05A@gamma?$AA@       100e37ec     libmmt:libm_error.omu
 0006:000007f4       ??_C@_06A@gammaf?$AA@      100e37f4     libmmt:libm_error.omu
 0006:000007fc       ??_C@_0BF@A@?$ANgammal?3?5SING?5error?6?$AA@ 100e37fc     libmmt:libm_error.omu
 0006:00000814       ??_C@_0BE@A@?$ANgamma?3?5SING?5error?6?$AA@ 100e3814     libmmt:libm_error.omu
 0006:00000828       ??_C@_0BF@A@?$ANgammaf?3?5SING?5error?6?$AA@ 100e3828     libmmt:libm_error.omu
 0006:00000840       ??_C@_07A@lgammal?$AA@     100e3840     libmmt:libm_error.omu
 0006:00000848       ??_C@_06A@lgamma?$AA@      100e3848     libmmt:libm_error.omu
 0006:00000850       ??_C@_07A@lgammaf?$AA@     100e3850     libmmt:libm_error.omu
 0006:00000858       ??_C@_0BG@A@?$ANlgammal?3?5SING?5error?6?$AA@ 100e3858     libmmt:libm_error.omu
 0006:00000870       ??_C@_0BF@A@?$ANlgamma?3?5SING?5error?6?$AA@ 100e3870     libmmt:libm_error.omu
 0006:00000888       ??_C@_0BG@A@?$ANlgammaf?3?5SING?5error?6?$AA@ 100e3888     libmmt:libm_error.omu
 0006:000008a0       ??_C@_07A@tgammal?$AA@     100e38a0     libmmt:libm_error.omu
 0006:000008a8       ??_C@_06A@tgamma?$AA@      100e38a8     libmmt:libm_error.omu
 0006:000008b0       ??_C@_07A@tgammaf?$AA@     100e38b0     libmmt:libm_error.omu
 0006:000008b8       ??_C@_0BI@A@?$ANtgammal?3?5DOMAIN?5error?6?$AA@ 100e38b8     libmmt:libm_error.omu
 0006:000008d0       ??_C@_0BH@A@?$ANtgamma?3?5DOMAIN?5error?6?$AA@ 100e38d0     libmmt:libm_error.omu
 0006:000008e8       ??_C@_0BI@A@?$ANtgammaf?3?5DOMAIN?5error?6?$AA@ 100e38e8     libmmt:libm_error.omu
 0006:00000900       ??_C@_03A@j0l?$AA@         100e3900     libmmt:libm_error.omu
 0006:00000904       ??_C@_0BD@A@?$ANj0l?3?5TLOSS?5error?6?$AA@ 100e3904     libmmt:libm_error.omu
 0006:00000918       ??_C@_02A@j0?$AA@          100e3918     libmmt:libm_error.omu
 0006:0000091c       ??_C@_0BC@A@?$ANj0?3?5TLOSS?5error?6?$AA@ 100e391c     libmmt:libm_error.omu
 0006:00000930       ??_C@_03A@j0f?$AA@         100e3930     libmmt:libm_error.omu
 0006:00000934       ??_C@_0BD@A@?$ANj0f?3?5TLOSS?5error?6?$AA@ 100e3934     libmmt:libm_error.omu
 0006:00000948       ??_C@_03A@j1l?$AA@         100e3948     libmmt:libm_error.omu
 0006:0000094c       ??_C@_0BD@A@?$ANj1l?3?5TLOSS?5error?6?$AA@ 100e394c     libmmt:libm_error.omu
 0006:00000960       ??_C@_02A@j1?$AA@          100e3960     libmmt:libm_error.omu
 0006:00000964       ??_C@_0BC@A@?$ANj1?3?5TLOSS?5error?6?$AA@ 100e3964     libmmt:libm_error.omu
 0006:00000978       ??_C@_03A@j1f?$AA@         100e3978     libmmt:libm_error.omu
 0006:0000097c       ??_C@_0BD@A@?$ANj1f?3?5TLOSS?5error?6?$AA@ 100e397c     libmmt:libm_error.omu
 0006:00000990       ??_C@_03A@jnl?$AA@         100e3990     libmmt:libm_error.omu
 0006:00000994       ??_C@_0BD@A@?$ANjnl?3?5TLOSS?5error?6?$AA@ 100e3994     libmmt:libm_error.omu
 0006:000009a8       ??_C@_02A@jn?$AA@          100e39a8     libmmt:libm_error.omu
 0006:000009ac       ??_C@_0BC@A@?$ANjn?3?5TLOSS?5error?6?$AA@ 100e39ac     libmmt:libm_error.omu
 0006:000009c0       ??_C@_03A@jnf?$AA@         100e39c0     libmmt:libm_error.omu
 0006:000009c4       ??_C@_0BD@A@?$ANjnf?3?5TLOSS?5error?6?$AA@ 100e39c4     libmmt:libm_error.omu
 0006:000009d8       ??_C@_03A@y0l?$AA@         100e39d8     libmmt:libm_error.omu
 0006:000009dc       ??_C@_0BD@A@?$ANy0l?3?5TLOSS?5error?6?$AA@ 100e39dc     libmmt:libm_error.omu
 0006:000009f0       ??_C@_02A@y0?$AA@          100e39f0     libmmt:libm_error.omu
 0006:000009f4       ??_C@_0BC@A@?$ANy0?3?5TLOSS?5error?6?$AA@ 100e39f4     libmmt:libm_error.omu
 0006:00000a08       ??_C@_03A@y0f?$AA@         100e3a08     libmmt:libm_error.omu
 0006:00000a0c       ??_C@_0BD@A@?$ANy0f?3?5TLOSS?5error?6?$AA@ 100e3a0c     libmmt:libm_error.omu
 0006:00000a20       ??_C@_0BE@A@?$ANy0l?3?5DOMAIN?5error?6?$AA@ 100e3a20     libmmt:libm_error.omu
 0006:00000a34       ??_C@_0BD@A@?$ANy0?3?5DOMAIN?5error?6?$AA@ 100e3a34     libmmt:libm_error.omu
 0006:00000a48       ??_C@_0BE@A@?$ANy0f?3?5DOMAIN?5error?6?$AA@ 100e3a48     libmmt:libm_error.omu
 0006:00000a5c       ??_C@_03A@y1l?$AA@         100e3a5c     libmmt:libm_error.omu
 0006:00000a60       ??_C@_0BD@A@?$ANy1l?3?5TLOSS?5error?6?$AA@ 100e3a60     libmmt:libm_error.omu
 0006:00000a74       ??_C@_02A@y1?$AA@          100e3a74     libmmt:libm_error.omu
 0006:00000a78       ??_C@_0BC@A@?$ANy1?3?5TLOSS?5error?6?$AA@ 100e3a78     libmmt:libm_error.omu
 0006:00000a8c       ??_C@_03A@y1f?$AA@         100e3a8c     libmmt:libm_error.omu
 0006:00000a90       ??_C@_0BD@A@?$ANy1f?3?5TLOSS?5error?6?$AA@ 100e3a90     libmmt:libm_error.omu
 0006:00000aa4       ??_C@_0BE@A@?$ANy1l?3?5DOMAIN?5error?6?$AA@ 100e3aa4     libmmt:libm_error.omu
 0006:00000ab8       ??_C@_0BD@A@?$ANy1?3?5DOMAIN?5error?6?$AA@ 100e3ab8     libmmt:libm_error.omu
 0006:00000acc       ??_C@_0BE@A@?$ANy1f?3?5DOMAIN?5error?6?$AA@ 100e3acc     libmmt:libm_error.omu
 0006:00000ae0       ??_C@_03A@ynl?$AA@         100e3ae0     libmmt:libm_error.omu
 0006:00000ae4       ??_C@_0BD@A@?$ANynl?3?5TLOSS?5error?6?$AA@ 100e3ae4     libmmt:libm_error.omu
 0006:00000af8       ??_C@_02A@yn?$AA@          100e3af8     libmmt:libm_error.omu
 0006:00000afc       ??_C@_0BC@A@?$ANyn?3?5TLOSS?5error?6?$AA@ 100e3afc     libmmt:libm_error.omu
 0006:00000b10       ??_C@_03A@ynf?$AA@         100e3b10     libmmt:libm_error.omu
 0006:00000b14       ??_C@_0BD@A@?$ANynf?3?5TLOSS?5error?6?$AA@ 100e3b14     libmmt:libm_error.omu
 0006:00000b28       ??_C@_0BE@A@?$ANynl?3?5DOMAIN?5error?6?$AA@ 100e3b28     libmmt:libm_error.omu
 0006:00000b3c       ??_C@_0BD@A@?$ANyn?3?5DOMAIN?5error?6?$AA@ 100e3b3c     libmmt:libm_error.omu
 0006:00000b50       ??_C@_0BE@A@?$ANynf?3?5DOMAIN?5error?6?$AA@ 100e3b50     libmmt:libm_error.omu
 0006:00000b64       ??_C@_05A@fmodl?$AA@       100e3b64     libmmt:libm_error.omu
 0006:00000b6c       ??_C@_0BG@A@?$ANfmodl?3?5DOMAIN?5error?6?$AA@ 100e3b6c     libmmt:libm_error.omu
 0006:00000b84       ??_C@_04A@fmod?$AA@        100e3b84     libmmt:libm_error.omu
 0006:00000b8c       ??_C@_0BF@A@?$ANfmod?3?5DOMAIN?5error?6?$AA@ 100e3b8c     libmmt:libm_error.omu
 0006:00000ba4       ??_C@_05A@fmodf?$AA@       100e3ba4     libmmt:libm_error.omu
 0006:00000bac       ??_C@_0BG@A@?$ANfmodf?3?5DOMAIN?5error?6?$AA@ 100e3bac     libmmt:libm_error.omu
 0006:00000bc4       ??_C@_0L@A@remainderl?$AA@ 100e3bc4     libmmt:libm_error.omu
 0006:00000bd0       ??_C@_0BL@A@?$ANremainderl?3?5DOMAIN?5error?6?$AA@ 100e3bd0     libmmt:libm_error.omu
 0006:00000bec       ??_C@_09A@remainder?$AA@   100e3bec     libmmt:libm_error.omu
 0006:00000bf8       ??_C@_0BK@A@?$ANremainder?3?5DOMAIN?5error?6?$AA@ 100e3bf8     libmmt:libm_error.omu
 0006:00000c14       ??_C@_0L@A@remainderf?$AA@ 100e3c14     libmmt:libm_error.omu
 0006:00000c20       ??_C@_0BL@A@?$ANremainderf?3?5DOMAIN?5error?6?$AA@ 100e3c20     libmmt:libm_error.omu

 entry point at        0001:00058ca0

