 IFXImporting

 Timestamp is 458c0593 (Fri Dec 22 19:19:31 2006)

 Preferred load address is 10000000

 Start         Length     Name                   Class
 0001:00000000 0009d7daH .text                   CODE
 0002:00000000 00013af3H .rdata                  DATA
 0002:00013af4 000001aaH .rdata$debug            DATA
 0002:00013ca0 00000151H .rdata$r                DATA
 0002:00013e00 000004f9H .rdata$sxdata           DATA
 0002:000142fc 00000104H .rtc$IAA                DATA
 0002:00014400 00000104H .rtc$IZZ                DATA
 0002:00014504 00000104H .rtc$TAA                DATA
 0002:00014608 00000104H .rtc$TZZ                DATA
 0002:00014710 0000018cH .edata                  DATA
 0003:00000000 00000104H .CRT$XCA                DATA
 0003:00000104 00000104H .CRT$XCAA               DATA
 0003:00000208 00000109H .CRT$XCU                DATA
 0003:00000314 00000104H .CRT$XCZ                DATA
 0003:00000418 00000104H .CRT$XIA                DATA
 0003:0000051c 0000010eH .CRT$XIC                DATA
 0003:0000062c 00000104H .CRT$XIY                DATA
 0003:00000730 00000104H .CRT$XIZ                DATA
 0003:00000834 00000104H .CRT$XPA                DATA
 0003:00000938 00000104H .CRT$XPX                DATA
 0003:00000a3c 00000104H .CRT$XPZ                DATA
 0003:00000b40 00000104H .CRT$XTA                DATA
 0003:00000c44 00000104H .CRT$XTB                DATA
 0003:00000d48 00000104H .CRT$XTZ                DATA
 0003:00000e60 00003c06H .data                   DATA
 0003:00004a80 00003058H .bss                    DATA
 0004:00000000 00000078H .idata$2                DATA
 0004:00000078 00000014H .idata$3                DATA
 0004:0000008c 00000344H .idata$4                DATA
 0004:000003d0 00000344H .idata$5                DATA
 0004:00000714 000009f2H .idata$6                DATA
 0005:00000000 000386a6H .data1                  DATA
 0006:00000000 00000faeH _RDATA                  DATA
 0007:00000000 00000250H .rsrc$01                DATA
 0007:00000250 000010e6H .rsrc$02                DATA

  Address         Publics by Value              Rva+Base     Lib:Object

 0000:00000000       __except_list              00000000     <absolute>
 0000:000000d4       ___safe_se_handler_count   000000d4     <absolute>
 0001:00000010       _DllMain@12                10001010 f   IFXImportingDllMain.obj
 0001:0000009c       _DisableThreadLibraryCalls@4 1000109c f   kernel32:KERNEL32.dll
 0001:000000a4       ?IFXImportingStartup@@YIHXZ 100010a4 f   Importing:IFXImporting.obj
 0001:000000be       ?IFXImportingShutdown@@YIHXZ 100010be f   Importing:IFXImporting.obj
 0001:000000d8       @IFXPluginRegister@8       100010d8 f   Importing:IFXImporting.obj
 0001:0000011a       @IFXPluginCanUnloadNow@0   1000111a f   Importing:IFXImporting.obj
 0001:0000013c       ??8@YIHABUIFXGUID@@0@Z     1000113c f i Importing:CIFXAuthorCLODDecoder.obj
 0001:00000278       ??$IFXInitStruct@UIFXAuthorMeshDesc@@@@YAXPAUIFXAuthorMeshDesc@@I@Z 10001278 f i Importing:CIFXAuthorCLODDecoder.obj
 0001:000002cc       ?IFXCheckX_Inline@@YAXHPAG@Z 100012cc f i Importing:CIFXAuthorCLODDecoder.obj
 0001:00000358       ??_GCIFXAuthorCLODDecoder@@EAEPAXI@Z 10001358 f i Importing:CIFXAuthorCLODDecoder.obj
 0001:00000358       ??_ECIFXAuthorCLODDecoder@@EAEPAXI@Z 10001358 f i Importing:CIFXAuthorCLODDecoder.obj
 0001:00000384       ??_GIFXException@@UAEPAXI@Z 10001384 f i Importing:CIFXAuthorCLODDecoder.obj
 0001:00000384       ??_EIFXException@@UAEPAXI@Z 10001384 f i Importing:CIFXAuthorCLODDecoder.obj
 0001:000003b0       ??0IFXUnknown@@QAE@XZ      100013b0 f i Importing:CIFXAuthorCLODDecoder.obj
 0001:000003c8       ??BIFXString@@QBEPBGXZ     100013c8 f i Importing:CIFXAuthorCLODDecoder.obj
 0001:000003e4       ??4IFXString@@QAEAAV0@ABV0@@Z 100013e4 f i Importing:CIFXAuthorCLODDecoder.obj
 0001:00000404       ??4IFXString@@QAEAAV0@PBG@Z 10001404 f i Importing:CIFXAuthorCLODDecoder.obj
 0001:00000424       ??8IFXString@@QBEHABV0@@Z  10001424 f i Importing:CIFXAuthorCLODDecoder.obj
 0001:00000454       ?Raw@IFXString@@QBEPBGXZ   10001454 f i Importing:CIFXAuthorCLODDecoder.obj
 0001:00000464       ??0IFXDecoderX@@QAE@XZ     10001464 f i Importing:CIFXAuthorCLODDecoder.obj
 0001:000004c8       ??0IFXVector2@@QAE@XZ      100014c8 f i Importing:CIFXAuthorCLODDecoder.obj
 0001:000004d4       ?Reset@IFXVector2@@QAEXXZ  100014d4 f i Importing:CIFXAuthorCLODDecoder.obj
 0001:000004ec       ?Set@IFXVector2@@QAEXMM@Z  100014ec f i Importing:CIFXAuthorCLODDecoder.obj
 0001:00000508       ??0IFXVector3@@QAE@XZ      10001508 f i Importing:CIFXAuthorCLODDecoder.obj
 0001:00000514       ??0IFXVector3@@QAE@MMM@Z   10001514 f i Importing:CIFXAuthorCLODDecoder.obj
 0001:00000544       ?Reset@IFXVector3@@QAEXXZ  10001544 f i Importing:CIFXAuthorCLODDecoder.obj
 0001:00000564       ?Set@IFXVector3@@QAEXMMM@Z 10001564 f i Importing:CIFXAuthorCLODDecoder.obj
 0001:0000058c       ??0IFXVector4@@QAE@XZ      1000158c f i Importing:CIFXAuthorCLODDecoder.obj
 0001:00000598       ?Set@IFXVector4@@QAEXMMMM@Z 10001598 f i Importing:CIFXAuthorCLODDecoder.obj
 0001:000005c8       ??0IFXAuthorMeshDesc@@QAE@XZ 100015c8 f i Importing:CIFXAuthorCLODDecoder.obj
 0001:000005f0       ??0IFXMatrix4x4@@QAE@ABV0@@Z 100015f0 f i Importing:CIFXAuthorCLODDecoder.obj
 0001:00000610       ??4IFXMatrix4x4@@QAEAAV0@ABV0@@Z 10001610 f i Importing:CIFXAuthorCLODDecoder.obj
 0001:00000640       ??0IFXBoneInfo@@QAE@XZ     10001640 f i Importing:CIFXAuthorCLODDecoder.obj
 0001:00000840       ??1IFXBoneInfo@@QAE@XZ     10001840 f i Importing:CIFXAuthorCLODDecoder.obj
 0001:000008fc       ??0?$IFXAutoRelease@VIFXBitStreamCompressedX@@@@QAE@AAPAVIFXBitStreamCompressedX@@@Z 100018fc f i Importing:CIFXAuthorCLODDecoder.obj
 0001:00000958       ??1?$IFXAutoRelease@VIFXBitStreamCompressedX@@@@QAE@XZ 10001958 f i Importing:CIFXAuthorCLODDecoder.obj
 0001:000009d0       ??0?$IFXAutoRelease@VIFXAuthorCLODResource@@@@QAE@AAPAVIFXAuthorCLODResource@@@Z 100019d0 f i Importing:CIFXAuthorCLODDecoder.obj
 0001:00000a2c       ??1?$IFXAutoRelease@VIFXAuthorCLODResource@@@@QAE@XZ 10001a2c f i Importing:CIFXAuthorCLODDecoder.obj
 0001:00000ab0       ??0?$IFXAutoRelease@VIFXAuthorCLODMesh@@@@QAE@AAPAVIFXAuthorCLODMesh@@@Z 10001ab0 f i Importing:CIFXAuthorCLODDecoder.obj
 0001:00000b0c       ??1?$IFXAutoRelease@VIFXAuthorCLODMesh@@@@QAE@XZ 10001b0c f i Importing:CIFXAuthorCLODDecoder.obj
 0001:00000b84       ??0?$IFXAutoRelease@VIFXSetAdjacencyX@@@@QAE@AAPAVIFXSetAdjacencyX@@@Z 10001b84 f i Importing:CIFXAuthorCLODDecoder.obj
 0001:00000be0       ??1?$IFXAutoRelease@VIFXSetAdjacencyX@@@@QAE@XZ 10001be0 f i Importing:CIFXAuthorCLODDecoder.obj
 0001:00000c58       ??0IFXException@@QAA@HPBGZZ 10001c58 f i Importing:CIFXAuthorCLODDecoder.obj
 0001:00000d18       ??0IFXException@@QAE@ABV0@@Z 10001d18 f i Importing:CIFXAuthorCLODDecoder.obj
 0001:00000dbc       ??1IFXException@@UAE@XZ    10001dbc f i Importing:CIFXAuthorCLODDecoder.obj
 0001:00000e4c       ??4IFXException@@QAEAAV0@ABV0@@Z 10001e4c f i Importing:CIFXAuthorCLODDecoder.obj
 0001:00000e88       ??0?$IFXAutoRelease@VIFXNameMap@@@@QAE@AAPAVIFXNameMap@@@Z 10001e88 f i Importing:CIFXAuthorCLODDecoder.obj
 0001:00000ee4       ??1?$IFXAutoRelease@VIFXNameMap@@@@QAE@XZ 10001ee4 f i Importing:CIFXAuthorCLODDecoder.obj
 0001:00000f68       ??0?$IFXAutoRelease@VIFXMetaDataX@@@@QAE@AAPAVIFXMetaDataX@@@Z 10001f68 f i Importing:CIFXAuthorCLODDecoder.obj
 0001:00000fc4       ??1?$IFXAutoRelease@VIFXMetaDataX@@@@QAE@XZ 10001fc4 f i Importing:CIFXAuthorCLODDecoder.obj
 0001:00001048       ??0?$IFXAutoRelease@VIFXSceneGraph@@@@QAE@AAPAVIFXSceneGraph@@@Z 10002048 f i Importing:CIFXAuthorCLODDecoder.obj
 0001:000010a4       ??1?$IFXAutoRelease@VIFXSceneGraph@@@@QAE@XZ 100020a4 f i Importing:CIFXAuthorCLODDecoder.obj
 0001:00001128       ??0?$IFXAutoRelease@VIFXPalette@@@@QAE@AAPAVIFXPalette@@@Z 10002128 f i Importing:CIFXAuthorCLODDecoder.obj
 0001:00001184       ??1?$IFXAutoRelease@VIFXPalette@@@@QAE@XZ 10002184 f i Importing:CIFXAuthorCLODDecoder.obj
 0001:000011fc       ??0?$IFXAutoRelease@VIFXModel@@@@QAE@AAPAVIFXModel@@@Z 100021fc f i Importing:CIFXAuthorCLODDecoder.obj
 0001:00001258       ??1?$IFXAutoRelease@VIFXModel@@@@QAE@XZ 10002258 f i Importing:CIFXAuthorCLODDecoder.obj
 0001:000012dc       ??_EIFXBoneInfo@@QAEPAXI@Z 100022dc f i Importing:CIFXAuthorCLODDecoder.obj
 0001:00001350       ?CIFXAuthorCLODDecoder_Factory@@YIHABUIFXGUID@@PAPAX@Z 10002350 f   Importing:CIFXAuthorCLODDecoder.obj
 0001:000014e4       ?AddRef@CIFXAuthorCLODDecoder@@UAIIXZ 100024e4 f   Importing:CIFXAuthorCLODDecoder.obj
 0001:00001502       ?Release@CIFXAuthorCLODDecoder@@UAIIXZ 10002502 f   Importing:CIFXAuthorCLODDecoder.obj
 0001:00001554       ?QueryInterface@CIFXAuthorCLODDecoder@@UAIHABUIFXGUID@@PAPAX@Z 10002554 f   Importing:CIFXAuthorCLODDecoder.obj
 0001:0000163c       ?InitializeX@CIFXAuthorCLODDecoder@@UAIXABUIFXLoadConfig@@@Z 1000263c f   Importing:CIFXAuthorCLODDecoder.obj
 0001:00001684       ?PutNextBlockX@CIFXAuthorCLODDecoder@@UAIXAAVIFXDataBlockX@@@Z 10002684 f   Importing:CIFXAuthorCLODDecoder.obj
 0001:000017ca       ?TransferX@CIFXAuthorCLODDecoder@@UAIXAAH@Z 100027ca f   Importing:CIFXAuthorCLODDecoder.obj
 0001:000020dc       ??0CIFXAuthorCLODDecoder@@AAE@XZ 100030dc f   Importing:CIFXAuthorCLODDecoder.obj
 0001:000023e6       ??1CIFXAuthorCLODDecoder@@EAE@XZ 100033e6 f   Importing:CIFXAuthorCLODDecoder.obj
 0001:000025ca       ?ProcessAuthorCLODDeclarationBlockX@CIFXAuthorCLODDecoder@@AAEXI@Z 100035ca f   Importing:CIFXAuthorCLODDecoder.obj
 0001:00004400       ?AddRef@CIFXAuthorCLODDecoder@@$4PPPPPPPM@A@AIIXZ 10005400 f i Importing:CIFXAuthorCLODDecoder.obj
 0001:00004420       ?Release@CIFXAuthorCLODDecoder@@$4PPPPPPPM@A@AIIXZ 10005420 f i Importing:CIFXAuthorCLODDecoder.obj
 0001:00004440       ?QueryInterface@CIFXAuthorCLODDecoder@@$4PPPPPPPM@A@AIHABUIFXGUID@@PAPAX@Z 10005440 f i Importing:CIFXAuthorCLODDecoder.obj
 0001:00004460       ?InitializeX@CIFXAuthorCLODDecoder@@$4PPPPPPPM@A@AIXABUIFXLoadConfig@@@Z 10005460 f i Importing:CIFXAuthorCLODDecoder.obj
 0001:00004480       ?PutNextBlockX@CIFXAuthorCLODDecoder@@$4PPPPPPPM@A@AIXAAVIFXDataBlockX@@@Z 10005480 f i Importing:CIFXAuthorCLODDecoder.obj
 0001:000044a0       ?TransferX@CIFXAuthorCLODDecoder@@$4PPPPPPPM@A@AIXAAH@Z 100054a0 f i Importing:CIFXAuthorCLODDecoder.obj
 0001:000044c0       ??_ECIFXGroupDecoder@@EAEPAXI@Z 100054c0 f i Importing:CIFXGroupDecoder.obj
 0001:000044c0       ??_GCIFXGroupDecoder@@EAEPAXI@Z 100054c0 f i Importing:CIFXGroupDecoder.obj
 0001:000044ec       ??0?$IFXAutoRelease@VIFXDataBlockX@@@@QAE@AAPAVIFXDataBlockX@@@Z 100054ec f i Importing:CIFXGroupDecoder.obj
 0001:00004548       ??1?$IFXAutoRelease@VIFXDataBlockX@@@@QAE@XZ 10005548 f i Importing:CIFXGroupDecoder.obj
 0001:000045cc       ?CIFXGroupDecoder_Factory@@YIHABUIFXGUID@@PAPAX@Z 100055cc f   Importing:CIFXGroupDecoder.obj
 0001:00004760       ??0CIFXGroupDecoder@@AAE@XZ 10005760 f   Importing:CIFXGroupDecoder.obj
 0001:000048a0       ??1CIFXGroupDecoder@@EAE@XZ 100058a0 f   Importing:CIFXGroupDecoder.obj
 0001:00004950       ?AddRef@CIFXGroupDecoder@@UAIIXZ 10005950 f   Importing:CIFXGroupDecoder.obj
 0001:0000496a       ?Release@CIFXGroupDecoder@@UAIIXZ 1000596a f   Importing:CIFXGroupDecoder.obj
 0001:000049b8       ?QueryInterface@CIFXGroupDecoder@@UAIHABUIFXGUID@@PAPAX@Z 100059b8 f   Importing:CIFXGroupDecoder.obj
 0001:00004a9c       ?InitializeX@CIFXGroupDecoder@@UAIXABUIFXLoadConfig@@@Z 10005a9c f   Importing:CIFXGroupDecoder.obj
 0001:00004ac0       ?PutNextBlockX@CIFXGroupDecoder@@UAIXAAVIFXDataBlockX@@@Z 10005ac0 f   Importing:CIFXGroupDecoder.obj
 0001:00004b32       ?TransferX@CIFXGroupDecoder@@UAIXAAH@Z 10005b32 f   Importing:CIFXGroupDecoder.obj
 0001:00004c38       ?AddRef@CIFXGroupDecoder@@$4PPPPPPPM@A@AIIXZ 10005c38 f i Importing:CIFXGroupDecoder.obj
 0001:00004c58       ?Release@CIFXGroupDecoder@@$4PPPPPPPM@A@AIIXZ 10005c58 f i Importing:CIFXGroupDecoder.obj
 0001:00004c78       ?QueryInterface@CIFXGroupDecoder@@$4PPPPPPPM@A@AIHABUIFXGUID@@PAPAX@Z 10005c78 f i Importing:CIFXGroupDecoder.obj
 0001:00004c98       ?InitializeX@CIFXGroupDecoder@@$4PPPPPPPM@A@AIXABUIFXLoadConfig@@@Z 10005c98 f i Importing:CIFXGroupDecoder.obj
 0001:00004cb8       ?PutNextBlockX@CIFXGroupDecoder@@$4PPPPPPPM@A@AIXAAVIFXDataBlockX@@@Z 10005cb8 f i Importing:CIFXGroupDecoder.obj
 0001:00004cd8       ?TransferX@CIFXGroupDecoder@@$4PPPPPPPM@A@AIXAAH@Z 10005cd8 f i Importing:CIFXGroupDecoder.obj
 0001:00004cf8       ??_GCIFXLightDecoder@@EAEPAXI@Z 10005cf8 f i Importing:CIFXLightDecoder.obj
 0001:00004cf8       ??_ECIFXLightDecoder@@EAEPAXI@Z 10005cf8 f i Importing:CIFXLightDecoder.obj
 0001:00004d24       ??0IFXMatrix4x4@@QAE@XZ    10005d24 f i Importing:CIFXLightDecoder.obj
 0001:00004d30       ??AIFXMatrix4x4@@QAEAAMH@Z 10005d30 f i Importing:CIFXLightDecoder.obj
 0001:00004d44       ??0IFXException@@QAE@H@Z   10005d44 f i Importing:CIFXLightDecoder.obj
 0001:00004de0       ??0?$IFXAutoRelease@VIFXUnknown@@@@QAE@AAPAVIFXUnknown@@@Z 10005de0 f i Importing:CIFXLightDecoder.obj
 0001:00004e3c       ??1?$IFXAutoRelease@VIFXUnknown@@@@QAE@XZ 10005e3c f i Importing:CIFXLightDecoder.obj
 0001:00004eb4       ??0?$IFXAutoRelease@VIFXMarker@@@@QAE@AAPAVIFXMarker@@@Z 10005eb4 f i Importing:CIFXLightDecoder.obj
 0001:00004f10       ??1?$IFXAutoRelease@VIFXMarker@@@@QAE@XZ 10005f10 f i Importing:CIFXLightDecoder.obj
 0001:00004f94       ??0?$IFXAutoRelease@VIFXLight@@@@QAE@AAPAVIFXLight@@@Z 10005f94 f i Importing:CIFXLightDecoder.obj
 0001:00004ff0       ??1?$IFXAutoRelease@VIFXLight@@@@QAE@XZ 10005ff0 f i Importing:CIFXLightDecoder.obj
 0001:00005074       ?CIFXLightDecoder_Factory@@YIHABUIFXGUID@@PAPAX@Z 10006074 f   Importing:CIFXLightDecoder.obj
 0001:00005208       ??0CIFXLightDecoder@@AAE@XZ 10006208 f   Importing:CIFXLightDecoder.obj
 0001:00005348       ??1CIFXLightDecoder@@EAE@XZ 10006348 f   Importing:CIFXLightDecoder.obj
 0001:000053f8       ?AddRef@CIFXLightDecoder@@UAIIXZ 100063f8 f   Importing:CIFXLightDecoder.obj
 0001:00005412       ?Release@CIFXLightDecoder@@UAIIXZ 10006412 f   Importing:CIFXLightDecoder.obj
 0001:00005460       ?QueryInterface@CIFXLightDecoder@@UAIHABUIFXGUID@@PAPAX@Z 10006460 f   Importing:CIFXLightDecoder.obj
 0001:00005544       ?InitializeX@CIFXLightDecoder@@UAIXABUIFXLoadConfig@@@Z 10006544 f   Importing:CIFXLightDecoder.obj
 0001:00005568       ?PutNextBlockX@CIFXLightDecoder@@UAIXAAVIFXDataBlockX@@@Z 10006568 f   Importing:CIFXLightDecoder.obj
 0001:000055da       ?TransferX@CIFXLightDecoder@@UAIXAAH@Z 100065da f   Importing:CIFXLightDecoder.obj
 0001:000062e8       ?AddRef@CIFXLightDecoder@@$4PPPPPPPM@A@AIIXZ 100072e8 f i Importing:CIFXLightDecoder.obj
 0001:00006308       ?Release@CIFXLightDecoder@@$4PPPPPPPM@A@AIIXZ 10007308 f i Importing:CIFXLightDecoder.obj
 0001:00006328       ?QueryInterface@CIFXLightDecoder@@$4PPPPPPPM@A@AIHABUIFXGUID@@PAPAX@Z 10007328 f i Importing:CIFXLightDecoder.obj
 0001:00006348       ?InitializeX@CIFXLightDecoder@@$4PPPPPPPM@A@AIXABUIFXLoadConfig@@@Z 10007348 f i Importing:CIFXLightDecoder.obj
 0001:00006368       ?PutNextBlockX@CIFXLightDecoder@@$4PPPPPPPM@A@AIXAAVIFXDataBlockX@@@Z 10007368 f i Importing:CIFXLightDecoder.obj
 0001:00006388       ?TransferX@CIFXLightDecoder@@$4PPPPPPPM@A@AIXAAH@Z 10007388 f i Importing:CIFXLightDecoder.obj
 0001:000063a8       ??_ECIFXLightResourceDecoder@@EAEPAXI@Z 100073a8 f i Importing:CIFXLightResourceDecoder.obj
 0001:000063a8       ??_GCIFXLightResourceDecoder@@EAEPAXI@Z 100073a8 f i Importing:CIFXLightResourceDecoder.obj
 0001:000063d4       ??0IFXVector4@@QAE@ABV0@@Z 100073d4 f i Importing:CIFXLightResourceDecoder.obj
 0001:000063f4       ??4IFXVector4@@QAEAAV0@ABV0@@Z 100073f4 f i Importing:CIFXLightResourceDecoder.obj
 0001:00006430       ?R@IFXVector4@@QAEAAMXZ    10007430 f i Importing:CIFXLightResourceDecoder.obj
 0001:0000643c       ?G@IFXVector4@@QAEAAMXZ    1000743c f i Importing:CIFXLightResourceDecoder.obj
 0001:0000644c       ?B@IFXVector4@@QAEAAMXZ    1000744c f i Importing:CIFXLightResourceDecoder.obj
 0001:0000645c       ?A@IFXVector4@@QAEAAMXZ    1000745c f i Importing:CIFXLightResourceDecoder.obj
 0001:0000646c       ??0?$IFXAutoRelease@VIFXBitStreamX@@@@QAE@AAPAVIFXBitStreamX@@@Z 1000746c f i Importing:CIFXLightResourceDecoder.obj
 0001:000064c8       ??1?$IFXAutoRelease@VIFXBitStreamX@@@@QAE@XZ 100074c8 f i Importing:CIFXLightResourceDecoder.obj
 0001:00006540       ?CIFXLightResourceDecoder_Factory@@YIHABUIFXGUID@@PAPAX@Z 10007540 f   Importing:CIFXLightResourceDecoder.obj
 0001:000066d4       ?AddRef@CIFXLightResourceDecoder@@UAIIXZ 100076d4 f   Importing:CIFXLightResourceDecoder.obj
 0001:000066ee       ?Release@CIFXLightResourceDecoder@@UAIIXZ 100076ee f   Importing:CIFXLightResourceDecoder.obj
 0001:0000673c       ?QueryInterface@CIFXLightResourceDecoder@@UAIHABUIFXGUID@@PAPAX@Z 1000773c f   Importing:CIFXLightResourceDecoder.obj
 0001:00006820       ?InitializeX@CIFXLightResourceDecoder@@UAIXABUIFXLoadConfig@@@Z 10007820 f   Importing:CIFXLightResourceDecoder.obj
 0001:00006844       ?PutNextBlockX@CIFXLightResourceDecoder@@UAIXAAVIFXDataBlockX@@@Z 10007844 f   Importing:CIFXLightResourceDecoder.obj
 0001:000070ec       ?TransferX@CIFXLightResourceDecoder@@UAIXAAH@Z 100080ec f   Importing:CIFXLightResourceDecoder.obj
 0001:000076d4       ??0CIFXLightResourceDecoder@@AAE@XZ 100086d4 f   Importing:CIFXLightResourceDecoder.obj
 0001:0000781e       ??1CIFXLightResourceDecoder@@EAE@XZ 1000881e f   Importing:CIFXLightResourceDecoder.obj
 0001:0000790c       ?AddRef@CIFXLightResourceDecoder@@$4PPPPPPPM@A@AIIXZ 1000890c f i Importing:CIFXLightResourceDecoder.obj
 0001:0000792c       ?Release@CIFXLightResourceDecoder@@$4PPPPPPPM@A@AIIXZ 1000892c f i Importing:CIFXLightResourceDecoder.obj
 0001:0000794c       ?QueryInterface@CIFXLightResourceDecoder@@$4PPPPPPPM@A@AIHABUIFXGUID@@PAPAX@Z 1000894c f i Importing:CIFXLightResourceDecoder.obj
 0001:0000796c       ?InitializeX@CIFXLightResourceDecoder@@$4PPPPPPPM@A@AIXABUIFXLoadConfig@@@Z 1000896c f i Importing:CIFXLightResourceDecoder.obj
 0001:0000798c       ?PutNextBlockX@CIFXLightResourceDecoder@@$4PPPPPPPM@A@AIXAAVIFXDataBlockX@@@Z 1000898c f i Importing:CIFXLightResourceDecoder.obj
 0001:000079ac       ?TransferX@CIFXLightResourceDecoder@@$4PPPPPPPM@A@AIXAAH@Z 100089ac f i Importing:CIFXLightResourceDecoder.obj
 0001:000079cc       ??_GCIFXViewResourceDecoder@@EAEPAXI@Z 100089cc f i Importing:CIFXViewResourceDecoder.obj
 0001:000079cc       ??_ECIFXViewResourceDecoder@@EAEPAXI@Z 100089cc f i Importing:CIFXViewResourceDecoder.obj
 0001:000079f8       ??9IFXString@@QBEHABV0@@Z  100089f8 f i Importing:CIFXViewResourceDecoder.obj
 0001:00007a28       ??0IFXVector4@@QAE@MMMM@Z  10008a28 f i Importing:CIFXViewResourceDecoder.obj
 0001:00007a60       ?SetMode@IFXRenderFog@@QAIHI@Z 10008a60 f i Importing:CIFXViewResourceDecoder.obj
 0001:00007aac       ?SetColor@IFXRenderFog@@QAIHABVIFXVector4@@@Z 10008aac f i Importing:CIFXViewResourceDecoder.obj
 0001:00007ad8       ?SetLinearNear@IFXRenderFog@@QAIHM@Z 10008ad8 f i Importing:CIFXViewResourceDecoder.obj
 0001:00007af8       ?SetFar@IFXRenderFog@@QAIHM@Z 10008af8 f i Importing:CIFXViewResourceDecoder.obj
 0001:00007b18       ??0?$IFXAutoRelease@VIFXNode@@@@QAE@AAPAVIFXNode@@@Z 10008b18 f i Importing:CIFXViewResourceDecoder.obj
 0001:00007b74       ??1?$IFXAutoRelease@VIFXNode@@@@QAE@XZ 10008b74 f i Importing:CIFXViewResourceDecoder.obj
 0001:00007bf8       ??0?$IFXAutoRelease@VIFXViewResource@@@@QAE@AAPAVIFXViewResource@@@Z 10008bf8 f i Importing:CIFXViewResourceDecoder.obj
 0001:00007c54       ??1?$IFXAutoRelease@VIFXViewResource@@@@QAE@XZ 10008c54 f i Importing:CIFXViewResourceDecoder.obj
 0001:00007cd8       ?CIFXViewResourceDecoder_Factory@@YIHABUIFXGUID@@PAPAX@Z 10008cd8 f   Importing:CIFXViewResourceDecoder.obj
 0001:00007e6c       ?AddRef@CIFXViewResourceDecoder@@UAIIXZ 10008e6c f   Importing:CIFXViewResourceDecoder.obj
 0001:00007e86       ?Release@CIFXViewResourceDecoder@@UAIIXZ 10008e86 f   Importing:CIFXViewResourceDecoder.obj
 0001:00007ed4       ?QueryInterface@CIFXViewResourceDecoder@@UAIHABUIFXGUID@@PAPAX@Z 10008ed4 f   Importing:CIFXViewResourceDecoder.obj
 0001:00007fb8       ?InitializeX@CIFXViewResourceDecoder@@UAIXABUIFXLoadConfig@@@Z 10008fb8 f   Importing:CIFXViewResourceDecoder.obj
 0001:00007ffa       ?PutNextBlockX@CIFXViewResourceDecoder@@UAIXAAVIFXDataBlockX@@@Z 10008ffa f   Importing:CIFXViewResourceDecoder.obj
 0001:0000889c       ?TransferX@CIFXViewResourceDecoder@@UAIXAAH@Z 1000989c f   Importing:CIFXViewResourceDecoder.obj
 0001:000089c6       ??0CIFXViewResourceDecoder@@AAE@XZ 100099c6 f   Importing:CIFXViewResourceDecoder.obj
 0001:00008b54       ??1CIFXViewResourceDecoder@@EAE@XZ 10009b54 f   Importing:CIFXViewResourceDecoder.obj
 0001:00008c3e       ?LoadViewResourceBlockX@CIFXViewResourceDecoder@@AAEXAAVIFXDataBlockX@@@Z 10009c3e f   Importing:CIFXViewResourceDecoder.obj
 0001:00009a48       ?AddRef@CIFXViewResourceDecoder@@$4PPPPPPPM@A@AIIXZ 1000aa48 f i Importing:CIFXViewResourceDecoder.obj
 0001:00009a68       ?Release@CIFXViewResourceDecoder@@$4PPPPPPPM@A@AIIXZ 1000aa68 f i Importing:CIFXViewResourceDecoder.obj
 0001:00009a88       ?QueryInterface@CIFXViewResourceDecoder@@$4PPPPPPPM@A@AIHABUIFXGUID@@PAPAX@Z 1000aa88 f i Importing:CIFXViewResourceDecoder.obj
 0001:00009aa8       ?InitializeX@CIFXViewResourceDecoder@@$4PPPPPPPM@A@AIXABUIFXLoadConfig@@@Z 1000aaa8 f i Importing:CIFXViewResourceDecoder.obj
 0001:00009ac8       ?PutNextBlockX@CIFXViewResourceDecoder@@$4PPPPPPPM@A@AIXAAVIFXDataBlockX@@@Z 1000aac8 f i Importing:CIFXViewResourceDecoder.obj
 0001:00009ae8       ?TransferX@CIFXViewResourceDecoder@@$4PPPPPPPM@A@AIXAAH@Z 1000aae8 f i Importing:CIFXViewResourceDecoder.obj
 0001:00009b08       ??_ECIFXMaterialDecoder@@EAEPAXI@Z 1000ab08 f i Importing:CIFXMaterialDecoder.obj
 0001:00009b08       ??_GCIFXMaterialDecoder@@EAEPAXI@Z 1000ab08 f i Importing:CIFXMaterialDecoder.obj
 0001:00009b34       ?X@IFXVector4@@QAEAAMXZ    1000ab34 f i Importing:CIFXMaterialDecoder.obj
 0001:00009b40       ?Y@IFXVector4@@QAEAAMXZ    1000ab40 f i Importing:CIFXMaterialDecoder.obj
 0001:00009b50       ?Z@IFXVector4@@QAEAAMXZ    1000ab50 f i Importing:CIFXMaterialDecoder.obj
 0001:00009b60       ??0?$IFXAutoRelease@VIFXMaterialResource@@@@QAE@AAPAVIFXMaterialResource@@@Z 1000ab60 f i Importing:CIFXMaterialDecoder.obj
 0001:00009bbc       ??1?$IFXAutoRelease@VIFXMaterialResource@@@@QAE@XZ 1000abbc f i Importing:CIFXMaterialDecoder.obj
 0001:00009c40       ??0?$IFXAutoRelease@VIFXCoreServices@@@@QAE@AAPAVIFXCoreServices@@@Z 1000ac40 f i Importing:CIFXMaterialDecoder.obj
 0001:00009c9c       ??1?$IFXAutoRelease@VIFXCoreServices@@@@QAE@XZ 1000ac9c f i Importing:CIFXMaterialDecoder.obj
 0001:00009d14       ??0?$IFXAutoRelease@VIFXDataBlockQueueX@@@@QAE@AAPAVIFXDataBlockQueueX@@@Z 1000ad14 f i Importing:CIFXMaterialDecoder.obj
 0001:00009d70       ??1?$IFXAutoRelease@VIFXDataBlockQueueX@@@@QAE@XZ 1000ad70 f i Importing:CIFXMaterialDecoder.obj
 0001:00009de8       ?CIFXMaterialDecoder_Factory@@YIHABUIFXGUID@@PAPAX@Z 1000ade8 f   Importing:CIFXMaterialDecoder.obj
 0001:00009f7c       ?AddRef@CIFXMaterialDecoder@@UAIIXZ 1000af7c f   Importing:CIFXMaterialDecoder.obj
 0001:00009f96       ?Release@CIFXMaterialDecoder@@UAIIXZ 1000af96 f   Importing:CIFXMaterialDecoder.obj
 0001:00009fe4       ?QueryInterface@CIFXMaterialDecoder@@UAIHABUIFXGUID@@PAPAX@Z 1000afe4 f   Importing:CIFXMaterialDecoder.obj
 0001:0000a0c8       ?InitializeX@CIFXMaterialDecoder@@UAIXABUIFXLoadConfig@@@Z 1000b0c8 f   Importing:CIFXMaterialDecoder.obj
 0001:0000a1a2       ?PutNextBlockX@CIFXMaterialDecoder@@UAIXAAVIFXDataBlockX@@@Z 1000b1a2 f   Importing:CIFXMaterialDecoder.obj
 0001:0000a926       ?TransferX@CIFXMaterialDecoder@@UAIXAAH@Z 1000b926 f   Importing:CIFXMaterialDecoder.obj
 0001:0000aa80       ??0CIFXMaterialDecoder@@AAE@XZ 1000ba80 f   Importing:CIFXMaterialDecoder.obj
 0001:0000ac66       ??1CIFXMaterialDecoder@@EAE@XZ 1000bc66 f   Importing:CIFXMaterialDecoder.obj
 0001:0000ad92       ?ProcessMaterialBlockX@CIFXMaterialDecoder@@AAEXAAVIFXDataBlockX@@@Z 1000bd92 f   Importing:CIFXMaterialDecoder.obj
 0001:0000b6fc       ?AddRef@CIFXMaterialDecoder@@$4PPPPPPPM@A@AIIXZ 1000c6fc f i Importing:CIFXMaterialDecoder.obj
 0001:0000b71c       ?Release@CIFXMaterialDecoder@@$4PPPPPPPM@A@AIIXZ 1000c71c f i Importing:CIFXMaterialDecoder.obj
 0001:0000b73c       ?QueryInterface@CIFXMaterialDecoder@@$4PPPPPPPM@A@AIHABUIFXGUID@@PAPAX@Z 1000c73c f i Importing:CIFXMaterialDecoder.obj
 0001:0000b75c       ?InitializeX@CIFXMaterialDecoder@@$4PPPPPPPM@A@AIXABUIFXLoadConfig@@@Z 1000c75c f i Importing:CIFXMaterialDecoder.obj
 0001:0000b77c       ?PutNextBlockX@CIFXMaterialDecoder@@$4PPPPPPPM@A@AIXAAVIFXDataBlockX@@@Z 1000c77c f i Importing:CIFXMaterialDecoder.obj
 0001:0000b79c       ?TransferX@CIFXMaterialDecoder@@$4PPPPPPPM@A@AIXAAH@Z 1000c79c f i Importing:CIFXMaterialDecoder.obj
 0001:0000b7bc       ??_ECIFXModelDecoder@@EAEPAXI@Z 1000c7bc f i Importing:CIFXModelDecoder.obj
 0001:0000b7bc       ??_GCIFXModelDecoder@@EAEPAXI@Z 1000c7bc f i Importing:CIFXModelDecoder.obj
 0001:0000b7e8       ??0?$IFXAutoRelease@VIFXResourceClient@@@@QAE@AAPAVIFXResourceClient@@@Z 1000c7e8 f i Importing:CIFXModelDecoder.obj
 0001:0000b844       ??1?$IFXAutoRelease@VIFXResourceClient@@@@QAE@XZ 1000c844 f i Importing:CIFXModelDecoder.obj
 0001:0000b8c8       ?CIFXModelDecoder_Factory@@YIHABUIFXGUID@@PAPAX@Z 1000c8c8 f   Importing:CIFXModelDecoder.obj
 0001:0000ba5c       ??0CIFXModelDecoder@@AAE@XZ 1000ca5c f   Importing:CIFXModelDecoder.obj
 0001:0000bb9c       ??1CIFXModelDecoder@@EAE@XZ 1000cb9c f   Importing:CIFXModelDecoder.obj
 0001:0000bc4c       ?AddRef@CIFXModelDecoder@@UAIIXZ 1000cc4c f   Importing:CIFXModelDecoder.obj
 0001:0000bc66       ?Release@CIFXModelDecoder@@UAIIXZ 1000cc66 f   Importing:CIFXModelDecoder.obj
 0001:0000bcb4       ?QueryInterface@CIFXModelDecoder@@UAIHABUIFXGUID@@PAPAX@Z 1000ccb4 f   Importing:CIFXModelDecoder.obj
 0001:0000bd98       ?InitializeX@CIFXModelDecoder@@UAIXABUIFXLoadConfig@@@Z 1000cd98 f   Importing:CIFXModelDecoder.obj
 0001:0000bdbc       ?PutNextBlockX@CIFXModelDecoder@@UAIXAAVIFXDataBlockX@@@Z 1000cdbc f   Importing:CIFXModelDecoder.obj
 0001:0000be2e       ?TransferX@CIFXModelDecoder@@UAIXAAH@Z 1000ce2e f   Importing:CIFXModelDecoder.obj
 0001:0000c454       ?AddRef@CIFXModelDecoder@@$4PPPPPPPM@A@AIIXZ 1000d454 f i Importing:CIFXModelDecoder.obj
 0001:0000c474       ?Release@CIFXModelDecoder@@$4PPPPPPPM@A@AIIXZ 1000d474 f i Importing:CIFXModelDecoder.obj
 0001:0000c494       ?QueryInterface@CIFXModelDecoder@@$4PPPPPPPM@A@AIHABUIFXGUID@@PAPAX@Z 1000d494 f i Importing:CIFXModelDecoder.obj
 0001:0000c4b4       ?InitializeX@CIFXModelDecoder@@$4PPPPPPPM@A@AIXABUIFXLoadConfig@@@Z 1000d4b4 f i Importing:CIFXModelDecoder.obj
 0001:0000c4d4       ?PutNextBlockX@CIFXModelDecoder@@$4PPPPPPPM@A@AIXAAVIFXDataBlockX@@@Z 1000d4d4 f i Importing:CIFXModelDecoder.obj
 0001:0000c4f4       ?TransferX@CIFXModelDecoder@@$4PPPPPPPM@A@AIXAAH@Z 1000d4f4 f i Importing:CIFXModelDecoder.obj
 0001:0000c514       ??_GCIFXAnimationModifierDecoder@@EAEPAXI@Z 1000d514 f i Importing:CIFXAnimationModifierDecoder.obj
 0001:0000c514       ??_ECIFXAnimationModifierDecoder@@EAEPAXI@Z 1000d514 f i Importing:CIFXAnimationModifierDecoder.obj
 0001:0000c540       ??0?$IFXAutoRelease@VIFXAnimationModifier@@@@QAE@AAPAVIFXAnimationModifier@@@Z 1000d540 f i Importing:CIFXAnimationModifierDecoder.obj
 0001:0000c59c       ??1?$IFXAutoRelease@VIFXAnimationModifier@@@@QAE@XZ 1000d59c f i Importing:CIFXAnimationModifierDecoder.obj
 0001:0000c620       ?CIFXAnimationModifierDecoder_Factory@@YIHABUIFXGUID@@PAPAX@Z 1000d620 f   Importing:CIFXAnimationModifierDecoder.obj
 0001:0000c7b4       ?AddRef@CIFXAnimationModifierDecoder@@UAIIXZ 1000d7b4 f   Importing:CIFXAnimationModifierDecoder.obj
 0001:0000c7ce       ?Release@CIFXAnimationModifierDecoder@@UAIIXZ 1000d7ce f   Importing:CIFXAnimationModifierDecoder.obj
 0001:0000c81c       ?QueryInterface@CIFXAnimationModifierDecoder@@UAIHABUIFXGUID@@PAPAX@Z 1000d81c f   Importing:CIFXAnimationModifierDecoder.obj
 0001:0000c900       ?InitializeX@CIFXAnimationModifierDecoder@@UAIXABUIFXLoadConfig@@@Z 1000d900 f   Importing:CIFXAnimationModifierDecoder.obj
 0001:0000c942       ?PutNextBlockX@CIFXAnimationModifierDecoder@@UAIXAAVIFXDataBlockX@@@Z 1000d942 f   Importing:CIFXAnimationModifierDecoder.obj
 0001:0000cf98       ?TransferX@CIFXAnimationModifierDecoder@@UAIXAAH@Z 1000df98 f   Importing:CIFXAnimationModifierDecoder.obj
 0001:0000dcc6       ??0CIFXAnimationModifierDecoder@@AAE@XZ 1000ecc6 f   Importing:CIFXAnimationModifierDecoder.obj
 0001:0000de5a       ??1CIFXAnimationModifierDecoder@@EAE@XZ 1000ee5a f   Importing:CIFXAnimationModifierDecoder.obj
 0001:0000df44       ?AddRef@CIFXAnimationModifierDecoder@@$4PPPPPPPM@A@AIIXZ 1000ef44 f i Importing:CIFXAnimationModifierDecoder.obj
 0001:0000df64       ?Release@CIFXAnimationModifierDecoder@@$4PPPPPPPM@A@AIIXZ 1000ef64 f i Importing:CIFXAnimationModifierDecoder.obj
 0001:0000df84       ?QueryInterface@CIFXAnimationModifierDecoder@@$4PPPPPPPM@A@AIHABUIFXGUID@@PAPAX@Z 1000ef84 f i Importing:CIFXAnimationModifierDecoder.obj
 0001:0000dfa4       ?InitializeX@CIFXAnimationModifierDecoder@@$4PPPPPPPM@A@AIXABUIFXLoadConfig@@@Z 1000efa4 f i Importing:CIFXAnimationModifierDecoder.obj
 0001:0000dfc4       ?PutNextBlockX@CIFXAnimationModifierDecoder@@$4PPPPPPPM@A@AIXAAVIFXDataBlockX@@@Z 1000efc4 f i Importing:CIFXAnimationModifierDecoder.obj
 0001:0000dfe4       ?TransferX@CIFXAnimationModifierDecoder@@$4PPPPPPPM@A@AIXAAH@Z 1000efe4 f i Importing:CIFXAnimationModifierDecoder.obj
 0001:0000e004       ??_ECIFXMotionDecoder@@EAEPAXI@Z 1000f004 f i Importing:CIFXMotionDecoder.obj
 0001:0000e004       ??_GCIFXMotionDecoder@@EAEPAXI@Z 1000f004 f i Importing:CIFXMotionDecoder.obj
 0001:0000e030       ??_HIFXKeyFrame@@QAEPAV0@I@Z 1000f030 f i Importing:CIFXMotionDecoder.obj
 0001:0000e068       ??0IFXVector3@@QAE@ABV0@@Z 1000f068 f i Importing:CIFXMotionDecoder.obj
 0001:0000e088       ??4IFXVector3@@QAEAAV0@ABV0@@Z 1000f088 f i Importing:CIFXMotionDecoder.obj
 0001:0000e0b8       ?Add@IFXVector3@@QAEAAV1@ABV1@0@Z 1000f0b8 f i Importing:CIFXMotionDecoder.obj
 0001:0000e100       ??0IFXQuaternion@@QAE@XZ   1000f100 f i Importing:CIFXMotionDecoder.obj
 0001:0000e12c       ??0IFXQuaternion@@QAE@ABV0@@Z 1000f12c f i Importing:CIFXMotionDecoder.obj
 0001:0000e14c       ??0IFXQuaternion@@QAE@MMMM@Z 1000f14c f i Importing:CIFXMotionDecoder.obj
 0001:0000e184       ??4IFXQuaternion@@QAEAAV0@ABV0@@Z 1000f184 f i Importing:CIFXMotionDecoder.obj
 0001:0000e1c0       ?Set@IFXQuaternion@@QAEXMMMM@Z 1000f1c0 f i Importing:CIFXMotionDecoder.obj
 0001:0000e1f0       ?MakeIdentity@IFXQuaternion@@QAEXXZ 1000f1f0 f i Importing:CIFXMotionDecoder.obj
 0001:0000e218       ?RawConst@IFXQuaternion@@QBEPBMXZ 1000f218 f i Importing:CIFXMotionDecoder.obj
 0001:0000e224       ?Multiply@IFXQuaternion@@QAEAAV1@ABV1@0@Z 1000f224 f i Importing:CIFXMotionDecoder.obj
 0001:0000e3d8       ??0IFXInstant@@QAE@XZ      1000f3d8 f i Importing:CIFXMotionDecoder.obj
 0001:0000e414       ?Reset@IFXInstant@@QAEXXZ  1000f414 f i Importing:CIFXMotionDecoder.obj
 0001:0000e458       ?Location@IFXInstant@@QAEAAVIFXVector3@@XZ 1000f458 f i Importing:CIFXMotionDecoder.obj
 0001:0000e464       ?Rotation@IFXInstant@@QAEAAVIFXQuaternion@@XZ 1000f464 f i Importing:CIFXMotionDecoder.obj
 0001:0000e474       ?Scale@IFXInstant@@QAEAAVIFXVector3@@XZ 1000f474 f i Importing:CIFXMotionDecoder.obj
 0001:0000e484       ??4IFXInstant@@QAEAAV0@ABV0@@Z 1000f484 f i Importing:CIFXMotionDecoder.obj
 0001:0000e4d4       ??0IFXKeyFrame@@QAE@XZ     1000f4d4 f i Importing:CIFXMotionDecoder.obj
 0001:0000e4f4       ?Time@IFXKeyFrame@@QAEAAMXZ 1000f4f4 f i Importing:CIFXMotionDecoder.obj
 0001:0000e504       ?SetTime@IFXKeyFrame@@QAEXM@Z 1000f504 f i Importing:CIFXMotionDecoder.obj
 0001:0000e518       ??4IFXKeyFrame@@QAEAAV0@ABV0@@Z 1000f518 f i Importing:CIFXMotionDecoder.obj
 0001:0000e544       ?SetName@IFXMotion@@QAEXABVIFXString@@@Z 1000f544 f i Importing:CIFXMotionDecoder.obj
 0001:0000e564       ??0?$IFXAutoRelease@VIFXMotionResource@@@@QAE@AAPAVIFXMotionResource@@@Z 1000f564 f i Importing:CIFXMotionDecoder.obj
 0001:0000e5c0       ??1?$IFXAutoRelease@VIFXMotionResource@@@@QAE@XZ 1000f5c0 f i Importing:CIFXMotionDecoder.obj
 0001:0000e644       ??0?$IFXAutoRelease@VIFXMixerConstruct@@@@QAE@AAPAVIFXMixerConstruct@@@Z 1000f644 f i Importing:CIFXMotionDecoder.obj
 0001:0000e6a0       ??1?$IFXAutoRelease@VIFXMixerConstruct@@@@QAE@XZ 1000f6a0 f i Importing:CIFXMotionDecoder.obj
 0001:0000e724       ?CIFXMotionDecoder_Factory@@YIHABUIFXGUID@@PAPAX@Z 1000f724 f   Importing:CIFXMotionDecoder.obj
 0001:0000e8b8       ?AddRef@CIFXMotionDecoder@@UAIIXZ 1000f8b8 f   Importing:CIFXMotionDecoder.obj
 0001:0000e8d2       ?Release@CIFXMotionDecoder@@UAIIXZ 1000f8d2 f   Importing:CIFXMotionDecoder.obj
 0001:0000e920       ?QueryInterface@CIFXMotionDecoder@@UAIHABUIFXGUID@@PAPAX@Z 1000f920 f   Importing:CIFXMotionDecoder.obj
 0001:0000ea04       ?InitializeX@CIFXMotionDecoder@@UAIXABUIFXLoadConfig@@@Z 1000fa04 f   Importing:CIFXMotionDecoder.obj
 0001:0000eade       ?PutNextBlockX@CIFXMotionDecoder@@UAIXAAVIFXDataBlockX@@@Z 1000fade f   Importing:CIFXMotionDecoder.obj
 0001:0000f252       ?TransferX@CIFXMotionDecoder@@UAIXAAH@Z 10010252 f   Importing:CIFXMotionDecoder.obj
 0001:0000f3be       ??0CIFXMotionDecoder@@AAE@XZ 100103be f   Importing:CIFXMotionDecoder.obj
 0001:0000f5a4       ??1CIFXMotionDecoder@@EAE@XZ 100105a4 f   Importing:CIFXMotionDecoder.obj
 0001:0000f6d0       ?ProcessMotionCompressedX@CIFXMotionDecoder@@AAEXAAVIFXDataBlockX@@@Z 100106d0 f   Importing:CIFXMotionDecoder.obj
 0001:00011584       ?AddRef@CIFXMotionDecoder@@$4PPPPPPPM@A@AIIXZ 10012584 f i Importing:CIFXMotionDecoder.obj
 0001:000115a4       ?Release@CIFXMotionDecoder@@$4PPPPPPPM@A@AIIXZ 100125a4 f i Importing:CIFXMotionDecoder.obj
 0001:000115c4       ?QueryInterface@CIFXMotionDecoder@@$4PPPPPPPM@A@AIHABUIFXGUID@@PAPAX@Z 100125c4 f i Importing:CIFXMotionDecoder.obj
 0001:000115e4       ?InitializeX@CIFXMotionDecoder@@$4PPPPPPPM@A@AIXABUIFXLoadConfig@@@Z 100125e4 f i Importing:CIFXMotionDecoder.obj
 0001:00011604       ?PutNextBlockX@CIFXMotionDecoder@@$4PPPPPPPM@A@AIXAAVIFXDataBlockX@@@Z 10012604 f i Importing:CIFXMotionDecoder.obj
 0001:00011624       ?TransferX@CIFXMotionDecoder@@$4PPPPPPPM@A@AIXAAH@Z 10012624 f i Importing:CIFXMotionDecoder.obj
 0001:00011644       ??_GCIFXGlyphGeneratorDecoder@@EAEPAXI@Z 10012644 f i Importing:CIFXGlyphModifierDecoder.obj
 0001:00011644       ??_ECIFXGlyphGeneratorDecoder@@EAEPAXI@Z 10012644 f i Importing:CIFXGlyphModifierDecoder.obj
 0001:00011670       ?Raw@IFXMatrix4x4@@QAEPAMXZ 10012670 f i Importing:CIFXGlyphModifierDecoder.obj
 0001:0001167c       ??0?$IFXAutoRelease@VIFXGlyph2DModifier@@@@QAE@AAPAVIFXGlyph2DModifier@@@Z 1001267c f i Importing:CIFXGlyphModifierDecoder.obj
 0001:000116d8       ??1?$IFXAutoRelease@VIFXGlyph2DModifier@@@@QAE@XZ 100126d8 f i Importing:CIFXGlyphModifierDecoder.obj
 0001:0001175c       ?CIFXGlyphGeneratorDecoder_Factory@@YIHABUIFXGUID@@PAPAX@Z 1001275c f   Importing:CIFXGlyphModifierDecoder.obj
 0001:000118f0       ?AddRef@CIFXGlyphGeneratorDecoder@@UAIIXZ 100128f0 f   Importing:CIFXGlyphModifierDecoder.obj
 0001:0001190a       ?Release@CIFXGlyphGeneratorDecoder@@UAIIXZ 1001290a f   Importing:CIFXGlyphModifierDecoder.obj
 0001:00011958       ?QueryInterface@CIFXGlyphGeneratorDecoder@@UAIHABUIFXGUID@@PAPAX@Z 10012958 f   Importing:CIFXGlyphModifierDecoder.obj
 0001:00011a3c       ?InitializeX@CIFXGlyphGeneratorDecoder@@UAIXABUIFXLoadConfig@@@Z 10012a3c f   Importing:CIFXGlyphModifierDecoder.obj
 0001:00011a7e       ?PutNextBlockX@CIFXGlyphGeneratorDecoder@@UAIXAAVIFXDataBlockX@@@Z 10012a7e f   Importing:CIFXGlyphModifierDecoder.obj
 0001:00011af0       ?TransferX@CIFXGlyphGeneratorDecoder@@UAIXAAH@Z 10012af0 f   Importing:CIFXGlyphModifierDecoder.obj
 0001:00011c4a       ??0CIFXGlyphGeneratorDecoder@@AAE@XZ 10012c4a f   Importing:CIFXGlyphModifierDecoder.obj
 0001:00011d92       ??1CIFXGlyphGeneratorDecoder@@EAE@XZ 10012d92 f   Importing:CIFXGlyphModifierDecoder.obj
 0001:00011e42       ?ProcessGlyph2DBlockX@CIFXGlyphGeneratorDecoder@@AAEXAAVIFXDataBlockX@@@Z 10012e42 f   Importing:CIFXGlyphModifierDecoder.obj
 0001:000129bc       ?AddRef@CIFXGlyphGeneratorDecoder@@$4PPPPPPPM@A@AIIXZ 100139bc f i Importing:CIFXGlyphModifierDecoder.obj
 0001:000129dc       ?Release@CIFXGlyphGeneratorDecoder@@$4PPPPPPPM@A@AIIXZ 100139dc f i Importing:CIFXGlyphModifierDecoder.obj
 0001:000129fc       ?QueryInterface@CIFXGlyphGeneratorDecoder@@$4PPPPPPPM@A@AIHABUIFXGUID@@PAPAX@Z 100139fc f i Importing:CIFXGlyphModifierDecoder.obj
 0001:00012a1c       ?InitializeX@CIFXGlyphGeneratorDecoder@@$4PPPPPPPM@A@AIXABUIFXLoadConfig@@@Z 10013a1c f i Importing:CIFXGlyphModifierDecoder.obj
 0001:00012a3c       ?PutNextBlockX@CIFXGlyphGeneratorDecoder@@$4PPPPPPPM@A@AIXAAVIFXDataBlockX@@@Z 10013a3c f i Importing:CIFXGlyphModifierDecoder.obj
 0001:00012a5c       ?TransferX@CIFXGlyphGeneratorDecoder@@$4PPPPPPPM@A@AIXAAH@Z 10013a5c f i Importing:CIFXGlyphModifierDecoder.obj
 0001:00012a7c       ??_GCIFXShaderLitTextureDecoder@@EAEPAXI@Z 10013a7c f i Importing:CIFXShaderLitTextureDecoder.obj
 0001:00012a7c       ??_ECIFXShaderLitTextureDecoder@@EAEPAXI@Z 10013a7c f i Importing:CIFXShaderLitTextureDecoder.obj
 0001:00012aa8       ?SetReference@IFXRenderBlend@@QAIHM@Z 10013aa8 f i Importing:CIFXShaderLitTextureDecoder.obj
 0001:00012af4       ?SetTestFunc@IFXRenderBlend@@QAIHI@Z 10013af4 f i Importing:CIFXShaderLitTextureDecoder.obj
 0001:00012b38       ?SetBlendFunc@IFXRenderBlend@@QAIHI@Z 10013b38 f i Importing:CIFXShaderLitTextureDecoder.obj
 0001:00012b90       ?SetUseVertexColors@IFXRenderMaterial@@QAIHH@Z 10013b90 f i Importing:CIFXShaderLitTextureDecoder.obj
 0001:00012bb4       ??0?$IFXAutoRelease@VIFXShaderLitTexture@@@@QAE@AAPAVIFXShaderLitTexture@@@Z 10013bb4 f i Importing:CIFXShaderLitTextureDecoder.obj
 0001:00012c10       ??1?$IFXAutoRelease@VIFXShaderLitTexture@@@@QAE@XZ 10013c10 f i Importing:CIFXShaderLitTextureDecoder.obj
 0001:00012c94       ?CIFXShaderLitTextureDecoder_Factory@@YIHABUIFXGUID@@PAPAX@Z 10013c94 f   Importing:CIFXShaderLitTextureDecoder.obj
 0001:00012e28       ?AddRef@CIFXShaderLitTextureDecoder@@UAIIXZ 10013e28 f   Importing:CIFXShaderLitTextureDecoder.obj
 0001:00012e42       ?Release@CIFXShaderLitTextureDecoder@@UAIIXZ 10013e42 f   Importing:CIFXShaderLitTextureDecoder.obj
 0001:00012e90       ?QueryInterface@CIFXShaderLitTextureDecoder@@UAIHABUIFXGUID@@PAPAX@Z 10013e90 f   Importing:CIFXShaderLitTextureDecoder.obj
 0001:00012f74       ?InitializeX@CIFXShaderLitTextureDecoder@@UAIXABUIFXLoadConfig@@@Z 10013f74 f   Importing:CIFXShaderLitTextureDecoder.obj
 0001:0001304e       ?PutNextBlockX@CIFXShaderLitTextureDecoder@@UAIXAAVIFXDataBlockX@@@Z 1001404e f   Importing:CIFXShaderLitTextureDecoder.obj
 0001:00013804       ?TransferX@CIFXShaderLitTextureDecoder@@UAIXAAH@Z 10014804 f   Importing:CIFXShaderLitTextureDecoder.obj
 0001:0001397a       ??0CIFXShaderLitTextureDecoder@@AAE@XZ 1001497a f   Importing:CIFXShaderLitTextureDecoder.obj
 0001:00013bac       ??1CIFXShaderLitTextureDecoder@@EAE@XZ 10014bac f   Importing:CIFXShaderLitTextureDecoder.obj
 0001:00013d12       ?DecodeShaderLitTextureU3DX@CIFXShaderLitTextureDecoder@@AAEXAAVIFXDataBlockX@@@Z 10014d12 f   Importing:CIFXShaderLitTextureDecoder.obj
 0001:00014f98       ?AddRef@CIFXShaderLitTextureDecoder@@$4PPPPPPPM@A@AIIXZ 10015f98 f i Importing:CIFXShaderLitTextureDecoder.obj
 0001:00014fb8       ?Release@CIFXShaderLitTextureDecoder@@$4PPPPPPPM@A@AIIXZ 10015fb8 f i Importing:CIFXShaderLitTextureDecoder.obj
 0001:00014fd8       ?QueryInterface@CIFXShaderLitTextureDecoder@@$4PPPPPPPM@A@AIHABUIFXGUID@@PAPAX@Z 10015fd8 f i Importing:CIFXShaderLitTextureDecoder.obj
 0001:00014ff8       ?InitializeX@CIFXShaderLitTextureDecoder@@$4PPPPPPPM@A@AIXABUIFXLoadConfig@@@Z 10015ff8 f i Importing:CIFXShaderLitTextureDecoder.obj
 0001:00015018       ?PutNextBlockX@CIFXShaderLitTextureDecoder@@$4PPPPPPPM@A@AIXAAVIFXDataBlockX@@@Z 10016018 f i Importing:CIFXShaderLitTextureDecoder.obj
 0001:00015038       ?TransferX@CIFXShaderLitTextureDecoder@@$4PPPPPPPM@A@AIXAAH@Z 10016038 f i Importing:CIFXShaderLitTextureDecoder.obj
 0001:00015058       ??_ECIFXTextureDecoder@@EAEPAXI@Z 10016058 f i Importing:CIFXTextureDecoder.obj
 0001:00015058       ??_GCIFXTextureDecoder@@EAEPAXI@Z 10016058 f i Importing:CIFXTextureDecoder.obj
 0001:00015084       ??0?$IFXAutoRelease@VIFXDecoderX@@@@QAE@AAPAVIFXDecoderX@@@Z 10016084 f i Importing:CIFXTextureDecoder.obj
 0001:000150e0       ??1?$IFXAutoRelease@VIFXDecoderX@@@@QAE@XZ 100160e0 f i Importing:CIFXTextureDecoder.obj
 0001:00015164       ?CIFXTextureDecoder_Factory@@YIHABUIFXGUID@@PAPAX@Z 10016164 f   Importing:CIFXTextureDecoder.obj
 0001:000152f8       ?AddRef@CIFXTextureDecoder@@UAIIXZ 100162f8 f   Importing:CIFXTextureDecoder.obj
 0001:00015312       ?Release@CIFXTextureDecoder@@UAIIXZ 10016312 f   Importing:CIFXTextureDecoder.obj
 0001:00015360       ?QueryInterface@CIFXTextureDecoder@@UAIHABUIFXGUID@@PAPAX@Z 10016360 f   Importing:CIFXTextureDecoder.obj
 0001:00015444       ?InitializeX@CIFXTextureDecoder@@UAIXABUIFXLoadConfig@@@Z 10016444 f   Importing:CIFXTextureDecoder.obj
 0001:000154bc       ?PutNextBlockX@CIFXTextureDecoder@@UAIXAAVIFXDataBlockX@@@Z 100164bc f   Importing:CIFXTextureDecoder.obj
 0001:00015c4e       ?TransferX@CIFXTextureDecoder@@UAIXAAH@Z 10016c4e f   Importing:CIFXTextureDecoder.obj
 0001:00015ca6       ??0CIFXTextureDecoder@@AAE@XZ 10016ca6 f   Importing:CIFXTextureDecoder.obj
 0001:00015e48       ??1CIFXTextureDecoder@@EAE@XZ 10016e48 f   Importing:CIFXTextureDecoder.obj
 0001:00015f38       ?AddRef@CIFXTextureDecoder@@$4PPPPPPPM@A@AIIXZ 10016f38 f i Importing:CIFXTextureDecoder.obj
 0001:00015f58       ?Release@CIFXTextureDecoder@@$4PPPPPPPM@A@AIIXZ 10016f58 f i Importing:CIFXTextureDecoder.obj
 0001:00015f78       ?QueryInterface@CIFXTextureDecoder@@$4PPPPPPPM@A@AIHABUIFXGUID@@PAPAX@Z 10016f78 f i Importing:CIFXTextureDecoder.obj
 0001:00015f98       ?InitializeX@CIFXTextureDecoder@@$4PPPPPPPM@A@AIXABUIFXLoadConfig@@@Z 10016f98 f i Importing:CIFXTextureDecoder.obj
 0001:00015fb8       ?PutNextBlockX@CIFXTextureDecoder@@$4PPPPPPPM@A@AIXAAVIFXDataBlockX@@@Z 10016fb8 f i Importing:CIFXTextureDecoder.obj
 0001:00015fd8       ?TransferX@CIFXTextureDecoder@@$4PPPPPPPM@A@AIXAAH@Z 10016fd8 f i Importing:CIFXTextureDecoder.obj
 0001:00015ff8       ??_GCIFXSubdivisionModifierDecoder@@EAEPAXI@Z 10016ff8 f i Importing:CIFXSubdivisionModifierDecoder.obj
 0001:00015ff8       ??_ECIFXSubdivisionModifierDecoder@@EAEPAXI@Z 10016ff8 f i Importing:CIFXSubdivisionModifierDecoder.obj
 0001:00016024       ??0?$IFXAutoRelease@VIFXSubdivModifier@@@@QAE@AAPAVIFXSubdivModifier@@@Z 10017024 f i Importing:CIFXSubdivisionModifierDecoder.obj
 0001:00016080       ??1?$IFXAutoRelease@VIFXSubdivModifier@@@@QAE@XZ 10017080 f i Importing:CIFXSubdivisionModifierDecoder.obj
 0001:00016104       ?CIFXSubdivisionModifierDecoder_Factory@@YIHABUIFXGUID@@PAPAX@Z 10017104 f   Importing:CIFXSubdivisionModifierDecoder.obj
 0001:00016298       ?AddRef@CIFXSubdivisionModifierDecoder@@UAIIXZ 10017298 f   Importing:CIFXSubdivisionModifierDecoder.obj
 0001:000162b2       ?Release@CIFXSubdivisionModifierDecoder@@UAIIXZ 100172b2 f   Importing:CIFXSubdivisionModifierDecoder.obj
 0001:00016300       ?QueryInterface@CIFXSubdivisionModifierDecoder@@UAIHABUIFXGUID@@PAPAX@Z 10017300 f   Importing:CIFXSubdivisionModifierDecoder.obj
 0001:000163e4       ?InitializeX@CIFXSubdivisionModifierDecoder@@UAIXABUIFXLoadConfig@@@Z 100173e4 f   Importing:CIFXSubdivisionModifierDecoder.obj
 0001:00016408       ?PutNextBlockX@CIFXSubdivisionModifierDecoder@@UAIXAAVIFXDataBlockX@@@Z 10017408 f   Importing:CIFXSubdivisionModifierDecoder.obj
 0001:0001647a       ?TransferX@CIFXSubdivisionModifierDecoder@@UAIXAAH@Z 1001747a f   Importing:CIFXSubdivisionModifierDecoder.obj
 0001:000165a4       ??0CIFXSubdivisionModifierDecoder@@AAE@XZ 100175a4 f   Importing:CIFXSubdivisionModifierDecoder.obj
 0001:000166e4       ??1CIFXSubdivisionModifierDecoder@@EAE@XZ 100176e4 f   Importing:CIFXSubdivisionModifierDecoder.obj
 0001:00016794       ?ProcessSubdivisionModifierBlockX@CIFXSubdivisionModifierDecoder@@AAEXAAVIFXDataBlockX@@@Z 10017794 f   Importing:CIFXSubdivisionModifierDecoder.obj
 0001:00016e58       ?AddRef@CIFXSubdivisionModifierDecoder@@$4PPPPPPPM@A@AIIXZ 10017e58 f i Importing:CIFXSubdivisionModifierDecoder.obj
 0001:00016e78       ?Release@CIFXSubdivisionModifierDecoder@@$4PPPPPPPM@A@AIIXZ 10017e78 f i Importing:CIFXSubdivisionModifierDecoder.obj
 0001:00016e98       ?QueryInterface@CIFXSubdivisionModifierDecoder@@$4PPPPPPPM@A@AIHABUIFXGUID@@PAPAX@Z 10017e98 f i Importing:CIFXSubdivisionModifierDecoder.obj
 0001:00016eb8       ?InitializeX@CIFXSubdivisionModifierDecoder@@$4PPPPPPPM@A@AIXABUIFXLoadConfig@@@Z 10017eb8 f i Importing:CIFXSubdivisionModifierDecoder.obj
 0001:00016ed8       ?PutNextBlockX@CIFXSubdivisionModifierDecoder@@$4PPPPPPPM@A@AIXAAVIFXDataBlockX@@@Z 10017ed8 f i Importing:CIFXSubdivisionModifierDecoder.obj
 0001:00016ef8       ?TransferX@CIFXSubdivisionModifierDecoder@@$4PPPPPPPM@A@AIXAAH@Z 10017ef8 f i Importing:CIFXSubdivisionModifierDecoder.obj
 0001:00016f18       ??_GCIFXShadingModifierDecoder@@EAEPAXI@Z 10017f18 f i Importing:CIFXShadingModifierDecoder.obj
 0001:00016f18       ??_ECIFXShadingModifierDecoder@@EAEPAXI@Z 10017f18 f i Importing:CIFXShadingModifierDecoder.obj
 0001:00016f44       ??0?$IFXAutoRelease@VIFXShadingModifier@@@@QAE@AAPAVIFXShadingModifier@@@Z 10017f44 f i Importing:CIFXShadingModifierDecoder.obj
 0001:00016fa0       ??1?$IFXAutoRelease@VIFXShadingModifier@@@@QAE@XZ 10017fa0 f i Importing:CIFXShadingModifierDecoder.obj
 0001:00017024       ??0?$IFXAutoRelease@VIFXShaderList@@@@QAE@AAPAVIFXShaderList@@@Z 10018024 f i Importing:CIFXShadingModifierDecoder.obj
 0001:00017080       ??1?$IFXAutoRelease@VIFXShaderList@@@@QAE@XZ 10018080 f i Importing:CIFXShadingModifierDecoder.obj
 0001:00017104       ?CIFXShadingModifierDecoder_Factory@@YIHABUIFXGUID@@PAPAX@Z 10018104 f   Importing:CIFXShadingModifierDecoder.obj
 0001:00017298       ?AddRef@CIFXShadingModifierDecoder@@UAIIXZ 10018298 f   Importing:CIFXShadingModifierDecoder.obj
 0001:000172b2       ?Release@CIFXShadingModifierDecoder@@UAIIXZ 100182b2 f   Importing:CIFXShadingModifierDecoder.obj
 0001:00017300       ?QueryInterface@CIFXShadingModifierDecoder@@UAIHABUIFXGUID@@PAPAX@Z 10018300 f   Importing:CIFXShadingModifierDecoder.obj
 0001:000173e4       ?InitializeX@CIFXShadingModifierDecoder@@UAIXABUIFXLoadConfig@@@Z 100183e4 f   Importing:CIFXShadingModifierDecoder.obj
 0001:00017408       ?PutNextBlockX@CIFXShadingModifierDecoder@@UAIXAAVIFXDataBlockX@@@Z 10018408 f   Importing:CIFXShadingModifierDecoder.obj
 0001:0001747a       ?TransferX@CIFXShadingModifierDecoder@@UAIXAAH@Z 1001847a f   Importing:CIFXShadingModifierDecoder.obj
 0001:000175a4       ??0CIFXShadingModifierDecoder@@AAE@XZ 100185a4 f   Importing:CIFXShadingModifierDecoder.obj
 0001:000176e4       ??1CIFXShadingModifierDecoder@@EAE@XZ 100186e4 f   Importing:CIFXShadingModifierDecoder.obj
 0001:00017794       ?ProcessShadingModifierBlockX@CIFXShadingModifierDecoder@@AAEXAAVIFXDataBlockX@@@Z 10018794 f   Importing:CIFXShadingModifierDecoder.obj
 0001:000184c4       ?AddRef@CIFXShadingModifierDecoder@@$4PPPPPPPM@A@AIIXZ 100194c4 f i Importing:CIFXShadingModifierDecoder.obj
 0001:000184e4       ?Release@CIFXShadingModifierDecoder@@$4PPPPPPPM@A@AIIXZ 100194e4 f i Importing:CIFXShadingModifierDecoder.obj
 0001:00018504       ?QueryInterface@CIFXShadingModifierDecoder@@$4PPPPPPPM@A@AIHABUIFXGUID@@PAPAX@Z 10019504 f i Importing:CIFXShadingModifierDecoder.obj
 0001:00018524       ?InitializeX@CIFXShadingModifierDecoder@@$4PPPPPPPM@A@AIXABUIFXLoadConfig@@@Z 10019524 f i Importing:CIFXShadingModifierDecoder.obj
 0001:00018544       ?PutNextBlockX@CIFXShadingModifierDecoder@@$4PPPPPPPM@A@AIXAAVIFXDataBlockX@@@Z 10019544 f i Importing:CIFXShadingModifierDecoder.obj
 0001:00018564       ?TransferX@CIFXShadingModifierDecoder@@$4PPPPPPPM@A@AIXAAH@Z 10019564 f i Importing:CIFXShadingModifierDecoder.obj
 0001:00018584       ??_GCIFXDecoderChainX@@EAEPAXI@Z 10019584 f i Importing:CIFXDecoderChainX.obj
 0001:00018584       ??_ECIFXDecoderChainX@@EAEPAXI@Z 10019584 f i Importing:CIFXDecoderChainX.obj
 0001:000185b0       ??0IFXDecoderChainX@@QAE@XZ 100195b0 f i Importing:CIFXDecoderChainX.obj
 0001:000185d0       ?CIFXDecoderChainX_Factory@@YIHABUIFXGUID@@PAPAX@Z 100195d0 f   Importing:CIFXDecoderChainX.obj
 0001:00018734       ?AddRef@CIFXDecoderChainX@@UAIIXZ 10019734 f   Importing:CIFXDecoderChainX.obj
 0001:0001874a       ?Release@CIFXDecoderChainX@@UAIIXZ 1001974a f   Importing:CIFXDecoderChainX.obj
 0001:00018796       ?QueryInterface@CIFXDecoderChainX@@UAIHABUIFXGUID@@PAPAX@Z 10019796 f   Importing:CIFXDecoderChainX.obj
 0001:00018842       ?AddDecoderX@CIFXDecoderChainX@@UAIXAAVIFXDecoderX@@I@Z 10019842 f   Importing:CIFXDecoderChainX.obj
 0001:00018a12       ?InitializeX@CIFXDecoderChainX@@UAIXXZ 10019a12 f   Importing:CIFXDecoderChainX.obj
 0001:00018ad0       ?GetDecoderCountX@CIFXDecoderChainX@@UAIXAAI@Z 10019ad0 f   Importing:CIFXDecoderChainX.obj
 0001:00018aea       ?GetDecoderX@CIFXDecoderChainX@@UAIXIAAPAVIFXDecoderX@@@Z 10019aea f   Importing:CIFXDecoderChainX.obj
 0001:00018b9c       ?RemoveDecoderX@CIFXDecoderChainX@@UAIXI@Z 10019b9c f   Importing:CIFXDecoderChainX.obj
 0001:00018c7e       ??0CIFXDecoderChainX@@AAE@XZ 10019c7e f   Importing:CIFXDecoderChainX.obj
 0001:00018cb8       ??1CIFXDecoderChainX@@EAE@XZ 10019cb8 f   Importing:CIFXDecoderChainX.obj
 0001:00018cf8       ?ReleaseArrayDecoders@CIFXDecoderChainX@@AAIXXZ 10019cf8 f   Importing:CIFXDecoderChainX.obj
 0001:00018dbc       ??_ECIFXViewDecoder@@EAEPAXI@Z 10019dbc f i Importing:CIFXViewDecoder.obj
 0001:00018dbc       ??_GCIFXViewDecoder@@EAEPAXI@Z 10019dbc f i Importing:CIFXViewDecoder.obj
 0001:00018de8       ??_EIFXViewLayer@@UAEPAXI@Z 10019de8 f i Importing:CIFXViewDecoder.obj
 0001:00018de8       ??_GIFXViewLayer@@UAEPAXI@Z 10019de8 f i Importing:CIFXViewDecoder.obj
 0001:00018e14       ?X@IFXVector2@@QAEAAMXZ    10019e14 f i Importing:CIFXViewDecoder.obj
 0001:00018e20       ?Y@IFXVector2@@QAEAAMXZ    10019e20 f i Importing:CIFXViewDecoder.obj
 0001:00018e30       ??0?$IFXRectT@H@@QAE@XZ    10019e30 f i Importing:CIFXViewDecoder.obj
 0001:00018e64       ??0?$IFXRectT@H@@QAE@HHHH@Z 10019e64 f i Importing:CIFXViewDecoder.obj
 0001:00018e98       ?Set@?$IFXRectT@H@@QAIXHHHH@Z 10019e98 f i Importing:CIFXViewDecoder.obj
 0001:00018ecc       ??0?$IFXRectT@M@@QAE@XZ    10019ecc f i Importing:CIFXViewDecoder.obj
 0001:00018f08       ??0?$IFXRectT@M@@QAE@MMMM@Z 10019f08 f i Importing:CIFXViewDecoder.obj
 0001:00018f3c       ??0IFXViewLayer@@QAE@XZ    10019f3c f i Importing:CIFXViewDecoder.obj
 0001:00018fb0       ??1IFXViewLayer@@UAE@XZ    10019fb0 f i Importing:CIFXViewDecoder.obj
 0001:00018fc4       ??0?$IFXAutoRelease@VIFXView@@@@QAE@AAPAVIFXView@@@Z 10019fc4 f i Importing:CIFXViewDecoder.obj
 0001:00019020       ??1?$IFXAutoRelease@VIFXView@@@@QAE@XZ 1001a020 f i Importing:CIFXViewDecoder.obj
 0001:000190a4       ?CIFXViewDecoder_Factory@@YIHABUIFXGUID@@PAPAX@Z 1001a0a4 f   Importing:CIFXViewDecoder.obj
 0001:00019238       ??0CIFXViewDecoder@@AAE@XZ 1001a238 f   Importing:CIFXViewDecoder.obj
 0001:00019380       ??1CIFXViewDecoder@@EAE@XZ 1001a380 f   Importing:CIFXViewDecoder.obj
 0001:00019430       ?LoadViewNodeBlockU3DX@CIFXViewDecoder@@AAEXAAVIFXDataBlockX@@@Z 1001a430 f   Importing:CIFXViewDecoder.obj
 0001:0001af58       ?AddRef@CIFXViewDecoder@@UAIIXZ 1001bf58 f   Importing:CIFXViewDecoder.obj
 0001:0001af72       ?Release@CIFXViewDecoder@@UAIIXZ 1001bf72 f   Importing:CIFXViewDecoder.obj
 0001:0001afc0       ?QueryInterface@CIFXViewDecoder@@UAIHABUIFXGUID@@PAPAX@Z 1001bfc0 f   Importing:CIFXViewDecoder.obj
 0001:0001b0a4       ?InitializeX@CIFXViewDecoder@@UAIXABUIFXLoadConfig@@@Z 1001c0a4 f   Importing:CIFXViewDecoder.obj
 0001:0001b0e6       ?PutNextBlockX@CIFXViewDecoder@@UAIXAAVIFXDataBlockX@@@Z 1001c0e6 f   Importing:CIFXViewDecoder.obj
 0001:0001b158       ?TransferX@CIFXViewDecoder@@UAIXAAH@Z 1001c158 f   Importing:CIFXViewDecoder.obj
 0001:0001b260       ?AddRef@CIFXViewDecoder@@$4PPPPPPPM@A@AIIXZ 1001c260 f i Importing:CIFXViewDecoder.obj
 0001:0001b280       ?Release@CIFXViewDecoder@@$4PPPPPPPM@A@AIIXZ 1001c280 f i Importing:CIFXViewDecoder.obj
 0001:0001b2a0       ?QueryInterface@CIFXViewDecoder@@$4PPPPPPPM@A@AIHABUIFXGUID@@PAPAX@Z 1001c2a0 f i Importing:CIFXViewDecoder.obj
 0001:0001b2c0       ?InitializeX@CIFXViewDecoder@@$4PPPPPPPM@A@AIXABUIFXLoadConfig@@@Z 1001c2c0 f i Importing:CIFXViewDecoder.obj
 0001:0001b2e0       ?PutNextBlockX@CIFXViewDecoder@@$4PPPPPPPM@A@AIXAAVIFXDataBlockX@@@Z 1001c2e0 f i Importing:CIFXViewDecoder.obj
 0001:0001b300       ?TransferX@CIFXViewDecoder@@$4PPPPPPPM@A@AIXAAH@Z 1001c300 f i Importing:CIFXViewDecoder.obj
 0001:0001b320       ??_ECIFXBlockReaderX@@EAEPAXI@Z 1001c320 f i Importing:CIFXBlockReaderX.obj
 0001:0001b320       ??_GCIFXBlockReaderX@@EAEPAXI@Z 1001c320 f i Importing:CIFXBlockReaderX.obj
 0001:0001b34c       ??0IFXBlockReaderX@@QAE@XZ 1001c34c f i Importing:CIFXBlockReaderX.obj
 0001:0001b36c       ?CheckFileHeaderX@CIFXBlockReaderX@@AAEXAAH@Z 1001c36c f i Importing:CIFXBlockReaderX.obj
 0001:0001b6e0       ??0?$IFXAutoRelease@VIFXReadBufferX@@@@QAE@AAPAVIFXReadBufferX@@@Z 1001c6e0 f i Importing:CIFXBlockReaderX.obj
 0001:0001b73c       ??1?$IFXAutoRelease@VIFXReadBufferX@@@@QAE@XZ 1001c73c f i Importing:CIFXBlockReaderX.obj
 0001:0001b7c0       ?CIFXBlockReaderX_Factory@@YIHABUIFXGUID@@PAPAX@Z 1001c7c0 f   Importing:CIFXBlockReaderX.obj
 0001:0001b924       ?AddRef@CIFXBlockReaderX@@UAIIXZ 1001c924 f   Importing:CIFXBlockReaderX.obj
 0001:0001b93a       ?Release@CIFXBlockReaderX@@UAIIXZ 1001c93a f   Importing:CIFXBlockReaderX.obj
 0001:0001b986       ?QueryInterface@CIFXBlockReaderX@@UAIHABUIFXGUID@@PAPAX@Z 1001c986 f   Importing:CIFXBlockReaderX.obj
 0001:0001ba32       ?InitializeX@CIFXBlockReaderX@@UAIXAAVIFXCoreServices@@AAVIFXReadBufferX@@I@Z 1001ca32 f   Importing:CIFXBlockReaderX.obj
 0001:0001bba0       ?ReadBlockX@CIFXBlockReaderX@@UAIXAAPAVIFXDataBlockX@@AAH@Z 1001cba0 f   Importing:CIFXBlockReaderX.obj
 0001:0001c8d2       ?GetFileSizeX@CIFXBlockReaderX@@UAIXAA_K@Z 1001d8d2 f   Importing:CIFXBlockReaderX.obj
 0001:0001c916       ?GetFileSizeLoadedX@CIFXBlockReaderX@@UAIXAA_K@Z 1001d916 f   Importing:CIFXBlockReaderX.obj
 0001:0001c95a       ?GetFileVersionX@CIFXBlockReaderX@@UAIXAAI0@Z 1001d95a f   Importing:CIFXBlockReaderX.obj
 0001:0001c9a4       ??0CIFXBlockReaderX@@AAE@XZ 1001d9a4 f   Importing:CIFXBlockReaderX.obj
 0001:0001caaa       ??1CIFXBlockReaderX@@EAE@XZ 1001daaa f   Importing:CIFXBlockReaderX.obj
 0001:0001cb98       ??_GCIFXBTTHash@@EAEPAXI@Z 1001db98 f i Importing:CIFXBTTHash.obj
 0001:0001cb98       ??_ECIFXBTTHash@@EAEPAXI@Z 1001db98 f i Importing:CIFXBTTHash.obj
 0001:0001cbc4       ??_GIFXBTTHashEntry@IFXBTTHash@@QAEPAXI@Z 1001dbc4 f i Importing:CIFXBTTHash.obj
 0001:0001cbf0       ??0IFXBTTHash@@QAE@XZ      1001dbf0 f i Importing:CIFXBTTHash.obj
 0001:0001cc10       ??0IFXBTTHashEntry@IFXBTTHash@@QAE@XZ 1001dc10 f i Importing:CIFXBTTHash.obj
 0001:0001cc34       ??0IFXBTTHashEntry@IFXBTTHash@@QAE@IW4EIFXPalette@IFXSceneGraph@@IPBUIFXGUID@@@Z 1001dc34 f i Importing:CIFXBTTHash.obj
 0001:0001cc7c       ??1IFXBTTHashEntry@IFXBTTHash@@QAE@XZ 1001dc7c f i Importing:CIFXBTTHash.obj
 0001:0001cc88       ?Initialize@CIFXBTTHash@@UAIHXZ 1001dc88 f i Importing:CIFXBTTHash.obj
 0001:0001cd04       ?Initialize@CIFXBTTHash@@UAIHIIPBVIFXBTTHashEntry@IFXBTTHash@@@Z 1001dd04 f i Importing:CIFXBTTHash.obj
 0001:0001ce58       ?Add@CIFXBTTHash@@UAIHPBVIFXBTTHashEntry@IFXBTTHash@@@Z 1001de58 f i Importing:CIFXBTTHash.obj
 0001:0001d094       ?Delete@CIFXBTTHash@@UAIHI@Z 1001e094 f i Importing:CIFXBTTHash.obj
 0001:0001d1fc       ?Find@CIFXBTTHash@@UAIHIPAVIFXBTTHashEntry@IFXBTTHash@@@Z 1001e1fc f i Importing:CIFXBTTHash.obj
 0001:0001d2d8       ??0CIFXBTTHash@@AAE@XZ     1001e2d8 f i Importing:CIFXBTTHash.obj
 0001:0001d36c       ??1CIFXBTTHash@@EAE@XZ     1001e36c f i Importing:CIFXBTTHash.obj
 0001:0001d39c       ?ClearHash@CIFXBTTHash@@AAEXXZ 1001e39c f i Importing:CIFXBTTHash.obj
 0001:0001d4c4       ?HashFunction@CIFXBTTHash@@AAEII@Z 1001e4c4 f i Importing:CIFXBTTHash.obj
 0001:0001d4f4       ?FindHashLink@CIFXBTTHash@@AAEPAUIFXHashU32Link_struct@1@IPAPAU21@@Z 1001e4f4 f i Importing:CIFXBTTHash.obj
 0001:0001d5d4       ?CIFXBTTHash_Factory@@YIHABUIFXGUID@@PAPAX@Z 1001e5d4 f   Importing:CIFXBTTHash.obj
 0001:0001d768       ?AddRef@CIFXBTTHash@@UAIIXZ 1001e768 f   Importing:CIFXBTTHash.obj
 0001:0001d782       ?Release@CIFXBTTHash@@UAIIXZ 1001e782 f   Importing:CIFXBTTHash.obj
 0001:0001d7d0       ?QueryInterface@CIFXBTTHash@@UAIHABUIFXGUID@@PAPAX@Z 1001e7d0 f   Importing:CIFXBTTHash.obj
 0001:0001e1ac       ?AddRef@CIFXBTTHash@@$4PPPPPPPM@A@AIIXZ 1001f1ac f i Importing:CIFXBTTHash.obj
 0001:0001e1cc       ?Release@CIFXBTTHash@@$4PPPPPPPM@A@AIIXZ 1001f1cc f i Importing:CIFXBTTHash.obj
 0001:0001e1ec       ?QueryInterface@CIFXBTTHash@@$4PPPPPPPM@A@AIHABUIFXGUID@@PAPAX@Z 1001f1ec f i Importing:CIFXBTTHash.obj
 0001:0001e20c       ?Initialize@CIFXBTTHash@@$4PPPPPPPM@A@AIHIIPBVIFXBTTHashEntry@IFXBTTHash@@@Z 1001f20c f i Importing:CIFXBTTHash.obj
 0001:0001e22c       ?Initialize@CIFXBTTHash@@$4PPPPPPPM@A@AIHXZ 1001f22c f i Importing:CIFXBTTHash.obj
 0001:0001e24c       ?Add@CIFXBTTHash@@$4PPPPPPPM@A@AIHPBVIFXBTTHashEntry@IFXBTTHash@@@Z 1001f24c f i Importing:CIFXBTTHash.obj
 0001:0001e26c       ?Delete@CIFXBTTHash@@$4PPPPPPPM@A@AIHI@Z 1001f26c f i Importing:CIFXBTTHash.obj
 0001:0001e28c       ?Find@CIFXBTTHash@@$4PPPPPPPM@A@AIHIPAVIFXBTTHashEntry@IFXBTTHash@@@Z 1001f28c f i Importing:CIFXBTTHash.obj
 0001:0001e2ac       ??_ECIFXLoadManager@@EAEPAXI@Z 1001f2ac f i Importing:CIFXLoadManager.obj
 0001:0001e2ac       ??_GCIFXLoadManager@@EAEPAXI@Z 1001f2ac f i Importing:CIFXLoadManager.obj
 0001:0001e2d8       ??_GIFXCoreArray@@UAEPAXI@Z 1001f2d8 f i Importing:CIFXLoadManager.obj
 0001:0001e2d8       ??_EIFXCoreArray@@UAEPAXI@Z 1001f2d8 f i Importing:CIFXLoadManager.obj
 0001:0001e304       ??_E?$IFXArray@VIFXString@@@@UAEPAXI@Z 1001f304 f i Importing:CIFXLoadManager.obj
 0001:0001e304       ??_G?$IFXArray@VIFXString@@@@UAEPAXI@Z 1001f304 f i Importing:CIFXLoadManager.obj
 0001:0001e330       ??_G?$IFXArray@UIFXObjectFilter@@@@UAEPAXI@Z 1001f330 f i Importing:CIFXLoadManager.obj
 0001:0001e330       ??_E?$IFXArray@UIFXObjectFilter@@@@UAEPAXI@Z 1001f330 f i Importing:CIFXLoadManager.obj
 0001:0001e35c       ??_G?$IFXArray@VIFXExternalDecoderCont@CIFXLoadManager@@@@UAEPAXI@Z 1001f35c f i Importing:CIFXLoadManager.obj
 0001:0001e35c       ??_E?$IFXArray@VIFXExternalDecoderCont@CIFXLoadManager@@@@UAEPAXI@Z 1001f35c f i Importing:CIFXLoadManager.obj
 0001:0001e388       ??_G?$IFXArray@PAVIFXLoadManager@@@@UAEPAXI@Z 1001f388 f i Importing:CIFXLoadManager.obj
 0001:0001e388       ??_E?$IFXArray@PAVIFXLoadManager@@@@UAEPAXI@Z 1001f388 f i Importing:CIFXLoadManager.obj
 0001:0001e3b4       ??1IFXCoreArray@@UAE@XZ    1001f3b4 f i Importing:CIFXLoadManager.obj
 0001:0001e3c8       ?GetElementName@IFXCoreArray@@UAE?AVIFXString@@I@Z 1001f3c8 f i Importing:CIFXLoadManager.obj
 0001:0001e3e8       ?GetElementSize@IFXCoreArray@@UAEII@Z 1001f3e8 f i Importing:CIFXLoadManager.obj
 0001:0001e3f8       ?GetNumberElements@IFXCoreArray@@QBEABIXZ 1001f3f8 f i Importing:CIFXLoadManager.obj
 0001:0001e408       ??0IFXObjectFilter@@QAE@XZ 1001f408 f i Importing:CIFXLoadManager.obj
 0001:0001e490       ??1IFXObjectFilter@@QAE@XZ 1001f490 f i Importing:CIFXLoadManager.obj
 0001:0001e514       ??4IFXObjectFilter@@QAEAAU0@ABU0@@Z 1001f514 f i Importing:CIFXLoadManager.obj
 0001:0001e55c       ??0IFXFileReferenceParams@@QAE@XZ 1001f55c f i Importing:CIFXLoadManager.obj
 0001:0001e6a0       ??1IFXFileReferenceParams@@QAE@XZ 1001f6a0 f i Importing:CIFXLoadManager.obj
 0001:0001e7d0       ??0?$IFXArray@VIFXString@@@@QAE@I@Z 1001f7d0 f i Importing:CIFXLoadManager.obj
 0001:0001e8a4       ??1?$IFXArray@VIFXString@@@@UAE@XZ 1001f8a4 f i Importing:CIFXLoadManager.obj
 0001:0001e9e8       ?ResetElement@?$IFXArray@VIFXString@@@@UAEXAAVIFXString@@@Z 1001f9e8 f i Importing:CIFXLoadManager.obj
 0001:0001e9f4       ?CreateNewElement@?$IFXArray@VIFXString@@@@QAEAAVIFXString@@XZ 1001f9f4 f i Importing:CIFXLoadManager.obj
 0001:0001ea30       ?GetElement@?$IFXArray@VIFXString@@@@QAEAAVIFXString@@I@Z 1001fa30 f i Importing:CIFXLoadManager.obj
 0001:0001ea84       ??A?$IFXArray@VIFXString@@@@QAEAAVIFXString@@I@Z 1001fa84 f i Importing:CIFXLoadManager.obj
 0001:0001eaa8       ?Construct@?$IFXArray@VIFXString@@@@EAEXI@Z 1001faa8 f i Importing:CIFXLoadManager.obj
 0001:0001ebe0       ?Destruct@?$IFXArray@VIFXString@@@@EAEXI@Z 1001fbe0 f i Importing:CIFXLoadManager.obj
 0001:0001ec3c       ?DestructAll@?$IFXArray@VIFXString@@@@EAEXXZ 1001fc3c f i Importing:CIFXLoadManager.obj
 0001:0001ed3c       ?Preallocate@?$IFXArray@VIFXString@@@@EAEXI@Z 1001fd3c f i Importing:CIFXLoadManager.obj
 0001:0001eea0       ?Resize@?$IFXArray@VIFXString@@@@EAEXI@Z 1001fea0 f i Importing:CIFXLoadManager.obj
 0001:0001ef7c       ??0?$IFXArray@UIFXObjectFilter@@@@QAE@I@Z 1001ff7c f i Importing:CIFXLoadManager.obj
 0001:0001f050       ??1?$IFXArray@UIFXObjectFilter@@@@UAE@XZ 10020050 f i Importing:CIFXLoadManager.obj
 0001:0001f194       ?ResetElement@?$IFXArray@UIFXObjectFilter@@@@UAEXAAUIFXObjectFilter@@@Z 10020194 f i Importing:CIFXLoadManager.obj
 0001:0001f1a0       ?CreateNewElement@?$IFXArray@UIFXObjectFilter@@@@QAEAAUIFXObjectFilter@@XZ 100201a0 f i Importing:CIFXLoadManager.obj
 0001:0001f1dc       ?GetElement@?$IFXArray@UIFXObjectFilter@@@@QAEAAUIFXObjectFilter@@I@Z 100201dc f i Importing:CIFXLoadManager.obj
 0001:0001f230       ?GetElementConst@?$IFXArray@UIFXObjectFilter@@@@QBEABUIFXObjectFilter@@I@Z 10020230 f i Importing:CIFXLoadManager.obj
 0001:0001f284       ??A?$IFXArray@UIFXObjectFilter@@@@QAEAAUIFXObjectFilter@@I@Z 10020284 f i Importing:CIFXLoadManager.obj
 0001:0001f2a8       ??4?$IFXArray@UIFXObjectFilter@@@@QAEXABV0@@Z 100202a8 f i Importing:CIFXLoadManager.obj
 0001:0001f2e4       ?Append@?$IFXArray@UIFXObjectFilter@@@@QAEXABV1@@Z 100202e4 f i Importing:CIFXLoadManager.obj
 0001:0001f38c       ?Construct@?$IFXArray@UIFXObjectFilter@@@@EAEXI@Z 1002038c f i Importing:CIFXLoadManager.obj
 0001:0001f4bc       ?Destruct@?$IFXArray@UIFXObjectFilter@@@@EAEXI@Z 100204bc f i Importing:CIFXLoadManager.obj
 0001:0001f50c       ?DestructAll@?$IFXArray@UIFXObjectFilter@@@@EAEXXZ 1002050c f i Importing:CIFXLoadManager.obj
 0001:0001f60c       ?Preallocate@?$IFXArray@UIFXObjectFilter@@@@EAEXI@Z 1002060c f i Importing:CIFXLoadManager.obj
 0001:0001f770       ?Resize@?$IFXArray@UIFXObjectFilter@@@@EAEXI@Z 10020770 f i Importing:CIFXLoadManager.obj
 0001:0001f84c       ??0IFXLoadManager@@QAE@XZ  1002084c f i Importing:CIFXLoadManager.obj
 0001:0001f8b0       ??0IFXTask@@QAE@XZ         100208b0 f i Importing:CIFXLoadManager.obj
 0001:0001f914       ??0IFXLoadConfig@@QAE@PAVIFXCoreServices@@IHW4EIFXPalette@IFXSceneGraph@@N@Z 10020914 f i Importing:CIFXLoadManager.obj
 0001:0001f96c       ??1IFXLoadConfig@@QAE@XZ   1002096c f i Importing:CIFXLoadManager.obj
 0001:0001f9a0       ??0IFXExternalDecoderCont@CIFXLoadManager@@QAE@XZ 100209a0 f i Importing:CIFXLoadManager.obj
 0001:0001f9c0       ??1IFXExternalDecoderCont@CIFXLoadManager@@QAE@XZ 100209c0 f i Importing:CIFXLoadManager.obj
 0001:0001fa2c       ??0?$IFXArray@VIFXExternalDecoderCont@CIFXLoadManager@@@@QAE@I@Z 10020a2c f i Importing:CIFXLoadManager.obj
 0001:0001fb00       ??1?$IFXArray@VIFXExternalDecoderCont@CIFXLoadManager@@@@UAE@XZ 10020b00 f i Importing:CIFXLoadManager.obj
 0001:0001fc44       ?ResetElement@?$IFXArray@VIFXExternalDecoderCont@CIFXLoadManager@@@@UAEXAAVIFXExternalDecoderCont@CIFXLoadManager@@@Z 10020c44 f i Importing:CIFXLoadManager.obj
 0001:0001fc50       ?CreateNewElement@?$IFXArray@VIFXExternalDecoderCont@CIFXLoadManager@@@@QAEAAVIFXExternalDecoderCont@CIFXLoadManager@@XZ 10020c50 f i Importing:CIFXLoadManager.obj
 0001:0001fc8c       ?GetElement@?$IFXArray@VIFXExternalDecoderCont@CIFXLoadManager@@@@QAEAAVIFXExternalDecoderCont@CIFXLoadManager@@I@Z 10020c8c f i Importing:CIFXLoadManager.obj
 0001:0001fce0       ?Construct@?$IFXArray@VIFXExternalDecoderCont@CIFXLoadManager@@@@EAEXI@Z 10020ce0 f i Importing:CIFXLoadManager.obj
 0001:0001fe18       ?Destruct@?$IFXArray@VIFXExternalDecoderCont@CIFXLoadManager@@@@EAEXI@Z 10020e18 f i Importing:CIFXLoadManager.obj
 0001:0001fe68       ?DestructAll@?$IFXArray@VIFXExternalDecoderCont@CIFXLoadManager@@@@EAEXXZ 10020e68 f i Importing:CIFXLoadManager.obj
 0001:0001ff68       ?Preallocate@?$IFXArray@VIFXExternalDecoderCont@CIFXLoadManager@@@@EAEXI@Z 10020f68 f i Importing:CIFXLoadManager.obj
 0001:000200d0       ?Resize@?$IFXArray@VIFXExternalDecoderCont@CIFXLoadManager@@@@EAEXI@Z 100210d0 f i Importing:CIFXLoadManager.obj
 0001:000201ac       ??0?$IFXAutoRelease@VIFXBlockReaderX@@@@QAE@AAPAVIFXBlockReaderX@@@Z 100211ac f i Importing:CIFXLoadManager.obj
 0001:00020208       ??1?$IFXAutoRelease@VIFXBlockReaderX@@@@QAE@XZ 10021208 f i Importing:CIFXLoadManager.obj
 0001:00020280       ??0?$IFXAutoRelease@VIFXBTTHash@@@@QAE@AAPAVIFXBTTHash@@@Z 10021280 f i Importing:CIFXLoadManager.obj
 0001:000202dc       ??1?$IFXAutoRelease@VIFXBTTHash@@@@QAE@XZ 100212dc f i Importing:CIFXLoadManager.obj
 0001:00020354       ??0?$IFXArray@PAVIFXLoadManager@@@@QAE@I@Z 10021354 f i Importing:CIFXLoadManager.obj
 0001:00020428       ??1?$IFXArray@PAVIFXLoadManager@@@@UAE@XZ 10021428 f i Importing:CIFXLoadManager.obj
 0001:0002056c       ?ResetElement@?$IFXArray@PAVIFXLoadManager@@@@UAEXAAPAVIFXLoadManager@@@Z 1002156c f i Importing:CIFXLoadManager.obj
 0001:00020578       ?CreateNewElement@?$IFXArray@PAVIFXLoadManager@@@@QAEAAPAVIFXLoadManager@@XZ 10021578 f i Importing:CIFXLoadManager.obj
 0001:000205b4       ?GetElement@?$IFXArray@PAVIFXLoadManager@@@@QAEAAPAVIFXLoadManager@@I@Z 100215b4 f i Importing:CIFXLoadManager.obj
 0001:00020608       ??A?$IFXArray@PAVIFXLoadManager@@@@QAEAAPAVIFXLoadManager@@I@Z 10021608 f i Importing:CIFXLoadManager.obj
 0001:0002062c       ?Construct@?$IFXArray@PAVIFXLoadManager@@@@EAEXI@Z 1002162c f i Importing:CIFXLoadManager.obj
 0001:000206ac       ?Destruct@?$IFXArray@PAVIFXLoadManager@@@@EAEXI@Z 100216ac f i Importing:CIFXLoadManager.obj
 0001:000206ec       ?DestructAll@?$IFXArray@PAVIFXLoadManager@@@@EAEXXZ 100216ec f i Importing:CIFXLoadManager.obj
 0001:000207dc       ?Preallocate@?$IFXArray@PAVIFXLoadManager@@@@EAEXI@Z 100217dc f i Importing:CIFXLoadManager.obj
 0001:00020840       ?Resize@?$IFXArray@PAVIFXLoadManager@@@@EAEXI@Z 10021840 f i Importing:CIFXLoadManager.obj
 0001:0002091c       ?GetIFXResult@IFXException@@QAEHXZ 1002191c f i Importing:CIFXLoadManager.obj
 0001:0002092c       ?Log@IFXException@@QAEXXZ  1002192c f i Importing:CIFXLoadManager.obj
 0001:00020990       ??0?$IFXAutoRelease@VIFXSystemManager@@@@QAE@AAPAVIFXSystemManager@@@Z 10021990 f i Importing:CIFXLoadManager.obj
 0001:000209ec       ??1?$IFXAutoRelease@VIFXSystemManager@@@@QAE@XZ 100219ec f i Importing:CIFXLoadManager.obj
 0001:00020a70       ??0?$IFXAutoRelease@VIFXScheduler@@@@QAE@AAPAVIFXScheduler@@@Z 10021a70 f i Importing:CIFXLoadManager.obj
 0001:00020acc       ??1?$IFXAutoRelease@VIFXScheduler@@@@QAE@XZ 10021acc f i Importing:CIFXLoadManager.obj
 0001:00020b44       ??0?$IFXAutoRelease@VIFXTask@@@@QAE@AAPAVIFXTask@@@Z 10021b44 f i Importing:CIFXLoadManager.obj
 0001:00020ba0       ??1?$IFXAutoRelease@VIFXTask@@@@QAE@XZ 10021ba0 f i Importing:CIFXLoadManager.obj
 0001:00020c24       ??0?$IFXAutoRelease@VIFXNotificationManager@@@@QAE@AAPAVIFXNotificationManager@@@Z 10021c24 f i Importing:CIFXLoadManager.obj
 0001:00020c80       ??1?$IFXAutoRelease@VIFXNotificationManager@@@@QAE@XZ 10021c80 f i Importing:CIFXLoadManager.obj
 0001:00020d04       ??0?$IFXAutoRelease@VIFXNotificationInfo@@@@QAE@AAPAVIFXNotificationInfo@@@Z 10021d04 f i Importing:CIFXLoadManager.obj
 0001:00020d60       ??1?$IFXAutoRelease@VIFXNotificationInfo@@@@QAE@XZ 10021d60 f i Importing:CIFXLoadManager.obj
 0001:00020dd8       ??0?$IFXAutoRelease@VIFXLoadManager@@@@QAE@AAPAVIFXLoadManager@@@Z 10021dd8 f i Importing:CIFXLoadManager.obj
 0001:00020e34       ??1?$IFXAutoRelease@VIFXLoadManager@@@@QAE@XZ 10021e34 f i Importing:CIFXLoadManager.obj
 0001:00020eb8       ??0?$IFXAutoRelease@VIFXReadBuffer@@@@QAE@AAPAVIFXReadBuffer@@@Z 10021eb8 f i Importing:CIFXLoadManager.obj
 0001:00020f14       ??1?$IFXAutoRelease@VIFXReadBuffer@@@@QAE@XZ 10021f14 f i Importing:CIFXLoadManager.obj
 0001:00020f98       ??0?$IFXAutoRelease@VIFXStdio@@@@QAE@AAPAVIFXStdio@@@Z 10021f98 f i Importing:CIFXLoadManager.obj
 0001:00020ff4       ??1?$IFXAutoRelease@VIFXStdio@@@@QAE@XZ 10021ff4 f i Importing:CIFXLoadManager.obj
 0001:00021078       ??0?$IFXAutoRelease@VIFXFileReference@@@@QAE@AAPAVIFXFileReference@@@Z 10022078 f i Importing:CIFXLoadManager.obj
 0001:000210d4       ??1?$IFXAutoRelease@VIFXFileReference@@@@QAE@XZ 100220d4 f i Importing:CIFXLoadManager.obj
 0001:00021158       ??0?$IFXAutoRelease@VIFXDecoderChainX@@@@QAE@AAPAVIFXDecoderChainX@@@Z 10022158 f i Importing:CIFXLoadManager.obj
 0001:000211b4       ??1?$IFXAutoRelease@VIFXDecoderChainX@@@@QAE@XZ 100221b4 f i Importing:CIFXLoadManager.obj
 0001:0002122c       ??0?$IFXAutoRelease@VIFXExtensionDecoderX@@@@QAE@AAPAVIFXExtensionDecoderX@@@Z 1002222c f i Importing:CIFXLoadManager.obj
 0001:00021288       ??1?$IFXAutoRelease@VIFXExtensionDecoderX@@@@QAE@XZ 10022288 f i Importing:CIFXLoadManager.obj
 0001:0002130c       ??_EIFXBTTHashEntry@IFXBTTHash@@QAEPAXI@Z 1002230c f i Importing:CIFXLoadManager.obj
 0001:00021380       ?CIFXLoadManager_Factory@@YIHABUIFXGUID@@PAPAX@Z 10022380 f   Importing:CIFXLoadManager.obj
 0001:00021514       ?AddRef@CIFXLoadManager@@UAIIXZ 10022514 f   Importing:CIFXLoadManager.obj
 0001:00021532       ?Release@CIFXLoadManager@@UAIIXZ 10022532 f   Importing:CIFXLoadManager.obj
 0001:00021584       ?QueryInterface@CIFXLoadManager@@UAIHABUIFXGUID@@PAPAX@Z 10022584 f   Importing:CIFXLoadManager.obj
 0001:000216a8       ?Initialize@CIFXLoadManager@@UAIHPAVIFXCoreServices@@@Z 100226a8 f   Importing:CIFXLoadManager.obj
 0001:00021ae6       ?Load@CIFXLoadManager@@UAIHPAVIFXReadBuffer@@HABVIFXString@@W4IFXCollisionPolicy@@I@Z 10022ae6 f   Importing:CIFXLoadManager.obj
 0001:00021c26       ?Load@CIFXLoadManager@@UAIHPAVIFXReadBuffer@@HABVIFXString@@W4IFXCollisionPolicy@@IABV?$IFXArray@UIFXObjectFilter@@@@1H@Z 10022c26 f   Importing:CIFXLoadManager.obj
 0001:000226e0       ?Cancel@CIFXLoadManager@@UAIHXZ 100236e0 f   Importing:CIFXLoadManager.obj
 0001:00022854       ?Reset@CIFXLoadManager@@UAIHXZ 10023854 f   Importing:CIFXLoadManager.obj
 0001:000228b4       ?GetAggregateLoadState@CIFXLoadManager@@UAIHAAW4EIFXLoadState@@@Z 100238b4 f   Importing:CIFXLoadManager.obj
 0001:000229e8       ?GetAggregateFileSize@CIFXLoadManager@@UAIHAA_K@Z 100239e8 f   Importing:CIFXLoadManager.obj
 0001:00022bd8       ?GetAggregateFileSizeLoaded@CIFXLoadManager@@UAIHAA_K@Z 10023bd8 f   Importing:CIFXLoadManager.obj
 0001:00022dc8       ?GetFileSize@CIFXLoadManager@@UAIHAA_K@Z 10023dc8 f   Importing:CIFXLoadManager.obj
 0001:00022e9a       ?GetFileSizeLoaded@CIFXLoadManager@@UAIHAA_K@Z 10023e9a f   Importing:CIFXLoadManager.obj
 0001:00022f6c       ?GetSubLoadManagersCount@CIFXLoadManager@@UAIHAAI@Z 10023f6c f   Importing:CIFXLoadManager.obj
 0001:00023022       ?GetSubLoadManager@CIFXLoadManager@@UAIHIAAPAVIFXLoadManager@@@Z 10024022 f   Importing:CIFXLoadManager.obj
 0001:00023148       ?GetReadTimeLimit@CIFXLoadManager@@UAIHAAI@Z 10024148 f   Importing:CIFXLoadManager.obj
 0001:00023166       ?SetReadTimeLimit@CIFXLoadManager@@UAIHI@Z 10024166 f   Importing:CIFXLoadManager.obj
 0001:00023182       ?GetTransferTimeLimit@CIFXLoadManager@@UAIHAAI@Z 10024182 f   Importing:CIFXLoadManager.obj
 0001:000231a0       ?SetTransferTimeLimit@CIFXLoadManager@@UAIHI@Z 100241a0 f   Importing:CIFXLoadManager.obj
 0001:000231bc       ?Execute@CIFXLoadManager@@UAIHPAVIFXTaskData@@@Z 100241bc f   Importing:CIFXLoadManager.obj
 0001:0002346e       ??0CIFXLoadManager@@AAE@XZ 1002446e f   Importing:CIFXLoadManager.obj
 0001:0002385a       ??1CIFXLoadManager@@EAE@XZ 1002485a f   Importing:CIFXLoadManager.obj
 0001:00023c54       ?ExecuteReadX@CIFXLoadManager@@AAEXXZ 10024c54 f   Importing:CIFXLoadManager.obj
 0001:00023efa       ?ExecuteTransferX@CIFXLoadManager@@AAEXXZ 10024efa f   Importing:CIFXLoadManager.obj
 0001:00023f74       ?UnRegisterReadX@CIFXLoadManager@@AAEXXZ 10024f74 f   Importing:CIFXLoadManager.obj
 0001:0002411a       ?UnRegisterTransferX@CIFXLoadManager@@AAEXXZ 1002511a f   Importing:CIFXLoadManager.obj
 0001:000242c0       ?ProcessBlockX@CIFXLoadManager@@AAEXAAVIFXDataBlockX@@W4EIFXPalette@IFXSceneGraph@@@Z 100252c0 f   Importing:CIFXLoadManager.obj
 0001:000243de       ?ProcessModifierChainBlockX@CIFXLoadManager@@AAEXAAVIFXDataBlockX@@@Z 100253de f   Importing:CIFXLoadManager.obj
 0001:00024b74       ?ProcessFileReferenceBlockX@CIFXLoadManager@@AAEXAAVIFXDataBlockX@@@Z 10025b74 f   Importing:CIFXLoadManager.obj
 0001:00026108       ?ProcessFileHeaderBlockX@CIFXLoadManager@@AAEXAAVIFXDataBlockX@@@Z 10027108 f   Importing:CIFXLoadManager.obj
 0001:00026470       ?ProcessGenericBlockX@CIFXLoadManager@@AAEXAAVIFXDataBlockX@@W4EIFXPalette@IFXSceneGraph@@@Z 10027470 f   Importing:CIFXLoadManager.obj
 0001:00027e02       ?ProcessNewBlockTypeDeclarationBlockX@CIFXLoadManager@@AAEXAAVIFXDataBlockX@@@Z 10028e02 f   Importing:CIFXLoadManager.obj
 0001:0002888e       ?ProcessPriorityUpdateBlockX@CIFXLoadManager@@AAEXAAVIFXDataBlockX@@@Z 1002988e f   Importing:CIFXLoadManager.obj
 0001:00028a26       ?ProcessTransferOrderX@CIFXLoadManager@@AAEXAAH@Z 10029a26 f   Importing:CIFXLoadManager.obj
 0001:00029426       ?NotifyStreamStateX@CIFXLoadManager@@AAIXXZ 1002a426 f   Importing:CIFXLoadManager.obj
 0001:00029850       ?ThumpX@CIFXLoadManager@@AAEXXZ 1002a850 f   Importing:CIFXLoadManager.obj
 0001:00029a52       ?ValidateInputX@CIFXLoadManager@@AAEXPAX@Z 1002aa52 f   Importing:CIFXLoadManager.obj
 0001:00029aa4       ??_EIFXString@@UAEPAXI@Z   1002aaa4 f i Importing:CIFXLoadManager.obj
 0001:00029b18       ??_EIFXObjectFilter@@QAEPAXI@Z 1002ab18 f i Importing:CIFXLoadManager.obj
 0001:00029b8c       ??_EIFXExternalDecoderCont@CIFXLoadManager@@QAEPAXI@Z 1002ab8c f i Importing:CIFXLoadManager.obj
 0001:00029c00       ?AddRef@CIFXLoadManager@@$4PPPPPPPM@A@AIIXZ 1002ac00 f i Importing:CIFXLoadManager.obj
 0001:00029c20       ?Release@CIFXLoadManager@@$4PPPPPPPM@A@AIIXZ 1002ac20 f i Importing:CIFXLoadManager.obj
 0001:00029c40       ?QueryInterface@CIFXLoadManager@@$4PPPPPPPM@A@AIHABUIFXGUID@@PAPAX@Z 1002ac40 f i Importing:CIFXLoadManager.obj
 0001:00029c60       ??_ECIFXStdioReadBufferX@@EAEPAXI@Z 1002ac60 f i Importing:CIFXStdioReadBufferX.obj
 0001:00029c60       ??_GCIFXStdioReadBufferX@@EAEPAXI@Z 1002ac60 f i Importing:CIFXStdioReadBufferX.obj
 0001:00029c8c       ??0IFXReadBuffer@@QAE@XZ   1002ac8c f i Importing:CIFXStdioReadBufferX.obj
 0001:00029cf0       ??0IFXReadBufferX@@QAE@XZ  1002acf0 f i Importing:CIFXStdioReadBufferX.obj
 0001:00029d54       ??0IFXStdio@@QAE@XZ        1002ad54 f i Importing:CIFXStdioReadBufferX.obj
 0001:00029db8       ?CIFXStdioReadBufferX_Factory@@YIHABUIFXGUID@@PAPAX@Z 1002adb8 f   Importing:CIFXStdioReadBufferX.obj
 0001:00029f4c       ?Read@CIFXStdioReadBufferX@@UAIHPAE_KI@Z 1002af4c f   Importing:CIFXStdioReadBufferX.obj
 0001:0002a082       ?GetTotalSize@CIFXStdioReadBufferX@@UAIHPA_K@Z 1002b082 f   Importing:CIFXStdioReadBufferX.obj
 0001:0002a188       ?GetAvailableSize@CIFXStdioReadBufferX@@UAIHPA_K@Z 1002b188 f   Importing:CIFXStdioReadBufferX.obj
 0001:0002a28e       ?ReadX@CIFXStdioReadBufferX@@UAIXPAE_KIAAH@Z 1002b28e f   Importing:CIFXStdioReadBufferX.obj
 0001:0002a3d0       ?GetTotalSizeX@CIFXStdioReadBufferX@@UAIXAA_K@Z 1002b3d0 f   Importing:CIFXStdioReadBufferX.obj
 0001:0002a488       ?GetAvailableSizeX@CIFXStdioReadBufferX@@UAIXAA_K@Z 1002b488 f   Importing:CIFXStdioReadBufferX.obj
 0001:0002a4bc       ?Open@CIFXStdioReadBufferX@@UAIHPAG@Z 1002b4bc f   Importing:CIFXStdioReadBufferX.obj
 0001:0002a546       ?Close@CIFXStdioReadBufferX@@UAIHXZ 1002b546 f   Importing:CIFXStdioReadBufferX.obj
 0001:0002a59a       ?AddRef@CIFXStdioReadBufferX@@UAIIXZ 1002b59a f   Importing:CIFXStdioReadBufferX.obj
 0001:0002a5b4       ?Release@CIFXStdioReadBufferX@@UAIIXZ 1002b5b4 f   Importing:CIFXStdioReadBufferX.obj
 0001:0002a604       ?QueryInterface@CIFXStdioReadBufferX@@UAIHABUIFXGUID@@PAPAX@Z 1002b604 f   Importing:CIFXStdioReadBufferX.obj
 0001:0002a770       ??0CIFXStdioReadBufferX@@AAE@XZ 1002b770 f   Importing:CIFXStdioReadBufferX.obj
 0001:0002a860       ??1CIFXStdioReadBufferX@@EAE@XZ 1002b860 f   Importing:CIFXStdioReadBufferX.obj
 0001:0002a8c0       ?AddRef@CIFXStdioReadBufferX@@$4PPPPPPPM@A@AIIXZ 1002b8c0 f i Importing:CIFXStdioReadBufferX.obj
 0001:0002a8e0       ?Release@CIFXStdioReadBufferX@@$4PPPPPPPM@A@AIIXZ 1002b8e0 f i Importing:CIFXStdioReadBufferX.obj
 0001:0002a900       ?QueryInterface@CIFXStdioReadBufferX@@$4PPPPPPPM@A@AIHABUIFXGUID@@PAPAX@Z 1002b900 f i Importing:CIFXStdioReadBufferX.obj
 0001:0002a920       ??_GCIFXInternetReadBufferX@@EAEPAXI@Z 1002b920 f i Importing:CIFXInternetReadBufferX.obj
 0001:0002a920       ??_ECIFXInternetReadBufferX@@EAEPAXI@Z 1002b920 f i Importing:CIFXInternetReadBufferX.obj
 0001:0002a94c       ??0IFXInet@@QAE@XZ         1002b94c f i Importing:CIFXInternetReadBufferX.obj
 0001:0002a9b0       ??0?$IFXAutoRelease@VIFXReadingCallback@@@@QAE@AAPAVIFXReadingCallback@@@Z 1002b9b0 f i Importing:CIFXInternetReadBufferX.obj
 0001:0002aa0c       ??1?$IFXAutoRelease@VIFXReadingCallback@@@@QAE@XZ 1002ba0c f i Importing:CIFXInternetReadBufferX.obj
 0001:0002aa90       ?CIFXInternetReadBufferX_Factory@@YIHABUIFXGUID@@PAPAX@Z 1002ba90 f   Importing:CIFXInternetReadBufferX.obj
 0001:0002ac24       ?AddRef@CIFXInternetReadBufferX@@UAIIXZ 1002bc24 f   Importing:CIFXInternetReadBufferX.obj
 0001:0002ac3e       ?Release@CIFXInternetReadBufferX@@UAIIXZ 1002bc3e f   Importing:CIFXInternetReadBufferX.obj
 0001:0002ac8e       ?QueryInterface@CIFXInternetReadBufferX@@UAIHABUIFXGUID@@PAPAX@Z 1002bc8e f   Importing:CIFXInternetReadBufferX.obj
 0001:0002adec       ?Read@CIFXInternetReadBufferX@@UAIHPAE_KI@Z 1002bdec f   Importing:CIFXInternetReadBufferX.obj
 0001:0002aeee       ?GetTotalSize@CIFXInternetReadBufferX@@UAIHPA_K@Z 1002beee f   Importing:CIFXInternetReadBufferX.obj
 0001:0002afc0       ?GetAvailableSize@CIFXInternetReadBufferX@@UAIHPA_K@Z 1002bfc0 f   Importing:CIFXInternetReadBufferX.obj
 0001:0002b092       ?ReadX@CIFXInternetReadBufferX@@UAIXPAE_KIAAH@Z 1002c092 f   Importing:CIFXInternetReadBufferX.obj
 0001:0002b19e       ?GetTotalSizeX@CIFXInternetReadBufferX@@UAIXAA_K@Z 1002c19e f   Importing:CIFXInternetReadBufferX.obj
 0001:0002b1d2       ?GetAvailableSizeX@CIFXInternetReadBufferX@@UAIXAA_K@Z 1002c1d2 f   Importing:CIFXInternetReadBufferX.obj
 0001:0002b1e4       ?Open@CIFXInternetReadBufferX@@UAIHPAG@Z 1002c1e4 f   Importing:CIFXInternetReadBufferX.obj
 0001:0002b296       ?Close@CIFXInternetReadBufferX@@UAIHXZ 1002c296 f   Importing:CIFXInternetReadBufferX.obj
 0001:0002b2c6       ?GetConnectTimeout@CIFXInternetReadBufferX@@UAIHAAI@Z 1002c2c6 f   Importing:CIFXInternetReadBufferX.obj
 0001:0002b2e2       ?SetConnectTimeout@CIFXInternetReadBufferX@@UAIHI@Z 1002c2e2 f   Importing:CIFXInternetReadBufferX.obj
 0001:0002b2fe       ?GetSendTimeout@CIFXInternetReadBufferX@@UAIHAAI@Z 1002c2fe f   Importing:CIFXInternetReadBufferX.obj
 0001:0002b35e       ?SetSendTimeout@CIFXInternetReadBufferX@@UAIHI@Z 1002c35e f   Importing:CIFXInternetReadBufferX.obj
 0001:0002b3b6       ?GetReceiveTimeout@CIFXInternetReadBufferX@@UAIHAAI@Z 1002c3b6 f   Importing:CIFXInternetReadBufferX.obj
 0001:0002b416       ?SetReceiveTimeout@CIFXInternetReadBufferX@@UAIHI@Z 1002c416 f   Importing:CIFXInternetReadBufferX.obj
 0001:0002b46e       ?InitiateRead@CIFXInternetReadBufferX@@UAIHPAVIFXCoreServices@@PAVIFXReadingCallback@@@Z 1002c46e f   Importing:CIFXInternetReadBufferX.obj
 0001:0002b758       ?Execute@CIFXInternetReadBufferX@@UAIHPAVIFXTaskData@@@Z 1002c758 f   Importing:CIFXInternetReadBufferX.obj
 0001:0002c08a       ??0CIFXInternetReadBufferX@@AAE@XZ 1002d08a f   Importing:CIFXInternetReadBufferX.obj
 0001:0002c2de       ??1CIFXInternetReadBufferX@@EAE@XZ 1002d2de f   Importing:CIFXInternetReadBufferX.obj
 0001:0002c42c       ?AddRef@CIFXInternetReadBufferX@@$4PPPPPPPM@A@AIIXZ 1002d42c f i Importing:CIFXInternetReadBufferX.obj
 0001:0002c44c       ?Release@CIFXInternetReadBufferX@@$4PPPPPPPM@A@AIIXZ 1002d44c f i Importing:CIFXInternetReadBufferX.obj
 0001:0002c46c       ?QueryInterface@CIFXInternetReadBufferX@@$4PPPPPPPM@A@AIHABUIFXGUID@@PAPAX@Z 1002d46c f i Importing:CIFXInternetReadBufferX.obj
 0001:0002c48c       _sqrtf                     1002d48c f i Importing:CIFXPointSetDecoder.obj
 0001:0002c4b4       ??$IFXInitStruct@UIFXAuthorMaterial@@@@YAXPAUIFXAuthorMaterial@@I@Z 1002d4b4 f i Importing:CIFXPointSetDecoder.obj
 0001:0002c508       ??_GCIFXPointSetDecoder@@EAEPAXI@Z 1002d508 f i Importing:CIFXPointSetDecoder.obj
 0001:0002c508       ??_ECIFXPointSetDecoder@@EAEPAXI@Z 1002d508 f i Importing:CIFXPointSetDecoder.obj
 0001:0002c534       ??0IFXVector3@@QAE@PBM@Z   1002d534 f i Importing:CIFXPointSetDecoder.obj
 0001:0002c554       ??4IFXVector3@@QAEAAV0@PBM@Z 1002d554 f i Importing:CIFXPointSetDecoder.obj
 0001:0002c584       ?X@IFXVector3@@QAEAAMXZ    1002d584 f i Importing:CIFXPointSetDecoder.obj
 0001:0002c590       ?Y@IFXVector3@@QAEAAMXZ    1002d590 f i Importing:CIFXPointSetDecoder.obj
 0001:0002c5a0       ?Z@IFXVector3@@QAEAAMXZ    1002d5a0 f i Importing:CIFXPointSetDecoder.obj
 0001:0002c5b0       ?IsNonZero@IFXVector3@@QBEHXZ 1002d5b0 f i Importing:CIFXPointSetDecoder.obj
 0001:0002c600       ?Add@IFXVector3@@QAEAAV1@ABV1@@Z 1002d600 f i Importing:CIFXPointSetDecoder.obj
 0001:0002c648       ?CalcMagnitude@IFXVector3@@QBEMXZ 1002d648 f i Importing:CIFXPointSetDecoder.obj
 0001:0002c690       ?Add@IFXVector4@@QAEAAV1@ABV1@@Z 1002d690 f i Importing:CIFXPointSetDecoder.obj
 0001:0002c6ec       ?Scale3@IFXVector4@@QAEAAV1@M@Z 1002d6ec f i Importing:CIFXPointSetDecoder.obj
 0001:0002c72c       ?Normalize3@IFXVector4@@QAEAAV1@XZ 1002d72c f i Importing:CIFXPointSetDecoder.obj
 0001:0002c7a0       ??0IFXAuthorMaterial@@QAE@XZ 1002d7a0 f i Importing:CIFXPointSetDecoder.obj
 0001:0002c7d0       ??0IFXAuthorPointSetDesc@@QAE@XZ 1002d7d0 f i Importing:CIFXPointSetDecoder.obj
 0001:0002c80c       ??0?$IFXAutoRelease@VIFXAuthorPointSetResource@@@@QAE@AAPAVIFXAuthorPointSetResource@@@Z 1002d80c f i Importing:CIFXPointSetDecoder.obj
 0001:0002c868       ??1?$IFXAutoRelease@VIFXAuthorPointSetResource@@@@QAE@XZ 1002d868 f i Importing:CIFXPointSetDecoder.obj
 0001:0002c8ec       ??0?$IFXAutoRelease@VIFXAuthorPointSet@@@@QAE@AAPAVIFXAuthorPointSet@@@Z 1002d8ec f i Importing:CIFXPointSetDecoder.obj
 0001:0002c948       ??1?$IFXAutoRelease@VIFXAuthorPointSet@@@@QAE@XZ 1002d948 f i Importing:CIFXPointSetDecoder.obj
 0001:0002c9cc       ?CreateNewElement@?$IFXArray@I@@QAEAAIXZ 1002d9cc f i Importing:CIFXPointSetDecoder.obj
 0001:0002ca08       ?GetElement@?$IFXArray@I@@QAEAAII@Z 1002da08 f i Importing:CIFXPointSetDecoder.obj
 0001:0002ca5c       ?CIFXPointSetDecoder_Factory@@YIHABUIFXGUID@@PAPAX@Z 1002da5c f   Importing:CIFXPointSetDecoder.obj
 0001:0002cbf0       ?AddRef@CIFXPointSetDecoder@@UAIIXZ 1002dbf0 f   Importing:CIFXPointSetDecoder.obj
 0001:0002cc0e       ?Release@CIFXPointSetDecoder@@UAIIXZ 1002dc0e f   Importing:CIFXPointSetDecoder.obj
 0001:0002cc60       ?QueryInterface@CIFXPointSetDecoder@@UAIHABUIFXGUID@@PAPAX@Z 1002dc60 f   Importing:CIFXPointSetDecoder.obj
 0001:0002cd48       ?InitializeX@CIFXPointSetDecoder@@UAIXABUIFXLoadConfig@@@Z 1002dd48 f   Importing:CIFXPointSetDecoder.obj
 0001:0002cd90       ?PutNextBlockX@CIFXPointSetDecoder@@UAIXAAVIFXDataBlockX@@@Z 1002dd90 f   Importing:CIFXPointSetDecoder.obj
 0001:0002ced6       ?TransferX@CIFXPointSetDecoder@@UAIXAAH@Z 1002ded6 f   Importing:CIFXPointSetDecoder.obj
 0001:0002d7d4       ??0CIFXPointSetDecoder@@AAE@XZ 1002e7d4 f   Importing:CIFXPointSetDecoder.obj
 0001:0002da9e       ??1CIFXPointSetDecoder@@EAE@XZ 1002ea9e f   Importing:CIFXPointSetDecoder.obj
 0001:0002dc06       ?ProcessAuthorPointSetDeclarationBlockX@CIFXPointSetDecoder@@AAEXXZ 1002ec06 f   Importing:CIFXPointSetDecoder.obj
 0001:0002f54e       ?ProcessAuthorPointSetContinuationBlockX@CIFXPointSetDecoder@@AAEXXZ 1003054e f   Importing:CIFXPointSetDecoder.obj
 0001:0002f874       ?ReconstructPosition@CIFXPointSetDecoder@@AAEXEIIIAAVIFXVector3@@@Z 10030874 f   Importing:CIFXPointSetDecoder.obj
 0001:0002fa08       ?ReconstructNormal@CIFXPointSetDecoder@@AAEXEIIIAAVIFXVector3@@@Z 10030a08 f   Importing:CIFXPointSetDecoder.obj
 0001:0002fb9c       ?ReconstructTexCoord@CIFXPointSetDecoder@@AAEXEIIIIAAVIFXVector4@@@Z 10030b9c f   Importing:CIFXPointSetDecoder.obj
 0001:0002fdba       ?GetPointsAtPosition@CIFXPointSetDecoder@@AAEXAAIAAV?$IFXArray@I@@@Z 10030dba f   Importing:CIFXPointSetDecoder.obj
 0001:0002fee6       ?CalculatePredictedNormalAtSplitPos@CIFXPointSetDecoder@@AAEXIIAAVIFXVector3@@@Z 10030ee6 f   Importing:CIFXPointSetDecoder.obj
 0001:0002ffee       ?CalculatePredictedColorAtSplitPos@CIFXPointSetDecoder@@AAEXHIIAAVIFXVector4@@@Z 10030fee f   Importing:CIFXPointSetDecoder.obj
 0001:000301b4       ?CalculatePredictedTexCoordAtSplitPos@CIFXPointSetDecoder@@AAEXIIIAAVIFXVector4@@@Z 100311b4 f   Importing:CIFXPointSetDecoder.obj
 0001:000302f0       ?ReconstructColorDifference@CIFXPointSetDecoder@@AAEXHAAEAAI111AAVIFXVector4@@@Z 100312f0 f   Importing:CIFXPointSetDecoder.obj
 0001:00030532       ?ReadPointUpdateX@CIFXPointSetDecoder@@AAEXI@Z 10031532 f   Importing:CIFXPointSetDecoder.obj
 0001:000316fc       ?AddRef@CIFXPointSetDecoder@@$4PPPPPPPM@A@AIIXZ 100326fc f i Importing:CIFXPointSetDecoder.obj
 0001:0003171c       ?Release@CIFXPointSetDecoder@@$4PPPPPPPM@A@AIIXZ 1003271c f i Importing:CIFXPointSetDecoder.obj
 0001:0003173c       ?QueryInterface@CIFXPointSetDecoder@@$4PPPPPPPM@A@AIHABUIFXGUID@@PAPAX@Z 1003273c f i Importing:CIFXPointSetDecoder.obj
 0001:0003175c       ?InitializeX@CIFXPointSetDecoder@@$4PPPPPPPM@A@AIXABUIFXLoadConfig@@@Z 1003275c f i Importing:CIFXPointSetDecoder.obj
 0001:0003177c       ?PutNextBlockX@CIFXPointSetDecoder@@$4PPPPPPPM@A@AIXAAVIFXDataBlockX@@@Z 1003277c f i Importing:CIFXPointSetDecoder.obj
 0001:0003179c       ?TransferX@CIFXPointSetDecoder@@$4PPPPPPPM@A@AIXAAH@Z 1003279c f i Importing:CIFXPointSetDecoder.obj
 0001:000317bc       ??_GCIFXLineSetDecoder@@EAEPAXI@Z 100327bc f i Importing:CIFXLineSetDecoder.obj
 0001:000317bc       ??_ECIFXLineSetDecoder@@EAEPAXI@Z 100327bc f i Importing:CIFXLineSetDecoder.obj
 0001:000317e8       ??_E?$IFXArray@I@@UAEPAXI@Z 100327e8 f i Importing:CIFXLineSetDecoder.obj
 0001:000317e8       ??_G?$IFXArray@I@@UAEPAXI@Z 100327e8 f i Importing:CIFXLineSetDecoder.obj
 0001:00031814       ?Scale@IFXVector3@@QAEAAV1@M@Z 10032814 f i Importing:CIFXLineSetDecoder.obj
 0001:00031854       ?Normalize@IFXVector3@@QAEAAV1@XZ 10032854 f i Importing:CIFXLineSetDecoder.obj
 0001:000318cc       ?Scale@IFXVector4@@QAEAAV1@M@Z 100328cc f i Importing:CIFXLineSetDecoder.obj
 0001:0003191c       ??0IFXAuthorLineSetDesc@@QAE@XZ 1003291c f i Importing:CIFXLineSetDecoder.obj
 0001:00031958       ??0?$IFXAutoRelease@VIFXAuthorLineSetResource@@@@QAE@AAPAVIFXAuthorLineSetResource@@@Z 10032958 f i Importing:CIFXLineSetDecoder.obj
 0001:000319b4       ??1?$IFXAutoRelease@VIFXAuthorLineSetResource@@@@QAE@XZ 100329b4 f i Importing:CIFXLineSetDecoder.obj
 0001:00031a38       ??0?$IFXAutoRelease@VIFXAuthorLineSet@@@@QAE@AAPAVIFXAuthorLineSet@@@Z 10032a38 f i Importing:CIFXLineSetDecoder.obj
 0001:00031a94       ??1?$IFXAutoRelease@VIFXAuthorLineSet@@@@QAE@XZ 10032a94 f i Importing:CIFXLineSetDecoder.obj
 0001:00031b18       ??0?$IFXAutoRelease@VIFXAuthorLineSetAnalyzer@@@@QAE@AAPAVIFXAuthorLineSetAnalyzer@@@Z 10032b18 f i Importing:CIFXLineSetDecoder.obj
 0001:00031b74       ??1?$IFXAutoRelease@VIFXAuthorLineSetAnalyzer@@@@QAE@XZ 10032b74 f i Importing:CIFXLineSetDecoder.obj
 0001:00031bec       ??0?$IFXArray@I@@QAE@I@Z   10032bec f i Importing:CIFXLineSetDecoder.obj
 0001:00031cc0       ??1?$IFXArray@I@@UAE@XZ    10032cc0 f i Importing:CIFXLineSetDecoder.obj
 0001:00031e04       ?ResetElement@?$IFXArray@I@@UAEXAAI@Z 10032e04 f i Importing:CIFXLineSetDecoder.obj
 0001:00031e10       ?Construct@?$IFXArray@I@@EAEXI@Z 10032e10 f i Importing:CIFXLineSetDecoder.obj
 0001:00031e90       ?Destruct@?$IFXArray@I@@EAEXI@Z 10032e90 f i Importing:CIFXLineSetDecoder.obj
 0001:00031ed0       ?DestructAll@?$IFXArray@I@@EAEXXZ 10032ed0 f i Importing:CIFXLineSetDecoder.obj
 0001:00031fc0       ?Preallocate@?$IFXArray@I@@EAEXI@Z 10032fc0 f i Importing:CIFXLineSetDecoder.obj
 0001:00032024       ?Resize@?$IFXArray@I@@EAEXI@Z 10033024 f i Importing:CIFXLineSetDecoder.obj
 0001:00032100       ?SetA@?$IFXLineT@I@@QAIXI@Z 10033100 f i Importing:CIFXLineSetDecoder.obj
 0001:00032118       ?SetB@?$IFXLineT@I@@QAIXI@Z 10033118 f i Importing:CIFXLineSetDecoder.obj
 0001:00032130       ?VertexA@?$IFXLineT@I@@QBIIXZ 10033130 f i Importing:CIFXLineSetDecoder.obj
 0001:00032140       ?VertexB@?$IFXLineT@I@@QBIIXZ 10033140 f i Importing:CIFXLineSetDecoder.obj
 0001:00032150       ?CIFXLineSetDecoder_Factory@@YIHABUIFXGUID@@PAPAX@Z 10033150 f   Importing:CIFXLineSetDecoder.obj
 0001:000322e4       ?AddRef@CIFXLineSetDecoder@@UAIIXZ 100332e4 f   Importing:CIFXLineSetDecoder.obj
 0001:00032302       ?Release@CIFXLineSetDecoder@@UAIIXZ 10033302 f   Importing:CIFXLineSetDecoder.obj
 0001:00032354       ?QueryInterface@CIFXLineSetDecoder@@UAIHABUIFXGUID@@PAPAX@Z 10033354 f   Importing:CIFXLineSetDecoder.obj
 0001:0003243c       ?InitializeX@CIFXLineSetDecoder@@UAIXABUIFXLoadConfig@@@Z 1003343c f   Importing:CIFXLineSetDecoder.obj
 0001:00032484       ?PutNextBlockX@CIFXLineSetDecoder@@UAIXAAVIFXDataBlockX@@@Z 10033484 f   Importing:CIFXLineSetDecoder.obj
 0001:000325ca       ?TransferX@CIFXLineSetDecoder@@UAIXAAH@Z 100335ca f   Importing:CIFXLineSetDecoder.obj
 0001:00032ed0       ??0CIFXLineSetDecoder@@AAE@XZ 10033ed0 f   Importing:CIFXLineSetDecoder.obj
 0001:000331ea       ??1CIFXLineSetDecoder@@EAE@XZ 100341ea f   Importing:CIFXLineSetDecoder.obj
 0001:00033392       ?ProcessAuthorLineSetDeclarationBlockX@CIFXLineSetDecoder@@AAEXXZ 10034392 f   Importing:CIFXLineSetDecoder.obj
 0001:00034cda       ?ProcessAuthorLineSetContinuationBlockX@CIFXLineSetDecoder@@AAEXXZ 10035cda f   Importing:CIFXLineSetDecoder.obj
 0001:0003511c       ?ReconstructPosition@CIFXLineSetDecoder@@AAEXEIIIAAVIFXVector3@@@Z 1003611c f   Importing:CIFXLineSetDecoder.obj
 0001:000352b0       ?ReconstructNormal@CIFXLineSetDecoder@@AAEXEIIIAAVIFXVector3@@@Z 100362b0 f   Importing:CIFXLineSetDecoder.obj
 0001:00035444       ?ReconstructTexCoord@CIFXLineSetDecoder@@AAEXEIIIIAAVIFXVector4@@@Z 10036444 f   Importing:CIFXLineSetDecoder.obj
 0001:00035662       ?CalculatePredictedNormalAtSplitPosX@CIFXLineSetDecoder@@AAEXIIAAVIFXVector3@@@Z 10036662 f   Importing:CIFXLineSetDecoder.obj
 0001:00035ee8       ?CalculatePredictedColorAtSplitPosX@CIFXLineSetDecoder@@AAEXHIIAAVIFXVector4@@@Z 10036ee8 f   Importing:CIFXLineSetDecoder.obj
 0001:00036836       ?CalculatePredictedTexCoordAtSplitPosX@CIFXLineSetDecoder@@AAEXIIIAAVIFXVector4@@@Z 10037836 f   Importing:CIFXLineSetDecoder.obj
 0001:000370da       ?ReconstructColorDifference@CIFXLineSetDecoder@@AAEXHAAEAAI111AAVIFXVector4@@@Z 100380da f   Importing:CIFXLineSetDecoder.obj
 0001:0003731a       ?NormalizeNormals@CIFXLineSetDecoder@@AAEXXZ 1003831a f   Importing:CIFXLineSetDecoder.obj
 0001:00037414       ?ReadLineUpdateX@CIFXLineSetDecoder@@AAEXI@Z 10038414 f   Importing:CIFXLineSetDecoder.obj
 0001:000387bc       ?AddRef@CIFXLineSetDecoder@@$4PPPPPPPM@A@AIIXZ 100397bc f i Importing:CIFXLineSetDecoder.obj
 0001:000387dc       ?Release@CIFXLineSetDecoder@@$4PPPPPPPM@A@AIIXZ 100397dc f i Importing:CIFXLineSetDecoder.obj
 0001:000387fc       ?QueryInterface@CIFXLineSetDecoder@@$4PPPPPPPM@A@AIHABUIFXGUID@@PAPAX@Z 100397fc f i Importing:CIFXLineSetDecoder.obj
 0001:0003881c       ?InitializeX@CIFXLineSetDecoder@@$4PPPPPPPM@A@AIXABUIFXLoadConfig@@@Z 1003981c f i Importing:CIFXLineSetDecoder.obj
 0001:0003883c       ?PutNextBlockX@CIFXLineSetDecoder@@$4PPPPPPPM@A@AIXAAVIFXDataBlockX@@@Z 1003983c f i Importing:CIFXLineSetDecoder.obj
 0001:0003885c       ?TransferX@CIFXLineSetDecoder@@$4PPPPPPPM@A@AIXAAH@Z 1003985c f i Importing:CIFXLineSetDecoder.obj
 0001:0003887c       ??_ECIFXBoneWeightsModifierDecoder@@EAEPAXI@Z 1003987c f i Importing:CIFXBoneWeightsModifierDecoder.obj
 0001:0003887c       ??_GCIFXBoneWeightsModifierDecoder@@EAEPAXI@Z 1003987c f i Importing:CIFXBoneWeightsModifierDecoder.obj
 0001:000388a8       ??0?$IFXAutoRelease@VIFXBoneWeightsModifier@@@@QAE@AAPAVIFXBoneWeightsModifier@@@Z 100398a8 f i Importing:CIFXBoneWeightsModifierDecoder.obj
 0001:00038904       ??1?$IFXAutoRelease@VIFXBoneWeightsModifier@@@@QAE@XZ 10039904 f i Importing:CIFXBoneWeightsModifierDecoder.obj
 0001:00038988       ?CIFXBoneWeightsModifierDecoder_Factory@@YIHABUIFXGUID@@PAPAX@Z 10039988 f   Importing:CIFXBoneWeightsModifierDecoder.obj
 0001:00038b1c       ?AddRef@CIFXBoneWeightsModifierDecoder@@UAIIXZ 10039b1c f   Importing:CIFXBoneWeightsModifierDecoder.obj
 0001:00038b36       ?Release@CIFXBoneWeightsModifierDecoder@@UAIIXZ 10039b36 f   Importing:CIFXBoneWeightsModifierDecoder.obj
 0001:00038b84       ?QueryInterface@CIFXBoneWeightsModifierDecoder@@UAIHABUIFXGUID@@PAPAX@Z 10039b84 f   Importing:CIFXBoneWeightsModifierDecoder.obj
 0001:00038c68       ?InitializeX@CIFXBoneWeightsModifierDecoder@@UAIXABUIFXLoadConfig@@@Z 10039c68 f   Importing:CIFXBoneWeightsModifierDecoder.obj
 0001:00038c8c       ?PutNextBlockX@CIFXBoneWeightsModifierDecoder@@UAIXAAVIFXDataBlockX@@@Z 10039c8c f   Importing:CIFXBoneWeightsModifierDecoder.obj
 0001:00038cfe       ?TransferX@CIFXBoneWeightsModifierDecoder@@UAIXAAH@Z 10039cfe f   Importing:CIFXBoneWeightsModifierDecoder.obj
 0001:00038e28       ??0CIFXBoneWeightsModifierDecoder@@AAE@XZ 10039e28 f   Importing:CIFXBoneWeightsModifierDecoder.obj
 0001:00038f68       ??1CIFXBoneWeightsModifierDecoder@@EAE@XZ 10039f68 f   Importing:CIFXBoneWeightsModifierDecoder.obj
 0001:00039018       ?ProcessBoneWeightsModifierBlockX@CIFXBoneWeightsModifierDecoder@@AAEXAAVIFXDataBlockX@@@Z 1003a018 f   Importing:CIFXBoneWeightsModifierDecoder.obj
 0001:0003987c       ?AddRef@CIFXBoneWeightsModifierDecoder@@$4PPPPPPPM@A@AIIXZ 1003a87c f i Importing:CIFXBoneWeightsModifierDecoder.obj
 0001:0003989c       ?Release@CIFXBoneWeightsModifierDecoder@@$4PPPPPPPM@A@AIIXZ 1003a89c f i Importing:CIFXBoneWeightsModifierDecoder.obj
 0001:000398bc       ?QueryInterface@CIFXBoneWeightsModifierDecoder@@$4PPPPPPPM@A@AIHABUIFXGUID@@PAPAX@Z 1003a8bc f i Importing:CIFXBoneWeightsModifierDecoder.obj
 0001:000398dc       ?InitializeX@CIFXBoneWeightsModifierDecoder@@$4PPPPPPPM@A@AIXABUIFXLoadConfig@@@Z 1003a8dc f i Importing:CIFXBoneWeightsModifierDecoder.obj
 0001:000398fc       ?PutNextBlockX@CIFXBoneWeightsModifierDecoder@@$4PPPPPPPM@A@AIXAAVIFXDataBlockX@@@Z 1003a8fc f i Importing:CIFXBoneWeightsModifierDecoder.obj
 0001:0003991c       ?TransferX@CIFXBoneWeightsModifierDecoder@@$4PPPPPPPM@A@AIXAAH@Z 1003a91c f i Importing:CIFXBoneWeightsModifierDecoder.obj
 0001:0003993c       ??_ECIFXCLODModifierDecoder@@EAEPAXI@Z 1003a93c f i Importing:CIFXCLODModifierDecoder.obj
 0001:0003993c       ??_GCIFXCLODModifierDecoder@@EAEPAXI@Z 1003a93c f i Importing:CIFXCLODModifierDecoder.obj
 0001:00039968       ??0?$IFXAutoRelease@VIFXCLODModifier@@@@QAE@AAPAVIFXCLODModifier@@@Z 1003a968 f i Importing:CIFXCLODModifierDecoder.obj
 0001:000399c4       ??1?$IFXAutoRelease@VIFXCLODModifier@@@@QAE@XZ 1003a9c4 f i Importing:CIFXCLODModifierDecoder.obj
 0001:00039a48       ?CIFXCLODModifierDecoder_Factory@@YIHABUIFXGUID@@PAPAX@Z 1003aa48 f   Importing:CIFXCLODModifierDecoder.obj
 0001:00039bdc       ?AddRef@CIFXCLODModifierDecoder@@UAIIXZ 1003abdc f   Importing:CIFXCLODModifierDecoder.obj
 0001:00039bf6       ?Release@CIFXCLODModifierDecoder@@UAIIXZ 1003abf6 f   Importing:CIFXCLODModifierDecoder.obj
 0001:00039c44       ?QueryInterface@CIFXCLODModifierDecoder@@UAIHABUIFXGUID@@PAPAX@Z 1003ac44 f   Importing:CIFXCLODModifierDecoder.obj
 0001:00039d28       ?InitializeX@CIFXCLODModifierDecoder@@UAIXABUIFXLoadConfig@@@Z 1003ad28 f   Importing:CIFXCLODModifierDecoder.obj
 0001:00039d4c       ?PutNextBlockX@CIFXCLODModifierDecoder@@UAIXAAVIFXDataBlockX@@@Z 1003ad4c f   Importing:CIFXCLODModifierDecoder.obj
 0001:00039dbe       ?TransferX@CIFXCLODModifierDecoder@@UAIXAAH@Z 1003adbe f   Importing:CIFXCLODModifierDecoder.obj
 0001:00039ee8       ??0CIFXCLODModifierDecoder@@AAE@XZ 1003aee8 f   Importing:CIFXCLODModifierDecoder.obj
 0001:0003a028       ??1CIFXCLODModifierDecoder@@EAE@XZ 1003b028 f   Importing:CIFXCLODModifierDecoder.obj
 0001:0003a0d8       ?ProcessCLODModifierBlockX@CIFXCLODModifierDecoder@@AAEXAAVIFXDataBlockX@@@Z 1003b0d8 f   Importing:CIFXCLODModifierDecoder.obj
 0001:0003a648       ?AddRef@CIFXCLODModifierDecoder@@$4PPPPPPPM@A@AIIXZ 1003b648 f i Importing:CIFXCLODModifierDecoder.obj
 0001:0003a668       ?Release@CIFXCLODModifierDecoder@@$4PPPPPPPM@A@AIIXZ 1003b668 f i Importing:CIFXCLODModifierDecoder.obj
 0001:0003a688       ?QueryInterface@CIFXCLODModifierDecoder@@$4PPPPPPPM@A@AIHABUIFXGUID@@PAPAX@Z 1003b688 f i Importing:CIFXCLODModifierDecoder.obj
 0001:0003a6a8       ?InitializeX@CIFXCLODModifierDecoder@@$4PPPPPPPM@A@AIXABUIFXLoadConfig@@@Z 1003b6a8 f i Importing:CIFXCLODModifierDecoder.obj
 0001:0003a6c8       ?PutNextBlockX@CIFXCLODModifierDecoder@@$4PPPPPPPM@A@AIXAAVIFXDataBlockX@@@Z 1003b6c8 f i Importing:CIFXCLODModifierDecoder.obj
 0001:0003a6e8       ?TransferX@CIFXCLODModifierDecoder@@$4PPPPPPPM@A@AIXAAH@Z 1003b6e8 f i Importing:CIFXCLODModifierDecoder.obj
 0001:0003a708       ??_GCIFXDummyModifierDecoder@@EAEPAXI@Z 1003b708 f i Importing:CIFXDummyModifierDecoder.obj
 0001:0003a708       ??_ECIFXDummyModifierDecoder@@EAEPAXI@Z 1003b708 f i Importing:CIFXDummyModifierDecoder.obj
 0001:0003a734       ??0?$IFXAutoRelease@VIFXDummyModifier@@@@QAE@AAPAVIFXDummyModifier@@@Z 1003b734 f i Importing:CIFXDummyModifierDecoder.obj
 0001:0003a790       ??1?$IFXAutoRelease@VIFXDummyModifier@@@@QAE@XZ 1003b790 f i Importing:CIFXDummyModifierDecoder.obj
 0001:0003a814       ?CIFXDummyModifierDecoder_Factory@@YIHABUIFXGUID@@PAPAX@Z 1003b814 f   Importing:CIFXDummyModifierDecoder.obj
 0001:0003a9a8       ?AddRef@CIFXDummyModifierDecoder@@UAIIXZ 1003b9a8 f   Importing:CIFXDummyModifierDecoder.obj
 0001:0003a9c2       ?Release@CIFXDummyModifierDecoder@@UAIIXZ 1003b9c2 f   Importing:CIFXDummyModifierDecoder.obj
 0001:0003aa10       ?QueryInterface@CIFXDummyModifierDecoder@@UAIHABUIFXGUID@@PAPAX@Z 1003ba10 f   Importing:CIFXDummyModifierDecoder.obj
 0001:0003aaf4       ?InitializeX@CIFXDummyModifierDecoder@@UAIXABUIFXLoadConfig@@@Z 1003baf4 f   Importing:CIFXDummyModifierDecoder.obj
 0001:0003ab18       ?PutNextBlockX@CIFXDummyModifierDecoder@@UAIXAAVIFXDataBlockX@@@Z 1003bb18 f   Importing:CIFXDummyModifierDecoder.obj
 0001:0003abb2       ?TransferX@CIFXDummyModifierDecoder@@UAIXAAH@Z 1003bbb2 f   Importing:CIFXDummyModifierDecoder.obj
 0001:0003ad02       ??0CIFXDummyModifierDecoder@@AAE@XZ 1003bd02 f   Importing:CIFXDummyModifierDecoder.obj
 0001:0003ae42       ??1CIFXDummyModifierDecoder@@EAE@XZ 1003be42 f   Importing:CIFXDummyModifierDecoder.obj
 0001:0003aef4       ?AddRef@CIFXDummyModifierDecoder@@$4PPPPPPPM@A@AIIXZ 1003bef4 f i Importing:CIFXDummyModifierDecoder.obj
 0001:0003af14       ?Release@CIFXDummyModifierDecoder@@$4PPPPPPPM@A@AIIXZ 1003bf14 f i Importing:CIFXDummyModifierDecoder.obj
 0001:0003af34       ?QueryInterface@CIFXDummyModifierDecoder@@$4PPPPPPPM@A@AIHABUIFXGUID@@PAPAX@Z 1003bf34 f i Importing:CIFXDummyModifierDecoder.obj
 0001:0003af54       ?InitializeX@CIFXDummyModifierDecoder@@$4PPPPPPPM@A@AIXABUIFXLoadConfig@@@Z 1003bf54 f i Importing:CIFXDummyModifierDecoder.obj
 0001:0003af74       ?PutNextBlockX@CIFXDummyModifierDecoder@@$4PPPPPPPM@A@AIXAAVIFXDataBlockX@@@Z 1003bf74 f i Importing:CIFXDummyModifierDecoder.obj
 0001:0003af94       ?TransferX@CIFXDummyModifierDecoder@@$4PPPPPPPM@A@AIXAAH@Z 1003bf94 f i Importing:CIFXDummyModifierDecoder.obj
 0001:0003afb4       ??3@YAXPAX@Z               1003bfb4 f   Importing:IFXCorePluginStatic.obj
 0001:0003afe8       ??_V@YAXPAX@Z              1003bfe8 f   Importing:IFXCorePluginStatic.obj
 0001:0003affa       ??2@YAPAXI@Z               1003bffa f   Importing:IFXCorePluginStatic.obj
 0001:0003b02c       ??_U@YAPAXI@Z              1003c02c f   Importing:IFXCorePluginStatic.obj
 0001:0003b048       ??_GIFXString@@UAEPAXI@Z   1003c048 f i Importing:IFXString.obj
 0001:0003b074       ?Concatenate@IFXString@@QAEHPBV1@@Z 1003c074 f i Importing:IFXString.obj
 0001:0003b0b4       ?Concatenate@IFXString@@QAEHPBE@Z 1003c0b4 f i Importing:IFXString.obj
 0001:0003b17c       ?NewBuffer@IFXString@@AAEXI@Z 1003c17c f i Importing:IFXString.obj
 0001:0003b1c8       ?DeleteBuffer@IFXString@@AAEXXZ 1003c1c8 f i Importing:IFXString.obj
 0001:0003b1fc       ??0IFXString@@QAE@XZ       1003c1fc f   Importing:IFXString.obj
 0001:0003b220       ??0IFXString@@QAE@ABV0@@Z  1003c220 f   Importing:IFXString.obj
 0001:0003b28c       ??0IFXString@@QAE@PBV0@@Z  1003c28c f   Importing:IFXString.obj
 0001:0003b30a       ??0IFXString@@QAE@PBD@Z    1003c30a f   Importing:IFXString.obj
 0001:0003b3a4       ??0IFXString@@QAE@PBE@Z    1003c3a4 f   Importing:IFXString.obj
 0001:0003b43e       ??0IFXString@@QAE@PBG@Z    1003c43e f   Importing:IFXString.obj
 0001:0003b4c0       ??0IFXString@@QAE@I@Z      1003c4c0 f   Importing:IFXString.obj
 0001:0003b50c       ??1IFXString@@UAE@XZ       1003c50c f   Importing:IFXString.obj
 0001:0003b528       ?Clear@IFXString@@QAEHXZ   1003c528 f   Importing:IFXString.obj
 0001:0003b53e       ?Length@IFXString@@QBEIXZ  1003c53e f   Importing:IFXString.obj
 0001:0003b576       ?LengthU8@IFXString@@QBEIXZ 1003c576 f   Importing:IFXString.obj
 0001:0003b5a6       ?GetLengthU8@IFXString@@QAEHPAI@Z 1003c5a6 f   Importing:IFXString.obj
 0001:0003b5fc       ?IsEmpty@IFXString@@QAEHXZ 1003c5fc f   Importing:IFXString.obj
 0001:0003b630       ?Assign@IFXString@@QAEHPBV1@@Z 1003c630 f   Importing:IFXString.obj
 0001:0003b6aa       ?Assign@IFXString@@QAEHPBE@Z 1003c6aa f   Importing:IFXString.obj
 0001:0003b750       ?Assign@IFXString@@QAEHPBG@Z 1003c750 f   Importing:IFXString.obj
 0001:0003b7ca       ?Compare@IFXString@@QBEHPBG@Z 1003c7ca f   Importing:IFXString.obj
 0001:0003b832       ?CompareNoCase@IFXString@@QBEHPBG@Z 1003c832 f   Importing:IFXString.obj
 0001:0003b9ce       ?ForceUppercase@IFXString@@QAEXXZ 1003c9ce f   Importing:IFXString.obj
 0001:0003ba40       ?ForceLowercase@IFXString@@QAEXXZ 1003ca40 f   Importing:IFXString.obj
 0001:0003bab2       ?ConvertToRawU8@IFXString@@QAEHPAEI@Z 1003cab2 f   Importing:IFXString.obj
 0001:0003bb34       ?Substring@IFXString@@QBEHPAV1@II@Z 1003cb34 f   Importing:IFXString.obj
 0001:0003bbca       ?Substring@IFXString@@QBEHPAGIII@Z 1003cbca f   Importing:IFXString.obj
 0001:0003bc4e       ?FindSubstring@IFXString@@QBEHPBGPAI@Z 1003cc4e f   Importing:IFXString.obj
 0001:0003bd96       ?SetAt@IFXString@@QAEHIPAG@Z 1003cd96 f   Importing:IFXString.obj
 0001:0003bdfa       ?GetAt@IFXString@@QAEHIPAG@Z 1003cdfa f   Importing:IFXString.obj
 0001:0003be5e       ?IsDigit@IFXString@@QAEHI@Z 1003ce5e f   Importing:IFXString.obj
 0001:0003bec2       ?ToString@IFXString@@QAEHID@Z 1003cec2 f   Importing:IFXString.obj
 0001:0003bfde       ?ToValue@IFXString@@QAEHPAID@Z 1003cfde f   Importing:IFXString.obj
 0001:0003c054       ?Concatenate@IFXString@@QAEHPBG@Z 1003d054 f   Importing:IFXString.obj
 0001:0003c1ac       ??HIFXString@@QBE?AV0@ABV0@@Z 1003d1ac f   Importing:IFXString.obj
 0001:0003c24a       ??HIFXString@@QBE?AV0@PBE@Z 1003d24a f   Importing:IFXString.obj
 0001:0003c2e6       ??HIFXString@@QBE?AV0@PBG@Z 1003d2e6 f   Importing:IFXString.obj
 0001:0003c382       ?VSPrintf@IFXString@@QAEAAV1@PBGPAD@Z 1003d382 f   Importing:IFXString.obj
 0001:0003c454       ?Match@IFXString@@QAEIPBGI@Z 1003d454 f   Importing:IFXString.obj
 0001:0003c498       ??_EIFXModifierBaseDecoder@@MAEPAXI@Z 1003d498 f i Importing:IFXModifierBaseDecoder.obj
 0001:0003c498       ??_GIFXModifierBaseDecoder@@MAEPAXI@Z 1003d498 f i Importing:IFXModifierBaseDecoder.obj
 0001:0003c4c4       ??0?$IFXAutoRelease@VIFXModifier@@@@QAE@AAPAVIFXModifier@@@Z 1003d4c4 f i Importing:IFXModifierBaseDecoder.obj
 0001:0003c520       ??1?$IFXAutoRelease@VIFXModifier@@@@QAE@XZ 1003d520 f i Importing:IFXModifierBaseDecoder.obj
 0001:0003c5a4       ??0?$IFXAutoRelease@VIFXModifierChain@@@@QAE@AAPAVIFXModifierChain@@@Z 1003d5a4 f i Importing:IFXModifierBaseDecoder.obj
 0001:0003c600       ??1?$IFXAutoRelease@VIFXModifierChain@@@@QAE@XZ 1003d600 f i Importing:IFXModifierBaseDecoder.obj
 0001:0003c684       ??0IFXModifierBaseDecoder@@IAE@XZ 1003d684 f   Importing:IFXModifierBaseDecoder.obj
 0001:0003c7f2       ??1IFXModifierBaseDecoder@@MAE@XZ 1003d7f2 f   Importing:IFXModifierBaseDecoder.obj
 0001:0003c930       ?InitializeX@IFXModifierBaseDecoder@@IAEXABUIFXLoadConfig@@@Z 1003d930 f   Importing:IFXModifierBaseDecoder.obj
 0001:0003ca12       ?CreateObjectX@IFXModifierBaseDecoder@@IAEXAAVIFXDataBlockX@@ABUIFXGUID@@@Z 1003da12 f   Importing:IFXModifierBaseDecoder.obj
 0001:0003ce48       ?ProcessChainX@IFXModifierBaseDecoder@@IAEXAAVIFXDataBlockX@@@Z 1003de48 f   Importing:IFXModifierBaseDecoder.obj
 0001:0003d5a8       ??_HIFXAuthorFace@@QAEPAU0@I@Z 1003e5a8 f i Importing:CIFXAuthorCLODDecoder_S.obj
 0001:0003d5e0       ?U@IFXVector4@@QAEAAMXZ    1003e5e0 f i Importing:CIFXAuthorCLODDecoder_S.obj
 0001:0003d5ec       ?V@IFXVector4@@QAEAAMXZ    1003e5ec f i Importing:CIFXAuthorCLODDecoder_S.obj
 0001:0003d5fc       ?W@IFXVector4@@QAEAAMXZ    1003e5fc f i Importing:CIFXAuthorCLODDecoder_S.obj
 0001:0003d60c       ?T@IFXVector4@@QAEAAMXZ    1003e60c f i Importing:CIFXAuthorCLODDecoder_S.obj
 0001:0003d61c       ?VertexA@IFXAuthorFace@@QAEAAIXZ 1003e61c f i Importing:CIFXAuthorCLODDecoder_S.obj
 0001:0003d628       ?VertexB@IFXAuthorFace@@QAEAAIXZ 1003e628 f i Importing:CIFXAuthorCLODDecoder_S.obj
 0001:0003d638       ?VertexC@IFXAuthorFace@@QAEAAIXZ 1003e638 f i Importing:CIFXAuthorCLODDecoder_S.obj
 0001:0003d648       ?Set@IFXAuthorFace@@QAEAAU1@III@Z 1003e648 f i Importing:CIFXAuthorCLODDecoder_S.obj
 0001:0003d670       ??0IFXAuthorFace@@QAE@XZ   1003e670 f i Importing:CIFXAuthorCLODDecoder_S.obj
 0001:0003d698       ?ProcessAuthorCLODStaticGeometryBlockX@CIFXAuthorCLODDecoder@@AAEXI@Z 1003e698 f   Importing:CIFXAuthorCLODDecoder_S.obj
 0001:0003f200       _fabsf                     10040200 f i Importing:CIFXAuthorCLODDecoder_P.obj
 0001:0003f228       ?fabs@@YAMM@Z              10040228 f i Importing:CIFXAuthorCLODDecoder_P.obj
 0001:0003f244       ??_HIFXAuthorFaceUpdate@@QAEPAU0@I@Z 10040244 f i Importing:CIFXAuthorCLODDecoder_P.obj
 0001:0003f27c       ??_HIFXVector3@@QAEPAV0@I@Z 1004027c f i Importing:CIFXAuthorCLODDecoder_P.obj
 0001:0003f2b4       ?IsApproximately@IFXVector3@@QBEHABV1@M@Z 100402b4 f i Importing:CIFXAuthorCLODDecoder_P.obj
 0001:0003f370       ?RawConst@IFXVector3@@QBEPBMXZ 10040370 f i Importing:CIFXAuthorCLODDecoder_P.obj
 0001:0003f37c       ?Subtract@IFXVector3@@QAEAAV1@ABV1@0@Z 1004037c f i Importing:CIFXAuthorCLODDecoder_P.obj
 0001:0003f3c4       ?DotProduct@IFXVector3@@QBEMABV1@@Z 100403c4 f i Importing:CIFXAuthorCLODDecoder_P.obj
 0001:0003f3fc       ?CrossProduct@IFXVector3@@QAEAAV1@ABV1@0@Z 100403fc f i Importing:CIFXAuthorCLODDecoder_P.obj
 0001:0003f4e8       ?H@IFXVector4@@QAEAAMXZ    100404e8 f i Importing:CIFXAuthorCLODDecoder_P.obj
 0001:0003f4f8       ??0IFXAuthorFaceUpdate@@QAE@XZ 100404f8 f i Importing:CIFXAuthorCLODDecoder_P.obj
 0001:0003f528       ??0IFXAuthorVertexUpdate@@QAE@XZ 10040528 f i Importing:CIFXAuthorCLODDecoder_P.obj
 0001:0003f568       ??1IFXAuthorVertexUpdate@@QAE@XZ 10040568 f i Importing:CIFXAuthorCLODDecoder_P.obj
 0001:0003f5a4       ??4IFXAuthorVertexUpdate@@QAEAAU0@ABU0@@Z 100405a4 f i Importing:CIFXAuthorCLODDecoder_P.obj
 0001:0003f758       ??0IFXQuaternion@@QAE@ABVIFXVector3@@@Z 10040758 f i Importing:CIFXAuthorCLODDecoder_P.obj
 0001:0003f778       ??4IFXQuaternion@@QAEAAV0@ABVIFXVector3@@@Z 10040778 f i Importing:CIFXAuthorCLODDecoder_P.obj
 0001:0003f7c8       ??AIFXQuaternion@@QAEAAMH@Z 100407c8 f i Importing:CIFXAuthorCLODDecoder_P.obj
 0001:0003f7dc       ??0?$IFXAutoRelease@VIFXSetX@@@@QAE@AAPAVIFXSetX@@@Z 100407dc f i Importing:CIFXAuthorCLODDecoder_P.obj
 0001:0003f838       ??1?$IFXAutoRelease@VIFXSetX@@@@QAE@XZ 10040838 f i Importing:CIFXAuthorCLODDecoder_P.obj
 0001:0003f8b0       ?CalculateFaceNormalX@CIFXAuthorCLODDecoder@@AAEXIAAVIFXVector3@@@Z 100408b0 f   Importing:CIFXAuthorCLODDecoder_P.obj
 0001:0003fc06       ?ProcessAuthorCLODProgressiveGeometryBlocksX@CIFXAuthorCLODDecoder@@AAEXI@Z 10040c06 f   Importing:CIFXAuthorCLODDecoder_P.obj
 0001:00049458       _cosf                      1004a458 f i Importing:IFXMatrix4x4.obj
 0001:00049480       _sinf                      1004a480 f i Importing:IFXMatrix4x4.obj
 0001:000494a8       ?cos@@YAMM@Z               1004a4a8 f i Importing:IFXMatrix4x4.obj
 0001:000494c4       ?sin@@YAMM@Z               1004a4c4 f i Importing:IFXMatrix4x4.obj
 0001:000494e0       ?sqrt@@YAMM@Z              1004a4e0 f i Importing:IFXMatrix4x4.obj
 0001:000494fc       ?Raw@IFXVector3@@QAEPAMXZ  1004a4fc f i Importing:IFXMatrix4x4.obj
 0001:00049508       ??AIFXVector3@@QAEAAMI@Z   1004a508 f i Importing:IFXMatrix4x4.obj
 0001:00049554       ?Subtract@IFXVector3@@QAEAAV1@ABV1@@Z 1004a554 f i Importing:IFXMatrix4x4.obj
 0001:0004959c       ?X@IFXVector4@@QBEMXZ      1004a59c f i Importing:IFXMatrix4x4.obj
 0001:000495ac       ?Y@IFXVector4@@QBEMXZ      1004a5ac f i Importing:IFXMatrix4x4.obj
 0001:000495bc       ?Z@IFXVector4@@QBEMXZ      1004a5bc f i Importing:IFXMatrix4x4.obj
 0001:000495cc       ?Set@IFXMatrix4x4@@QAEAAV1@ABVIFXVector3@@000@Z 1004a5cc f i Importing:IFXMatrix4x4.obj
 0001:000496b4       ?RotateVector@IFXMatrix4x4@@QBEXABVIFXVector3@@AAV2@@Z 1004a6b4 f i Importing:IFXMatrix4x4.obj
 0001:000497b8       ?IFXMatrix4x4_Multiply@@YAXPAMPBM1@Z 1004a7b8 f   Importing:IFXMatrix4x4.obj
 0001:00049c0a       ?IFXMatrix4x4_MakeIdentity@@YAXPAM@Z 1004ac0a f   Importing:IFXMatrix4x4.obj
 0001:00049c8e       ?IFXMatrix4x4_Scale@@YAXPAMPBM@Z 1004ac8e f   Importing:IFXMatrix4x4.obj
 0001:00049d7e       ?IFXMatrix4x4_Transpose@@YAXPAM@Z 1004ad7e f   Importing:IFXMatrix4x4.obj
 0001:00049e38       ?IFXMatrix4x4_CalcDeterminant3x3@@YAMPBM@Z 1004ae38 f   Importing:IFXMatrix4x4.obj
 0001:00049ece       ?CalcDeterminant3x3@@YAMMMMMMMMMM@Z 1004aece f   Importing:IFXMatrix4x4.obj
 0001:00049f1c       ?IFXMatrix4x4_CalcDeterminant@@YAMPBM@Z 1004af1c f   Importing:IFXMatrix4x4.obj
 0001:0004a0f2       ?IFXMatrix4x4_Invert3x4@@YAHPAMPBM@Z 1004b0f2 f   Importing:IFXMatrix4x4.obj
 0001:0004a38a       ?IFXMatrix4x4_Invert@@YAHPAMPBM@Z 1004b38a f   Importing:IFXMatrix4x4.obj
 0001:0004ab48       ?IFXMatrix4x4_Multiply3x4@@YAXPAMPBM1@Z 1004bb48 f   Importing:IFXMatrix4x4.obj
 0001:0004adce       ??4IFXMatrix4x4@@QAEAAV0@ABVIFXQuaternion@@@Z 1004bdce f   Importing:IFXMatrix4x4.obj
 0001:0004af28       ?MakeIdentity@IFXMatrix4x4@@QAEAAV1@XZ 1004bf28 f   Importing:IFXMatrix4x4.obj
 0001:0004af44       ?Scale@IFXMatrix4x4@@QAEAAV1@ABVIFXVector3@@@Z 1004bf44 f   Importing:IFXMatrix4x4.obj
 0001:0004af7a       ?Multiply3x4@IFXMatrix4x4@@QAEAAV1@ABV1@0@Z 1004bf7a f   Importing:IFXMatrix4x4.obj
 0001:0004b01e       ?Multiply@IFXMatrix4x4@@QAEAAV1@ABV1@0@Z 1004c01e f   Importing:IFXMatrix4x4.obj
 0001:0004b0c2       ?Invert3x4@IFXMatrix4x4@@QAEHABV1@@Z 1004c0c2 f   Importing:IFXMatrix4x4.obj
 0001:0004b128       ?Invert@IFXMatrix4x4@@QAEHABV1@@Z 1004c128 f   Importing:IFXMatrix4x4.obj
 0001:0004b156       ?CalcDeterminant@IFXMatrix4x4@@QBEMXZ 1004c156 f   Importing:IFXMatrix4x4.obj
 0001:0004b174       ?CalcDeterminant3x3@IFXMatrix4x4@@QBEMXZ 1004c174 f   Importing:IFXMatrix4x4.obj
 0001:0004b194       ?CalcDeterminant3x3@IFXMatrix4x4@@SAMMMMMMMMMM@Z 1004c194 f   Importing:IFXMatrix4x4.obj
 0001:0004b1ea       ?Decompose@IFXMatrix4x4@@QBEHAAVIFXVector3@@AAV1@0@Z 1004c1ea f   Importing:IFXMatrix4x4.obj
 0001:0004b772       ?CalcTRS@IFXMatrix4x4@@QBEHPAVIFXVector3@@PAVIFXQuaternion@@0@Z 1004c772 f   Importing:IFXMatrix4x4.obj
 0001:0004b844       ?CalcAxisScale@IFXMatrix4x4@@QBEXAAVIFXVector3@@@Z 1004c844 f   Importing:IFXMatrix4x4.obj
 0001:0004b96c       ?Transpose@IFXMatrix4x4@@QAEXXZ 1004c96c f   Importing:IFXMatrix4x4.obj
 0001:0004b984       ?RotateAxis@IFXMatrix4x4@@QAEXABVIFXVector4@@M@Z 1004c984 f   Importing:IFXMatrix4x4.obj
 0001:0004bbf0       ??_GCIFXNodeBaseDecoder@@MAEPAXI@Z 1004cbf0 f i Importing:CIFXNodeDecoder.obj
 0001:0004bbf0       ??_ECIFXNodeBaseDecoder@@MAEPAXI@Z 1004cbf0 f i Importing:CIFXNodeDecoder.obj
 0001:0004bc1c       ??0CIFXNodeBaseDecoder@@IAE@XZ 1004cc1c f   Importing:CIFXNodeDecoder.obj
 0001:0004bde0       ??1CIFXNodeBaseDecoder@@MAE@XZ 1004cde0 f   Importing:CIFXNodeDecoder.obj
 0001:0004bf5a       ?CommonNodeReadU3DX@CIFXNodeBaseDecoder@@IAEHAAVIFXDataBlockX@@@Z 1004cf5a f   Importing:CIFXNodeDecoder.obj
 0001:0004c9b0       ?CheckInitializedX@CIFXNodeBaseDecoder@@IAEXXZ 1004d9b0 f   Importing:CIFXNodeDecoder.obj
 0001:0004c9e8       ?InitializeX@CIFXNodeBaseDecoder@@IAEXABUIFXLoadConfig@@@Z 1004d9e8 f   Importing:CIFXNodeDecoder.obj
 0001:0004cadc       ?CreateObjectX@CIFXNodeBaseDecoder@@IAEXAAVIFXDataBlockX@@ABUIFXGUID@@@Z 1004dadc f   Importing:CIFXNodeDecoder.obj
 0001:0004d1ee       ?AddParentNodePlaceholderX@CIFXNodeBaseDecoder@@IAEXAAVIFXDataBlockX@@@Z 1004e1ee f   Importing:CIFXNodeDecoder.obj
 0001:0004dad4       ?ReplaceNodeX@CIFXNodeBaseDecoder@@IAEXIAAVIFXUnknown@@@Z 1004ead4 f   Importing:CIFXNodeDecoder.obj
 0001:0004dff4       ??0IFXCoreArray@@QAE@I@Z   1004eff4 f   Importing:IFXCoreArray.obj
 0001:0004e032       ?Clear@IFXCoreArray@@UAEXI@Z 1004f032 f   Importing:IFXCoreArray.obj
 0001:0004e09e       ?ResizeToExactly@IFXCoreArray@@QAEXI@Z 1004f09e f   Importing:IFXCoreArray.obj
 0001:0004e152       ?ResizeToAtLeast@IFXCoreArray@@QAEXI@Z 1004f152 f   Importing:IFXCoreArray.obj
 0001:0004e1dc       ?ParseURL@@YAHPADAAUUrlParseData@@@Z 1004f1dc f   Importing:IFXInternetSessionX.obj
 0001:0004e5d4       ??0IFXInternetSessionX@@QAE@XZ 1004f5d4 f   Importing:IFXInternetSessionX.obj
 0001:0004e5ea       ??1IFXInternetSessionX@@QAE@XZ 1004f5ea f   Importing:IFXInternetSessionX.obj
 0001:0004e63a       ?Close@IFXInternetSessionX@@QAEHXZ 1004f63a f   Importing:IFXInternetSessionX.obj
 0001:0004e670       ?OpenX@IFXInternetSessionX@@QAEXPAD@Z 1004f670 f   Importing:IFXInternetSessionX.obj
 0001:0004e952       ?OpenX@IFXInternetSessionX@@QAEXPAG@Z 1004f952 f   Importing:IFXInternetSessionX.obj
 0001:0004eb82       ?Read@IFXInternetSessionX@@QAEHPAEIPAI@Z 1004fb82 f   Importing:IFXInternetSessionX.obj
 0001:0004ebf4       ?SetOptions@IFXInternetSessionX@@QAEHIPBDH@Z 1004fbf4 f   Importing:IFXInternetSessionX.obj
 0001:0004ec66       ?GetOptions@IFXInternetSessionX@@QAEHIPADPAH@Z 1004fc66 f   Importing:IFXInternetSessionX.obj
 0001:0004ecd8       ?_wc_specialchar@@YAHH@Z   1004fcd8 f   Importing:wcmatch.obj
 0001:0004ecfe       ?_wc_ci_strchr@@YAPBGPBGGH@Z 1004fcfe f   Importing:wcmatch.obj
 0001:0004ed9a       _WCPossible                1004fd9a f   Importing:wcmatch.obj
 0001:0004ee1c       ?_equal_chars@@YAHHHH@Z    1004fe1c f   Importing:wcmatch.obj
 0001:0004ee84       ?_wc_match@@YAPBGPBG0H@Z   1004fe84 f   Importing:wcmatch.obj
 0001:0004f0ce       _WCMatchPos                100500ce f   Importing:wcmatch.obj
 0001:0004f18a       _WCMatch                   1005018a f   Importing:wcmatch.obj
 0001:0004f1c8       _acosf                     100501c8 f i Importing:IFXQuaternion.obj
 0001:0004f1f0       _atan2f                    100501f0 f i Importing:IFXQuaternion.obj
 0001:0004f21c       ?RawConst@IFXMatrix4x4@@QBEPBMXZ 1005021c f i Importing:IFXQuaternion.obj
 0001:0004f228       ?CalcMagnitudeSquared@IFXQuaternion@@QAEMXZ 10050228 f i Importing:IFXQuaternion.obj
 0001:0004f270       ?Normalize@IFXQuaternion@@QAEXXZ 10050270 f i Importing:IFXQuaternion.obj
 0001:0004f308       ?RotateVector@IFXQuaternion@@QAEXABVIFXVector3@@AAV2@@Z 10050308 f i Importing:IFXQuaternion.obj
 0001:0004f34c       ?RotateVector@IFXQuaternion@@QAEXPBMPAM@Z 1005034c f i Importing:IFXQuaternion.obj
 0001:0004f4c4       ??4IFXQuaternion@@QAEAAV0@ABVIFXMatrix4x4@@@Z 100504c4 f   Importing:IFXQuaternion.obj
 0001:0004f73e       ?MakeRotation@IFXQuaternion@@QAEXMW4IFXAxisID@@@Z 1005073e f   Importing:IFXQuaternion.obj
 0001:0004f7a6       ?MakeRotation@IFXQuaternion@@QAEXMABVIFXVector3@@@Z 100507a6 f   Importing:IFXQuaternion.obj
 0001:0004f8a6       ?MakeRotation@IFXQuaternion@@QAEXABVIFXVector3@@0@Z 100508a6 f   Importing:IFXQuaternion.obj
 0001:0004fb74       ?ComputeAngleAxis@IFXQuaternion@@QBEXAAMAAVIFXVector3@@@Z 10050b74 f   Importing:IFXQuaternion.obj
 0001:0004fd0e       ?ForcePositiveW@IFXQuaternion@@QAEXXZ 10050d0e f   Importing:IFXQuaternion.obj
 0001:0004fd60       ?Interpolate@IFXQuaternion@@QAEXMABV1@0@Z 10050d60 f   Importing:IFXQuaternion.obj
 0001:0004ff46       ?ExtractEulerZ@IFXQuaternion@@QAEMXZ 10050f46 f   Importing:IFXQuaternion.obj
 0001:000500a4       ??_GIFXSocketStream@@QAEPAXI@Z 100510a4 f i Importing:IFXInternetConnectionX.obj
 0001:000500a4       ??_EIFXSocketStream@@QAEPAXI@Z 100510a4 f i Importing:IFXInternetConnectionX.obj
 0001:000500d0       ??_EIFXInternetConnectionX@@UAEPAXI@Z 100510d0 f i Importing:IFXInternetConnectionX.obj
 0001:000500d0       ??_GIFXInternetConnectionX@@UAEPAXI@Z 100510d0 f i Importing:IFXInternetConnectionX.obj
 0001:000500fc       ??_EIFXHTTPConnectionX@@UAEPAXI@Z 100510fc f i Importing:IFXInternetConnectionX.obj
 0001:000500fc       ??_GIFXHTTPConnectionX@@UAEPAXI@Z 100510fc f i Importing:IFXInternetConnectionX.obj
 0001:00050128       ??_GIFXFTPConnectionX@@UAEPAXI@Z 10051128 f i Importing:IFXInternetConnectionX.obj
 0001:00050128       ??_EIFXFTPConnectionX@@UAEPAXI@Z 10051128 f i Importing:IFXInternetConnectionX.obj
 0001:00050154       ?MakeInternetConnectionX@@YAPAVIFXInternetConnectionX@@PBD@Z 10051154 f   Importing:IFXInternetConnectionX.obj
 0001:00050414       ?ParseFtpPasvResponse@@YAHPBDAAG@Z 10051414 f   Importing:IFXInternetConnectionX.obj
 0001:000505fa       ??0IFXInternetConnectionX@@QAE@XZ 100515fa f   Importing:IFXInternetConnectionX.obj
 0001:0005061a       ??1IFXInternetConnectionX@@UAE@XZ 1005161a f   Importing:IFXInternetConnectionX.obj
 0001:0005066c       ?InitializeX@IFXInternetConnectionX@@UAEXPBDAAG00@Z 1005166c f   Importing:IFXInternetConnectionX.obj
 0001:000508f4       ?Close@IFXInternetConnectionX@@UAEHXZ 100518f4 f   Importing:IFXInternetConnectionX.obj
 0001:00050920       ?GetStream@IFXInternetConnectionX@@UBEPAVIFXSocketStream@@XZ 10051920 f   Importing:IFXInternetConnectionX.obj
 0001:00050930       ?SendRequest@IFXInternetConnectionX@@IAEHPBD0@Z 10051930 f   Importing:IFXInternetConnectionX.obj
 0001:00050b6a       ??0IFXHTTPConnectionX@@QAE@XZ 10051b6a f   Importing:IFXInternetConnectionX.obj
 0001:00050bf4       ??1IFXHTTPConnectionX@@UAE@XZ 10051bf4 f   Importing:IFXInternetConnectionX.obj
 0001:00050c7c       ?InitializeX@IFXHTTPConnectionX@@UAEXPBDAAG00@Z 10051c7c f   Importing:IFXInternetConnectionX.obj
 0001:00050cc4       ?OpenFileX@IFXHTTPConnectionX@@UAEXPBD@Z 10051cc4 f   Importing:IFXInternetConnectionX.obj
 0001:00050d70       ??0IFXFTPConnectionX@@QAE@XZ 10051d70 f   Importing:IFXInternetConnectionX.obj
 0001:00050e04       ??1IFXFTPConnectionX@@UAE@XZ 10051e04 f   Importing:IFXInternetConnectionX.obj
 0001:00050ec8       ?InitializeX@IFXFTPConnectionX@@UAEXPBDAAG00@Z 10051ec8 f   Importing:IFXInternetConnectionX.obj
 0001:00050f60       ?OpenFileX@IFXFTPConnectionX@@UAEXPBD@Z 10051f60 f   Importing:IFXInternetConnectionX.obj
 0001:00051020       ?Close@IFXFTPConnectionX@@UAEHXZ 10052020 f   Importing:IFXInternetConnectionX.obj
 0001:00051056       ?GetStream@IFXFTPConnectionX@@UBEPAVIFXSocketStream@@XZ 10052056 f   Importing:IFXInternetConnectionX.obj
 0001:00051066       ?DoAuthorizationX@IFXFTPConnectionX@@AAEXPBD0@Z 10052066 f   Importing:IFXInternetConnectionX.obj
 0001:000511fa       ?CheckResponse@IFXFTPConnectionX@@AAEHPBDPAD@Z 100521fa f   Importing:IFXInternetConnectionX.obj
 0001:00051346       ?CreateDataConnectionX@IFXFTPConnectionX@@AAEXXZ 10052346 f   Importing:IFXInternetConnectionX.obj
 0001:00051642       ?CheckFileRequestResponseX@IFXFTPConnectionX@@AAEXXZ 10052642 f   Importing:IFXInternetConnectionX.obj
 0001:00051720       ??0IFXSocketStream@@QAE@XZ 10052720 f   Importing:IFXSocketStream.obj
 0001:00051736       ??1IFXSocketStream@@QAE@XZ 10052736 f   Importing:IFXSocketStream.obj
 0001:0005174a       ?Open@IFXSocketStream@@QAEHXZ 1005274a f   Importing:IFXSocketStream.obj
 0001:00051780       ?Connect@IFXSocketStream@@QAEHPBDG@Z 10052780 f   Importing:IFXSocketStream.obj
 0001:000517ac       ?Receive@IFXSocketStream@@QAEHPADH@Z 100527ac f   Importing:IFXSocketStream.obj
 0001:000517e0       ?Send@IFXSocketStream@@QAEHPBDH@Z 100527e0 f   Importing:IFXSocketStream.obj
 0001:00051814       ?ReadBytes@IFXSocketStream@@QAEHPAEIPAI@Z 10052814 f   Importing:IFXSocketStream.obj
 0001:00051932       ?SendBytes@IFXSocketStream@@QAEHPBD@Z 10052932 f   Importing:IFXSocketStream.obj
 0001:000519b0       ?SetOptions@IFXSocketStream@@QAEHIPBDH@Z 100529b0 f   Importing:IFXSocketStream.obj
 0001:000519e2       ?GetOptions@IFXSocketStream@@QAEHIPADPAH@Z 100529e2 f   Importing:IFXSocketStream.obj
 0001:00051a14       ?Close@IFXSocketStream@@QAEHXZ 10052a14 f   Importing:IFXSocketStream.obj
 0001:00051a50       @IFXCreateComponent@12     10052a50 f   IFXCore:IFXCore.dll
 0001:00051a56       @IFXGetMemoryFunctions@12  10052a56 f   IFXCore:IFXCore.dll
 0001:00051a5c       @IFXSetMemoryFunctions@12  10052a5c f   IFXCore:IFXCore.dll
 0001:00051a62       @IFXReallocate@8           10052a62 f   IFXCore:IFXCore.dll
 0001:00051a68       @IFXAllocate@4             10052a68 f   IFXCore:IFXCore.dll
 0001:00051a6e       @IFXDeallocate@4           10052a6e f   IFXCore:IFXCore.dll
 0001:00051a74       _fabs                      10052a74 f   libmmt:fabs.omu
 0001:00051a7c       _sqrt                      10052a7c f   libmmt:sqrt_stub.omu
 0001:00051aa4       _cos                       10052aa4 f   libmmt:cos_stub.omu
 0001:00051acc       _sin                       10052acc f   libmmt:sin_stub.omu
 0001:00051af4       _acos                      10052af4 f   libmmt:acos_stub.omu
 0001:00051b1c       _atan2                     10052b1c f   libmmt:atan2_stub.omu
 0001:00051b44       _sqrt.J                    10052b44 f   libmmt:sqrt_wmt.omu
 0001:00051bc4       _sqrt.A                    10052bc4 f   libmmt:sqrt_gen.omu
 0001:00051c40       _cos.J                     10052c40 f   libmmt:cos_wmt.omu
 0001:00051e0c       _cos.A                     10052e0c f   libmmt:cos_gen.omu
 0001:000522c4       _sin.J                     100532c4 f   libmmt:sin_wmt.omu
 0001:000524a8       _sin.A                     100534a8 f   libmmt:sin_gen.omu
 0001:000529bc       _acos.J                    100539bc f   libmmt:acos_wmt.omu
 0001:00052ed8       _acos.A                    10053ed8 f   libmmt:acos_gen.omu
 0001:00053310       _atan2.J                   10054310 f   libmmt:atan2_wmt.omu
 0001:0005390c       _atan2.A                   1005490c f   libmmt:atan2_gen.omu
 0001:00053998       ___libm_error_support      10054998 f   libmmt:libm_error.omu
 0001:0005a7cc       ___libm_setusermatherrl    1005b7cc f   libmmt:libm_error.omu
 0001:0005a7e4       ___libm_setusermatherr     1005b7e4 f   libmmt:libm_error.omu
 0001:0005a7fc       ___libm_setusermatherrf    1005b7fc f   libmmt:libm_error.omu
 0001:0005a814       ___libm_sincos_huge        1005b814 f   libmmt:libm_sincos_huge.omu
 0001:0005ad34       ___libm_reduce_pi04l       1005bd34 f   libmmt:libm_reduce_pi04l.omu
 0001:0005b120       _matherrl                  1005c120 f   libmmt:matherrl.omu
 0001:0005b128       _matherr                   1005c128 f   libmmt:matherr.omu
 0001:0005b130       _matherrf                  1005c130 f   libmmt:matherrf.omu
 0001:0005b140       __CRT_INIT@12              1005c140 f   LIBCMTD:dllcrt0.obj
 0001:0005b390       __DllMainCRTStartup@12     1005c390 f   LIBCMTD:dllcrt0.obj
 0001:0005b510       __amsg_exit                1005c510 f   LIBCMTD:dllcrt0.obj
 0001:0005b550       _memset                    1005c550 f   LIBCMTD:memset.obj
 0001:0005b5b0       __CxxThrowException@8      1005c5b0 f   LIBCMTD:throw.obj
 0001:0005b600       __fpmath                   1005c600 f   LIBCMTD:fpinit.obj
 0001:0005b630       __fpclear                  1005c630 f   LIBCMTD:fpinit.obj
 0001:0005b640       __cfltcvt_init             1005c640 f   LIBCMTD:fpinit.obj
 0001:0005b690       ___setfflag                1005c690 f   LIBCMTD:fpinit.obj
 0001:0005b6b0       _memcpy                    1005c6b0 f   LIBCMTD:memcpy.obj
 0001:0005b9f0       __global_unwind2           1005c9f0 f   LIBCMTD:exsup.obj
 0001:0005ba32       __local_unwind2            1005ca32 f   LIBCMTD:exsup.obj
 0001:0005ba8a       __NLG_Return2              1005ca8a     LIBCMTD:exsup.obj
 0001:0005ba9a       __abnormal_termination     1005ca9a f   LIBCMTD:exsup.obj
 0001:0005babd       __NLG_Notify1              1005cabd f   LIBCMTD:exsup.obj
 0001:0005bac6       __NLG_Notify               1005cac6 f   LIBCMTD:exsup.obj
 0001:0005bad9       __NLG_Dispatch             1005cad9     LIBCMTD:exsup.obj
 0001:0005bae0       ?_JumpToContinuation@@YGXPAXPAUEHRegistrationNode@@@Z 1005cae0 f   LIBCMTD:trnsctrl.obj
 0001:0005bb20       ?_CallMemberFunction0@@YGXPAX0@Z 1005cb20 f   LIBCMTD:trnsctrl.obj
 0001:0005bb30       ?_CallMemberFunction1@@YGXPAX00@Z 1005cb30 f   LIBCMTD:trnsctrl.obj
 0001:0005bb40       ?_CallMemberFunction2@@YGXPAX00H@Z 1005cb40 f   LIBCMTD:trnsctrl.obj
 0001:0005bb50       ?_UnwindNestedFrames@@YGXPAUEHRegistrationNode@@PAUEHExceptionRecord@@@Z 1005cb50 f   LIBCMTD:trnsctrl.obj
 0001:0005bbb0       ___CxxFrameHandler         1005cbb0 f   LIBCMTD:trnsctrl.obj
 0001:0005bbf0       ___CxxLongjmpUnwind@4      1005cbf0 f   LIBCMTD:trnsctrl.obj
 0001:0005bc20       ?_CallCatchBlock2@@YAPAXPAUEHRegistrationNode@@PBU_s_FuncInfo@@PAXHK@Z 1005cc20 f   LIBCMTD:trnsctrl.obj
 0001:0005bcf0       ?_CallSETranslator@@YAHPAUEHExceptionRecord@@PAUEHRegistrationNode@@PAX2PBU_s_FuncInfo@@H1@Z 1005ccf0 f   LIBCMTD:trnsctrl.obj
 0001:0005bea0       ?_GetRangeOfTrysToCheck@@YAPBU_s_TryBlockMapEntry@@PBU_s_FuncInfo@@HHPAI1@Z 1005cea0 f   LIBCMTD:trnsctrl.obj
 0001:0005bf30       ?_CreateFrameInfo@@YAPAUFrameInfo@@PAU1@PAX@Z 1005cf30 f   LIBCMTD:trnsctrl.obj
 0001:0005bf60       ?IsExceptionObjectToBeDestroyed@@YAHPAX@Z 1005cf60 f   LIBCMTD:trnsctrl.obj
 0001:0005bf90       ?_FindAndUnlinkFrame@@YAXPAUFrameInfo@@@Z 1005cf90 f   LIBCMTD:trnsctrl.obj
 0001:0005bff0       ??_M@YGXPAXIHP6EX0@Z@Z     1005cff0 f   LIBCMTD:ehvecdtr.obj
 0001:0005c090       ?__ArrayUnwind@@YGXPAXIHP6EX0@Z@Z 1005d090 f   LIBCMTD:ehvecdtr.obj
 0001:0005c140       ??_L@YGXPAXIHP6EX0@Z1@Z    1005d140 f   LIBCMTD:ehvecctr.obj
 0001:0005c1e0       __purecall                 1005d1e0 f   LIBCMTD:purevirt.obj
 0001:0005c200       __set_purecall_handler     1005d200 f   LIBCMTD:purevirt.obj
 0001:0005c230       ??1type_info@@UAE@XZ       1005d230 f   LIBCMTD:typinfo.obj
 0001:0005c2c0       ??_Gtype_info@@UAEPAXI@Z   1005d2c0 f i LIBCMTD:typinfo.obj
 0001:0005c2c0       ??_Etype_info@@UAEPAXI@Z   1005d2c0 f i LIBCMTD:typinfo.obj
 0001:0005c2f0       ??8type_info@@QBEHABV0@@Z  1005d2f0 f   LIBCMTD:typinfo.obj
 0001:0005c320       ??9type_info@@QBEHABV0@@Z  1005d320 f   LIBCMTD:typinfo.obj
 0001:0005c350       ?before@type_info@@QBEHABV1@@Z 1005d350 f   LIBCMTD:typinfo.obj
 0001:0005c380       ?raw_name@type_info@@QBEPBDXZ 1005d380 f   LIBCMTD:typinfo.obj
 0001:0005c3a0       ??0type_info@@AAE@ABV0@@Z  1005d3a0 f   LIBCMTD:typinfo.obj
 0001:0005c3c0       ??4type_info@@AAEAAV0@ABV0@@Z 1005d3c0 f   LIBCMTD:typinfo.obj
 0001:0005c3d0       __onexit                   1005d3d0 f   LIBCMTD:onexit.obj
 0001:0005c530       _atexit                    1005d530 f   LIBCMTD:onexit.obj
 0001:0005c550       ___onexitinit              1005d550 f   LIBCMTD:onexit.obj
 0001:0005c5a0       _fseek                     1005d5a0 f   LIBCMTD:fseek.obj
 0001:0005c640       __fseek_lk                 1005d640 f   LIBCMTD:fseek.obj
 0001:0005c750       _fread                     1005d750 f   LIBCMTD:fread.obj
 0001:0005c7d0       __fread_lk                 1005d7d0 f   LIBCMTD:fread.obj
 0001:0005c9a0       _ftell                     1005d9a0 f   LIBCMTD:ftell.obj
 0001:0005ca40       __ftell_lk                 1005da40 f   LIBCMTD:ftell.obj
 0001:0005ccc0       _fclose                    1005dcc0 f   LIBCMTD:fclose.obj
 0001:0005cd80       __fclose_lk                1005dd80 f   LIBCMTD:fclose.obj
 0001:0005ce30       _wcscat                    1005de30 f   LIBCMTD:wcscat.obj
 0001:0005ce80       _wcscpy                    1005de80 f   LIBCMTD:wcscat.obj
 0001:0005cec0       _wcslen                    1005dec0 f   LIBCMTD:wcslen.obj
 0001:0005cef0       _wcscmp                    1005def0 f   LIBCMTD:wcscmp.obj
 0001:0005cf50       _towupper                  1005df50 f   LIBCMTD:towupper.obj
 0001:0005cfc0       ___towupper_mt             1005dfc0 f   LIBCMTD:towupper.obj
 0001:0005d040       _towlower                  1005e040 f   LIBCMTD:towlower.obj
 0001:0005d0c0       ___towlower_mt             1005e0c0 f   LIBCMTD:towlower.obj
 0001:0005d140       _wcsncpy                   1005e140 f   LIBCMTD:wcsncpy.obj
 0001:0005d1b0       _wcsncmp                   1005e1b0 f   LIBCMTD:wcsncmp.obj
 0001:0005d210       _isleadbyte                1005e210 f   LIBCMTD:_wctype.obj
 0001:0005d230       _iswalpha                  1005e230 f   LIBCMTD:_wctype.obj
 0001:0005d250       _iswupper                  1005e250 f   LIBCMTD:_wctype.obj
 0001:0005d270       _iswlower                  1005e270 f   LIBCMTD:_wctype.obj
 0001:0005d290       _iswdigit                  1005e290 f   LIBCMTD:_wctype.obj
 0001:0005d2b0       _iswxdigit                 1005e2b0 f   LIBCMTD:_wctype.obj
 0001:0005d2d0       _iswspace                  1005e2d0 f   LIBCMTD:_wctype.obj
 0001:0005d2f0       _iswpunct                  1005e2f0 f   LIBCMTD:_wctype.obj
 0001:0005d310       _iswalnum                  1005e310 f   LIBCMTD:_wctype.obj
 0001:0005d330       _iswprint                  1005e330 f   LIBCMTD:_wctype.obj
 0001:0005d350       _iswgraph                  1005e350 f   LIBCMTD:_wctype.obj
 0001:0005d370       _iswcntrl                  1005e370 f   LIBCMTD:_wctype.obj
 0001:0005d390       _iswascii                  1005e390 f   LIBCMTD:_wctype.obj
 0001:0005d3b0       _wcstol                    1005e3b0 f   LIBCMTD:wcstol.obj
 0001:0005d6d0       _wcstoul                   1005e6d0 f   LIBCMTD:wcstol.obj
 0001:0005d6f0       ?vswprintf@@YAHPAGIPBGPAD@Z 1005e6f0 f   LIBCMTD:vswprinn.obj
 0001:0005d710       ?vswprintf@@YAHPA_WIPB_WPAD@Z 1005e710 f   LIBCMTD:vswprinn.obj
 0001:0005d840       __alloca_probe             1005e840     LIBCMTD:chkstk.obj
 0001:0005d840       __chkstk                   1005e840 f   LIBCMTD:chkstk.obj
 0001:0005d880       _strlen                    1005e880 f   LIBCMTD:strlen.obj
 0001:0005d910       _strstr                    1005e910 f   LIBCMTD:strstr.obj
 0001:0005d9a0       _strrchr                   1005e9a0 f   LIBCMTD:strrchr.obj
 0001:0005d9e0       _strchr                    1005e9e0 f   LIBCMTD:strchr.obj
 0001:0005d9e6       ___from_strstr_to_strchr   1005e9e6     LIBCMTD:strchr.obj
 0001:0005daa0       _strncpy                   1005eaa0 f   LIBCMTD:strncpy.obj
 0001:0005dbd0       _atol                      1005ebd0 f   LIBCMTD:atox.obj
 0001:0005dce0       _atoi                      1005ece0 f   LIBCMTD:atox.obj
 0001:0005dd00       __atoi64                   1005ed00 f   LIBCMTD:atox.obj
 0001:0005de40       _wcschr                    1005ee40 f   LIBCMTD:wcschr.obj
 0001:0005de80       __toupper                  1005ee80 f   LIBCMTD:toupper.obj
 0001:0005de90       _toupper                   1005ee90 f   LIBCMTD:toupper.obj
 0001:0005ded0       ___toupper_mt              1005eed0 f   LIBCMTD:toupper.obj
 0001:0005e010       _strcmp                    1005f010 f   LIBCMTD:strcmp.obj
 0001:0005e0a0       _strncat                   1005f0a0 f   LIBCMTD:strncat.obj
 0001:0005e1e0       ___iob_func                1005f1e0 f   LIBCMTD:_file.obj
 0001:0005e1f0       ___initstdio               1005f1f0 f   LIBCMTD:_file.obj
 0001:0005e320       ___endstdio                1005f320 f   LIBCMTD:_file.obj
 0001:0005e340       __lock_file                1005f340 f   LIBCMTD:_file.obj
 0001:0005e380       __lock_file2               1005f380 f   LIBCMTD:_file.obj
 0001:0005e3b0       __unlock_file              1005f3b0 f   LIBCMTD:_file.obj
 0001:0005e3f0       __unlock_file2             1005f3f0 f   LIBCMTD:_file.obj
 0001:0005e420       __dosmaperr                1005f420 f   LIBCMTD:dosmap.obj
 0001:0005e4c0       __errno                    1005f4c0 f   LIBCMTD:dosmap.obj
 0001:0005e4d0       ___doserrno                1005f4d0 f   LIBCMTD:dosmap.obj
 0001:0005e4e0       _fputs                     1005f4e0 f   LIBCMTD:fputs.obj
 0001:0005e5e0       __cinit                    1005f5e0 f   LIBCMTD:crt0dat.obj
 0001:0005e640       _exit                      1005f640 f   LIBCMTD:crt0dat.obj
 0001:0005e660       __exit                     1005f660 f   LIBCMTD:crt0dat.obj
 0001:0005e680       __cexit                    1005f680 f   LIBCMTD:crt0dat.obj
 0001:0005e6a0       __c_exit                   1005f6a0 f   LIBCMTD:crt0dat.obj
 0001:0005e7f0       ___crtExitProcess          1005f7f0 f   LIBCMTD:crt0dat.obj
 0001:0005e840       __lockexit                 1005f840 f   LIBCMTD:crt0dat.obj
 0001:0005e850       __unlockexit               1005f850 f   LIBCMTD:crt0dat.obj
 0001:0005e8d0       ___crtTlsAlloc@4           1005f8d0 f   LIBCMTD:tidtable.obj
 0001:0005e8e0       __mtinit                   1005f8e0 f   LIBCMTD:tidtable.obj
 0001:0005ea30       __mtterm                   1005fa30 f   LIBCMTD:tidtable.obj
 0001:0005ea60       __initptd                  1005fa60 f   LIBCMTD:tidtable.obj
 0001:0005ea80       __getptd                   1005fa80 f   LIBCMTD:tidtable.obj
 0001:0005eb20       __freefls@4                1005fb20 f   LIBCMTD:tidtable.obj
 0001:0005eda0       __freeptd                  1005fda0 f   LIBCMTD:tidtable.obj
 0001:0005ede0       ___threadid                1005fde0 f   LIBCMTD:tidtable.obj
 0001:0005edf0       ___threadhandle            1005fdf0 f   LIBCMTD:tidtable.obj
 0001:0005ee00       _malloc                    1005fe00 f   LIBCMTD:dbgheap.obj
 0001:0005ee30       __malloc_dbg               1005fe30 f   LIBCMTD:dbgheap.obj
 0001:0005ee60       __nh_malloc                1005fe60 f   LIBCMTD:dbgheap.obj
 0001:0005ee80       __nh_malloc_dbg            1005fe80 f   LIBCMTD:dbgheap.obj
 0001:0005ef20       __heap_alloc               1005ff20 f   LIBCMTD:dbgheap.obj
 0001:0005ef40       __heap_alloc_dbg           1005ff40 f   LIBCMTD:dbgheap.obj
 0001:0005f260       _calloc                    10060260 f   LIBCMTD:dbgheap.obj
 0001:0005f290       __calloc_dbg               10060290 f   LIBCMTD:dbgheap.obj
 0001:0005f2f0       _realloc                   100602f0 f   LIBCMTD:dbgheap.obj
 0001:0005f320       __realloc_dbg              10060320 f   LIBCMTD:dbgheap.obj
 0001:0005f8c0       __expand                   100608c0 f   LIBCMTD:dbgheap.obj
 0001:0005f8f0       __expand_dbg               100608f0 f   LIBCMTD:dbgheap.obj
 0001:0005f980       _free                      10060980 f   LIBCMTD:dbgheap.obj
 0001:0005f9a0       __free_lk                  100609a0 f   LIBCMTD:dbgheap.obj
 0001:0005f9c0       __free_dbg                 100609c0 f   LIBCMTD:dbgheap.obj
 0001:0005fa30       __free_dbg_lk              10060a30 f   LIBCMTD:dbgheap.obj
 0001:0005fe40       __msize                    10060e40 f   LIBCMTD:dbgheap.obj
 0001:0005fe60       __msize_dbg                10060e60 f   LIBCMTD:dbgheap.obj
 0001:0005ffd0       __CrtSetBreakAlloc         10060fd0 f   LIBCMTD:dbgheap.obj
 0001:0005fff0       __CrtSetDbgBlockType       10060ff0 f   LIBCMTD:dbgheap.obj
 0001:000600d0       __CrtSetAllocHook          100610d0 f   LIBCMTD:dbgheap.obj
 0001:00060140       __CrtCheckMemory           10061140 f   LIBCMTD:dbgheap.obj
 0001:000604b0       __CrtSetDbgFlag            100614b0 f   LIBCMTD:dbgheap.obj
 0001:00060560       __CrtDoForAllClientObjects 10061560 f   LIBCMTD:dbgheap.obj
 0001:00060610       __CrtIsValidPointer        10061610 f   LIBCMTD:dbgheap.obj
 0001:00060660       __CrtIsValidHeapPointer    10061660 f   LIBCMTD:dbgheap.obj
 0001:00060710       __CrtIsMemoryBlock         10061710 f   LIBCMTD:dbgheap.obj
 0001:00060840       __CrtReportBlockType       10061840 f   LIBCMTD:dbgheap.obj
 0001:00060870       __CrtSetDumpClient         10061870 f   LIBCMTD:dbgheap.obj
 0001:00060890       __CrtMemCheckpoint         10061890 f   LIBCMTD:dbgheap.obj
 0001:00060a30       __CrtMemDifference         10061a30 f   LIBCMTD:dbgheap.obj
 0001:00060b50       __CrtMemDumpAllObjectsSince 10061b50 f   LIBCMTD:dbgheap.obj
 0001:00060f50       __CrtDumpMemoryLeaks       10061f50 f   LIBCMTD:dbgheap.obj
 0001:00060fc0       __CrtMemDumpStatistics     10061fc0 f   LIBCMTD:dbgheap.obj
 0001:00061070       __aligned_malloc           10062070 f   LIBCMTD:dbgheap.obj
 0001:00061090       __aligned_malloc_dbg       10062090 f   LIBCMTD:dbgheap.obj
 0001:000610b0       __aligned_realloc          100620b0 f   LIBCMTD:dbgheap.obj
 0001:000610d0       __aligned_realloc_dbg      100620d0 f   LIBCMTD:dbgheap.obj
 0001:00061100       __aligned_offset_malloc    10062100 f   LIBCMTD:dbgheap.obj
 0001:00061120       __aligned_offset_malloc_dbg 10062120 f   LIBCMTD:dbgheap.obj
 0001:00061260       __aligned_offset_realloc   10062260 f   LIBCMTD:dbgheap.obj
 0001:00061290       __aligned_offset_realloc_dbg 10062290 f   LIBCMTD:dbgheap.obj
 0001:000614f0       __aligned_free             100624f0 f   LIBCMTD:dbgheap.obj
 0001:00061510       __aligned_free_dbg         10062510 f   LIBCMTD:dbgheap.obj
 0001:000615c0       __ioinit                   100625c0 f   LIBCMTD:ioinit.obj
 0001:00061950       __ioterm                   10062950 f   LIBCMTD:ioinit.obj
 0001:000619f0       __setenvp                  100629f0 f   LIBCMTD:stdenvp.obj
 0001:00061b70       __setargv                  10062b70 f   LIBCMTD:stdargv.obj
 0001:00061fd0       ___crtGetEnvironmentStringsA 10062fd0 f   LIBCMTD:a_env.obj
 0001:000621f0       __RTC_Initialize           100631f0 f   LIBCMTD:initsect.obj
 0001:00062270       __RTC_Terminate            10063270 f   LIBCMTD:initsect.obj
 0001:000622f0       ___heap_select             100632f0 f   LIBCMTD:heapinit.obj
 0001:00062320       __heap_init                10063320 f   LIBCMTD:heapinit.obj
 0001:00062390       __heap_term                10063390 f   LIBCMTD:heapinit.obj
 0001:00062440       __get_heap_handle          10063440 f   LIBCMTD:heapinit.obj
 0001:00062450       ___CppXcptFilter           10063450 f   LIBCMTD:winxfltr.obj
 0001:00062480       __XcptFilter               10063480 f   LIBCMTD:winxfltr.obj
 0001:000626a0       __except_handler3          100636a0 f   LIBCMTD:exsup3.obj
 0001:00062786       __seh_longjmp_unwind@4     10063786 f   LIBCMTD:exsup3.obj
 0001:000627b0       __FF_MSGBANNER             100637b0 f   LIBCMTD:crt0msg.obj
 0001:00062800       __NMSG_WRITE               10063800 f   LIBCMTD:crt0msg.obj
 0001:00062a10       __GET_RTERRMSG             10063a10 f   LIBCMTD:crt0msg.obj
 0001:00062a60       ?__CxxUnhandledExceptionFilter@@YGJPAU_EXCEPTION_POINTERS@@@Z 10063a60 f   LIBCMTD:unhandld.obj
 0001:00062ad0       ?__CxxSetUnhandledExceptionFilter@@YAHXZ 10063ad0 f   LIBCMTD:unhandld.obj
 0001:00062af0       ?__CxxRestoreUnhandledExceptionFilter@@YAXXZ 10063af0 f   LIBCMTD:unhandld.obj
 0001:00062b10       __setdefaultprecision      10063b10 f   LIBCMTD:fp8.obj
 0001:00062b30       __ms_p5_test_fdiv          10063b30 f   LIBCMTD:testfdiv.obj
 0001:00062b80       __ms_p5_mp_test_fdiv       10063b80 f   LIBCMTD:testfdiv.obj
 0001:00062bd0       __forcdecpt                10063bd0 f   LIBCMTD:cvt.obj
 0001:00062c50       __cropzeros                10063c50 f   LIBCMTD:cvt.obj
 0001:00062d30       __positive                 10063d30 f   LIBCMTD:cvt.obj
 0001:00062d60       __fassign                  10063d60 f   LIBCMTD:cvt.obj
 0001:00062db0       __cftoe                    10063db0 f   LIBCMTD:cvt.obj
 0001:00062fb0       __cftof                    10063fb0 f   LIBCMTD:cvt.obj
 0001:00063170       __cftog                    10064170 f   LIBCMTD:cvt.obj
 0001:00063270       __cfltcvt                  10064270 f   LIBCMTD:cvt.obj
 0001:00063300       ___InternalCxxFrameHandler 10064300 f   LIBCMTD:frame.obj
 0001:00063870       ___FrameUnwindToState      10064870 f   LIBCMTD:frame.obj
 0001:00063fe0       ___DestructExceptionObject 10064fe0 f   LIBCMTD:frame.obj
 0001:000640c0       ?__uncaught_exception@@YA_NXZ 100650c0 f   LIBCMTD:frame.obj
 0001:000640e0       ___CxxExceptionFilter      100650e0 f   LIBCMTD:frame.obj
 0001:00064290       ___CxxRegisterExceptionObject 10065290 f   LIBCMTD:frame.obj
 0001:000643b0       ___CxxDetectRethrow        100653b0 f   LIBCMTD:frame.obj
 0001:00064410       ___CxxUnregisterExceptionObject 10065410 f   LIBCMTD:frame.obj
 0001:000644e0       ___CxxQueryExceptionSize   100654e0 f   LIBCMTD:frame.obj
 0001:000644f0       ___CxxCallUnwindDtor       100654f0 f   LIBCMTD:frame.obj
 0001:00064560       ___CxxCallUnwindVecDtor    10065560 f   LIBCMTD:frame.obj
 0001:000645e0       __CallSettingFrame@12      100655e0 f   LIBCMTD:lowhelpr.obj
 0001:00064607       __NLG_Return               10065607     LIBCMTD:lowhelpr.obj
 0001:00064630       ?terminate@@YAXXZ          10065630 f   LIBCMTD:hooks.obj
 0001:000646a0       ?unexpected@@YAXXZ         100656a0 f   LIBCMTD:hooks.obj
 0001:000646c0       ?_inconsistency@@YAXXZ     100656c0 f   LIBCMTD:hooks.obj
 0001:00064730       __mtinitlocks              10065730 f   LIBCMTD:mlock.obj
 0001:000647c0       __mtdeletelocks            100657c0 f   LIBCMTD:mlock.obj
 0001:00064880       __mtinitlocknum            10065880 f   LIBCMTD:mlock.obj
 0001:000649a0       __lock                     100659a0 f   LIBCMTD:mlock.obj
 0001:000649e0       __unlock                   100659e0 f   LIBCMTD:mlock.obj
 0001:00064a00       __lockerr_exit             10065a00 f   LIBCMTD:mlock.obj
 0001:00064a20       __free_base                10065a20 f   LIBCMTD:free.obj
 0001:00064af0       __CrtDbgBreak              10065af0 f   LIBCMTD:dbgrpt.obj
 0001:00064b00       __CrtSetReportMode         10065b00 f   LIBCMTD:dbgrpt.obj
 0001:00064b60       __CrtSetReportFile         10065b60 f   LIBCMTD:dbgrpt.obj
 0001:00064be0       __CrtSetReportHook         10065be0 f   LIBCMTD:dbgrpt.obj
 0001:00064c00       __CrtSetReportHook2        10065c00 f   LIBCMTD:dbgrpt.obj
 0001:00064e50       __CrtDbgReport             10065e50 f   LIBCMTD:dbgrpt.obj
 0001:000655c0       __lseek                    100665c0 f   LIBCMTD:lseek.obj
 0001:000656d0       __lseek_lk                 100666d0 f   LIBCMTD:lseek.obj
 0001:00065790       _fflush                    10066790 f   LIBCMTD:fflush.obj
 0001:00065820       __fflush_lk                10066820 f   LIBCMTD:fflush.obj
 0001:00065860       __flush                    10066860 f   LIBCMTD:fflush.obj
 0001:00065920       __flushall                 10066920 f   LIBCMTD:fflush.obj
 0001:00065ac0       __filbuf                   10066ac0 f   LIBCMTD:_filbuf.obj
 0001:00065c90       __read                     10066c90 f   LIBCMTD:read.obj
 0001:00065da0       __read_lk                  10066da0 f   LIBCMTD:read.obj
 0001:000661e0       __close                    100671e0 f   LIBCMTD:close.obj
 0001:000662d0       __close_lk                 100672d0 f   LIBCMTD:close.obj
 0001:00066380       __freebuf                  10067380 f   LIBCMTD:_freebuf.obj
 0001:00066410       ____setlc_active_func      10067410 f   LIBCMTD:setlocal.obj
 0001:00066420       ____unguarded_readlc_active_add_func 10067420 f   LIBCMTD:setlocal.obj
 0001:00066430       ___freetlocinfo            10067430 f   LIBCMTD:setlocal.obj
 0001:000665b0       ___updatetlocinfo          100675b0 f   LIBCMTD:setlocal.obj
 0001:000667f0       _setlocale                 100677f0 f   LIBCMTD:setlocal.obj
 0001:000672a0       __expandlocale             100682a0 f   LIBCMTD:setlocal.obj
 0001:00067480       ___init_dummy              10068480 f   LIBCMTD:setlocal.obj
 0001:00067490       __strcats                  10068490 f   LIBCMTD:setlocal.obj
 0001:000674e0       ___lc_strtolc              100684e0 f   LIBCMTD:setlocal.obj
 0001:00067650       ___lc_lctostr              10068650 f   LIBCMTD:setlocal.obj
 0001:000676c0       ___crtLCMapStringW         100686c0 f   LIBCMTD:w_map.obj
 0001:00067aa0       _iswctype                  10068aa0 f   LIBCMTD:iswctype.obj
 0001:00067b10       ___iswctype_mt             10068b10 f   LIBCMTD:iswctype.obj
 0001:00067b80       _is_wctype                 10068b80 f   LIBCMTD:iswctype.obj
 0001:00067ba0       ___pwctype_func            10068ba0 f   LIBCMTD:ctype.obj
 0001:00067bb0       ___pctype_func             10068bb0 f   LIBCMTD:ctype.obj
 0001:00067bc0       __wchartodigit             10068bc0 f   LIBCMTD:wchtodig.obj
 0001:00067ee0       __flsbuf                   10068ee0 f   LIBCMTD:_flsbuf.obj
 0001:00068140       __woutput                  10069140 f   LIBCMTD:woutput.obj
 0001:00069010       __chvalidator              1006a010 f   LIBCMTD:isctype.obj
 0001:00069050       __chvalidator_mt           1006a050 f   LIBCMTD:isctype.obj
 0001:00069090       __isctype                  1006a090 f   LIBCMTD:isctype.obj
 0001:000690d0       ___isctype_mt              1006a0d0 f   LIBCMTD:isctype.obj
 0001:00069190       __allmul                   1006a190 f   LIBCMTD:llmul.obj
 0001:000691d0       ___crtLCMapStringA         1006a1d0 f   LIBCMTD:a_map.obj
 0001:00069790       __fcloseall                1006a790 f   LIBCMTD:closeall.obj
 0001:000698b0       __stbuf                    1006a8b0 f   LIBCMTD:_sftbuf.obj
 0001:00069a00       __ftbuf                    1006aa00 f   LIBCMTD:_sftbuf.obj
 0001:00069a90       _fwrite                    1006aa90 f   LIBCMTD:fwrite.obj
 0001:00069b10       __fwrite_lk                1006ab10 f   LIBCMTD:fwrite.obj
 0001:00069d30       ___updatetmbcinfo          1006ad30 f   LIBCMTD:mbctype.obj
 0001:00069e00       __setmbcp                  1006ae00 f   LIBCMTD:mbctype.obj
 0001:0006a740       __getmbcp                  1006b740 f   LIBCMTD:mbctype.obj
 0001:0006a760       ___initmbctable            1006b760 f   LIBCMTD:mbctype.obj
 0001:0006a790       ?_set_new_handler@@YAP6AHI@ZP6AHI@Z@Z 1006b790 f   LIBCMTD:handler.obj
 0001:0006a7c0       ?_query_new_handler@@YAP6AHI@ZXZ 1006b7c0 f   LIBCMTD:handler.obj
 0001:0006a7d0       __callnewh                 1006b7d0 f   LIBCMTD:handler.obj
 0001:0006a800       __malloc_base              1006b800 f   LIBCMTD:malloc.obj
 0001:0006a820       __nh_malloc_base           1006b820 f   LIBCMTD:malloc.obj
 0001:0006a880       __heap_alloc_base          1006b880 f   LIBCMTD:malloc.obj
 0001:0006a950       __CrtDefaultAllocHook      1006b950 f   LIBCMTD:dbghook.obj
 0001:0006a960       __expand_base              1006b960 f   LIBCMTD:expand.obj
 0001:0006aa80       __realloc_base             1006ba80 f   LIBCMTD:realloc.obj
 0001:0006ad30       __heapchk                  1006bd30 f   LIBCMTD:heapchk.obj
 0001:0006adf0       __heapset                  1006bdf0 f   LIBCMTD:heapchk.obj
 0001:0006ae00       __get_sbh_threshold        1006be00 f   LIBCMTD:sbheap.obj
 0001:0006ae20       __set_sbh_threshold        1006be20 f   LIBCMTD:sbheap.obj
 0001:0006ae90       ___sbh_heap_init           1006be90 f   LIBCMTD:sbheap.obj
 0001:0006af00       ___sbh_find_block          1006bf00 f   LIBCMTD:sbheap.obj
 0001:0006af60       ___sbh_verify_block        1006bf60 f   LIBCMTD:sbheap.obj
 0001:0006afc0       ___sbh_free_block          1006bfc0 f   LIBCMTD:sbheap.obj
 0001:0006b580       ___sbh_alloc_block         1006c580 f   LIBCMTD:sbheap.obj
 0001:0006baa0       ___sbh_alloc_new_region    1006caa0 f   LIBCMTD:sbheap.obj
 0001:0006bbb0       ___sbh_alloc_new_group     1006cbb0 f   LIBCMTD:sbheap.obj
 0001:0006bda0       ___sbh_resize_block        1006cda0 f   LIBCMTD:sbheap.obj
 0001:0006c370       ___sbh_heapmin             1006d370 f   LIBCMTD:sbheap.obj
 0001:0006c4a0       ___sbh_heap_check          1006d4a0 f   LIBCMTD:sbheap.obj
 0001:0006c9b0       _sprintf                   1006d9b0 f   LIBCMTD:sprintf.obj
 0001:0006caa0       __scprintf                 1006daa0 f   LIBCMTD:sprintf.obj
 0001:0006cb20       @__security_check_cookie@4 1006db20 f   LIBCMTD:secchk.obj
 0001:0006cba0       ___crtInitCritSecAndSpinCount 1006dba0 f   LIBCMTD:initcrit.obj
 0001:0006ccc0       _strcpy                    1006dcc0 f   LIBCMTD:strcat.obj
 0001:0006ccd0       _strcat                    1006dcd0 f   LIBCMTD:strcat.obj
 0001:0006cdc0       __ValidateEH3RN            1006ddc0 f   LIBCMTD:eh3valid.obj
 0001:0006d1b0       ___crtMessageBoxA          1006e1b0 f   LIBCMTD:crtmbox.obj
 0001:0006d320       ?_ValidateRead@@YAHPBXI@Z  1006e320 f   LIBCMTD:validate.obj
 0001:0006d350       ?_ValidateWrite@@YAHPAXI@Z 1006e350 f   LIBCMTD:validate.obj
 0001:0006d380       ?_ValidateExecute@@YAHP6GHXZ@Z 1006e380 f   LIBCMTD:validate.obj
 0001:0006d3b0       __statusfp                 1006e3b0 f   LIBCMTD:ieee87.obj
 0001:0006d3d0       __clearfp                  1006e3d0 f   LIBCMTD:ieee87.obj
 0001:0006d3f0       __control87                1006e3f0 f   LIBCMTD:ieee87.obj
 0001:0006d440       __controlfp                1006e440 f   LIBCMTD:ieee87.obj
 0001:0006d460       __fpreset                  1006e460 f   LIBCMTD:ieee87.obj
 0001:0006d7f0       _isalpha                   1006e7f0 f   LIBCMTD:_ctype.obj
 0001:0006d860       _isupper                   1006e860 f   LIBCMTD:_ctype.obj
 0001:0006d8c0       _islower                   1006e8c0 f   LIBCMTD:_ctype.obj
 0001:0006d920       _isdigit                   1006e920 f   LIBCMTD:_ctype.obj
 0001:0006d980       _isxdigit                  1006e980 f   LIBCMTD:_ctype.obj
 0001:0006d9f0       _isspace                   1006e9f0 f   LIBCMTD:_ctype.obj
 0001:0006da50       _ispunct                   1006ea50 f   LIBCMTD:_ctype.obj
 0001:0006dab0       _isalnum                   1006eab0 f   LIBCMTD:_ctype.obj
 0001:0006db20       _isprint                   1006eb20 f   LIBCMTD:_ctype.obj
 0001:0006db90       _isgraph                   1006eb90 f   LIBCMTD:_ctype.obj
 0001:0006dc00       _iscntrl                   1006ec00 f   LIBCMTD:_ctype.obj
 0001:0006dc60       ___isascii                 1006ec60 f   LIBCMTD:_ctype.obj
 0001:0006dc70       ___toascii                 1006ec70 f   LIBCMTD:_ctype.obj
 0001:0006dc80       ___iscsymf                 1006ec80 f   LIBCMTD:_ctype.obj
 0001:0006dcc0       ___iscsym                  1006ecc0 f   LIBCMTD:_ctype.obj
 0001:0006dd00       __tolower                  1006ed00 f   LIBCMTD:tolower.obj
 0001:0006dd10       _tolower                   1006ed10 f   LIBCMTD:tolower.obj
 0001:0006dd50       ___tolower_mt              1006ed50 f   LIBCMTD:tolower.obj
 0001:0006de90       __ZeroTail                 1006ee90 f   LIBCMTD:intrncvt.obj
 0001:0006df20       __IncMan                   1006ef20 f   LIBCMTD:intrncvt.obj
 0001:0006dfd0       __RoundMan                 1006efd0 f   LIBCMTD:intrncvt.obj
 0001:0006e0b0       __CopyMan                  1006f0b0 f   LIBCMTD:intrncvt.obj
 0001:0006e100       __FillZeroMan              1006f100 f   LIBCMTD:intrncvt.obj
 0001:0006e130       __IsZeroMan                1006f130 f   LIBCMTD:intrncvt.obj
 0001:0006e170       __ShrMan                   1006f170 f   LIBCMTD:intrncvt.obj
 0001:0006e260       __ld12cvt                  1006f260 f   LIBCMTD:intrncvt.obj
 0001:0006e4a0       __ld12tod                  1006f4a0 f   LIBCMTD:intrncvt.obj
 0001:0006e4c0       __ld12tof                  1006f4c0 f   LIBCMTD:intrncvt.obj
 0001:0006e4e0       __ld12told                 1006f4e0 f   LIBCMTD:intrncvt.obj
 0001:0006e590       __atodbl                   1006f590 f   LIBCMTD:intrncvt.obj
 0001:0006e5e0       __atoldbl                  1006f5e0 f   LIBCMTD:intrncvt.obj
 0001:0006e630       __atoflt                   1006f630 f   LIBCMTD:intrncvt.obj
 0001:0006e680       __fptostr                  1006f680 f   LIBCMTD:_fptostr.obj
 0001:0006e780       __fltout2                  1006f780 f   LIBCMTD:cfout.obj
 0001:0006e810       ___dtold                   1006f810 f   LIBCMTD:cfout.obj
 0001:0006e960       _memmove                   1006f960 f   LIBCMTD:memmove.obj
 0001:0006eca0       __fptrap                   1006fca0 f   LIBCMTD:crt0fp.obj
 0001:0006ecb0       _abort                     1006fcb0 f   LIBCMTD:abort.obj
 0001:0006ecd0       __itoa                     1006fcd0 f   LIBCMTD:xtoa.obj
 0001:0006edf0       __ltoa                     1006fdf0 f   LIBCMTD:xtoa.obj
 0001:0006ee30       __ultoa                    1006fe30 f   LIBCMTD:xtoa.obj
 0001:0006ee50       __i64toa                   1006fe50 f   LIBCMTD:xtoa.obj
 0001:0006efa0       __ui64toa                  1006ffa0 f   LIBCMTD:xtoa.obj
 0001:0006efc0       __snprintf                 1006ffc0 f   LIBCMTD:snprintf.obj
 0001:0006f0b0       __vsnprintf                100700b0 f   LIBCMTD:vsnprint.obj
 0001:0006f180       _signal                    10070180 f   LIBCMTD:winsig.obj
 0001:0006f4c0       _raise                     100704c0 f   LIBCMTD:winsig.obj
 0001:0006f780       ___fpecode                 10070780 f   LIBCMTD:winsig.obj
 0001:0006f790       ___pxcptinfoptrs           10070790 f   LIBCMTD:winsig.obj
 0001:0006f7a0       __alloc_osfhnd             100707a0 f   LIBCMTD:osfinfo.obj
 0001:0006fa20       __set_osfhnd               10070a20 f   LIBCMTD:osfinfo.obj
 0001:0006fae0       __free_osfhnd              10070ae0 f   LIBCMTD:osfinfo.obj
 0001:0006fbc0       __get_osfhandle            10070bc0 f   LIBCMTD:osfinfo.obj
 0001:0006fc30       __open_osfhandle           10070c30 f   LIBCMTD:osfinfo.obj
 0001:0006fd80       __lock_fhandle             10070d80 f   LIBCMTD:osfinfo.obj
 0001:0006fe70       __unlock_fhandle           10070e70 f   LIBCMTD:osfinfo.obj
 0001:0006fea0       __commit                   10070ea0 f   LIBCMTD:commit.obj
 0001:0006ffb0       __write                    10070fb0 f   LIBCMTD:write.obj
 0001:000700c0       __write_lk                 100710c0 f   LIBCMTD:write.obj
 0001:000703b0       __getbuf                   100713b0 f   LIBCMTD:_getbuf.obj
 0001:00070470       __Getdays                  10071470 f   LIBCMTD:strftime.obj
 0001:000705a0       __Getmonths                100715a0 f   LIBCMTD:strftime.obj
 0001:000706d0       __Gettnames                100716d0 f   LIBCMTD:strftime.obj
 0001:00070a60       _strftime                  10071a60 f   LIBCMTD:strftime.obj
 0001:00070a80       __Strftime                 10071a80 f   LIBCMTD:strftime.obj
 0001:00070ad0       __Strftime_mt              10071ad0 f   LIBCMTD:strftime.obj
 0001:00071cf0       _localeconv                10072cf0 f   LIBCMTD:lconv.obj
 0001:00071d00       ___init_time               10072d00 f   LIBCMTD:inittime.obj
 0001:00072310       ___free_lc_time            10073310 f   LIBCMTD:inittime.obj
 0001:00072620       ___init_numeric            10073620 f   LIBCMTD:initnum.obj
 0001:00072960       ___free_lconv_num          10073960 f   LIBCMTD:initnum.obj
 0001:00072a00       ___init_monetary           10073a00 f   LIBCMTD:initmon.obj
 0001:00072e00       ___free_lconv_mon          10073e00 f   LIBCMTD:initmon.obj
 0001:00072f60       ___init_ctype              10073f60 f   LIBCMTD:initctyp.obj
 0001:00073220       ____mb_cur_max_func        10074220 f   LIBCMTD:initctyp.obj
 0001:00073230       ____lc_codepage_func       10074230 f   LIBCMTD:initctyp.obj
 0001:00073260       ____lc_collate_cp_func     10074260 f   LIBCMTD:initctyp.obj
 0001:00073290       ____lc_handle_func         10074290 f   LIBCMTD:initctyp.obj
 0001:000732c0       ___init_collate            100742c0 f   LIBCMTD:initcoll.obj
 0001:000732d0       _strcspn                   100742d0 f   LIBCMTD:strcspn.obj
 0001:00073320       _strncmp                   10074320 f   LIBCMTD:strncmp.obj
 0001:00073360       _strpbrk                   10074360 f   LIBCMTD:strpbrk.obj
 0001:000733a0       _memcmp                    100743a0 f   LIBCMTD:memcmp.obj
 0001:00073460       ___crtGetStringTypeA       10074460 f   LIBCMTD:a_str.obj
 0001:00073700       ___get_qualified_locale    10074700 f   LIBCMTD:getqloc.obj
 0001:00074530       __resetstkoflw             10075530 f   LIBCMTD:resetstk.obj
 0001:00074680       ___ansicp                  10075680 f   LIBCMTD:convrtcp.obj
 0001:000746e0       ___convertcp               100756e0 f   LIBCMTD:convrtcp.obj
 0001:00074980       ___crtGetStringTypeW       10075980 f   LIBCMTD:w_str.obj
 0001:00074cb0       __isatty                   10075cb0 f   LIBCMTD:isatty.obj
 0001:00074cf0       __output                   10075cf0 f   LIBCMTD:output.obj
 0001:00075c70       _mbtowc                    10076c70 f   LIBCMTD:mbtowc.obj
 0001:00075cb0       ___mbtowc_mt               10076cb0 f   LIBCMTD:mbtowc.obj
 0001:00075e00       __aulldiv                  10076e00 f   LIBCMTD:ulldiv.obj
 0001:00075e70       __aullrem                  10076e70 f   LIBCMTD:ullrem.obj
 0001:00075ef0       _fputwc                    10076ef0 f   LIBCMTD:fputwc.obj
 0001:00075fa0       __putwc_lk                 10076fa0 f   LIBCMTD:fputwc.obj
 0001:00076130       _putwc                     10077130 f   LIBCMTD:fputwc.obj
 0001:00076150       ___security_init_cookie    10077150 f   LIBCMTD:seccinit.obj
 0001:000761f0       ___security_error_handler  100771f0 f   LIBCMTD:secfail.obj
 0001:00076420       __set_security_error_handler 10077420 f   LIBCMTD:secfail.obj
 0001:00076440       ___buffer_overrun          10077440 f   LIBCMTD:secfail.obj
 0001:00076460       ___set_buffer_overrun_handler 10077460 f   LIBCMTD:secfail.obj
 0001:00076480       ___addl                    10077480 f   LIBCMTD:mantold.obj
 0001:000764c0       ___add_12                  100774c0 f   LIBCMTD:mantold.obj
 0001:00076570       ___shl_12                  10077570 f   LIBCMTD:mantold.obj
 0001:000765d0       ___shr_12                  100775d0 f   LIBCMTD:mantold.obj
 0001:00076640       ___mtold12                 10077640 f   LIBCMTD:mantold.obj
 0001:00076790       ___strgtold12              10077790 f   LIBCMTD:strgtold.obj
 0001:00077190       ___STRINGTOLD              10078190 f   LIBCMTD:strgtold.obj
 0001:000771f0       _$I10_OUTPUT               100781f0 f   LIBCMTD:x10fout.obj
 0001:000776d0       __lseeki64                 100786d0 f   LIBCMTD:lseeki64.obj
 0001:000777f0       __lseeki64_lk              100787f0 f   LIBCMTD:lseeki64.obj
 0001:000778c0       ___tzset                   100788c0 f   LIBCMTD:tzset.obj
 0001:00077950       __tzset                    10078950 f   LIBCMTD:tzset.obj
 0001:00077de0       __isindst                  10078de0 f   LIBCMTD:tzset.obj
 0001:000783c0       ___ascii_stricmp           100793c0 f   LIBCMTD:_stricmp.obj
 0001:00078410       ___getlocaleinfo           10079410 f   LIBCMTD:inithelp.obj
 0001:00078670       __stricmp                  10079670 f   LIBCMTD:stricmp.obj
 0001:00078720       __strnicmp                 10079720 f   LIBCMTD:strnicmp.obj
 0001:000787e0       _wctomb                    100797e0 f   LIBCMTD:wctomb.obj
 0001:00078820       ___wctomb_mt               10079820 f   LIBCMTD:wctomb.obj
 0001:000788c0       __flswbuf                  100798c0 f   LIBCMTD:_flswbuf.obj
 0001:00078b30       ___ld12mul                 10079b30 f   LIBCMTD:tenpow.obj
 0001:00078f20       ___multtenpow12            10079f20 f   LIBCMTD:tenpow.obj
 0001:00078ff0       _getenv                    10079ff0 f   LIBCMTD:getenv.obj
 0001:00079060       __getenv_lk                1007a060 f   LIBCMTD:getenv.obj
 0001:00079130       ___crtGetLocaleInfoW       1007a130 f   LIBCMTD:w_loc.obj
 0001:00079310       ___crtGetLocaleInfoA       1007a310 f   LIBCMTD:a_loc.obj
 0001:00079500       ___ascii_strnicmp          1007a500 f   LIBCMTD:_strnicm.obj
 0001:00079570       __mbsnbicoll               1007a570 f   LIBCMTD:mbsnbico.obj
 0001:000795e0       ___wtomb_environ           1007a5e0 f   LIBCMTD:wtombenv.obj
 0001:000796d0       ___crtCompareStringA       1007a6d0 f   LIBCMTD:a_cmp.obj
 0001:00079c90       ___crtsetenv               1007ac90 f   LIBCMTD:setenv.obj
 0001:0007a180       __mbschr                   1007b180 f   LIBCMTD:mbschr.obj
 0001:0007a248       ___intel_cpu_indicator_init 1007b248 f   libirc:cpu_disp.obj
 0001:0007a3b4       _GetCurrentThreadId@0      1007b3b4 f   kernel32:KERNEL32.dll
 0001:0007a3ba       _GetCommandLineA@0         1007b3ba f   kernel32:KERNEL32.dll
 0001:0007a3c0       _GetVersionExA@4           1007b3c0 f   kernel32:KERNEL32.dll
 0001:0007a3c6       _RaiseException@16         1007b3c6 f   kernel32:KERNEL32.dll
 0001:0007a3cc       _RtlUnwind@16              1007b3cc f   kernel32:KERNEL32.dll
 0001:0007a3d2       _EnterCriticalSection@4    1007b3d2 f   kernel32:KERNEL32.dll
 0001:0007a3d8       _LeaveCriticalSection@4    1007b3d8 f   kernel32:KERNEL32.dll
 0001:0007a3de       _TerminateProcess@8        1007b3de f   kernel32:KERNEL32.dll
 0001:0007a3e4       _GetCurrentProcess@0       1007b3e4 f   kernel32:KERNEL32.dll
 0001:0007a3ea       _ExitProcess@4             1007b3ea f   kernel32:KERNEL32.dll
 0001:0007a3f0       _GetProcAddress@8          1007b3f0 f   kernel32:KERNEL32.dll
 0001:0007a3f6       _GetModuleHandleA@4        1007b3f6 f   kernel32:KERNEL32.dll
 0001:0007a3fc       _TlsAlloc@0                1007b3fc f   kernel32:KERNEL32.dll
 0001:0007a402       _TlsFree@4                 1007b402 f   kernel32:KERNEL32.dll
 0001:0007a408       _TlsSetValue@8             1007b408 f   kernel32:KERNEL32.dll
 0001:0007a40e       _TlsGetValue@4             1007b40e f   kernel32:KERNEL32.dll
 0001:0007a414       _SetLastError@4            1007b414 f   kernel32:KERNEL32.dll
 0001:0007a41a       _GetLastError@0            1007b41a f   kernel32:KERNEL32.dll
 0001:0007a420       _GetCurrentThread@0        1007b420 f   kernel32:KERNEL32.dll
 0001:0007a426       _IsBadWritePtr@8           1007b426 f   kernel32:KERNEL32.dll
 0001:0007a42c       _IsBadReadPtr@8            1007b42c f   kernel32:KERNEL32.dll
 0001:0007a432       _HeapValidate@12           1007b432 f   kernel32:KERNEL32.dll
 0001:0007a438       _SetHandleCount@4          1007b438 f   kernel32:KERNEL32.dll
 0001:0007a43e       _GetStdHandle@4            1007b43e f   kernel32:KERNEL32.dll
 0001:0007a444       _GetFileType@4             1007b444 f   kernel32:KERNEL32.dll
 0001:0007a44a       _GetStartupInfoA@4         1007b44a f   kernel32:KERNEL32.dll
 0001:0007a450       _DeleteCriticalSection@4   1007b450 f   kernel32:KERNEL32.dll
 0001:0007a456       _GetModuleFileNameA@12     1007b456 f   kernel32:KERNEL32.dll
 0001:0007a45c       _FreeEnvironmentStringsA@4 1007b45c f   kernel32:KERNEL32.dll
 0001:0007a462       _GetEnvironmentStrings@0   1007b462 f   kernel32:KERNEL32.dll
 0001:0007a468       _FreeEnvironmentStringsW@4 1007b468 f   kernel32:KERNEL32.dll
 0001:0007a46e       _WideCharToMultiByte@32    1007b46e f   kernel32:KERNEL32.dll
 0001:0007a474       _GetEnvironmentStringsW@0  1007b474 f   kernel32:KERNEL32.dll
 0001:0007a47a       _HeapDestroy@4             1007b47a f   kernel32:KERNEL32.dll
 0001:0007a480       _HeapCreate@12             1007b480 f   kernel32:KERNEL32.dll
 0001:0007a486       _HeapFree@12               1007b486 f   kernel32:KERNEL32.dll
 0001:0007a48c       _VirtualFree@12            1007b48c f   kernel32:KERNEL32.dll
 0001:0007a492       _UnhandledExceptionFilter@4 1007b492 f   kernel32:KERNEL32.dll
 0001:0007a498       _WriteFile@20              1007b498 f   kernel32:KERNEL32.dll
 0001:0007a49e       _SetUnhandledExceptionFilter@4 1007b49e f   kernel32:KERNEL32.dll
 0001:0007a4a4       _FatalAppExitA@8           1007b4a4 f   kernel32:KERNEL32.dll
 0001:0007a4aa       _DebugBreak@0              1007b4aa f   kernel32:KERNEL32.dll
 0001:0007a4b0       _InterlockedDecrement@4    1007b4b0 f   kernel32:KERNEL32.dll
 0001:0007a4b6       _OutputDebugStringA@4      1007b4b6 f   kernel32:KERNEL32.dll
 0001:0007a4bc       _LoadLibraryA@4            1007b4bc f   kernel32:KERNEL32.dll
 0001:0007a4c2       _InterlockedIncrement@4    1007b4c2 f   kernel32:KERNEL32.dll
 0001:0007a4c8       _SetFilePointer@16         1007b4c8 f   kernel32:KERNEL32.dll
 0001:0007a4ce       _ReadFile@20               1007b4ce f   kernel32:KERNEL32.dll
 0001:0007a4d4       _CloseHandle@4             1007b4d4 f   kernel32:KERNEL32.dll
 0001:0007a4da       _MultiByteToWideChar@24    1007b4da f   kernel32:KERNEL32.dll
 0001:0007a4e0       _LCMapStringA@24           1007b4e0 f   kernel32:KERNEL32.dll
 0001:0007a4e6       _LCMapStringW@24           1007b4e6 f   kernel32:KERNEL32.dll
 0001:0007a4ec       _GetACP@0                  1007b4ec f   kernel32:KERNEL32.dll
 0001:0007a4f2       _GetOEMCP@0                1007b4f2 f   kernel32:KERNEL32.dll
 0001:0007a4f8       _GetCPInfo@8               1007b4f8 f   kernel32:KERNEL32.dll
 0001:0007a4fe       _HeapAlloc@12              1007b4fe f   kernel32:KERNEL32.dll
 0001:0007a504       _HeapReAlloc@16            1007b504 f   kernel32:KERNEL32.dll
 0001:0007a50a       _VirtualAlloc@16           1007b50a f   kernel32:KERNEL32.dll
 0001:0007a510       _InitializeCriticalSection@4 1007b510 f   kernel32:KERNEL32.dll
 0001:0007a516       _VirtualQuery@12           1007b516 f   kernel32:KERNEL32.dll
 0001:0007a51c       _InterlockedExchange@8     1007b51c f   kernel32:KERNEL32.dll
 0001:0007a522       _IsBadCodePtr@4            1007b522 f   kernel32:KERNEL32.dll
 0001:0007a528       _SetConsoleCtrlHandler@8   1007b528 f   kernel32:KERNEL32.dll
 0001:0007a52e       _SetStdHandle@8            1007b52e f   kernel32:KERNEL32.dll
 0001:0007a534       _FlushFileBuffers@4        1007b534 f   kernel32:KERNEL32.dll
 0001:0007a53a       _GetTimeFormatA@24         1007b53a f   kernel32:KERNEL32.dll
 0001:0007a540       _GetDateFormatA@24         1007b540 f   kernel32:KERNEL32.dll
 0001:0007a546       _GetStringTypeA@20         1007b546 f   kernel32:KERNEL32.dll
 0001:0007a54c       _GetStringTypeW@16         1007b54c f   kernel32:KERNEL32.dll
 0001:0007a552       _IsValidLocale@8           1007b552 f   kernel32:KERNEL32.dll
 0001:0007a558       _IsValidCodePage@4         1007b558 f   kernel32:KERNEL32.dll
 0001:0007a55e       _GetLocaleInfoA@16         1007b55e f   kernel32:KERNEL32.dll
 0001:0007a564       _EnumSystemLocalesA@8      1007b564 f   kernel32:KERNEL32.dll
 0001:0007a56a       _GetUserDefaultLCID@0      1007b56a f   kernel32:KERNEL32.dll
 0001:0007a570       _VirtualProtect@16         1007b570 f   kernel32:KERNEL32.dll
 0001:0007a576       _GetSystemInfo@4           1007b576 f   kernel32:KERNEL32.dll
 0001:0007a57c       _QueryPerformanceCounter@4 1007b57c f   kernel32:KERNEL32.dll
 0001:0007a582       _GetTickCount@0            1007b582 f   kernel32:KERNEL32.dll
 0001:0007a588       _GetCurrentProcessId@0     1007b588 f   kernel32:KERNEL32.dll
 0001:0007a58e       _GetSystemTimeAsFileTime@4 1007b58e f   kernel32:KERNEL32.dll
 0001:0007a594       _GetTimeZoneInformation@4  1007b594 f   kernel32:KERNEL32.dll
 0001:0007a59a       _GetLocaleInfoW@16         1007b59a f   kernel32:KERNEL32.dll
 0001:0007a5a0       _CompareStringA@24         1007b5a0 f   kernel32:KERNEL32.dll
 0001:0007a5a6       _CompareStringW@24         1007b5a6 f   kernel32:KERNEL32.dll
 0001:0007a5ac       _SetEnvironmentVariableA@8 1007b5ac f   kernel32:KERNEL32.dll
 0001:0007a5f4       @IFXGetSystemDefaultLangID@0 1007b5f4 f   Platform:IFXOSUtilities.obj
 0001:0007a608       @IFXOSCheckCPUFeature@4    1007b608 f   Platform:IFXOSUtilities.obj
 0001:0007a67c       @IFXOSInitialize@0         1007b67c f   Platform:IFXOSUtilities.obj
 0001:0007a70a       @IFXOSUninitialize@0       1007b70a f   Platform:IFXOSUtilities.obj
 0001:0007a732       @IFXOSGetTime@0            1007b732 f   Platform:IFXOSUtilities.obj
 0001:0007a7c6       @IFXOSSleep@4              1007b7c6 f   Platform:IFXOSUtilities.obj
 0001:0007a7f2       @IFXOSControlFP@8          1007b7f2 f   Platform:IFXOSUtilities.obj
 0001:0007a81e       @IFXOSGetDebugLevel@0      1007b81e f   Platform:IFXOSUtilities.obj
 0001:0007a8c8       @IFXOSOutputDebugString@4  1007b8c8 f   Platform:IFXOSUtilities.obj
 0001:0007a8e0       @IFXOSGetUtf8StrSize@8     1007b8e0 f   Platform:IFXOSUtilities.obj
 0001:0007a976       @IFXOSGetWideCharStrSize@8 1007b976 f   Platform:IFXOSUtilities.obj
 0001:0007aa04       @IFXOSConvertWideCharStrToUtf8@12 1007ba04 f   Platform:IFXOSUtilities.obj
 0001:0007aa9c       @IFXOSConvertUtf8StrToWideChar@12 1007ba9c f   Platform:IFXOSUtilities.obj
 0001:0007ab2e       @IFXOSDebugOutput@16       1007bb2e f   Platform:IFXOSUtilities.obj
 0001:0007ac0a       @IFXSetDefaultLocale@0     1007bc0a f   Platform:IFXOSUtilities.obj
 0001:0007ac50       ?IFXAssert@@YAHHPADI00H@Z  1007bc50 f   Platform:IFXDebug.obj
 0001:0007ae86       @IFXDebugAssertBox@24      1007be86 f   Platform:IFXDebug.obj
 0001:0007af0e       @IFXDebugStartUp@0         1007bf0e f   Platform:IFXDebug.obj
 0001:0007af24       @IFXDebugShutDown@0        1007bf24 f   Platform:IFXDebug.obj
 0001:0007af34       _IFXDebugTraceCustom       1007bf34 f   Platform:IFXDebug.obj
 0001:0007b026       _IFXDebugTraceGeneric      1007c026 f   Platform:IFXDebug.obj
 0001:0007b116       ?_GetStringFromIFXRESULT@@YAPBDH@Z 1007c116 f   Platform:IFXDebug.obj
 0001:0007b2e8       ?_GetStringFromIFXRESULT_Component@@YAPBGI@Z 1007c2e8 f   Platform:IFXDebug.obj
 0001:0007b3d4       @IFXLoadLibrary@4          1007c3d4 f   Platform:IFXOSLoader.obj
 0001:0007b3fa       @IFXLoadCoreLibrary@0      1007c3fa f   Platform:IFXOSLoader.obj
 0001:0007b412       @IFXLoadOpenGLLibrary@0    1007c412 f   Platform:IFXOSLoader.obj
 0001:0007b42a       @IFXOSGetCoreLibraryPath@4 1007c42a f   Platform:IFXOSLoader.obj
 0001:0007b5e8       @IFXGetAddress@8           1007c5e8 f   Platform:IFXOSLoader.obj
 0001:0007b614       @IFXReleaseLibrary@4       1007c614 f   Platform:IFXOSLoader.obj
 0001:0007b648       @IFXOSFileOpen@8           1007c648 f   Platform:IFXOSLoader.obj
 0001:0007b684       @IFXOSSocketOpen@0         1007c684 f   Platform:IFXOSSocket.obj
 0001:0007b70e       @IFXOSSocketClose@4        1007c70e f   Platform:IFXOSSocket.obj
 0001:0007b778       @IFXOSSocketConnect@12     1007c778 f   Platform:IFXOSSocket.obj
 0001:0007b8c4       @IFXOSSocketReceive@16     1007c8c4 f   Platform:IFXOSSocket.obj
 0001:0007b900       @IFXOSSocketSend@16        1007c900 f   Platform:IFXOSSocket.obj
 0001:0007b93c       @IFXOSSocketSetOptions@16  1007c93c f   Platform:IFXOSSocket.obj
 0001:0007b9d2       @IFXOSSocketGetOptions@16  1007c9d2 f   Platform:IFXOSSocket.obj
 0001:0007ba70       __alldiv                   1007ca70 f   LIBCMTD:lldiv.obj
 0001:0007bb20       _swprintf                  1007cb20 f   LIBCMTD:swprintf.obj
 0001:0007bc60       __scwprintf                1007cc60 f   LIBCMTD:swprintf.obj
 0001:0007bce0       _mbstowcs                  1007cce0 f   LIBCMTD:mbstowcs.obj
 0001:0007bd20       ___mbstowcs_mt             1007cd20 f   LIBCMTD:mbstowcs.obj
 0001:0007bf20       ?swprintf@@YAHPAGIPBGZZ    1007cf20 f   LIBCMTD:swprintn.obj
 0001:0007bf40       ?swprintf@@YAHPA_WIPB_WZZ  1007cf40 f   LIBCMTD:swprintn.obj
 0001:0007c080       __wfsopen                  1007d080 f   LIBCMTD:wfopen.obj
 0001:0007c1b0       __wfopen                   1007d1b0 f   LIBCMTD:wfopen.obj
 0001:0007c1d0       __wopenfile                1007d1d0 f   LIBCMTD:_wopen.obj
 0001:0007c560       __getstream                1007d560 f   LIBCMTD:stream.obj
 0001:0007c790       __wopen                    1007d790 f   LIBCMTD:wopen.obj
 0001:0007c840       __wsopen                   1007d840 f   LIBCMTD:wopen.obj
 0001:0007cdf0       __chsize                   1007ddf0 f   LIBCMTD:chsize.obj
 0001:0007cee0       __chsize_lk                1007dee0 f   LIBCMTD:chsize.obj
 0001:0007d0c0       __setmode                  1007e0c0 f   LIBCMTD:setmode.obj
 0001:0007d1b0       __setmode_lk               1007e1b0 f   LIBCMTD:setmode.obj
 0001:0007d288       _GetSystemDefaultLangID@0  1007e288 f   kernel32:KERNEL32.dll
 0001:0007d28e       _QueryPerformanceFrequency@4 1007e28e f   kernel32:KERNEL32.dll
 0001:0007d294       _Sleep@4                   1007e294 f   kernel32:KERNEL32.dll
 0001:0007d29a       _OutputDebugStringW@4      1007e29a f   kernel32:KERNEL32.dll
 0001:0007d2a0       _LoadLibraryW@4            1007e2a0 f   kernel32:KERNEL32.dll
 0001:0007d2a6       _GetModuleHandleW@4        1007e2a6 f   kernel32:KERNEL32.dll
 0001:0007d2ac       _GetModuleFileNameW@12     1007e2ac f   kernel32:KERNEL32.dll
 0001:0007d2b2       _FreeLibrary@4             1007e2b2 f   kernel32:KERNEL32.dll
 0001:0007d2b8       _CreateFileW@28            1007e2b8 f   kernel32:KERNEL32.dll
 0001:0007d2be       _SetEndOfFile@4            1007e2be f   kernel32:KERNEL32.dll
 0001:0007d2c4       _MessageBoxW@16            1007e2c4 f   user32:USER32.dll
 0001:0007d2ca       _RegOpenKeyExW@20          1007e2ca f   advapi32:ADVAPI32.dll
 0001:0007d2d0       _RegQueryValueExW@24       1007e2d0 f   advapi32:ADVAPI32.dll
 0001:0007d2d6       _RegCloseKey@4             1007e2d6 f   advapi32:ADVAPI32.dll
 0001:0007d2dc       _timeBeginPeriod@4         1007e2dc f   winmm:WINMM.dll
 0001:0007d2e2       _timeEndPeriod@4           1007e2e2 f   winmm:WINMM.dll
 0001:0007d2e8       _timeGetTime@0             1007e2e8 f   winmm:WINMM.dll
 0001:0007d2ee       _WSAStartup@8              1007e2ee f   ws2_32:WS2_32.dll
 0001:0007d2f4       _socket@12                 1007e2f4 f   ws2_32:WS2_32.dll
 0001:0007d2fa       _closesocket@4             1007e2fa f   ws2_32:WS2_32.dll
 0001:0007d300       _WSACleanup@0              1007e300 f   ws2_32:WS2_32.dll
 0001:0007d306       _htons@4                   1007e306 f   ws2_32:WS2_32.dll
 0001:0007d30c       _gethostbyname@4           1007e30c f   ws2_32:WS2_32.dll
 0001:0007d312       _WSAGetLastError@0         1007e312 f   ws2_32:WS2_32.dll
 0001:0007d318       _connect@12                1007e318 f   ws2_32:WS2_32.dll
 0001:0007d31e       _recv@16                   1007e31e f   ws2_32:WS2_32.dll
 0001:0007d324       _send@16                   1007e324 f   ws2_32:WS2_32.dll
 0001:0007d32a       _setsockopt@20             1007e32a f   ws2_32:WS2_32.dll
 0001:0007d330       _getsockopt@20             1007e330 f   ws2_32:WS2_32.dll
 0002:0000001c       _IID_IFXUnknown            1009f01c     Importing:IFXImportingGuids.obj
 0002:0000002c       _IID_IFXPalette            1009f02c     Importing:IFXImportingGuids.obj
 0002:0000003c       _IID_IFXCoreServices       1009f03c     Importing:IFXImportingGuids.obj
 0002:0000004c       _IID_IFXMetaDataX          1009f04c     Importing:IFXImportingGuids.obj
 0002:0000005c       _IID_IFXDataBlockX         1009f05c     Importing:IFXImportingGuids.obj
 0002:0000006c       _IID_IFXFileReference      1009f06c     Importing:IFXImportingGuids.obj
 0002:0000007c       _IID_IFXNameMap            1009f07c     Importing:IFXImportingGuids.obj
 0002:0000008c       _IID_IFXMarker             1009f08c     Importing:IFXImportingGuids.obj
 0002:0000009c       _IID_IFXSubject            1009f09c     Importing:IFXImportingGuids.obj
 0002:000000ac       _IID_IFXSceneGraph         1009f0ac     Importing:IFXImportingGuids.obj
 0002:000000bc       _IID_IFXDecoderX           1009f0bc     Importing:IFXImportingGuids.obj
 0002:000000cc       _IID_IFXDataBlockQueueX    1009f0cc     Importing:IFXImportingGuids.obj
 0002:000000dc       _IID_IFXBitStreamX         1009f0dc     Importing:IFXImportingGuids.obj
 0002:000000f0       _IID_IFXAuthorMesh         1009f0f0     Importing:IFXImportingGuids.obj
 0002:00000104       _IID_IFXSetX               1009f104     Importing:IFXImportingGuids.obj
 0002:00000114       _IID_IFXAuthorCLODMesh     1009f114     Importing:IFXImportingGuids.obj
 0002:00000124       _IID_IFXSetAdjacencyX      1009f124     Importing:IFXImportingGuids.obj
 0002:00000134       _IID_IFXModifier           1009f134     Importing:IFXImportingGuids.obj
 0002:00000144       _IID_IFXGenerator          1009f144     Importing:IFXImportingGuids.obj
 0002:00000154       _IID_IFXBTTHash            1009f154     Importing:IFXImportingGuids.obj
 0002:00000168       _IID_IFXSpatial            1009f168     Importing:IFXImportingGuids.obj
 0002:00000178       _IID_IFXCollection         1009f178     Importing:IFXImportingGuids.obj
 0002:00000188       _IID_IFXSimpleList         1009f188     Importing:IFXImportingGuids.obj
 0002:00000198       _IID_IFXNode               1009f198     Importing:IFXImportingGuids.obj
 0002:000001a8       _IID_IFXResourceClient     1009f1a8     Importing:IFXImportingGuids.obj
 0002:000001b8       _IID_IFXSpatialAssociation 1009f1b8     Importing:IFXImportingGuids.obj
 0002:000001c8       _IID_IFXShaderList         1009f1c8     Importing:IFXImportingGuids.obj
 0002:000001d8       _IID_IFXModel              1009f1d8     Importing:IFXImportingGuids.obj
 0002:000001e8       _IID_IFXSpatialSetQuery    1009f1e8     Importing:IFXImportingGuids.obj
 0002:000001f8       _IID_IFXRenderClear        1009f1f8     Importing:IFXImportingGuids.obj
 0002:00000208       _CID_IFXNameMap            1009f208     Importing:IFXImportingGuids.obj
 0002:00000218       _CID_IFXDevice             1009f218     Importing:IFXImportingGuids.obj
 0002:00000228       _CID_IFXCLODManager        1009f228     Importing:IFXImportingGuids.obj
 0002:00000238       _CID_IFXSetAdjacencyX      1009f238     Importing:IFXImportingGuids.obj
 0002:00000248       _CID_IFXSetX               1009f248     Importing:IFXImportingGuids.obj
 0002:00000258       _CID_IFXAuthorCLODGen      1009f258     Importing:IFXImportingGuids.obj
 0002:00000268       _CID_IFXAuthorLineSetAnalyzer 1009f268     Importing:IFXImportingGuids.obj
 0002:00000278       _CID_IFXMetaDataX          1009f278     Importing:IFXImportingGuids.obj
 0002:00000288       _CID_IFXFileReference      1009f288     Importing:IFXImportingGuids.obj
 0002:00000298       _CID_IFXMeshCompiler       1009f298     Importing:IFXImportingGuids.obj
 0002:000002a8       _CID_IFXMeshMap            1009f2a8     Importing:IFXImportingGuids.obj
 0002:000002b8       _CID_IFXAuthorMeshMap      1009f2b8     Importing:IFXImportingGuids.obj
 0002:000002c8       _CID_IFXGlyph2DCommands    1009f2c8     Importing:IFXImportingGuids.obj
 0002:000002d8       _CID_IFXGlyphCommandList   1009f2d8     Importing:IFXImportingGuids.obj
 0002:000002e8       _CID_IFXGlyph3DGenerator   1009f2e8     Importing:IFXImportingGuids.obj
 0002:000002f8       _CID_IFXAuthorMeshScrub    1009f2f8     Importing:IFXImportingGuids.obj
 0002:00000308       _CID_IFXAuthorMesh         1009f308     Importing:IFXImportingGuids.obj
 0002:00000318       _CID_IFXAuthorCLODResource 1009f318     Importing:IFXImportingGuids.obj
 0002:00000328       _CID_IFXBitStreamX         1009f328     Importing:IFXImportingGuids.obj
 0002:00000338       _CID_IFXSkeleton           1009f338     Importing:IFXImportingGuids.obj
 0002:00000348       _CID_IFXBoneWeightsModifier 1009f348     Importing:IFXImportingGuids.obj
 0002:00000358       _CID_IFXBoundHierarchy     1009f358     Importing:IFXImportingGuids.obj
 0002:00000368       _CID_IFXBoundSphereDataElement 1009f368     Importing:IFXImportingGuids.obj
 0002:00000378       _CID_IFXConnector          1009f378     Importing:IFXImportingGuids.obj
 0002:00000388       _CID_IFXContour            1009f388     Importing:IFXImportingGuids.obj
 0002:00000398       _CID_IFXContourExtruder    1009f398     Importing:IFXImportingGuids.obj
 0002:000003a8       _CID_IFXContourGenerator   1009f3a8     Importing:IFXImportingGuids.obj
 0002:000003b8       _CID_IFXContourTessellator 1009f3b8     Importing:IFXImportingGuids.obj
 0002:000003c8       _CID_IFXCoreServices       1009f3c8     Importing:IFXImportingGuids.obj
 0002:000003d8       _CID_IFXCoreServicesRef    1009f3d8     Importing:IFXImportingGuids.obj
 0002:000003e8       _CID_IFXDataBlock          1009f3e8     Importing:IFXImportingGuids.obj
 0002:000003f8       _CID_IFXDataBlockX         1009f3f8     Importing:IFXImportingGuids.obj
 0002:00000408       _CID_IFXDataBlockQueueX    1009f408     Importing:IFXImportingGuids.obj
 0002:00000418       _CID_IFXModifierDataPacket 1009f418     Importing:IFXImportingGuids.obj
 0002:00000428       _CID_IFXGlyphCurveToBlock  1009f428     Importing:IFXImportingGuids.obj
 0002:00000438       _CID_IFXGlyphLineToBlock   1009f438     Importing:IFXImportingGuids.obj
 0002:00000448       _CID_IFXGlyphMoveToBlock   1009f448     Importing:IFXImportingGuids.obj
 0002:00000458       _CID_IFXGlyphTagBlock      1009f458     Importing:IFXImportingGuids.obj
 0002:00000468       _CID_IFXGroup              1009f468     Importing:IFXImportingGuids.obj
 0002:00000478       _CID_IFXHashMap            1009f478     Importing:IFXImportingGuids.obj
 0002:00000488       _CID_IFXIDManager          1009f488     Importing:IFXImportingGuids.obj
 0002:00000498       _CID_IFXLight              1009f498     Importing:IFXImportingGuids.obj
 0002:000004a8       _CID_IFXLightResource      1009f4a8     Importing:IFXImportingGuids.obj
 0002:000004b8       _CID_IFXViewResource       1009f4b8     Importing:IFXImportingGuids.obj
 0002:000004c8       _CID_IFXLightSet           1009f4c8     Importing:IFXImportingGuids.obj
 0002:000004d8       _CID_IFXImageCodec         1009f4d8     Importing:IFXImportingGuids.obj
 0002:000004e8       _CID_IFXCLODModifier       1009f4e8     Importing:IFXImportingGuids.obj
 0002:000004f8       _CID_IFXMaterialResource   1009f4f8     Importing:IFXImportingGuids.obj
 0002:00000508       _CID_IFXMesh               1009f508     Importing:IFXImportingGuids.obj
 0002:00000518       _CID_IFXInterleavedData    1009f518     Importing:IFXImportingGuids.obj
 0002:00000528       _CID_IFXMeshGroup          1009f528     Importing:IFXImportingGuids.obj
 0002:00000538       _CID_IFXNeighborMesh       1009f538     Importing:IFXImportingGuids.obj
 0002:00000548       _CID_IFXMixerConstruct     1009f548     Importing:IFXImportingGuids.obj
 0002:00000558       _CID_IFXModel              1009f558     Importing:IFXImportingGuids.obj
 0002:00000568       _CID_IFXModifierChain      1009f568     Importing:IFXImportingGuids.obj
 0002:00000578       _CID_IFXDidRegistry        1009f578     Importing:IFXImportingGuids.obj
 0002:00000588       _CID_IFXMotionResource     1009f588     Importing:IFXImportingGuids.obj
 0002:00000598       _CID_IFXShaderList         1009f598     Importing:IFXImportingGuids.obj
 0002:000005a8       _CID_IFXGlyph2DModifier    1009f5a8     Importing:IFXImportingGuids.obj
 0002:000005b8       _CID_IFXPalette            1009f5b8     Importing:IFXImportingGuids.obj
 0002:000005c8       _CID_IFXPerformanceTimer   1009f5c8     Importing:IFXImportingGuids.obj
 0002:000005d8       _CID_IFXPickObject         1009f5d8     Importing:IFXImportingGuids.obj
 0002:000005e8       _CID_IFXRenderPass         1009f5e8     Importing:IFXImportingGuids.obj
 0002:000005f8       _CID_IFXSceneGraph         1009f5f8     Importing:IFXImportingGuids.obj
 0002:00000608       _CID_IFXSimpleCollection   1009f608     Importing:IFXImportingGuids.obj
 0002:00000618       _CID_IFXAnimationModifier  1009f618     Importing:IFXImportingGuids.obj
 0002:00000628       _CID_IFXAuthorPointSet     1009f628     Importing:IFXImportingGuids.obj
 0002:00000638       _CID_IFXAuthorPointSetResource 1009f638     Importing:IFXImportingGuids.obj
 0002:00000648       _CID_IFXAuthorLineSet      1009f648     Importing:IFXImportingGuids.obj
 0002:00000658       _CID_IFXAuthorLineSetResource 1009f658     Importing:IFXImportingGuids.obj
 0002:00000668       _CID_IFXSimpleHash         1009f668     Importing:IFXImportingGuids.obj
 0002:00000678       _CID_IFXSimpleList         1009f678     Importing:IFXImportingGuids.obj
 0002:00000688       _CID_IFXSimpleObject       1009f688     Importing:IFXImportingGuids.obj
 0002:00000698       _CID_IFXSpatialSubdiv      1009f698     Importing:IFXImportingGuids.obj
 0002:000006a8       _CID_IFXSubdivModifier     1009f6a8     Importing:IFXImportingGuids.obj
 0002:000006b8       _CID_IFXTextureImageTools  1009f6b8     Importing:IFXImportingGuids.obj
 0002:000006c8       _CID_IFXTextureObject      1009f6c8     Importing:IFXImportingGuids.obj
 0002:000006d8       _CID_IFXUVGenerator        1009f6d8     Importing:IFXImportingGuids.obj
 0002:000006e8       _CID_IFXUVMapperCylindrical 1009f6e8     Importing:IFXImportingGuids.obj
 0002:000006f8       _CID_IFXUVMapperNone       1009f6f8     Importing:IFXImportingGuids.obj
 0002:00000708       _CID_IFXUVMapperPlanar     1009f708     Importing:IFXImportingGuids.obj
 0002:00000718       _CID_IFXUVMapperSpherical  1009f718     Importing:IFXImportingGuids.obj
 0002:00000728       _CID_IFXUVMapperReflection 1009f728     Importing:IFXImportingGuids.obj
 0002:00000738       _CID_IFXView               1009f738     Importing:IFXImportingGuids.obj
 0002:00000748       _CID_IFXVoidWrapper        1009f748     Importing:IFXImportingGuids.obj
 0002:00000758       _CID_IFXShadingModifier    1009f758     Importing:IFXImportingGuids.obj
 0002:00000768       _CID_IFXDummyModifier      1009f768     Importing:IFXImportingGuids.obj
 0002:00000778       _CID_IFXShaderLitTexture   1009f778     Importing:IFXImportingGuids.obj
 0002:00000788       _IID_IFXEncoderX           1009f788     Importing:IFXImportingGuids.obj
 0002:00000798       _IID_IFXMarkerX            1009f798     Importing:IFXImportingGuids.obj
 0002:000007a8       _IID_IFXRenderable         1009f7a8     Importing:IFXImportingGuids.obj
 0002:000007b8       _IID_IFXMeshGroup          1009f7b8     Importing:IFXImportingGuids.obj
 0002:000007c8       _IID_IFXInterleavedData    1009f7c8     Importing:IFXImportingGuids.obj
 0002:000007d8       _IID_IFXMesh               1009f7d8     Importing:IFXImportingGuids.obj
 0002:0000086c       _IID_IFXTextureObject      1009f86c     Importing:IFXImportingGuids.obj
 0002:0000087c       _IID_IFXTextureImageTools  1009f87c     Importing:IFXImportingGuids.obj
 0002:00000890       _IID_IFXRenderServices     1009f890     Importing:IFXImportingGuids.obj
 0002:000008a0       _IID_IFXRenderContext      1009f8a0     Importing:IFXImportingGuids.obj
 0002:000008b0       _IID_IFXViewResource       1009f8b0     Importing:IFXImportingGuids.obj
 0002:000008c0       _IID_IFXView               1009f8c0     Importing:IFXImportingGuids.obj
 0002:000008d0       _IID_IFXAnimationModifier  1009f8d0     Importing:IFXImportingGuids.obj
 0002:000008e0       _IID_IFXDataPacket         1009f8e0     Importing:IFXImportingGuids.obj
 0002:000008f0       _IID_IFXModifierDataPacket 1009f8f0     Importing:IFXImportingGuids.obj
 0002:00000900       _IID_IFXShader             1009f900     Importing:IFXImportingGuids.obj
 0002:00000910       _IID_IFXShaderLitTexture   1009f910     Importing:IFXImportingGuids.obj
 0002:00000920       _IID_IFXSubdivModifier     1009f920     Importing:IFXImportingGuids.obj
 0002:00000930       _IID_IFXCLODManager        1009f930     Importing:IFXImportingGuids.obj
 0002:00000940       _IID_IFXHashMap            1009f940     Importing:IFXImportingGuids.obj
 0002:00000950       _IID_IFXMotionResource     1009f950     Importing:IFXImportingGuids.obj
 0002:00000960       _IID_IFXMaterialResource   1009f960     Importing:IFXImportingGuids.obj
 0002:00000970       _IID_IFXReadBuffer         1009f970     Importing:IFXImportingGuids.obj
 0002:00000980       _IID_IFXTaskData           1009f980     Importing:IFXImportingGuids.obj
 0002:00000990       _IID_IFXTask               1009f990     Importing:IFXImportingGuids.obj
 0002:000009a0       _IID_IFXLightResource      1009f9a0     Importing:IFXImportingGuids.obj
 0002:000009b0       _IID_IFXLight              1009f9b0     Importing:IFXImportingGuids.obj
 0002:000009c0       _IID_IFXLoadManager        1009f9c0     Importing:IFXImportingGuids.obj
 0002:000009d0       _IID_IFXCLODModifier       1009f9d0     Importing:IFXImportingGuids.obj
 0002:000009e0       _IID_IFXErrorInfo          1009f9e0     Importing:IFXImportingGuids.obj
 0002:000009f0       _IID_IFXNotificationInfo   1009f9f0     Importing:IFXImportingGuids.obj
 0002:00000a00       _IID_IFXTaskManagerNode    1009fa00     Importing:IFXImportingGuids.obj
 0002:00000a10       _IID_IFXTaskManagerView    1009fa10     Importing:IFXImportingGuids.obj
 0002:00000a20       _IID_IFXTaskManager        1009fa20     Importing:IFXImportingGuids.obj
 0002:00000a30       _IID_IFXNotificationManager 1009fa30     Importing:IFXImportingGuids.obj
 0002:00000a40       _IID_IFXClock              1009fa40     Importing:IFXImportingGuids.obj
 0002:00000a50       _IID_IFXSimulationManager  1009fa50     Importing:IFXImportingGuids.obj
 0002:00000a60       _IID_IFXSystemManager      1009fa60     Importing:IFXImportingGuids.obj
 0002:00000a70       _IID_IFXTimeManager        1009fa70     Importing:IFXImportingGuids.obj
 0002:00000a80       _IID_IFXScheduler          1009fa80     Importing:IFXImportingGuids.obj
 0002:00000a90       _IID_IFXDecoderChainX      1009fa90     Importing:IFXImportingGuids.obj
 0002:00000aa0       _IID_IFXReadBufferX        1009faa0     Importing:IFXImportingGuids.obj
 0002:00000ab0       _IID_IFXStdio              1009fab0     Importing:IFXImportingGuids.obj
 0002:00000ac0       _IID_IFXInet               1009fac0     Importing:IFXImportingGuids.obj
 0002:00000ad0       _IID_IFXBlockReaderX       1009fad0     Importing:IFXImportingGuids.obj
 0002:00000ae0       _IID_IFXAuthorMeshMap      1009fae0     Importing:IFXImportingGuids.obj
 0002:00000af0       _IID_IFXAuthorLineSet      1009faf0     Importing:IFXImportingGuids.obj
 0002:00000b00       _IID_IFXAuthorPointSet     1009fb00     Importing:IFXImportingGuids.obj
 0002:00000b10       _IID_IFXMeshMap            1009fb10     Importing:IFXImportingGuids.obj
 0002:00000b20       _IID_IFXSkeleton           1009fb20     Importing:IFXImportingGuids.obj
 0002:00000b30       _IID_IFXAuthorCLODResource 1009fb30     Importing:IFXImportingGuids.obj
 0002:00000b40       _IID_IFXMixerConstruct     1009fb40     Importing:IFXImportingGuids.obj
 0002:00000b50       _IID_IFXBitStreamCompressedX 1009fb50     Importing:IFXImportingGuids.obj
 0002:00000b60       _IID_IFXBoneWeightsModifier 1009fb60     Importing:IFXImportingGuids.obj
 0002:00000b70       _IID_IFXGlyph2DCommands    1009fb70     Importing:IFXImportingGuids.obj
 0002:00000b80       _IID_IFXGlyphTagBlock      1009fb80     Importing:IFXImportingGuids.obj
 0002:00000b90       _IID_IFXGlyphMoveToBlock   1009fb90     Importing:IFXImportingGuids.obj
 0002:00000ba0       _IID_IFXGlyphLineToBlock   1009fba0     Importing:IFXImportingGuids.obj
 0002:00000bb0       _IID_IFXGlyphCurveToBlock  1009fbb0     Importing:IFXImportingGuids.obj
 0002:00000bc0       _IID_IFXGlyph2DModifier    1009fbc0     Importing:IFXImportingGuids.obj
 0002:00000bd0       _IID_IFXShadingModifier    1009fbd0     Importing:IFXImportingGuids.obj
 0002:00000be0       _IID_IFXAuthorLineSetResource 1009fbe0     Importing:IFXImportingGuids.obj
 0002:00000bf0       _IID_IFXAuthorLineSetAnalyzer 1009fbf0     Importing:IFXImportingGuids.obj
 0002:00000c00       _IID_IFXAuthorPointSetResource 1009fc00     Importing:IFXImportingGuids.obj
 0002:00000c10       _IID_IFXExtensionDecoderX  1009fc10     Importing:IFXImportingGuids.obj
 0002:00000c20       _IID_IFXDummyModifier      1009fc20     Importing:IFXImportingGuids.obj
 0002:00000c30       _CID_IFXAuthorCLODEncoderX 1009fc30     Importing:IFXImportingGuids.obj
 0002:00000c40       _CID_IFXMaterialResourceEncoder 1009fc40     Importing:IFXImportingGuids.obj
 0002:00000c50       _CID_IFXMotionResourceEncoder 1009fc50     Importing:IFXImportingGuids.obj
 0002:00000c60       _CID_IFXCLODGeneratorEncoder 1009fc60     Importing:IFXImportingGuids.obj
 0002:00000c70       _CID_IFXGlyphGeneratorEncoder 1009fc70     Importing:IFXImportingGuids.obj
 0002:00000c80       _CID_IFXBoxGeneratorEncoder 1009fc80     Importing:IFXImportingGuids.obj
 0002:00000c90       _CID_IFXCylinderGeneratorEncoder 1009fc90     Importing:IFXImportingGuids.obj
 0002:00000ca0       _CID_IFXPlaneGeneratorEncoder 1009fca0     Importing:IFXImportingGuids.obj
 0002:00000cb0       _CID_IFXSphereGeneratorEncoder 1009fcb0     Importing:IFXImportingGuids.obj
 0002:00000cc0       _CID_IFXShaderLitTextureEncoder 1009fcc0     Importing:IFXImportingGuids.obj
 0002:00000cd0       _CID_IFXSkeletonModifierEncoder 1009fcd0     Importing:IFXImportingGuids.obj
 0002:00000ce0       _CID_IFXSubdivisionModifierEncoder 1009fce0     Importing:IFXImportingGuids.obj
 0002:00000cf0       _CID_IFXShadingModifierEncoder 1009fcf0     Importing:IFXImportingGuids.obj
 0002:00000d00       _CID_IFXInkerModifierEncoder 1009fd00     Importing:IFXImportingGuids.obj
 0002:00000d10       _CID_IFXCLODGeneratorParamEncoder 1009fd10     Importing:IFXImportingGuids.obj
 0002:00000d20       _CID_IFXAnimationModifierEncoder 1009fd20     Importing:IFXImportingGuids.obj
 0002:00000d30       _CID_IFXGroupNodeEncoder   1009fd30     Importing:IFXImportingGuids.obj
 0002:00000d40       _CID_IFXLightNodeEncoder   1009fd40     Importing:IFXImportingGuids.obj
 0002:00000d50       _CID_IFXLightResourceEncoder 1009fd50     Importing:IFXImportingGuids.obj
 0002:00000d60       _CID_IFXModelNodeEncoder   1009fd60     Importing:IFXImportingGuids.obj
 0002:00000d70       _CID_IFXViewNodeEncoder    1009fd70     Importing:IFXImportingGuids.obj
 0002:00000d80       _CID_IFXViewResourceEncoder 1009fd80     Importing:IFXImportingGuids.obj
 0002:00000d90       _CID_IFXFileReferenceEncoder 1009fd90     Importing:IFXImportingGuids.obj
 0002:00000da0       _CID_IFXBlockPriorityQueueX 1009fda0     Importing:IFXImportingGuids.obj
 0002:00000db0       _CID_IFXBlockWriterX       1009fdb0     Importing:IFXImportingGuids.obj
 0002:00000dc0       _CID_IFXWriteManager       1009fdc0     Importing:IFXImportingGuids.obj
 0002:00000dd0       _CID_IFXAuthorGeomCompiler 1009fdd0     Importing:IFXImportingGuids.obj
 0002:00000de0       _CID_IFXStdioWriteBuffer   1009fde0     Importing:IFXImportingGuids.obj
 0002:00000df0       _CID_IFXStdioWriteBufferX  1009fdf0     Importing:IFXImportingGuids.obj
 0002:00000e00       _CID_IFXPointSetEncoder    1009fe00     Importing:IFXImportingGuids.obj
 0002:00000e10       _CID_IFXLineSetEncoderX    1009fe10     Importing:IFXImportingGuids.obj
 0002:00000e20       _CID_IFXBoneWeightsModifierEncoder 1009fe20     Importing:IFXImportingGuids.obj
 0002:00000e30       _CID_IFXCLODModifierEncoder 1009fe30     Importing:IFXImportingGuids.obj
 0002:00000e40       _CID_IFXDummyModifierEncoder 1009fe40     Importing:IFXImportingGuids.obj
 0002:00000e50       _CID_IFXDirectX8           1009fe50     Importing:IFXImportingGuids.obj
 0002:00000e60       _CID_IFXDirectX7           1009fe60     Importing:IFXImportingGuids.obj
 0002:00000e70       _CID_IFXOpenGL             1009fe70     Importing:IFXImportingGuids.obj
 0002:00000e80       _CID_IFXDeviceLight        1009fe80     Importing:IFXImportingGuids.obj
 0002:00000e90       _CID_IFXDeviceTexture      1009fe90     Importing:IFXImportingGuids.obj
 0002:00000ea0       _CID_IFXDeviceTexUnit      1009fea0     Importing:IFXImportingGuids.obj
 0002:00000eb0       _CID_IFXDeviceLightDX8     1009feb0     Importing:IFXImportingGuids.obj
 0002:00000ec0       _CID_IFXDeviceTextureDX8   1009fec0     Importing:IFXImportingGuids.obj
 0002:00000ed0       _CID_IFXDeviceTexUnitDX8   1009fed0     Importing:IFXImportingGuids.obj
 0002:00000ee0       _CID_IFXDeviceLightDX7     1009fee0     Importing:IFXImportingGuids.obj
 0002:00000ef0       _CID_IFXDeviceTextureDX7   1009fef0     Importing:IFXImportingGuids.obj
 0002:00000f00       _CID_IFXDeviceTexUnitDX7   1009ff00     Importing:IFXImportingGuids.obj
 0002:00000f10       _CID_IFXDeviceLightNULL    1009ff10     Importing:IFXImportingGuids.obj
 0002:00000f20       _CID_IFXDeviceTextureNULL  1009ff20     Importing:IFXImportingGuids.obj
 0002:00000f30       _CID_IFXDeviceTexUnitNULL  1009ff30     Importing:IFXImportingGuids.obj
 0002:00000f40       _CID_IFXDeviceLightOGL     1009ff40     Importing:IFXImportingGuids.obj
 0002:00000f50       _CID_IFXDeviceTextureOGL   1009ff50     Importing:IFXImportingGuids.obj
 0002:00000f60       _CID_IFXDeviceTexUnitOGL   1009ff60     Importing:IFXImportingGuids.obj
 0002:00000f70       _CID_IFXRenderServices     1009ff70     Importing:IFXImportingGuids.obj
 0002:00000f80       _CID_IFXRenderContext      1009ff80     Importing:IFXImportingGuids.obj
 0002:00000f90       _CID_IFXRenderDevice       1009ff90     Importing:IFXImportingGuids.obj
 0002:00000fa0       _CID_IFXRenderDX8          1009ffa0     Importing:IFXImportingGuids.obj
 0002:00000fb0       _CID_IFXRenderDeviceDX8    1009ffb0     Importing:IFXImportingGuids.obj
 0002:00000fc0       _CID_IFXRenderDX7          1009ffc0     Importing:IFXImportingGuids.obj
 0002:00000fd0       _CID_IFXRenderDeviceDX7    1009ffd0     Importing:IFXImportingGuids.obj
 0002:00000fe0       _CID_IFXRenderNULL         1009ffe0     Importing:IFXImportingGuids.obj
 0002:00000ff0       _CID_IFXRenderDeviceNULL   1009fff0     Importing:IFXImportingGuids.obj
 0002:00001000       _CID_IFXRenderOGL          100a0000     Importing:IFXImportingGuids.obj
 0002:00001010       _CID_IFXRenderDeviceOGL    100a0010     Importing:IFXImportingGuids.obj
 0002:00001020       _CID_IFXOctreeCollection   100a0020     Importing:IFXImportingGuids.obj
 0002:00001030       _CID_IFXOctreeCuller       100a0030     Importing:IFXImportingGuids.obj
 0002:00001040       _CID_IFXSceneGraphCuller   100a0040     Importing:IFXImportingGuids.obj
 0002:00001050       _CID_IFXSimulationInfo     100a0050     Importing:IFXImportingGuids.obj
 0002:00001060       _CID_IFXNotificationInfo   100a0060     Importing:IFXImportingGuids.obj
 0002:00001070       _CID_IFXNotificationManager 100a0070     Importing:IFXImportingGuids.obj
 0002:00001080       _CID_IFXSchedulerInfo      100a0080     Importing:IFXImportingGuids.obj
 0002:00001090       _CID_IFXSimulationManager  100a0090     Importing:IFXImportingGuids.obj
 0002:000010a0       _CID_IFXSystemManager      100a00a0     Importing:IFXImportingGuids.obj
 0002:000010b0       _CID_IFXScheduler          100a00b0     Importing:IFXImportingGuids.obj
 0002:000010c0       _CID_IFXTaskData           100a00c0     Importing:IFXImportingGuids.obj
 0002:000010d0       _CID_IFXTaskManager        100a00d0     Importing:IFXImportingGuids.obj
 0002:000010e0       _CID_IFXTaskManagerNode    100a00e0     Importing:IFXImportingGuids.obj
 0002:000010f0       _CID_IFXTaskManagerView    100a00f0     Importing:IFXImportingGuids.obj
 0002:00001100       _CID_IFXTimeManager        100a0100     Importing:IFXImportingGuids.obj
 0002:00001110       _CID_IFXErrorInfo          100a0110     Importing:IFXImportingGuids.obj
 0002:00001120       _CID_IFXClock              100a0120     Importing:IFXImportingGuids.obj
 0002:00001130       _CID_IFXTaskCallback       100a0130     Importing:IFXImportingGuids.obj
 0002:00001140       _CID_IFXAuthorCLODDecoder  100a0140     Importing:IFXImportingGuids.obj
 0002:00001150       _CID_IFXGroupDecoder       100a0150     Importing:IFXImportingGuids.obj
 0002:00001160       _CID_IFXLightDecoder       100a0160     Importing:IFXImportingGuids.obj
 0002:00001170       _CID_IFXLightResourceDecoder 100a0170     Importing:IFXImportingGuids.obj
 0002:00001180       _CID_IFXMaterialDecoder    100a0180     Importing:IFXImportingGuids.obj
 0002:00001190       _CID_IFXModelDecoder       100a0190     Importing:IFXImportingGuids.obj
 0002:000011a0       _CID_IFXCLODModifierParamDecoder 100a01a0     Importing:IFXImportingGuids.obj
 0002:000011b0       _CID_IFXSkeletonModifierDecoder 100a01b0     Importing:IFXImportingGuids.obj
 0002:000011c0       _CID_IFXAnimationModifierDecoder 100a01c0     Importing:IFXImportingGuids.obj
 0002:000011d0       _CID_IFXMotionDecoder      100a01d0     Importing:IFXImportingGuids.obj
 0002:000011e0       _CID_IFXCLODGeneratorDecoder 100a01e0     Importing:IFXImportingGuids.obj
 0002:000011f0       _CID_IFXGlyphGeneratorDecoder 100a01f0     Importing:IFXImportingGuids.obj
 0002:00001200       _CID_IFXBoxGeneratorDecoder 100a0200     Importing:IFXImportingGuids.obj
 0002:00001210       _CID_IFXCylinderGeneratorDecoder 100a0210     Importing:IFXImportingGuids.obj
 0002:00001220       _CID_IFXPlaneGeneratorDecoder 100a0220     Importing:IFXImportingGuids.obj
 0002:00001230       _CID_IFXSphereGeneratorDecoder 100a0230     Importing:IFXImportingGuids.obj
 0002:00001240       _CID_IFXShaderLitTextureDecoder 100a0240     Importing:IFXImportingGuids.obj
 0002:00001250       _CID_IFXTextureDecoder     100a0250     Importing:IFXImportingGuids.obj
 0002:00001260       _CID_IFXSubdivisionModifierDecoder 100a0260     Importing:IFXImportingGuids.obj
 0002:00001270       _CID_IFXShadingModifierDecoder 100a0270     Importing:IFXImportingGuids.obj
 0002:00001280       _CID_IFXExternalPluginDecoder 100a0280     Importing:IFXImportingGuids.obj
 0002:00001290       _CID_IFXDecoderChainX      100a0290     Importing:IFXImportingGuids.obj
 0002:000012a0       _CID_IFXViewDecoder        100a02a0     Importing:IFXImportingGuids.obj
 0002:000012b0       _CID_IFXViewResourceDecoder 100a02b0     Importing:IFXImportingGuids.obj
 0002:000012c0       _CID_IFXBlockReaderX       100a02c0     Importing:IFXImportingGuids.obj
 0002:000012d0       _CID_IFXBTTHash            100a02d0     Importing:IFXImportingGuids.obj
 0002:000012e0       _CID_IFXLoadManager        100a02e0     Importing:IFXImportingGuids.obj
 0002:000012f0       _CID_IFXStdioReadBuffer    100a02f0     Importing:IFXImportingGuids.obj
 0002:00001300       _CID_IFXStdioReadBufferX   100a0300     Importing:IFXImportingGuids.obj
 0002:00001310       _CID_IFXInternetReadBuffer 100a0310     Importing:IFXImportingGuids.obj
 0002:00001320       _CID_IFXInternetReadBufferX 100a0320     Importing:IFXImportingGuids.obj
 0002:00001330       _CID_IFXPointSetDecoder    100a0330     Importing:IFXImportingGuids.obj
 0002:00001340       _CID_IFXLineSetDecoder     100a0340     Importing:IFXImportingGuids.obj
 0002:00001350       _CID_IFXBoneWeightsModifierDecoder 100a0350     Importing:IFXImportingGuids.obj
 0002:00001360       _CID_IFXCLODModifierDecoder 100a0360     Importing:IFXImportingGuids.obj
 0002:00001370       _CID_IFXDummyModifierDecoder 100a0370     Importing:IFXImportingGuids.obj
 0002:00002c68       ?m_uArrayGrowthModifier@CIFXDecoderChainX@@0IB 100a1c68     Importing:CIFXDecoderChainX.obj
 0002:00003be4       ?ReadTaskID@CIFXLoadManager@@0IB 100a2be4     Importing:CIFXLoadManager.obj
 0002:00003be8       ?TransferTaskID@CIFXLoadManager@@0IB 100a2be8     Importing:CIFXLoadManager.obj
 0002:00003bec       ?NotificationTaskID@CIFXLoadManager@@0IB 100a2bec     Importing:CIFXLoadManager.obj
 0002:00003bf0       ?m_uMinDecoderPaletteSize@CIFXLoadManager@@0IB 100a2bf0     Importing:CIFXLoadManager.obj
 0002:000043e4       ?m_uMaximumUpdatesPerCall@CIFXPointSetDecoder@@0IB 100a33e4     Importing:CIFXPointSetDecoder.obj
 0002:000048d4       ?m_uMaximumUpdatesPerCall@CIFXLineSetDecoder@@0IB 100a38d4     Importing:CIFXLineSetDecoder.obj
 0002:00005724       ?m_uMaximumUpdatesPerCall@CIFXAuthorCLODDecoder@@0IB 100a4724     Importing:CIFXAuthorCLODDecoder_P.obj
 0002:0000a824       ___libm_float_zero         100a9824     libmmt:libm_error.omu
 0002:0000a82c       ___libm_float_one          100a982c     libmmt:libm_error.omu
 0002:0000a834       ___libm_float_inf          100a9834     libmmt:libm_error.omu
 0002:0000a83c       ___libm_float_huge         100a983c     libmmt:libm_error.omu
 0002:0000a844       ___libm_double_zero        100a9844     libmmt:libm_error.omu
 0002:0000a854       ___libm_double_one         100a9854     libmmt:libm_error.omu
 0002:0000a864       ___libm_double_inf         100a9864     libmmt:libm_error.omu
 0002:0000a874       ___libm_double_huge        100a9874     libmmt:libm_error.omu
 0002:0000a884       ___libm_ldouble_zero       100a9884     libmmt:libm_error.omu
 0002:0000a894       ___libm_ldouble_neg_zero   100a9894     libmmt:libm_error.omu
 0002:0000a8a4       ___libm_ldouble_one        100a98a4     libmmt:libm_error.omu
 0002:0000a8b4       ___libm_ldouble_neg_one    100a98b4     libmmt:libm_error.omu
 0002:0000a8c4       ___libm_ldouble_inf        100a98c4     libmmt:libm_error.omu
 0002:0000a8d4       ___libm_ldouble_neg_inf    100a98d4     libmmt:libm_error.omu
 0002:0000a8e4       ___libm_ldouble_huge       100a98e4     libmmt:libm_error.omu
 0002:0000a8f4       ___libm_ldouble_neg_huge   100a98f4     libmmt:libm_error.omu
 0002:0000cca0       ??_C@_09IFKEODFF@dllcrt0?4c?$AA@ 100abca0     LIBCMTD:dllcrt0.obj
 0002:0000cd10       ??_7type_info@@6B@         100abd10     LIBCMTD:typinfo.obj
 0002:0000cd34       ??_C@_08GNMOIKDK@onexit?4c?$AA@ 100abd34     LIBCMTD:onexit.obj
 0002:0000cd40       ??_C@_07MIBGAGEE@fseek?4c?$AA@ 100abd40     LIBCMTD:fseek.obj
 0002:0000cd48       ??_C@_0P@FELNCIKG@stream?5?$CB?$DN?5NULL?$AA@ 100abd48     LIBCMTD:fseek.obj
 0002:0000cd64       ??_C@_0M@CMNAFCJK@str?5?$CB?$DN?5NULL?$AA@ 100abd64     LIBCMTD:fseek.obj
 0002:0000cd7c       ??_C@_07JNHGGCAC@ftell?4c?$AA@ 100abd7c     LIBCMTD:ftell.obj
 0002:0000cd94       ??_C@_08BDNGOBJJ@fclose?4c?$AA@ 100abd94     LIBCMTD:fclose.obj
 0002:0000cdac       ??_C@_0P@NHGFNCDP@format?5?$CB?$DN?5NULL?$AA@ 100abdac     LIBCMTD:vswprinn.obj
 0002:0000cdbc       ??_C@_0N@EMDEFKLH@vswprinn?4cpp?$AA@ 100abdbc     LIBCMTD:vswprinn.obj
 0002:0000cdcc       ??_C@_0P@NFGNABCI@string?5?$CB?$DN?5NULL?$AA@ 100abdcc     LIBCMTD:vswprinn.obj
 0002:0000cddc       ??_C@_07PNHPCIEC@_file?4c?$AA@ 100abddc     LIBCMTD:_file.obj
 0002:0000cde4       ??_C@_07DCAFNPAA@fputs?4c?$AA@ 100abde4     LIBCMTD:fputs.obj
 0002:0000ce0c       ??_C@_0P@MIGLKIOC@CorExitProcess?$AA@ 100abe0c     LIBCMTD:crt0dat.obj
 0002:0000ce1c       ??_C@_0M@MBOPBNBK@mscoree?4dll?$AA@ 100abe1c     LIBCMTD:crt0dat.obj
 0002:0000ce28       ??_C@_0L@JKCACIOJ@tidtable?4c?$AA@ 100abe28     LIBCMTD:tidtable.obj
 0002:0000ce34       ??_C@_07PEJMOBNF@FlsFree?$AA@ 100abe34     LIBCMTD:tidtable.obj
 0002:0000ce3c       ??_C@_0M@JCPCPOEF@FlsSetValue?$AA@ 100abe3c     LIBCMTD:tidtable.obj
 0002:0000ce48       ??_C@_0M@GDNOONDI@FlsGetValue?$AA@ 100abe48     LIBCMTD:tidtable.obj
 0002:0000ce54       ??_C@_08KNHFBNJ@FlsAlloc?$AA@ 100abe54     LIBCMTD:tidtable.obj
 0002:0000ce60       ??_C@_0N@MDJJJHMB@kernel32?4dll?$AA@ 100abe60     LIBCMTD:tidtable.obj
 0002:0000ce88       ??_C@_06PJIGMIJB@Client?$AA@ 100abe88     LIBCMTD:dbgheap.obj
 0002:0000ce90       ??_C@_06KMEJCCGM@Ignore?$AA@ 100abe90     LIBCMTD:dbgheap.obj
 0002:0000ce98       ??_C@_03OGPFLFLO@CRT?$AA@  100abe98     LIBCMTD:dbgheap.obj
 0002:0000ce9c       ??_C@_06EFAGIKOH@Normal?$AA@ 100abe9c     LIBCMTD:dbgheap.obj
 0002:0000cea4       ??_C@_04HJMOFLDF@Free?$AA@ 100abea4     LIBCMTD:dbgheap.obj
 0002:0000cebc       ??_C@_0DC@JEMAGEKG@Error?3?5memory?5allocation?3?5bad?5me@ 100abebc     LIBCMTD:dbgheap.obj
 0002:0000cef0       ??_C@_0CF@BICKFLAF@Invalid?5allocation?5size?3?5?$CFIu?5byt@ 100abef0     LIBCMTD:dbgheap.obj
 0002:0000cf18       ??_C@_02DKCKIIND@?$CFs?$AA@ 100abf18     LIBCMTD:dbgheap.obj
 0002:0000cf1c       ??_C@_0CB@CCLOLAHO@Client?5hook?5allocation?5failure?4?6@ 100abf1c     LIBCMTD:dbgheap.obj
 0002:0000cf40       ??_C@_0DF@BBEGIFEK@Client?5hook?5allocation?5failure?5a@ 100abf40     LIBCMTD:dbgheap.obj
 0002:0000cf78       ??_C@_09DPMMACIH@dbgheap?4c?$AA@ 100abf78     LIBCMTD:dbgheap.obj
 0002:0000cf84       ??_C@_0BC@FKEPGOPH@_CrtCheckMemory?$CI?$CJ?$AA@ 100abf84     LIBCMTD:dbgheap.obj
 0002:0000cfa4       ??_C@_0BK@DJDKJKNJ@_pFirstBlock?5?$DN?$DN?5pOldBlock?$AA@ 100abfa4     LIBCMTD:dbgheap.obj
 0002:0000cfc0       ??_C@_0BJ@PGMLBCKP@_pLastBlock?5?$DN?$DN?5pOldBlock?$AA@ 100abfc0     LIBCMTD:dbgheap.obj
 0002:0000cfdc       ??_C@_0DC@LIEEBBFH@fRealloc?5?$HM?$HM?5?$CI?$CBfRealloc?5?$CG?$CG?5pNewBl@ 100abfdc     LIBCMTD:dbgheap.obj
 0002:0000d010       ??_C@_0EF@BKJNHFDP@pOldBlock?9?$DOnLine?5?$DN?$DN?5IGNORE_LINE?5@ 100ac010     LIBCMTD:dbgheap.obj
 0002:0000d058       ??_C@_0CC@MCCNOMLK@_CrtIsValidHeapPointer?$CIpUserData@ 100ac058     LIBCMTD:dbgheap.obj
 0002:0000d080       ??_C@_0EM@LGFLMAGJ@The?5Block?5at?50x?$CFp?5was?5allocated?5@ 100ac080     LIBCMTD:dbgheap.obj
 0002:0000d0cc       ??_C@_0CO@KPNFNEPA@Allocation?5too?5large?5or?5negative@ 100ac0cc     LIBCMTD:dbgheap.obj
 0002:0000d0fc       ??_C@_0CE@DOFMDOL@Client?5hook?5re?9allocation?5failur@ 100ac0fc     LIBCMTD:dbgheap.obj
 0002:0000d120       ??_C@_0DI@KKJPDPGM@Client?5hook?5re?9allocation?5failur@ 100ac120     LIBCMTD:dbgheap.obj
 0002:0000d174       ??_C@_0BG@JDINNDDC@_pFirstBlock?5?$DN?$DN?5pHead?$AA@ 100ac174     LIBCMTD:dbgheap.obj
 0002:0000d18c       ??_C@_0BF@LMGMGAEG@_pLastBlock?5?$DN?$DN?5pHead?$AA@ 100ac18c     LIBCMTD:dbgheap.obj
 0002:0000d1a4       ??_C@_0BO@LGCGBMOH@pHead?9?$DOnBlockUse?5?$DN?$DN?5nBlockUse?$AA@ 100ac1a4     LIBCMTD:dbgheap.obj
 0002:0000d1c4       ??_C@_0DN@GKKPDMLN@pHead?9?$DOnLine?5?$DN?$DN?5IGNORE_LINE?5?$CG?$CG?5p@ 100ac1c4     LIBCMTD:dbgheap.obj
 0002:0000d204       ??_C@_0CI@CMGHMNIC@DAMAGE?3?5after?5?$CFhs?5block?5?$CI?$CD?$CFd?$CJ?5at@ 100ac204     LIBCMTD:dbgheap.obj
 0002:0000d22c       ??_C@_0CJ@OHOOBLKI@DAMAGE?3?5before?5?$CFhs?5block?5?$CI?$CD?$CFd?$CJ?5a@ 100ac22c     LIBCMTD:dbgheap.obj
 0002:0000d258       ??_C@_0CH@IAGMNLOM@_BLOCK_TYPE_IS_VALID?$CIpHead?9?$DOnBlo@ 100ac258     LIBCMTD:dbgheap.obj
 0002:0000d280       ??_C@_0BL@KEIPLFAC@Client?5hook?5free?5failure?4?6?$AA@ 100ac280     LIBCMTD:dbgheap.obj
 0002:0000d2a0       ??_C@_0EJ@HEIBCIMJ@The?5Block?5at?50x?$CFp?5was?5allocated?5@ 100ac2a0     LIBCMTD:dbgheap.obj
 0002:0000d30c       ??_C@_0CI@JMLBEDHJ@?$CFhs?5located?5at?50x?$CFp?5is?5?$CFIu?5bytes@ 100ac30c     LIBCMTD:dbgheap.obj
 0002:0000d334       ??_C@_0CA@FGFAGAOM@?$CFhs?5allocated?5at?5file?5?$CFhs?$CI?$CFd?$CJ?4?6?$AA@ 100ac334     LIBCMTD:dbgheap.obj
 0002:0000d354       ??_C@_0CH@JKKAOBEK@DAMAGE?3?5on?5top?5of?5Free?5block?5at?5@ 100ac354     LIBCMTD:dbgheap.obj
 0002:0000d37c       ??_C@_07OHKEFPKJ@DAMAGED?$AA@ 100ac37c     LIBCMTD:dbgheap.obj
 0002:0000d384       ??_C@_0CL@HNNNMKMJ@_heapchk?5fails?5with?5unknown?5retu@ 100ac384     LIBCMTD:dbgheap.obj
 0002:0000d3b0       ??_C@_0CC@MFFCHFHO@_heapchk?5fails?5with?5_HEAPBADPTR?4@ 100ac3b0     LIBCMTD:dbgheap.obj
 0002:0000d3d4       ??_C@_0CC@MJGLGBDG@_heapchk?5fails?5with?5_HEAPBADEND?4@ 100ac3d4     LIBCMTD:dbgheap.obj
 0002:0000d3f8       ??_C@_0CD@CPKEAPBD@_heapchk?5fails?5with?5_HEAPBADNODE@ 100ac3f8     LIBCMTD:dbgheap.obj
 0002:0000d41c       ??_C@_0CE@MKKHMBMK@_heapchk?5fails?5with?5_HEAPBADBEGI@ 100ac41c     LIBCMTD:dbgheap.obj
 0002:0000d47c       ??_C@_0CB@EAAIGELO@Bad?5memory?5block?5found?5at?50x?$CFp?4?6@ 100ac47c     LIBCMTD:dbgheap.obj
 0002:0000d4a0       ??_C@_0CI@KDKEAJEJ@_CrtMemCheckPoint?3?5NULL?5state?5po@ 100ac4a0     LIBCMTD:dbgheap.obj
 0002:0000d4d4       ??_C@_0CI@ENCLCMLG@_CrtMemDifference?3?5NULL?5state?5po@ 100ac4d4     LIBCMTD:dbgheap.obj
 0002:0000d4fc       ??_C@_0BH@GFGKJDCO@Object?5dump?5complete?4?6?$AA@ 100ac4fc     LIBCMTD:dbgheap.obj
 0002:0000d514       ??_C@_0DA@MDLBNIBM@crt?5block?5at?50x?$CFp?0?5subtype?5?$CFx?0?5?$CF@ 100ac514     LIBCMTD:dbgheap.obj
 0002:0000d544       ??_C@_0CH@FAGDDGPN@normal?5block?5at?50x?$CFp?0?5?$CFIu?5bytes?5@ 100ac544     LIBCMTD:dbgheap.obj
 0002:0000d56c       ??_C@_0DD@GHNAAKBB@client?5block?5at?50x?$CFp?0?5subtype?5?$CFx@ 100ac56c     LIBCMTD:dbgheap.obj
 0002:0000d5a0       ??_C@_06PKLGBFGM@?$HL?$CFld?$HN?5?$AA@ 100ac5a0     LIBCMTD:dbgheap.obj
 0002:0000d5a8       ??_C@_0L@JMEFFCCJ@?$CFhs?$CI?$CFd?$CJ?5?3?5?$AA@ 100ac5a8     LIBCMTD:dbgheap.obj
 0002:0000d5b4       ??_C@_0BE@OIEFNFL@?$CDFile?5Error?$CD?$CI?$CFd?$CJ?5?3?5?$AA@ 100ac5b4     LIBCMTD:dbgheap.obj
 0002:0000d5c8       ??_C@_0BE@KCIPKCIA@Dumping?5objects?5?9?$DO?6?$AA@ 100ac5c8     LIBCMTD:dbgheap.obj
 0002:0000d5ec       ??_C@_0BA@HJBKCELP@?5Data?3?5?$DM?$CFs?$DO?5?$CFs?6?$AA@ 100ac5ec     LIBCMTD:dbgheap.obj
 0002:0000d5fc       ??_C@_05MKKEDADM@?$CF?42X?5?$AA@ 100ac5fc     LIBCMTD:dbgheap.obj
 0002:0000d604       ??_C@_0BI@JBFPOEJA@Detected?5memory?5leaks?$CB?6?$AA@ 100ac604     LIBCMTD:dbgheap.obj
 0002:0000d61c       ??_C@_0BP@DEDHGGGI@Total?5allocations?3?5?$CFId?5bytes?4?6?$AA@ 100ac61c     LIBCMTD:dbgheap.obj
 0002:0000d63c       ??_C@_0CB@BLHDAFNE@Largest?5number?5used?3?5?$CFId?5bytes?4?6@ 100ac63c     LIBCMTD:dbgheap.obj
 0002:0000d660       ??_C@_0BO@DACNIABB@?$CFId?5bytes?5in?5?$CFId?5?$CFhs?5Blocks?4?6?$AA@ 100ac660     LIBCMTD:dbgheap.obj
 0002:0000d680       ??_C@_0CC@GFBJAAAH@?$CI?$CCoffset?5must?5be?5within?5size?$CC?0?50@ 100ac680     LIBCMTD:dbgheap.obj
 0002:0000d6a4       ??_C@_0CF@PGBEDOC@?$CI?$CCalignment?5must?5be?5a?5power?5of?52@ 100ac6a4     LIBCMTD:dbgheap.obj
 0002:0000d6cc       ??_C@_0DL@PGHMMKNE@Damage?5before?50x?$CFp?5which?5was?5all@ 100ac6cc     LIBCMTD:dbgheap.obj
 0002:0000d708       ??_C@_0EI@NDNJMAJK@The?5block?5at?50x?$CFp?5was?5not?5alloca@ 100ac708     LIBCMTD:dbgheap.obj
 0002:0000d750       ??_C@_0EF@PGELACII@The?5block?5at?50x?$CFp?5was?5not?5alloca@ 100ac750     LIBCMTD:dbgheap.obj
 0002:0000d798       ??_C@_08MAFBHINM@ioinit?4c?$AA@ 100ac798     LIBCMTD:ioinit.obj
 0002:0000d7a4       ??_C@_09HCDLHOJP@stdenvp?4c?$AA@ 100ac7a4     LIBCMTD:stdenvp.obj
 0002:0000d7b0       ??_C@_09IKILHJIC@stdargv?4c?$AA@ 100ac7b0     LIBCMTD:stdargv.obj
 0002:0000d7bc       ??_C@_07BPGNOCOG@a_env?4c?$AA@ 100ac7bc     LIBCMTD:a_env.obj
 0002:0000d7e4       ??_C@_0P@GGKDKEEG@runtime?5error?5?$AA@ 100ac7e4     LIBCMTD:crt0msg.obj
 0002:0000d7f4       ??_C@_02PCIJFNDE@?$AN?6?$AA@ 100ac7f4     LIBCMTD:crt0msg.obj
 0002:0000d7f8       ??_C@_0O@MJNIPGOH@TLOSS?5error?$AN?6?$AA@ 100ac7f8     LIBCMTD:crt0msg.obj
 0002:0000d808       ??_C@_0N@BONNPDHF@SING?5error?$AN?6?$AA@ 100ac808     LIBCMTD:crt0msg.obj
 0002:0000d818       ??_C@_0P@MBDAJNE@DOMAIN?5error?$AN?6?$AA@ 100ac818     LIBCMTD:crt0msg.obj
 0002:0000d828       ??_C@_0KC@BDDGGBEJ@R6029?$AN?6?9?5This?5application?5cannot@ 100ac828     LIBCMTD:crt0msg.obj
 0002:0000d8cc       ??_C@_0CF@KJDAIALP@R6028?$AN?6?9?5unable?5to?5initialize?5he@ 100ac8cc     LIBCMTD:crt0msg.obj
 0002:0000d8f4       ??_C@_0DF@GAKBPDFP@R6027?$AN?6?9?5not?5enough?5space?5for?5lo@ 100ac8f4     LIBCMTD:crt0msg.obj
 0002:0000d92c       ??_C@_0DF@IBLNNAIG@R6026?$AN?6?9?5not?5enough?5space?5for?5st@ 100ac92c     LIBCMTD:crt0msg.obj
 0002:0000d964       ??_C@_0CG@IOHKGFNJ@R6025?$AN?6?9?5pure?5virtual?5function?5c@ 100ac964     LIBCMTD:crt0msg.obj
 0002:0000d98c       ??_C@_0DF@JIJJFJDC@R6024?$AN?6?9?5not?5enough?5space?5for?5_o@ 100ac98c     LIBCMTD:crt0msg.obj
 0002:0000d9c4       ??_C@_0CJ@EGEJHFME@R6019?$AN?6?9?5unable?5to?5open?5console?5@ 100ac9c4     LIBCMTD:crt0msg.obj
 0002:0000d9f0       ??_C@_0CB@GNHNIELH@R6018?$AN?6?9?5unexpected?5heap?5error?$AN?6@ 100ac9f0     LIBCMTD:crt0msg.obj
 0002:0000da14       ??_C@_0CN@FOLDKNG@R6017?$AN?6?9?5unexpected?5multithread?5@ 100aca14     LIBCMTD:crt0msg.obj
 0002:0000da44       ??_C@_0CM@FAHFJNHO@R6016?$AN?6?9?5not?5enough?5space?5for?5th@ 100aca44     LIBCMTD:crt0msg.obj
 0002:0000da70       ??_C@_0JG@LBKMGKLD@?$AN?6This?5application?5has?5requested@ 100aca70     LIBCMTD:crt0msg.obj
 0002:0000db08       ??_C@_0CM@FLCNIPKK@R6009?$AN?6?9?5not?5enough?5space?5for?5en@ 100acb08     LIBCMTD:crt0msg.obj
 0002:0000db34       ??_C@_0CK@KMMJOAPP@R6008?$AN?6?9?5not?5enough?5space?5for?5ar@ 100acb34     LIBCMTD:crt0msg.obj
 0002:0000db60       ??_C@_0CF@HOHMHDEK@R6002?$AN?6?9?5floating?5point?5not?5load@ 100acb60     LIBCMTD:crt0msg.obj
 0002:0000db88       ??_C@_0CF@GOGNBNAK@Microsoft?5Visual?5C?$CL?$CL?5Runtime?5Lib@ 100acb88     LIBCMTD:crt0msg.obj
 0002:0000dbb0       ??_C@_02PHMGELLB@?6?6?$AA@ 100acbb0     LIBCMTD:crt0msg.obj
 0002:0000dbb4       ??_C@_0BK@OFGJDLJJ@Runtime?5Error?$CB?6?6Program?3?5?$AA@ 100acbb4     LIBCMTD:crt0msg.obj
 0002:0000dbd0       ??_C@_03KHICJKCI@?4?4?4?$AA@ 100acbd0     LIBCMTD:crt0msg.obj
 0002:0000dbd4       ??_C@_0BH@DNAGHKFM@?$DMprogram?5name?5unknown?$DO?$AA@ 100acbd4     LIBCMTD:crt0msg.obj
 0002:0000dbf0       __real@3ff0000000000000    100acbf0     LIBCMTD:testfdiv.obj
 0002:0000dbf8       __real@4150017ec0000000    100acbf8     LIBCMTD:testfdiv.obj
 0002:0000dc00       __real@4147ffff80000000    100acc00     LIBCMTD:testfdiv.obj
 0002:0000dc08       ??_C@_0BK@NHEOCAHP@IsProcessorFeaturePresent?$AA@ 100acc08     LIBCMTD:testfdiv.obj
 0002:0000dc24       ??_C@_08CPNIBGIE@KERNEL32?$AA@ 100acc24     LIBCMTD:testfdiv.obj
 0002:0000dc30       __real@0000000000000000    100acc30     LIBCMTD:cvt.obj
 0002:0000dc38       ??_C@_05KLBDPFGC@e?$CL000?$AA@ 100acc38     LIBCMTD:cvt.obj
 0002:0000dccc       ??_C@_07CKDBCAPD@mlock?4c?$AA@ 100acccc     LIBCMTD:mlock.obj
 0002:0000dcf4       ??_C@_0BB@NAGLCMLI@Assertion?5Failed?$AA@ 100accf4     LIBCMTD:dbgrpt.obj
 0002:0000dd08       ??_C@_05NAOIJFC@Error?$AA@ 100acd08     LIBCMTD:dbgrpt.obj
 0002:0000dd10       ??_C@_07KGMMFLDN@Warning?$AA@ 100acd10     LIBCMTD:dbgrpt.obj
 0002:0000dd18       ??_C@_08ODMAMGBE@dbgrpt?4c?$AA@ 100acd18     LIBCMTD:dbgrpt.obj
 0002:0000dd34       ??_C@_0M@IPILFDFN@?$CFs?$CI?$CFd?$CJ?5?3?5?$CFs?$AA@ 100acd34     LIBCMTD:dbgrpt.obj
 0002:0000dd40       ??_C@_01EEMJAFIK@?6?$AA@   100acd40     LIBCMTD:dbgrpt.obj
 0002:0000dd44       ??_C@_01LIIJDEN@?$AN?$AA@  100acd44     LIBCMTD:dbgrpt.obj
 0002:0000dd48       ??_C@_0BC@LAIDCHCH@Assertion?5failed?$CB?$AA@ 100acd48     LIBCMTD:dbgrpt.obj
 0002:0000dd5c       ??_C@_0BD@CAENFOHP@Assertion?5failed?3?5?$AA@ 100acd5c     LIBCMTD:dbgrpt.obj
 0002:0000dd70       ??_C@_0CL@EACFGMNB@_CrtDbgReport?3?5String?5too?5long?5o@ 100acd70     LIBCMTD:dbgrpt.obj
 0002:0000dd9c       ??_C@_0DC@HLHDIIKH@Second?5Chance?5Assertion?5Failed?3?5@ 100acd9c     LIBCMTD:dbgrpt.obj
 0002:0000ddd0       ??_C@_09FOPFMPEJ@wsprintfA?$AA@ 100acdd0     LIBCMTD:dbgrpt.obj
 0002:0000dddc       ??_C@_0L@GMPLCCII@user32?4dll?$AA@ 100acddc     LIBCMTD:dbgrpt.obj
 0002:0000ddf4       ??_C@_0CD@EBCGLDDL@Microsoft?5Visual?5C?$CL?$CL?5Debug?5Libra@ 100acdf4     LIBCMTD:dbgrpt.obj
 0002:0000de18       ??_C@_0FD@IIKNDPHJ@Debug?5?$CFs?$CB?6?6Program?3?5?$CFs?$CFs?$CFs?$CFs?$CFs?$CFs@ 100ace18     LIBCMTD:dbgrpt.obj
 0002:0000de6c       ??_C@_09OFBFHMBK@?6Module?3?5?$AA@ 100ace6c     LIBCMTD:dbgrpt.obj
 0002:0000de78       ??_C@_07OPHPPLBG@?6File?3?5?$AA@ 100ace78     LIBCMTD:dbgrpt.obj
 0002:0000de80       ??_C@_07DBMPPHDI@?6Line?3?5?$AA@ 100ace80     LIBCMTD:dbgrpt.obj
 0002:0000de88       ??_C@_0N@MEECIJGN@Expression?3?5?$AA@ 100ace88     LIBCMTD:dbgrpt.obj
 0002:0000de95       ??_C@_00CNPNBAHC@?$AA@     100ace95     LIBCMTD:dbgrpt.obj
 0002:0000de98       ??_C@_0HD@GNBNFCCL@?6?6For?5information?5on?5how?5your?5pr@ 100ace98     LIBCMTD:dbgrpt.obj
 0002:0000df0c       ??_C@_0BG@IHOEIIEJ@szUserMessage?5?$CB?$DN?5NULL?$AA@ 100acf0c     LIBCMTD:dbgrpt.obj
 0002:0000df60       ??_C@_09OOOBBFNM@_filbuf?4c?$AA@ 100acf60     LIBCMTD:_filbuf.obj
 0002:0000df8c       ??_C@_0L@CKFHAPLH@_freebuf?4c?$AA@ 100acf8c     LIBCMTD:_freebuf.obj
 0002:0000e118       ??_C@_07LCBHPJJN@LC_TIME?$AA@ 100ad118     LIBCMTD:setlocal.obj
 0002:0000e120       ??_C@_0L@DLHIECNL@LC_NUMERIC?$AA@ 100ad120     LIBCMTD:setlocal.obj
 0002:0000e12c       ??_C@_0M@MIENIKLA@LC_MONETARY?$AA@ 100ad12c     LIBCMTD:setlocal.obj
 0002:0000e138       ??_C@_08EADHIDAD@LC_CTYPE?$AA@ 100ad138     LIBCMTD:setlocal.obj
 0002:0000e144       ??_C@_0L@KFJHEKIK@LC_COLLATE?$AA@ 100ad144     LIBCMTD:setlocal.obj
 0002:0000e150       ??_C@_06NEFDFEKB@LC_ALL?$AA@ 100ad150     LIBCMTD:setlocal.obj
 0002:0000e164       ??_C@_0L@LEECJGMI@setlocal?4c?$AA@ 100ad164     LIBCMTD:setlocal.obj
 0002:0000e17c       ??_C@_01ICJEACDI@?$DL?$AA@ 100ad17c     LIBCMTD:setlocal.obj
 0002:0000e180       ??_C@_02BALPLPBG@?$DN?$DL?$AA@ 100ad180     LIBCMTD:setlocal.obj
 0002:0000e184       ??_C@_01NEMOKFLO@?$DN?$AA@ 100ad184     LIBCMTD:setlocal.obj
 0002:0000e188       ??_C@_03EGDHDPFD@_?4?0?$AA@ 100ad188     LIBCMTD:setlocal.obj
 0002:0000e18c       ??_C@_01LFCBOECM@?4?$AA@   100ad18c     LIBCMTD:setlocal.obj
 0002:0000e190       ??_C@_01IDAFKMJL@_?$AA@    100ad190     LIBCMTD:setlocal.obj
 0002:0000e194       ??_C@_07OONBJACK@w_map?4c?$AA@ 100ad194     LIBCMTD:w_map.obj
 0002:0000e19c       ??_C@_13NOLLCAOD@?$AA?$AA?$AA?$AA@ 100ad19c     LIBCMTD:w_map.obj
 0002:0000e1b8       ___newctype                100ad1b8     LIBCMTD:ctype.obj
 0002:0000e4b8       __wctype                   100ad4b8     LIBCMTD:ctype.obj
 0002:0000e6bc       ??_C@_0DP@FICHPIPH@?$CI?$CCinconsistent?5IOB?5fields?$CC?0?5stre@ 100ad6bc     LIBCMTD:_flsbuf.obj
 0002:0000e6fc       ??_C@_09DHJHPHJP@_flsbuf?4c?$AA@ 100ad6fc     LIBCMTD:_flsbuf.obj
 0002:0000e708       ??_C@_0CO@OCFDICDP@f?3?2vs70builds?23077?2vc?2crtbld?2crt@ 100ad708     LIBCMTD:woutput.obj
 0002:0000e738       ??_C@_09BLOOPMDK@isctype?4c?$AA@ 100ad738     LIBCMTD:isctype.obj
 0002:0000e744       ??_C@_0BJ@IAKBGELC@?$CIunsigned?$CJ?$CIc?5?$CL?51?$CJ?5?$DM?$DN?5256?$AA@ 100ad744     LIBCMTD:isctype.obj
 0002:0000e760       ??_C@_07FEAFKIIG@a_map?4c?$AA@ 100ad760     LIBCMTD:a_map.obj
 0002:0000e79c       ??_C@_09IFKHNCOH@_sftbuf?4c?$AA@ 100ad79c     LIBCMTD:_sftbuf.obj
 0002:0000e7a8       ??_C@_0BH@HIGALIFJ@flag?5?$DN?$DN?50?5?$HM?$HM?5flag?5?$DN?$DN?51?$AA@ 100ad7a8     LIBCMTD:_sftbuf.obj
 0002:0000e7dc       ??_C@_09KJLOAKHC@mbctype?4c?$AA@ 100ad7dc     LIBCMTD:mbctype.obj
 0002:0000e834       ??_C@_09FNBBCGGI@sprintf?4c?$AA@ 100ad834     LIBCMTD:sprintf.obj
 0002:0000e84c       ??_C@_0CG@PKBDLMEO@InitializeCriticalSectionAndSpin@ 100ad84c     LIBCMTD:initcrit.obj
 0002:0000e884       ??_C@_0BI@DFKBFLJE@GetProcessWindowStation?$AA@ 100ad884     LIBCMTD:crtmbox.obj
 0002:0000e89c       ??_C@_0BK@CIDNPOGP@GetUserObjectInformationA?$AA@ 100ad89c     LIBCMTD:crtmbox.obj
 0002:0000e8b8       ??_C@_0BD@HHGDFDBJ@GetLastActivePopup?$AA@ 100ad8b8     LIBCMTD:crtmbox.obj
 0002:0000e8cc       ??_C@_0BA@HNOPNCHB@GetActiveWindow?$AA@ 100ad8cc     LIBCMTD:crtmbox.obj
 0002:0000e8dc       ??_C@_0M@CHKKJDAI@MessageBoxA?$AA@ 100ad8dc     LIBCMTD:crtmbox.obj
 0002:0000e8e8       ??_C@_0CP@PEILCOHB@f?3?2vs70builds?23077?2vc?2crtbld?2crt@ 100ad8e8     LIBCMTD:snprintf.obj
 0002:0000e918       ??_C@_0DA@KHEJFFIK@f?3?2vs70builds?23077?2vc?2crtbld?2crt@ 100ad918     LIBCMTD:vsnprint.obj
 0002:0000e948       ??_C@_08FKHPDPAC@winsig?4c?$AA@ 100ad948     LIBCMTD:winsig.obj
 0002:0000e984       ??_C@_09MGNHMPHC@osfinfo?4c?$AA@ 100ad984     LIBCMTD:osfinfo.obj
 0002:0000e9e4       ??_C@_09PKAEMGHJ@_getbuf?4c?$AA@ 100ad9e4     LIBCMTD:_getbuf.obj
 0002:0000e9f0       ??_C@_08JCCMCCIL@HH?3mm?3ss?$AA@ 100ad9f0     LIBCMTD:strftime.obj
 0002:0000e9fc       ??_C@_0BE@CKGJFCPC@dddd?0?5MMMM?5dd?0?5yyyy?$AA@ 100ad9fc     LIBCMTD:strftime.obj
 0002:0000ea10       ??_C@_08BPBNCDIB@MM?1dd?1yy?$AA@ 100ada10     LIBCMTD:strftime.obj
 0002:0000ea1c       ??_C@_02CJNFDJBF@PM?$AA@   100ada1c     LIBCMTD:strftime.obj
 0002:0000ea20       ??_C@_02DEDBPAFC@AM?$AA@   100ada20     LIBCMTD:strftime.obj
 0002:0000ea24       ??_C@_08EDHMEBNP@December?$AA@ 100ada24     LIBCMTD:strftime.obj
 0002:0000ea30       ??_C@_08HCHEGEOA@November?$AA@ 100ada30     LIBCMTD:strftime.obj
 0002:0000ea3c       ??_C@_07JJNFCEND@October?$AA@ 100ada3c     LIBCMTD:strftime.obj
 0002:0000ea44       ??_C@_09BHHEALKD@September?$AA@ 100ada44     LIBCMTD:strftime.obj
 0002:0000ea50       ??_C@_06LBBHFDDG@August?$AA@ 100ada50     LIBCMTD:strftime.obj
 0002:0000ea58       ??_C@_04MIEPOIFP@July?$AA@ 100ada58     LIBCMTD:strftime.obj
 0002:0000ea60       ??_C@_04CNLMGBGM@June?$AA@ 100ada60     LIBCMTD:strftime.obj
 0002:0000ea68       ??_C@_05DMJDNLEJ@April?$AA@ 100ada68     LIBCMTD:strftime.obj
 0002:0000ea70       ??_C@_05HPCKOFNC@March?$AA@ 100ada70     LIBCMTD:strftime.obj
 0002:0000ea78       ??_C@_08GNJGEPFN@February?$AA@ 100ada78     LIBCMTD:strftime.obj
 0002:0000ea84       ??_C@_07CGJPFGJA@January?$AA@ 100ada84     LIBCMTD:strftime.obj
 0002:0000ea8c       ??_C@_03MKABNOCG@Dec?$AA@  100ada8c     LIBCMTD:strftime.obj
 0002:0000ea90       ??_C@_03JPJOFNIA@Nov?$AA@  100ada90     LIBCMTD:strftime.obj
 0002:0000ea94       ??_C@_03BMAOKBAD@Oct?$AA@  100ada94     LIBCMTD:strftime.obj
 0002:0000ea98       ??_C@_03GGCAPAJC@Sep?$AA@  100ada98     LIBCMTD:strftime.obj
 0002:0000ea9c       ??_C@_03IFJFEIGA@Aug?$AA@  100ada9c     LIBCMTD:strftime.obj
 0002:0000eaa0       ??_C@_03LBGABGKK@Jul?$AA@  100adaa0     LIBCMTD:strftime.obj
 0002:0000eaa4       ??_C@_03IDFGHECI@Jun?$AA@  100adaa4     LIBCMTD:strftime.obj
 0002:0000eaa8       ??_C@_03CNMDKL@May?$AA@    100adaa8     LIBCMTD:strftime.obj
 0002:0000eaac       ??_C@_03LEOLGMJP@Apr?$AA@  100adaac     LIBCMTD:strftime.obj
 0002:0000eab0       ??_C@_03ODNJBKGA@Mar?$AA@  100adab0     LIBCMTD:strftime.obj
 0002:0000eab4       ??_C@_03HJBDCHOM@Feb?$AA@  100adab4     LIBCMTD:strftime.obj
 0002:0000eab8       ??_C@_03JIHJHPIE@Jan?$AA@  100adab8     LIBCMTD:strftime.obj
 0002:0000eabc       ??_C@_08INBOOONO@Saturday?$AA@ 100adabc     LIBCMTD:strftime.obj
 0002:0000eac8       ??_C@_06JECMNKMI@Friday?$AA@ 100adac8     LIBCMTD:strftime.obj
 0002:0000ead0       ??_C@_08HACCIKIA@Thursday?$AA@ 100adad0     LIBCMTD:strftime.obj
 0002:0000eadc       ??_C@_09DLIGFAKA@Wednesday?$AA@ 100adadc     LIBCMTD:strftime.obj
 0002:0000eae8       ??_C@_07BAAGCFCM@Tuesday?$AA@ 100adae8     LIBCMTD:strftime.obj
 0002:0000eaf0       ??_C@_06JLEDEDGH@Monday?$AA@ 100adaf0     LIBCMTD:strftime.obj
 0002:0000eaf8       ??_C@_06OOPIFAJ@Sunday?$AA@ 100adaf8     LIBCMTD:strftime.obj
 0002:0000eb00       ??_C@_03FEFJNEK@Sat?$AA@   100adb00     LIBCMTD:strftime.obj
 0002:0000eb04       ??_C@_03IDIOELNC@Fri?$AA@  100adb04     LIBCMTD:strftime.obj
 0002:0000eb08       ??_C@_03IOFIKPDN@Thu?$AA@  100adb08     LIBCMTD:strftime.obj
 0002:0000eb0c       ??_C@_03MHOMLAJA@Wed?$AA@  100adb0c     LIBCMTD:strftime.obj
 0002:0000eb10       ??_C@_03NAGEINEP@Tue?$AA@  100adb10     LIBCMTD:strftime.obj
 0002:0000eb14       ??_C@_03PDAGKDH@Mon?$AA@   100adb14     LIBCMTD:strftime.obj
 0002:0000eb18       ??_C@_03KOEHGMDN@Sun?$AA@  100adb18     LIBCMTD:strftime.obj
 0002:0000eb1c       ??_C@_0L@OCEOFAIF@strftime?4c?$AA@ 100adb1c     LIBCMTD:strftime.obj
 0002:0000eb28       ??_C@_0DJ@BLPIACFC@?$CI?$CCInvalid?5MBCS?5character?5sequenc@ 100adb28     LIBCMTD:strftime.obj
 0002:0000eb64       ??_C@_0DD@GLPHLKIC@?$CI?$CCZero?5length?5output?5buffer?5pass@ 100adb64     LIBCMTD:strftime.obj
 0002:0000eb98       ??_C@_0DL@LLHFCBKO@?$CI?$CCInvalid?5MBCS?5character?5sequenc@ 100adb98     LIBCMTD:strftime.obj
 0002:0000ebd8       ??_C@_0EC@CJNAOFBG@?$CI?$CCInvalid?5MBCS?5character?5sequenc@ 100adbd8     LIBCMTD:strftime.obj
 0002:0000ec1c       ??_C@_03EBAPMIKO@a?1p?$AA@ 100adc1c     LIBCMTD:strftime.obj
 0002:0000ec20       ??_C@_05JAMEPDIN@am?1pm?$AA@ 100adc20     LIBCMTD:strftime.obj
 0002:0000ec34       ??_C@_0L@IOJADHBB@inittime?4c?$AA@ 100adc34     LIBCMTD:inittime.obj
 0002:0000ec40       ??_C@_09MECGNAGI@initnum?4c?$AA@ 100adc40     LIBCMTD:initnum.obj
 0002:0000ec4c       ??_C@_09HKFHICAL@initmon?4c?$AA@ 100adc4c     LIBCMTD:initmon.obj
 0002:0000ec58       ??_C@_0L@GBAGBCPL@initctyp?4c?$AA@ 100adc58     LIBCMTD:initctyp.obj
 0002:0000ec64       ??_C@_07GPNABLBE@a_str?4c?$AA@ 100adc64     LIBCMTD:a_str.obj
 0002:0000ec80       ___rgLocInfo               100adc80     LIBCMTD:getqloc.obj
 0002:0000f124       ??_C@_08PKBIPKE@Paraguay?$AA@ 100ae124     LIBCMTD:getqloc.obj
 0002:0000f130       ??_C@_07GHBIBIBP@Uruguay?$AA@ 100ae130     LIBCMTD:getqloc.obj
 0002:0000f138       ??_C@_05HBNKAPDN@Chile?$AA@ 100ae138     LIBCMTD:getqloc.obj
 0002:0000f140       ??_C@_07FEIFIPNF@Ecuador?$AA@ 100ae140     LIBCMTD:getqloc.obj
 0002:0000f148       ??_C@_09PGNFPGME@Argentina?$AA@ 100ae148     LIBCMTD:getqloc.obj
 0002:0000f154       ??_C@_04IALPBJF@Peru?$AA@  100ae154     LIBCMTD:getqloc.obj
 0002:0000f15c       ??_C@_08IJPLNLKH@Colombia?$AA@ 100ae15c     LIBCMTD:getqloc.obj
 0002:0000f168       ??_C@_09IDMFKCN@Venezuela?$AA@ 100ae168     LIBCMTD:getqloc.obj
 0002:0000f174       ??_C@_0BD@DNEJOGOK@Dominican?5Republic?$AA@ 100ae174     LIBCMTD:getqloc.obj
 0002:0000f188       ??_C@_0N@LPINDNDB@South?5Africa?$AA@ 100ae188     LIBCMTD:getqloc.obj
 0002:0000f198       ??_C@_06BLJPEOBG@Panama?$AA@ 100ae198     LIBCMTD:getqloc.obj
 0002:0000f1a0       ??_C@_0L@BOCNDGON@Luxembourg?$AA@ 100ae1a0     LIBCMTD:getqloc.obj
 0002:0000f1ac       ??_C@_0L@CONEHKA@Costa?5Rica?$AA@ 100ae1ac     LIBCMTD:getqloc.obj
 0002:0000f1b8       ??_C@_0M@KGBPELAM@Switzerland?$AA@ 100ae1b8     LIBCMTD:getqloc.obj
 0002:0000f1c4       ??_C@_09FJGLIMAG@Guatemala?$AA@ 100ae1c4     LIBCMTD:getqloc.obj
 0002:0000f1d0       ??_C@_06ECHIPDMK@Canada?$AA@ 100ae1d0     LIBCMTD:getqloc.obj
 0002:0000f1d8       ??_C@_0BG@CCEBNPGH@Spanish?5?9?5Modern?5Sort?$AA@ 100ae1d8     LIBCMTD:getqloc.obj
 0002:0000f1f0       ??_C@_09EFGJAPAD@Australia?$AA@ 100ae1f0     LIBCMTD:getqloc.obj
 0002:0000f1fc       ??_C@_07NEKHPBCG@English?$AA@ 100ae1fc     LIBCMTD:getqloc.obj
 0002:0000f204       ??_C@_07LKIIOGFH@Austria?$AA@ 100ae204     LIBCMTD:getqloc.obj
 0002:0000f20c       ??_C@_06EDDDIONA@German?$AA@ 100ae20c     LIBCMTD:getqloc.obj
 0002:0000f214       ??_C@_07LIIIOFOA@Belgium?$AA@ 100ae214     LIBCMTD:getqloc.obj
 0002:0000f21c       ??_C@_06DIAOLLEH@Mexico?$AA@ 100ae21c     LIBCMTD:getqloc.obj
 0002:0000f224       ??_C@_07PFALJOGE@Spanish?$AA@ 100ae224     LIBCMTD:getqloc.obj
 0002:0000f22c       ??_C@_06FFOOPAJB@Basque?$AA@ 100ae22c     LIBCMTD:getqloc.obj
 0002:0000f234       ??_C@_06DGHNDJFJ@Sweden?$AA@ 100ae234     LIBCMTD:getqloc.obj
 0002:0000f23c       ??_C@_07OBINPKFN@Swedish?$AA@ 100ae23c     LIBCMTD:getqloc.obj
 0002:0000f244       ??_C@_07NCOIHDGC@Iceland?$AA@ 100ae244     LIBCMTD:getqloc.obj
 0002:0000f24c       ??_C@_09JHBBDDIA@Icelandic?$AA@ 100ae24c     LIBCMTD:getqloc.obj
 0002:0000f258       ??_C@_06COBCPIFO@France?$AA@ 100ae258     LIBCMTD:getqloc.obj
 0002:0000f260       ??_C@_06GODMCAND@French?$AA@ 100ae260     LIBCMTD:getqloc.obj
 0002:0000f268       ??_C@_07MFHPMOED@Finland?$AA@ 100ae268     LIBCMTD:getqloc.obj
 0002:0000f270       ??_C@_07MCEAMKOD@Finnish?$AA@ 100ae270     LIBCMTD:getqloc.obj
 0002:0000f278       ??_C@_05CBHOCCK@Spain?$AA@ 100ae278     LIBCMTD:getqloc.obj
 0002:0000f280       ??_C@_0BL@GIOEGDHB@Spanish?5?9?5Traditional?5Sort?$AA@ 100ae280     LIBCMTD:getqloc.obj
 0002:0000f29c       ___rglangidNotDefault      100ae29c     LIBCMTD:getqloc.obj
 0002:0000f2b0       ___rg_country              100ae2b0     LIBCMTD:getqloc.obj
 0002:0000f368       ??_C@_0O@FMJNFNKE@united?9states?$AA@ 100ae368     LIBCMTD:getqloc.obj
 0002:0000f378       ??_C@_0P@NDHFFKCA@united?9kingdom?$AA@ 100ae378     LIBCMTD:getqloc.obj
 0002:0000f388       ??_C@_0BC@HHDADLGF@trinidad?5?$CG?5tobago?$AA@ 100ae388     LIBCMTD:getqloc.obj
 0002:0000f39c       ??_C@_0M@IOAEBDAC@south?9korea?$AA@ 100ae39c     LIBCMTD:getqloc.obj
 0002:0000f3a8       ??_C@_0N@FIELFKIJ@south?9africa?$AA@ 100ae3a8     LIBCMTD:getqloc.obj
 0002:0000f3b8       ??_C@_0M@OPNDHCMC@south?5korea?$AA@ 100ae3b8     LIBCMTD:getqloc.obj
 0002:0000f3c4       ??_C@_0N@MDEOEPFI@south?5africa?$AA@ 100ae3c4     LIBCMTD:getqloc.obj
 0002:0000f3d4       ??_C@_06FKAPCJLB@slovak?$AA@ 100ae3d4     LIBCMTD:getqloc.obj
 0002:0000f3dc       ??_C@_0M@EFJANOAL@puerto?9rico?$AA@ 100ae3dc     LIBCMTD:getqloc.obj
 0002:0000f3e8       ??_C@_08PGOJKDAI@pr?9china?$AA@ 100ae3e8     LIBCMTD:getqloc.obj
 0002:0000f3f4       ??_C@_08JHDOMCMI@pr?5china?$AA@ 100ae3f4     LIBCMTD:getqloc.obj
 0002:0000f400       ??_C@_02JHCHFBLL@nz?$AA@   100ae400     LIBCMTD:getqloc.obj
 0002:0000f404       ??_C@_0M@LINHDHKP@new?9zealand?$AA@ 100ae404     LIBCMTD:getqloc.obj
 0002:0000f410       ??_C@_09IIIPPBDB@hong?9kong?$AA@ 100ae410     LIBCMTD:getqloc.obj
 0002:0000f41c       ??_C@_07HJLCKBG@holland?$AA@ 100ae41c     LIBCMTD:getqloc.obj
 0002:0000f424       ??_C@_0O@LEHGMHAG@great?5britain?$AA@ 100ae424     LIBCMTD:getqloc.obj
 0002:0000f434       ??_C@_07FACOMELA@england?$AA@ 100ae434     LIBCMTD:getqloc.obj
 0002:0000f43c       ??_C@_05JIHCEICB@czech?$AA@ 100ae43c     LIBCMTD:getqloc.obj
 0002:0000f444       ??_C@_05BBJOBLGB@china?$AA@ 100ae444     LIBCMTD:getqloc.obj
 0002:0000f44c       ??_C@_07GPKPHICP@britain?$AA@ 100ae44c     LIBCMTD:getqloc.obj
 0002:0000f454       ??_C@_07MHIPBHMG@america?$AA@ 100ae454     LIBCMTD:getqloc.obj
 0002:0000f460       ___rg_language             100ae460     LIBCMTD:getqloc.obj
 0002:0000f668       ??_C@_03KIALPMKC@usa?$AA@  100ae668     LIBCMTD:getqloc.obj
 0002:0000f66c       ??_C@_02FGJGKGGD@us?$AA@   100ae66c     LIBCMTD:getqloc.obj
 0002:0000f670       ??_C@_02NEINDODK@uk?$AA@   100ae670     LIBCMTD:getqloc.obj
 0002:0000f674       ??_C@_05JMPCFJFJ@swiss?$AA@ 100ae674     LIBCMTD:getqloc.obj
 0002:0000f67c       ??_C@_0BA@HLOCPIOD@swedish?9finland?$AA@ 100ae67c     LIBCMTD:getqloc.obj
 0002:0000f68c       ??_C@_0BC@PKCNIABK@spanish?9venezuela?$AA@ 100ae68c     LIBCMTD:getqloc.obj
 0002:0000f6a0       ??_C@_0BA@GBHHMIJI@spanish?9uruguay?$AA@ 100ae6a0     LIBCMTD:getqloc.obj
 0002:0000f6b0       ??_C@_0BE@BHDOHPMC@spanish?9puerto?5rico?$AA@ 100ae6b0     LIBCMTD:getqloc.obj
 0002:0000f6c4       ??_C@_0N@KMOIDGGN@spanish?9peru?$AA@ 100ae6c4     LIBCMTD:getqloc.obj
 0002:0000f6d4       ??_C@_0BB@HMHLPGPH@spanish?9paraguay?$AA@ 100ae6d4     LIBCMTD:getqloc.obj
 0002:0000f6e8       ??_C@_0P@MCPKNGFD@spanish?9panama?$AA@ 100ae6e8     LIBCMTD:getqloc.obj
 0002:0000f6f8       ??_C@_0BC@IHOHGAIL@spanish?9nicaragua?$AA@ 100ae6f8     LIBCMTD:getqloc.obj
 0002:0000f70c       ??_C@_0P@KLMJDNFJ@spanish?9modern?$AA@ 100ae70c     LIBCMTD:getqloc.obj
 0002:0000f71c       ??_C@_0BA@BPAPGBCM@spanish?9mexican?$AA@ 100ae71c     LIBCMTD:getqloc.obj
 0002:0000f72c       ??_C@_0BB@PDECHHHE@spanish?9honduras?$AA@ 100ae72c     LIBCMTD:getqloc.obj
 0002:0000f740       ??_C@_0BC@KLHKFGDB@spanish?9guatemala?$AA@ 100ae740     LIBCMTD:getqloc.obj
 0002:0000f754       ??_C@_0BE@MFOOKJAI@spanish?9el?5salvador?$AA@ 100ae754     LIBCMTD:getqloc.obj
 0002:0000f768       ??_C@_0BA@FCOKFPFC@spanish?9ecuador?$AA@ 100ae768     LIBCMTD:getqloc.obj
 0002:0000f778       ??_C@_0BL@PLMGIMOO@spanish?9dominican?5republic?$AA@ 100ae778     LIBCMTD:getqloc.obj
 0002:0000f794       ??_C@_0BD@HLGDNMHB@spanish?9costa?5rica?$AA@ 100ae794     LIBCMTD:getqloc.obj
 0002:0000f7a8       ??_C@_0BB@PKCBKCPE@spanish?9colombia?$AA@ 100ae7a8     LIBCMTD:getqloc.obj
 0002:0000f7bc       ??_C@_0O@MCBIJGNE@spanish?9chile?$AA@ 100ae7bc     LIBCMTD:getqloc.obj
 0002:0000f7cc       ??_C@_0BA@BEFEIGJJ@spanish?9bolivia?$AA@ 100ae7cc     LIBCMTD:getqloc.obj
 0002:0000f7dc       ??_C@_0BC@EMECMPD@spanish?9argentina?$AA@ 100ae7dc     LIBCMTD:getqloc.obj
 0002:0000f7f0       ??_C@_0BF@EALFLENP@portuguese?9brazilian?$AA@ 100ae7f0     LIBCMTD:getqloc.obj
 0002:0000f808       ??_C@_0BC@HBLEBLNN@norwegian?9nynorsk?$AA@ 100ae808     LIBCMTD:getqloc.obj
 0002:0000f81c       ??_C@_0BB@HMACDDCK@norwegian?9bokmal?$AA@ 100ae81c     LIBCMTD:getqloc.obj
 0002:0000f830       ??_C@_09BAFFPPHE@norwegian?$AA@ 100ae830     LIBCMTD:getqloc.obj
 0002:0000f83c       ??_C@_0O@EAJFJDFG@italian?9swiss?$AA@ 100ae83c     LIBCMTD:getqloc.obj
 0002:0000f84c       ??_C@_0O@CNOMPGD@irish?9english?$AA@ 100ae84c     LIBCMTD:getqloc.obj
 0002:0000f85c       ??_C@_0N@EDHBGCKG@german?9swiss?$AA@ 100ae85c     LIBCMTD:getqloc.obj
 0002:0000f86c       ??_C@_0BC@JACMHNBP@german?9luxembourg?$AA@ 100ae86c     LIBCMTD:getqloc.obj
 0002:0000f880       ??_C@_0BE@HBGMGFEG@german?9lichtenstein?$AA@ 100ae880     LIBCMTD:getqloc.obj
 0002:0000f894       ??_C@_0BA@HKKBIBKL@german?9austrian?$AA@ 100ae894     LIBCMTD:getqloc.obj
 0002:0000f8a4       ??_C@_0N@GCAEPEBK@french?9swiss?$AA@ 100ae8a4     LIBCMTD:getqloc.obj
 0002:0000f8b4       ??_C@_0BC@DJFJJCK@french?9luxembourg?$AA@ 100ae8b4     LIBCMTD:getqloc.obj
 0002:0000f8c8       ??_C@_0BA@NNCEDFIC@french?9canadian?$AA@ 100ae8c8     LIBCMTD:getqloc.obj
 0002:0000f8d8       ??_C@_0P@CMPOCLM@french?9belgian?$AA@ 100ae8d8     LIBCMTD:getqloc.obj
 0002:0000f8e8       ??_C@_0M@GHHDJOK@english?9usa?$AA@ 100ae8e8     LIBCMTD:getqloc.obj
 0002:0000f8f4       ??_C@_0L@PLDJKEIL@english?9us?$AA@ 100ae8f4     LIBCMTD:getqloc.obj
 0002:0000f900       ??_C@_0L@HJCCDMNC@english?9uk?$AA@ 100ae900     LIBCMTD:getqloc.obj
 0002:0000f90c       ??_C@_0BK@CKLIAGJB@english?9trinidad?5y?5tobago?$AA@ 100ae90c     LIBCMTD:getqloc.obj
 0002:0000f928       ??_C@_0BF@JMJMGNNF@english?9south?5africa?$AA@ 100ae928     LIBCMTD:getqloc.obj
 0002:0000f940       ??_C@_0L@DKIIFDFD@english?9nz?$AA@ 100ae940     LIBCMTD:getqloc.obj
 0002:0000f94c       ??_C@_0BA@ONHGJCLH@english?9jamaica?$AA@ 100ae94c     LIBCMTD:getqloc.obj
 0002:0000f95c       ??_C@_0M@HJBGHOPO@english?9ire?$AA@ 100ae95c     LIBCMTD:getqloc.obj
 0002:0000f968       ??_C@_0BC@LFEKMIFB@english?9caribbean?$AA@ 100ae968     LIBCMTD:getqloc.obj
 0002:0000f97c       ??_C@_0M@OLDPFKHI@english?9can?$AA@ 100ae97c     LIBCMTD:getqloc.obj
 0002:0000f988       ??_C@_0P@OMDEHBMP@english?9belize?$AA@ 100ae988     LIBCMTD:getqloc.obj
 0002:0000f998       ??_C@_0M@KFHFPFED@english?9aus?$AA@ 100ae998     LIBCMTD:getqloc.obj
 0002:0000f9a4       ??_C@_0BB@MNMBKDFE@english?9american?$AA@ 100ae9a4     LIBCMTD:getqloc.obj
 0002:0000f9b8       ??_C@_0O@KIDLNNBA@dutch?9belgian?$AA@ 100ae9b8     LIBCMTD:getqloc.obj
 0002:0000f9c8       ??_C@_0BE@JBKABBMH@chinese?9traditional?$AA@ 100ae9c8     LIBCMTD:getqloc.obj
 0002:0000f9dc       ??_C@_0BC@MJJMPKCG@chinese?9singapore?$AA@ 100ae9dc     LIBCMTD:getqloc.obj
 0002:0000f9f0       ??_C@_0BD@FDKADDCP@chinese?9simplified?$AA@ 100ae9f0     LIBCMTD:getqloc.obj
 0002:0000fa04       ??_C@_0BB@DBEFDDME@chinese?9hongkong?$AA@ 100aea04     LIBCMTD:getqloc.obj
 0002:0000fa18       ??_C@_07DHNMFMCI@chinese?$AA@ 100aea18     LIBCMTD:getqloc.obj
 0002:0000fa20       ??_C@_03FNDDCHI@chi?$AA@   100aea20     LIBCMTD:getqloc.obj
 0002:0000fa24       ??_C@_03BMMIADDJ@chh?$AA@  100aea24     LIBCMTD:getqloc.obj
 0002:0000fa28       ??_C@_08OAIPJDGI@canadian?$AA@ 100aea28     LIBCMTD:getqloc.obj
 0002:0000fa34       ??_C@_07HBPMNPNJ@belgian?$AA@ 100aea34     LIBCMTD:getqloc.obj
 0002:0000fa3c       ??_C@_0L@OEKOPBEL@australian?$AA@ 100aea3c     LIBCMTD:getqloc.obj
 0002:0000fa48       ??_C@_0BB@MEIMBEDG@american?9english?$AA@ 100aea48     LIBCMTD:getqloc.obj
 0002:0000fa5c       ??_C@_0BB@DFMDPDGB@american?5english?$AA@ 100aea5c     LIBCMTD:getqloc.obj
 0002:0000fa70       ??_C@_08IJLOKOLL@american?$AA@ 100aea70     LIBCMTD:getqloc.obj
 0002:0000fa7c       ??_C@_0BC@NFIEMBLL@Norwegian?9Nynorsk?$AA@ 100aea7c     LIBCMTD:getqloc.obj
 0002:0000fa90       ??_C@_03NFKLAGEF@OCP?$AA@  100aea90     LIBCMTD:getqloc.obj
 0002:0000fa94       ??_C@_03DFHEHBHG@ACP?$AA@  100aea94     LIBCMTD:getqloc.obj
 0002:0000fa98       ??_C@_0L@KBNGFDKM@convrtcp?4c?$AA@ 100aea98     LIBCMTD:convrtcp.obj
 0002:0000fab4       ??_C@_07NFAECDLI@w_str?4c?$AA@ 100aeab4     LIBCMTD:w_str.obj
 0002:0000fad8       ___lookuptable             100aead8     LIBCMTD:output.obj
 0002:0000fb34       ??_C@_1O@CEDCILHN@?$AA?$CI?$AAn?$AAu?$AAl?$AAl?$AA?$CJ?$AA?$AA@ 100aeb34     LIBCMTD:output.obj
 0002:0000fb44       ??_C@_06OJHGLDPL@?$CInull?$CJ?$AA@ 100aeb44     LIBCMTD:output.obj
 0002:0000fb4c       ??_C@_08MEPFMIND@output?4c?$AA@ 100aeb4c     LIBCMTD:output.obj
 0002:0000fb58       ??_C@_0P@LGFCLPDP@ch?5?$CB?$DN?5_T?$CI?8?20?8?$CJ?$AA@ 100aeb58     LIBCMTD:output.obj
 0002:0000fb68       ??_C@_08NJPDFEGP@mbtowc?4c?$AA@ 100aeb68     LIBCMTD:mbtowc.obj
 0002:0000fb74       ??_C@_0DD@FIIGOHOA@ptloci?9?$DOmb_cur_max?5?$DN?$DN?51?5?$HM?$HM?5ptloc@ 100aeb74     LIBCMTD:mbtowc.obj
 0002:0000fba8       ??_C@_08KKFOAFAI@fputwc?4c?$AA@ 100aeba8     LIBCMTD:fputwc.obj
 0002:0000fbc4       ??_C@_09KLGCKDOD@Program?3?5?$AA@ 100aebc4     LIBCMTD:secfail.obj
 0002:0000fbd0       ??_C@_0KA@JEHFIFGP@A?5buffer?5overrun?5has?5been?5detect@ 100aebd0     LIBCMTD:secfail.obj
 0002:0000fc70       ??_C@_0BJ@MDEKIEOJ@Buffer?5overrun?5detected?$CB?$AA@ 100aec70     LIBCMTD:secfail.obj
 0002:0000fc90       ??_C@_0LB@BPLHHLFD@A?5security?5error?5of?5unknown?5caus@ 100aec90     LIBCMTD:secfail.obj
 0002:0000fd44       ??_C@_0CD@GMKACBEK@Unknown?5security?5failure?5detecte@ 100aed44     LIBCMTD:secfail.obj
 0002:0000fd74       ??_C@_06IMKFLFPG@1?$CDQNAN?$AA@ 100aed74     LIBCMTD:x10fout.obj
 0002:0000fd7c       ??_C@_05DNEBIAHO@1?$CDINF?$AA@ 100aed7c     LIBCMTD:x10fout.obj
 0002:0000fd84       ??_C@_05PHHOCPM@1?$CDIND?$AA@ 100aed84     LIBCMTD:x10fout.obj
 0002:0000fd8c       ??_C@_06PGGFOGJG@1?$CDSNAN?$AA@ 100aed8c     LIBCMTD:x10fout.obj
 0002:0000fda4       ___dnames                  100aeda4     LIBCMTD:timeset.obj
 0002:0000fdbc       ___mnames                  100aedbc     LIBCMTD:timeset.obj
 0002:0000fe04       ??_C@_07LOOFNDIO@tzset?4c?$AA@ 100aee04     LIBCMTD:tzset.obj
 0002:0000fe0c       ??_C@_02CLFPBFFP@TZ?$AA@   100aee0c     LIBCMTD:tzset.obj
 0002:0000fe2c       ??_C@_0L@DILIPMN@inithelp?4c?$AA@ 100aee2c     LIBCMTD:inithelp.obj
 0002:0000fe38       ??_C@_0CP@JOANPPIG@f?3?2vs70builds?23077?2vc?2crtbld?2crt@ 100aee38     LIBCMTD:_flswbuf.obj
 0002:0000fe74       ??_C@_07NIBBAFJP@w_loc?4c?$AA@ 100aee74     LIBCMTD:w_loc.obj
 0002:0000fe8c       ??_C@_07GCMFDNDD@a_loc?4c?$AA@ 100aee8c     LIBCMTD:a_loc.obj
 0002:0000fea4       ??_C@_0L@CELCHBFJ@wtombenv?4c?$AA@ 100aeea4     LIBCMTD:wtombenv.obj
 0002:0000feb0       ??_C@_07KLPPCEPH@a_cmp?4c?$AA@ 100aeeb0     LIBCMTD:a_cmp.obj
 0002:0000feb8       ??_C@_0DN@NFIMOOFE@cchCount1?$DN?$DN0?5?$CG?$CG?5cchCount2?$DN?$DN1?5?$HM?$HM?5@ 100aeeb8     LIBCMTD:a_cmp.obj
 0002:0000ff10       ??_C@_08BMJILFKN@setenv?4c?$AA@ 100aef10     LIBCMTD:setenv.obj
 0002:0000ff1c       ??_C@_05MAJJAKPI@FALSE?$AA@ 100aef1c     LIBCMTD:setenv.obj
 0002:000103e0       ??_C@_0L@LLDHGLHK@swprintf?4c?$AA@ 100af3e0     LIBCMTD:swprintf.obj
 0002:000103ec       ??_C@_0L@ILNMHBAP@mbstowcs?4c?$AA@ 100af3ec     LIBCMTD:mbstowcs.obj
 0002:000103f8       ??_C@_09EGGCOFMI@s?5?$CB?$DN?5NULL?$AA@ 100af3f8     LIBCMTD:mbstowcs.obj
 0002:00010404       ??_C@_0N@JICNABFA@swprintn?4cpp?$AA@ 100af404     LIBCMTD:swprintn.obj
 0002:00010414       ??_C@_0BC@LDFCGPMK@?$CKmode?5?$CB?$DN?5_T?$CI?8?20?8?$CJ?$AA@ 100af414     LIBCMTD:wfopen.obj
 0002:00010428       ??_C@_0N@HDDIJGHA@mode?5?$CB?$DN?5NULL?$AA@ 100af428     LIBCMTD:wfopen.obj
 0002:00010438       ??_C@_0BC@JKMANOLD@?$CKfile?5?$CB?$DN?5_T?$CI?8?20?8?$CJ?$AA@ 100af438     LIBCMTD:wfopen.obj
 0002:0001044c       ??_C@_0CN@HDNHNDNE@f?3?2vs70builds?23077?2vc?2crtbld?2crt@ 100af44c     LIBCMTD:wfopen.obj
 0002:0001047c       ??_C@_0N@MBAPGNHG@file?5?$CB?$DN?5NULL?$AA@ 100af47c     LIBCMTD:wfopen.obj
 0002:0001049c       ??_C@_0CN@OJFFJLIC@f?3?2vs70builds?23077?2vc?2crtbld?2crt@ 100af49c     LIBCMTD:_wopen.obj
 0002:000104cc       ??_C@_0BB@KFELMOAG@filename?5?$CB?$DN?5NULL?$AA@ 100af4cc     LIBCMTD:_wopen.obj
 0002:000104e0       ??_C@_08MKBBPGGN@stream?4c?$AA@ 100af4e0     LIBCMTD:stream.obj
 0002:0001052c       ??_C@_08EOPENFML@chsize?4c?$AA@ 100af52c     LIBCMTD:chsize.obj
 0002:00010538       ??_C@_09OJCCCDEJ@size?5?$DO?$DN?50?$AA@ 100af538     LIBCMTD:chsize.obj
 0002:00010558       __load_config_used         100af558     LIBCMTD:loadcfg.obj
 0002:00013ca0       ??_R1A@?0A@A@type_info@@8  100b2ca0     LIBCMTD:typinfo.obj
 0002:00013cb8       ??_R2type_info@@8          100b2cb8     LIBCMTD:typinfo.obj
 0002:00013cc0       ??_R3type_info@@8          100b2cc0     LIBCMTD:typinfo.obj
 0002:00013cd0       ??_R4type_info@@6B@        100b2cd0     LIBCMTD:typinfo.obj
 0002:00013e00       ___safe_se_handler_table   100b2e00     <linker-defined>
 0002:000142fc       ___rtc_iaa                 100b32fc     LIBCMTD:initsect.obj
 0002:00014400       ___rtc_izz                 100b3400     LIBCMTD:initsect.obj
 0002:00014504       ___rtc_taa                 100b3504     LIBCMTD:initsect.obj
 0002:00014608       ___rtc_tzz                 100b3608     LIBCMTD:initsect.obj
 0003:00000000       ___xc_a                    100b4000     LIBCMTD:crt0init.obj
 0003:00000314       ___xc_z                    100b4314     LIBCMTD:crt0init.obj
 0003:00000418       ___xi_a                    100b4418     LIBCMTD:crt0init.obj
 0003:00000730       ___xi_z                    100b4730     LIBCMTD:crt0init.obj
 0003:00000834       ___xp_a                    100b4834     LIBCMTD:crt0init.obj
 0003:00000a3c       ___xp_z                    100b4a3c     LIBCMTD:crt0init.obj
 0003:00000b40       ___xt_a                    100b4b40     LIBCMTD:crt0init.obj
 0003:00000d48       ___xt_z                    100b4d48     LIBCMTD:crt0init.obj
 0003:00000fc0       ??_R4IFXUnknown@@6B@       100b4fc0     Importing:CIFXAuthorCLODDecoder.obj
 0003:00000fd8       ??_R0?AVIFXUnknown@@@8     100b4fd8     Importing:CIFXAuthorCLODDecoder.obj
 0003:00000ff8       ??_R3IFXUnknown@@8         100b4ff8     Importing:CIFXAuthorCLODDecoder.obj
 0003:00001008       ??_R2IFXUnknown@@8         100b5008     Importing:CIFXAuthorCLODDecoder.obj
 0003:00001010       ??_R1A@?0A@A@IFXUnknown@@8 100b5010     Importing:CIFXAuthorCLODDecoder.obj
 0003:00001028       ??_R4IFXException@@6B@     100b5028     Importing:CIFXAuthorCLODDecoder.obj
 0003:00001040       ??_R0?AVIFXException@@@8   100b5040     Importing:CIFXAuthorCLODDecoder.obj
 0003:00001060       ??_R3IFXException@@8       100b5060     Importing:CIFXAuthorCLODDecoder.obj
 0003:00001070       ??_R2IFXException@@8       100b5070     Importing:CIFXAuthorCLODDecoder.obj
 0003:00001078       ??_R1A@?0A@A@IFXException@@8 100b5078     Importing:CIFXAuthorCLODDecoder.obj
 0003:00001090       ??_R4IFXDecoderX@@6B0@@    100b5090     Importing:CIFXAuthorCLODDecoder.obj
 0003:000010a8       ??_R0?AVIFXDecoderX@@@8    100b50a8     Importing:CIFXAuthorCLODDecoder.obj
 0003:000010c8       ??_R3IFXDecoderX@@8        100b50c8     Importing:CIFXAuthorCLODDecoder.obj
 0003:000010d8       ??_R2IFXDecoderX@@8        100b50d8     Importing:CIFXAuthorCLODDecoder.obj
 0003:000010e0       ??_R1A@?0A@A@IFXDecoderX@@8 100b50e0     Importing:CIFXAuthorCLODDecoder.obj
 0003:000010f8       ??_R1A@33BA@IFXUnknown@@8  100b50f8     Importing:CIFXAuthorCLODDecoder.obj
 0003:00001110       ??_R4IFXDecoderX@@6BIFXUnknown@@@ 100b5110     Importing:CIFXAuthorCLODDecoder.obj
 0003:00001128       ??_8IFXDecoderX@@7B@       100b5128     Importing:CIFXAuthorCLODDecoder.obj
 0003:00001130       ??_R4CIFXAuthorCLODDecoder@@6BIFXUnknown@@@ 100b5130     Importing:CIFXAuthorCLODDecoder.obj
 0003:00001148       ??_R0?AVCIFXAuthorCLODDecoder@@@8 100b5148     Importing:CIFXAuthorCLODDecoder.obj
 0003:00001170       ??_R3CIFXAuthorCLODDecoder@@8 100b5170     Importing:CIFXAuthorCLODDecoder.obj
 0003:00001180       ??_R2CIFXAuthorCLODDecoder@@8 100b5180     Importing:CIFXAuthorCLODDecoder.obj
 0003:00001190       ??_R1A@?0A@A@CIFXAuthorCLODDecoder@@8 100b5190     Importing:CIFXAuthorCLODDecoder.obj
 0003:000011a8       ??_R1A@DM@7BA@IFXDecoderX@@8 100b51a8     Importing:CIFXAuthorCLODDecoder.obj
 0003:000011c0       ??_R1A@DM@3BA@IFXUnknown@@8 100b51c0     Importing:CIFXAuthorCLODDecoder.obj
 0003:000011d8       ??_R1A@?0A@A@IFXModifierBaseDecoder@@8 100b51d8     Importing:CIFXAuthorCLODDecoder.obj
 0003:000011f0       ??_R0?AVIFXModifierBaseDecoder@@@8 100b51f0     Importing:CIFXAuthorCLODDecoder.obj
 0003:00001218       ??_R4CIFXAuthorCLODDecoder@@6BIFXDecoderX@@@ 100b5218     Importing:CIFXAuthorCLODDecoder.obj
 0003:00001230       ??_R4CIFXAuthorCLODDecoder@@6BIFXModifierBaseDecoder@@@ 100b5230     Importing:CIFXAuthorCLODDecoder.obj
 0003:00001248       ??_8CIFXAuthorCLODDecoder@@7B0@@ 100b5248     Importing:CIFXAuthorCLODDecoder.obj
 0003:00001254       ??_8CIFXAuthorCLODDecoder@@7BIFXDecoderX@@@ 100b5254     Importing:CIFXAuthorCLODDecoder.obj
 0003:00001260       __CTA1?AVIFXException@@    100b5260     Importing:CIFXAuthorCLODDecoder.obj
 0003:00001268       __CT??_R0?AVIFXException@@@8IFXException@20 100b5268     Importing:CIFXAuthorCLODDecoder.obj
 0003:00001288       __TI1?AVIFXException@@     100b5288     Importing:CIFXAuthorCLODDecoder.obj
 0003:00001298       ??_R4CIFXGroupDecoder@@6BIFXUnknown@@@ 100b5298     Importing:CIFXGroupDecoder.obj
 0003:000012b0       ??_R0?AVCIFXGroupDecoder@@@8 100b52b0     Importing:CIFXGroupDecoder.obj
 0003:000012d0       ??_R3CIFXGroupDecoder@@8   100b52d0     Importing:CIFXGroupDecoder.obj
 0003:000012e0       ??_R2CIFXGroupDecoder@@8   100b52e0     Importing:CIFXGroupDecoder.obj
 0003:000012f0       ??_R1A@?0A@A@CIFXGroupDecoder@@8 100b52f0     Importing:CIFXGroupDecoder.obj
 0003:00001308       ??_R1A@EI@7BA@IFXDecoderX@@8 100b5308     Importing:CIFXGroupDecoder.obj
 0003:00001320       ??_R1A@EI@3BA@IFXUnknown@@8 100b5320     Importing:CIFXGroupDecoder.obj
 0003:00001338       ??_R1A@?0A@A@CIFXNodeBaseDecoder@@8 100b5338     Importing:CIFXGroupDecoder.obj
 0003:00001350       ??_R0?AVCIFXNodeBaseDecoder@@@8 100b5350     Importing:CIFXGroupDecoder.obj
 0003:00001378       ??_R4CIFXGroupDecoder@@6BIFXDecoderX@@@ 100b5378     Importing:CIFXGroupDecoder.obj
 0003:00001390       ??_R4CIFXGroupDecoder@@6BCIFXNodeBaseDecoder@@@ 100b5390     Importing:CIFXGroupDecoder.obj
 0003:000013a8       ??_8CIFXGroupDecoder@@7B0@@ 100b53a8     Importing:CIFXGroupDecoder.obj
 0003:000013b4       ??_8CIFXGroupDecoder@@7BIFXDecoderX@@@ 100b53b4     Importing:CIFXGroupDecoder.obj
 0003:000013c0       ??_R4CIFXLightDecoder@@6BIFXUnknown@@@ 100b53c0     Importing:CIFXLightDecoder.obj
 0003:000013d8       ??_R0?AVCIFXLightDecoder@@@8 100b53d8     Importing:CIFXLightDecoder.obj
 0003:000013f8       ??_R3CIFXLightDecoder@@8   100b53f8     Importing:CIFXLightDecoder.obj
 0003:00001408       ??_R2CIFXLightDecoder@@8   100b5408     Importing:CIFXLightDecoder.obj
 0003:00001418       ??_R1A@?0A@A@CIFXLightDecoder@@8 100b5418     Importing:CIFXLightDecoder.obj
 0003:00001430       ??_R4CIFXLightDecoder@@6BIFXDecoderX@@@ 100b5430     Importing:CIFXLightDecoder.obj
 0003:00001448       ??_R4CIFXLightDecoder@@6BCIFXNodeBaseDecoder@@@ 100b5448     Importing:CIFXLightDecoder.obj
 0003:00001460       ??_8CIFXLightDecoder@@7B0@@ 100b5460     Importing:CIFXLightDecoder.obj
 0003:0000146c       ??_8CIFXLightDecoder@@7BIFXDecoderX@@@ 100b546c     Importing:CIFXLightDecoder.obj
 0003:00001478       ??_R4CIFXLightResourceDecoder@@6BIFXUnknown@@@ 100b5478     Importing:CIFXLightResourceDecoder.obj
 0003:00001490       ??_R0?AVCIFXLightResourceDecoder@@@8 100b5490     Importing:CIFXLightResourceDecoder.obj
 0003:000014b8       ??_R3CIFXLightResourceDecoder@@8 100b54b8     Importing:CIFXLightResourceDecoder.obj
 0003:000014c8       ??_R2CIFXLightResourceDecoder@@8 100b54c8     Importing:CIFXLightResourceDecoder.obj
 0003:000014d8       ??_R1A@?0A@A@CIFXLightResourceDecoder@@8 100b54d8     Importing:CIFXLightResourceDecoder.obj
 0003:000014f0       ??_R4CIFXLightResourceDecoder@@6BIFXDecoderX@@@ 100b54f0     Importing:CIFXLightResourceDecoder.obj
 0003:00001508       ??_R4CIFXLightResourceDecoder@@6BCIFXNodeBaseDecoder@@@ 100b5508     Importing:CIFXLightResourceDecoder.obj
 0003:00001520       ??_8CIFXLightResourceDecoder@@7B0@@ 100b5520     Importing:CIFXLightResourceDecoder.obj
 0003:0000152c       ??_8CIFXLightResourceDecoder@@7BIFXDecoderX@@@ 100b552c     Importing:CIFXLightResourceDecoder.obj
 0003:00001538       ??_R4CIFXViewResourceDecoder@@6BIFXUnknown@@@ 100b5538     Importing:CIFXViewResourceDecoder.obj
 0003:00001550       ??_R0?AVCIFXViewResourceDecoder@@@8 100b5550     Importing:CIFXViewResourceDecoder.obj
 0003:00001578       ??_R3CIFXViewResourceDecoder@@8 100b5578     Importing:CIFXViewResourceDecoder.obj
 0003:00001588       ??_R2CIFXViewResourceDecoder@@8 100b5588     Importing:CIFXViewResourceDecoder.obj
 0003:00001598       ??_R1A@?0A@A@CIFXViewResourceDecoder@@8 100b5598     Importing:CIFXViewResourceDecoder.obj
 0003:000015b0       ??_R4CIFXViewResourceDecoder@@6BIFXDecoderX@@@ 100b55b0     Importing:CIFXViewResourceDecoder.obj
 0003:000015c8       ??_R4CIFXViewResourceDecoder@@6BCIFXNodeBaseDecoder@@@ 100b55c8     Importing:CIFXViewResourceDecoder.obj
 0003:000015e0       ??_8CIFXViewResourceDecoder@@7B0@@ 100b55e0     Importing:CIFXViewResourceDecoder.obj
 0003:000015ec       ??_8CIFXViewResourceDecoder@@7BIFXDecoderX@@@ 100b55ec     Importing:CIFXViewResourceDecoder.obj
 0003:000015f8       ??_R4CIFXMaterialDecoder@@6B0@@ 100b55f8     Importing:CIFXMaterialDecoder.obj
 0003:00001610       ??_R0?AVCIFXMaterialDecoder@@@8 100b5610     Importing:CIFXMaterialDecoder.obj
 0003:00001638       ??_R3CIFXMaterialDecoder@@8 100b5638     Importing:CIFXMaterialDecoder.obj
 0003:00001648       ??_R2CIFXMaterialDecoder@@8 100b5648     Importing:CIFXMaterialDecoder.obj
 0003:00001658       ??_R1A@?0A@A@CIFXMaterialDecoder@@8 100b5658     Importing:CIFXMaterialDecoder.obj
 0003:00001670       ??_R1A@37BA@IFXDecoderX@@8 100b5670     Importing:CIFXMaterialDecoder.obj
 0003:00001688       ??_R4CIFXMaterialDecoder@@6BIFXUnknown@@@ 100b5688     Importing:CIFXMaterialDecoder.obj
 0003:000016a0       ??_R4CIFXMaterialDecoder@@6BIFXDecoderX@@@ 100b56a0     Importing:CIFXMaterialDecoder.obj
 0003:000016b8       ??_8CIFXMaterialDecoder@@7B0@@ 100b56b8     Importing:CIFXMaterialDecoder.obj
 0003:000016c4       ??_8CIFXMaterialDecoder@@7BIFXDecoderX@@@ 100b56c4     Importing:CIFXMaterialDecoder.obj
 0003:000016d0       ??_R4CIFXModelDecoder@@6BIFXUnknown@@@ 100b56d0     Importing:CIFXModelDecoder.obj
 0003:000016e8       ??_R0?AVCIFXModelDecoder@@@8 100b56e8     Importing:CIFXModelDecoder.obj
 0003:00001708       ??_R3CIFXModelDecoder@@8   100b5708     Importing:CIFXModelDecoder.obj
 0003:00001718       ??_R2CIFXModelDecoder@@8   100b5718     Importing:CIFXModelDecoder.obj
 0003:00001728       ??_R1A@?0A@A@CIFXModelDecoder@@8 100b5728     Importing:CIFXModelDecoder.obj
 0003:00001740       ??_R4CIFXModelDecoder@@6BIFXDecoderX@@@ 100b5740     Importing:CIFXModelDecoder.obj
 0003:00001758       ??_R4CIFXModelDecoder@@6BCIFXNodeBaseDecoder@@@ 100b5758     Importing:CIFXModelDecoder.obj
 0003:00001770       ??_8CIFXModelDecoder@@7B0@@ 100b5770     Importing:CIFXModelDecoder.obj
 0003:0000177c       ??_8CIFXModelDecoder@@7BIFXDecoderX@@@ 100b577c     Importing:CIFXModelDecoder.obj
 0003:00001788       ??_R4CIFXAnimationModifierDecoder@@6BIFXUnknown@@@ 100b5788     Importing:CIFXAnimationModifierDecoder.obj
 0003:000017a0       ??_R0?AVCIFXAnimationModifierDecoder@@@8 100b57a0     Importing:CIFXAnimationModifierDecoder.obj
 0003:000017d0       ??_R3CIFXAnimationModifierDecoder@@8 100b57d0     Importing:CIFXAnimationModifierDecoder.obj
 0003:000017e0       ??_R2CIFXAnimationModifierDecoder@@8 100b57e0     Importing:CIFXAnimationModifierDecoder.obj
 0003:000017f0       ??_R1A@?0A@A@CIFXAnimationModifierDecoder@@8 100b57f0     Importing:CIFXAnimationModifierDecoder.obj
 0003:00001808       ??_R4CIFXAnimationModifierDecoder@@6BIFXDecoderX@@@ 100b5808     Importing:CIFXAnimationModifierDecoder.obj
 0003:00001820       ??_R4CIFXAnimationModifierDecoder@@6BIFXModifierBaseDecoder@@@ 100b5820     Importing:CIFXAnimationModifierDecoder.obj
 0003:00001838       ??_8CIFXAnimationModifierDecoder@@7B0@@ 100b5838     Importing:CIFXAnimationModifierDecoder.obj
 0003:00001844       ??_8CIFXAnimationModifierDecoder@@7BIFXDecoderX@@@ 100b5844     Importing:CIFXAnimationModifierDecoder.obj
 0003:00001850       ??_R4CIFXMotionDecoder@@6B0@@ 100b5850     Importing:CIFXMotionDecoder.obj
 0003:00001868       ??_R0?AVCIFXMotionDecoder@@@8 100b5868     Importing:CIFXMotionDecoder.obj
 0003:00001888       ??_R3CIFXMotionDecoder@@8  100b5888     Importing:CIFXMotionDecoder.obj
 0003:00001898       ??_R2CIFXMotionDecoder@@8  100b5898     Importing:CIFXMotionDecoder.obj
 0003:000018a8       ??_R1A@?0A@A@CIFXMotionDecoder@@8 100b58a8     Importing:CIFXMotionDecoder.obj
 0003:000018c0       ??_R4CIFXMotionDecoder@@6BIFXUnknown@@@ 100b58c0     Importing:CIFXMotionDecoder.obj
 0003:000018d8       ??_R4CIFXMotionDecoder@@6BIFXDecoderX@@@ 100b58d8     Importing:CIFXMotionDecoder.obj
 0003:000018f0       ??_8CIFXMotionDecoder@@7B0@@ 100b58f0     Importing:CIFXMotionDecoder.obj
 0003:000018fc       ??_8CIFXMotionDecoder@@7BIFXDecoderX@@@ 100b58fc     Importing:CIFXMotionDecoder.obj
 0003:00001908       ??_R4CIFXGlyphGeneratorDecoder@@6BIFXUnknown@@@ 100b5908     Importing:CIFXGlyphModifierDecoder.obj
 0003:00001920       ??_R0?AVCIFXGlyphGeneratorDecoder@@@8 100b5920     Importing:CIFXGlyphModifierDecoder.obj
 0003:00001948       ??_R3CIFXGlyphGeneratorDecoder@@8 100b5948     Importing:CIFXGlyphModifierDecoder.obj
 0003:00001958       ??_R2CIFXGlyphGeneratorDecoder@@8 100b5958     Importing:CIFXGlyphModifierDecoder.obj
 0003:00001968       ??_R1A@?0A@A@CIFXGlyphGeneratorDecoder@@8 100b5968     Importing:CIFXGlyphModifierDecoder.obj
 0003:00001980       ??_R4CIFXGlyphGeneratorDecoder@@6BIFXDecoderX@@@ 100b5980     Importing:CIFXGlyphModifierDecoder.obj
 0003:00001998       ??_R4CIFXGlyphGeneratorDecoder@@6BIFXModifierBaseDecoder@@@ 100b5998     Importing:CIFXGlyphModifierDecoder.obj
 0003:000019b0       ??_8CIFXGlyphGeneratorDecoder@@7B0@@ 100b59b0     Importing:CIFXGlyphModifierDecoder.obj
 0003:000019bc       ??_8CIFXGlyphGeneratorDecoder@@7BIFXDecoderX@@@ 100b59bc     Importing:CIFXGlyphModifierDecoder.obj
 0003:000019c8       ??_R4CIFXShaderLitTextureDecoder@@6B0@@ 100b59c8     Importing:CIFXShaderLitTextureDecoder.obj
 0003:000019e0       ??_R0?AVCIFXShaderLitTextureDecoder@@@8 100b59e0     Importing:CIFXShaderLitTextureDecoder.obj
 0003:00001a10       ??_R3CIFXShaderLitTextureDecoder@@8 100b5a10     Importing:CIFXShaderLitTextureDecoder.obj
 0003:00001a20       ??_R2CIFXShaderLitTextureDecoder@@8 100b5a20     Importing:CIFXShaderLitTextureDecoder.obj
 0003:00001a30       ??_R1A@?0A@A@CIFXShaderLitTextureDecoder@@8 100b5a30     Importing:CIFXShaderLitTextureDecoder.obj
 0003:00001a48       ??_R4CIFXShaderLitTextureDecoder@@6BIFXUnknown@@@ 100b5a48     Importing:CIFXShaderLitTextureDecoder.obj
 0003:00001a60       ??_R4CIFXShaderLitTextureDecoder@@6BIFXDecoderX@@@ 100b5a60     Importing:CIFXShaderLitTextureDecoder.obj
 0003:00001a78       ??_8CIFXShaderLitTextureDecoder@@7B0@@ 100b5a78     Importing:CIFXShaderLitTextureDecoder.obj
 0003:00001a84       ??_8CIFXShaderLitTextureDecoder@@7BIFXDecoderX@@@ 100b5a84     Importing:CIFXShaderLitTextureDecoder.obj
 0003:00001a90       ??_R4CIFXTextureDecoder@@6B0@@ 100b5a90     Importing:CIFXTextureDecoder.obj
 0003:00001aa8       ??_R0?AVCIFXTextureDecoder@@@8 100b5aa8     Importing:CIFXTextureDecoder.obj
 0003:00001ad0       ??_R3CIFXTextureDecoder@@8 100b5ad0     Importing:CIFXTextureDecoder.obj
 0003:00001ae0       ??_R2CIFXTextureDecoder@@8 100b5ae0     Importing:CIFXTextureDecoder.obj
 0003:00001af0       ??_R1A@?0A@A@CIFXTextureDecoder@@8 100b5af0     Importing:CIFXTextureDecoder.obj
 0003:00001b08       ??_R4CIFXTextureDecoder@@6BIFXUnknown@@@ 100b5b08     Importing:CIFXTextureDecoder.obj
 0003:00001b20       ??_R4CIFXTextureDecoder@@6BIFXDecoderX@@@ 100b5b20     Importing:CIFXTextureDecoder.obj
 0003:00001b38       ??_8CIFXTextureDecoder@@7B0@@ 100b5b38     Importing:CIFXTextureDecoder.obj
 0003:00001b44       ??_8CIFXTextureDecoder@@7BIFXDecoderX@@@ 100b5b44     Importing:CIFXTextureDecoder.obj
 0003:00001b50       ??_R4CIFXSubdivisionModifierDecoder@@6BIFXUnknown@@@ 100b5b50     Importing:CIFXSubdivisionModifierDecoder.obj
 0003:00001b68       ??_R0?AVCIFXSubdivisionModifierDecoder@@@8 100b5b68     Importing:CIFXSubdivisionModifierDecoder.obj
 0003:00001b98       ??_R3CIFXSubdivisionModifierDecoder@@8 100b5b98     Importing:CIFXSubdivisionModifierDecoder.obj
 0003:00001ba8       ??_R2CIFXSubdivisionModifierDecoder@@8 100b5ba8     Importing:CIFXSubdivisionModifierDecoder.obj
 0003:00001bb8       ??_R1A@?0A@A@CIFXSubdivisionModifierDecoder@@8 100b5bb8     Importing:CIFXSubdivisionModifierDecoder.obj
 0003:00001bd0       ??_R4CIFXSubdivisionModifierDecoder@@6BIFXDecoderX@@@ 100b5bd0     Importing:CIFXSubdivisionModifierDecoder.obj
 0003:00001be8       ??_R4CIFXSubdivisionModifierDecoder@@6BIFXModifierBaseDecoder@@@ 100b5be8     Importing:CIFXSubdivisionModifierDecoder.obj
 0003:00001c00       ??_8CIFXSubdivisionModifierDecoder@@7B0@@ 100b5c00     Importing:CIFXSubdivisionModifierDecoder.obj
 0003:00001c0c       ??_8CIFXSubdivisionModifierDecoder@@7BIFXDecoderX@@@ 100b5c0c     Importing:CIFXSubdivisionModifierDecoder.obj
 0003:00001c18       ??_R4CIFXShadingModifierDecoder@@6BIFXUnknown@@@ 100b5c18     Importing:CIFXShadingModifierDecoder.obj
 0003:00001c30       ??_R0?AVCIFXShadingModifierDecoder@@@8 100b5c30     Importing:CIFXShadingModifierDecoder.obj
 0003:00001c60       ??_R3CIFXShadingModifierDecoder@@8 100b5c60     Importing:CIFXShadingModifierDecoder.obj
 0003:00001c70       ??_R2CIFXShadingModifierDecoder@@8 100b5c70     Importing:CIFXShadingModifierDecoder.obj
 0003:00001c80       ??_R1A@?0A@A@CIFXShadingModifierDecoder@@8 100b5c80     Importing:CIFXShadingModifierDecoder.obj
 0003:00001c98       ??_R4CIFXShadingModifierDecoder@@6BIFXDecoderX@@@ 100b5c98     Importing:CIFXShadingModifierDecoder.obj
 0003:00001cb0       ??_R4CIFXShadingModifierDecoder@@6BIFXModifierBaseDecoder@@@ 100b5cb0     Importing:CIFXShadingModifierDecoder.obj
 0003:00001cc8       ??_8CIFXShadingModifierDecoder@@7B0@@ 100b5cc8     Importing:CIFXShadingModifierDecoder.obj
 0003:00001cd4       ??_8CIFXShadingModifierDecoder@@7BIFXDecoderX@@@ 100b5cd4     Importing:CIFXShadingModifierDecoder.obj
 0003:00001ce0       ??_R4IFXDecoderChainX@@6B@ 100b5ce0     Importing:CIFXDecoderChainX.obj
 0003:00001cf8       ??_R0?AVIFXDecoderChainX@@@8 100b5cf8     Importing:CIFXDecoderChainX.obj
 0003:00001d18       ??_R3IFXDecoderChainX@@8   100b5d18     Importing:CIFXDecoderChainX.obj
 0003:00001d28       ??_R2IFXDecoderChainX@@8   100b5d28     Importing:CIFXDecoderChainX.obj
 0003:00001d30       ??_R1A@?0A@A@IFXDecoderChainX@@8 100b5d30     Importing:CIFXDecoderChainX.obj
 0003:00001d48       ??_R4CIFXDecoderChainX@@6B@ 100b5d48     Importing:CIFXDecoderChainX.obj
 0003:00001d60       ??_R0?AVCIFXDecoderChainX@@@8 100b5d60     Importing:CIFXDecoderChainX.obj
 0003:00001d80       ??_R3CIFXDecoderChainX@@8  100b5d80     Importing:CIFXDecoderChainX.obj
 0003:00001d90       ??_R2CIFXDecoderChainX@@8  100b5d90     Importing:CIFXDecoderChainX.obj
 0003:00001da0       ??_R1A@?0A@A@CIFXDecoderChainX@@8 100b5da0     Importing:CIFXDecoderChainX.obj
 0003:00001db8       ??_R4IFXViewLayer@@6B@     100b5db8     Importing:CIFXViewDecoder.obj
 0003:00001dd0       ??_R0?AVIFXViewLayer@@@8   100b5dd0     Importing:CIFXViewDecoder.obj
 0003:00001df0       ??_R3IFXViewLayer@@8       100b5df0     Importing:CIFXViewDecoder.obj
 0003:00001e00       ??_R2IFXViewLayer@@8       100b5e00     Importing:CIFXViewDecoder.obj
 0003:00001e08       ??_R1A@?0A@A@IFXViewLayer@@8 100b5e08     Importing:CIFXViewDecoder.obj
 0003:00001e20       ??_R4CIFXViewDecoder@@6BIFXUnknown@@@ 100b5e20     Importing:CIFXViewDecoder.obj
 0003:00001e38       ??_R0?AVCIFXViewDecoder@@@8 100b5e38     Importing:CIFXViewDecoder.obj
 0003:00001e58       ??_R3CIFXViewDecoder@@8    100b5e58     Importing:CIFXViewDecoder.obj
 0003:00001e68       ??_R2CIFXViewDecoder@@8    100b5e68     Importing:CIFXViewDecoder.obj
 0003:00001e78       ??_R1A@?0A@A@CIFXViewDecoder@@8 100b5e78     Importing:CIFXViewDecoder.obj
 0003:00001e90       ??_R4CIFXViewDecoder@@6BIFXDecoderX@@@ 100b5e90     Importing:CIFXViewDecoder.obj
 0003:00001ea8       ??_R4CIFXViewDecoder@@6BCIFXNodeBaseDecoder@@@ 100b5ea8     Importing:CIFXViewDecoder.obj
 0003:00001ec0       ??_8CIFXViewDecoder@@7B0@@ 100b5ec0     Importing:CIFXViewDecoder.obj
 0003:00001ecc       ??_8CIFXViewDecoder@@7BIFXDecoderX@@@ 100b5ecc     Importing:CIFXViewDecoder.obj
 0003:00001ed8       ??_R4IFXBlockReaderX@@6B@  100b5ed8     Importing:CIFXBlockReaderX.obj
 0003:00001ef0       ??_R0?AVIFXBlockReaderX@@@8 100b5ef0     Importing:CIFXBlockReaderX.obj
 0003:00001f10       ??_R3IFXBlockReaderX@@8    100b5f10     Importing:CIFXBlockReaderX.obj
 0003:00001f20       ??_R2IFXBlockReaderX@@8    100b5f20     Importing:CIFXBlockReaderX.obj
 0003:00001f28       ??_R1A@?0A@A@IFXBlockReaderX@@8 100b5f28     Importing:CIFXBlockReaderX.obj
 0003:00001f40       ??_R4CIFXBlockReaderX@@6B@ 100b5f40     Importing:CIFXBlockReaderX.obj
 0003:00001f58       ??_R0?AVCIFXBlockReaderX@@@8 100b5f58     Importing:CIFXBlockReaderX.obj
 0003:00001f78       ??_R3CIFXBlockReaderX@@8   100b5f78     Importing:CIFXBlockReaderX.obj
 0003:00001f88       ??_R2CIFXBlockReaderX@@8   100b5f88     Importing:CIFXBlockReaderX.obj
 0003:00001f98       ??_R1A@?0A@A@CIFXBlockReaderX@@8 100b5f98     Importing:CIFXBlockReaderX.obj
 0003:00001fb0       ?m_uDefaultBlockTypeCount@CIFXBTTHash@@0IA 100b5fb0     Importing:CIFXBTTHash.obj
 0003:00001fb8       ??_R4IFXBTTHash@@6B@       100b5fb8     Importing:CIFXBTTHash.obj
 0003:00001fd0       ??_R0?AVIFXBTTHash@@@8     100b5fd0     Importing:CIFXBTTHash.obj
 0003:00001ff0       ??_R3IFXBTTHash@@8         100b5ff0     Importing:CIFXBTTHash.obj
 0003:00002000       ??_R2IFXBTTHash@@8         100b6000     Importing:CIFXBTTHash.obj
 0003:00002008       ??_R1A@?0A@A@IFXBTTHash@@8 100b6008     Importing:CIFXBTTHash.obj
 0003:00002020       ??_R4CIFXBTTHash@@6B0@@    100b6020     Importing:CIFXBTTHash.obj
 0003:00002038       ??_R0?AVCIFXBTTHash@@@8    100b6038     Importing:CIFXBTTHash.obj
 0003:00002058       ??_R3CIFXBTTHash@@8        100b6058     Importing:CIFXBTTHash.obj
 0003:00002068       ??_R2CIFXBTTHash@@8        100b6068     Importing:CIFXBTTHash.obj
 0003:00002078       ??_R1A@?0A@A@CIFXBTTHash@@8 100b6078     Importing:CIFXBTTHash.obj
 0003:00002090       ??_R1A@33BA@IFXBTTHash@@8  100b6090     Importing:CIFXBTTHash.obj
 0003:000020a8       ??_R1A@33A@IFXUnknown@@8   100b60a8     Importing:CIFXBTTHash.obj
 0003:000020c0       ??_R4CIFXBTTHash@@6BIFXUnknown@@@ 100b60c0     Importing:CIFXBTTHash.obj
 0003:000020d8       ??_8CIFXBTTHash@@7B@       100b60d8     Importing:CIFXBTTHash.obj
 0003:000020e0       ??_R4IFXCoreArray@@6B@     100b60e0     Importing:CIFXLoadManager.obj
 0003:000020f8       ??_R0?AVIFXCoreArray@@@8   100b60f8     Importing:CIFXLoadManager.obj
 0003:00002118       ??_R3IFXCoreArray@@8       100b6118     Importing:CIFXLoadManager.obj
 0003:00002128       ??_R2IFXCoreArray@@8       100b6128     Importing:CIFXLoadManager.obj
 0003:00002130       ??_R1A@?0A@A@IFXCoreArray@@8 100b6130     Importing:CIFXLoadManager.obj
 0003:00002148       ??_R4IFXLoadManager@@6B0@@ 100b6148     Importing:CIFXLoadManager.obj
 0003:00002160       ??_R0?AVIFXLoadManager@@@8 100b6160     Importing:CIFXLoadManager.obj
 0003:00002180       ??_R3IFXLoadManager@@8     100b6180     Importing:CIFXLoadManager.obj
 0003:00002190       ??_R2IFXLoadManager@@8     100b6190     Importing:CIFXLoadManager.obj
 0003:00002198       ??_R1A@?0A@A@IFXLoadManager@@8 100b6198     Importing:CIFXLoadManager.obj
 0003:000021b0       ??_R4IFXLoadManager@@6BIFXUnknown@@@ 100b61b0     Importing:CIFXLoadManager.obj
 0003:000021c8       ??_8IFXLoadManager@@7B@    100b61c8     Importing:CIFXLoadManager.obj
 0003:000021d0       ??_R4IFXTask@@6B0@@        100b61d0     Importing:CIFXLoadManager.obj
 0003:000021e8       ??_R0?AVIFXTask@@@8        100b61e8     Importing:CIFXLoadManager.obj
 0003:00002200       ??_R3IFXTask@@8            100b6200     Importing:CIFXLoadManager.obj
 0003:00002210       ??_R2IFXTask@@8            100b6210     Importing:CIFXLoadManager.obj
 0003:00002218       ??_R1A@?0A@A@IFXTask@@8    100b6218     Importing:CIFXLoadManager.obj
 0003:00002230       ??_R4IFXTask@@6BIFXUnknown@@@ 100b6230     Importing:CIFXLoadManager.obj
 0003:00002248       ??_8IFXTask@@7B@           100b6248     Importing:CIFXLoadManager.obj
 0003:00002250       ??_R4CIFXLoadManager@@6BIFXUnknown@@@ 100b6250     Importing:CIFXLoadManager.obj
 0003:00002268       ??_R0?AVCIFXLoadManager@@@8 100b6268     Importing:CIFXLoadManager.obj
 0003:00002288       ??_R3CIFXLoadManager@@8    100b6288     Importing:CIFXLoadManager.obj
 0003:00002298       ??_R2CIFXLoadManager@@8    100b6298     Importing:CIFXLoadManager.obj
 0003:000022b0       ??_R1A@?0A@A@CIFXLoadManager@@8 100b62b0     Importing:CIFXLoadManager.obj
 0003:000022c8       ??_R17?0A@A@IFXTask@@8     100b62c8     Importing:CIFXLoadManager.obj
 0003:000022e0       ??_R4CIFXLoadManager@@6BIFXLoadManager@@@ 100b62e0     Importing:CIFXLoadManager.obj
 0003:000022f8       ??_R4CIFXLoadManager@@6BIFXTask@@@ 100b62f8     Importing:CIFXLoadManager.obj
 0003:00002310       ??_8CIFXLoadManager@@7BIFXLoadManager@@@ 100b6310     Importing:CIFXLoadManager.obj
 0003:00002318       ??_8CIFXLoadManager@@7BIFXTask@@@ 100b6318     Importing:CIFXLoadManager.obj
 0003:00002320       ??_R4?$IFXArray@VIFXExternalDecoderCont@CIFXLoadManager@@@@6B@ 100b6320     Importing:CIFXLoadManager.obj
 0003:00002340       ??_R0?AV?$IFXArray@VIFXExternalDecoderCont@CIFXLoadManager@@@@@8 100b6340     Importing:CIFXLoadManager.obj
 0003:000023a0       ??_R3?$IFXArray@VIFXExternalDecoderCont@CIFXLoadManager@@@@8 100b63a0     Importing:CIFXLoadManager.obj
 0003:000023b0       ??_R2?$IFXArray@VIFXExternalDecoderCont@CIFXLoadManager@@@@8 100b63b0     Importing:CIFXLoadManager.obj
 0003:000023b8       ??_R1A@?0A@A@?$IFXArray@VIFXExternalDecoderCont@CIFXLoadManager@@@@8 100b63b8     Importing:CIFXLoadManager.obj
 0003:000023d0       ??_R4?$IFXArray@UIFXObjectFilter@@@@6B@ 100b63d0     Importing:CIFXLoadManager.obj
 0003:000023e8       ??_R0?AV?$IFXArray@UIFXObjectFilter@@@@@8 100b63e8     Importing:CIFXLoadManager.obj
 0003:00002418       ??_R3?$IFXArray@UIFXObjectFilter@@@@8 100b6418     Importing:CIFXLoadManager.obj
 0003:00002428       ??_R2?$IFXArray@UIFXObjectFilter@@@@8 100b6428     Importing:CIFXLoadManager.obj
 0003:00002430       ??_R1A@?0A@A@?$IFXArray@UIFXObjectFilter@@@@8 100b6430     Importing:CIFXLoadManager.obj
 0003:00002448       ??_R4?$IFXArray@PAVIFXLoadManager@@@@6B@ 100b6448     Importing:CIFXLoadManager.obj
 0003:00002460       ??_R0?AV?$IFXArray@PAVIFXLoadManager@@@@@8 100b6460     Importing:CIFXLoadManager.obj
 0003:00002490       ??_R3?$IFXArray@PAVIFXLoadManager@@@@8 100b6490     Importing:CIFXLoadManager.obj
 0003:000024a0       ??_R2?$IFXArray@PAVIFXLoadManager@@@@8 100b64a0     Importing:CIFXLoadManager.obj
 0003:000024a8       ??_R1A@?0A@A@?$IFXArray@PAVIFXLoadManager@@@@8 100b64a8     Importing:CIFXLoadManager.obj
 0003:000024c0       ??_R4?$IFXArray@VIFXString@@@@6B@ 100b64c0     Importing:CIFXLoadManager.obj
 0003:000024d8       ??_R0?AV?$IFXArray@VIFXString@@@@@8 100b64d8     Importing:CIFXLoadManager.obj
 0003:00002500       ??_R3?$IFXArray@VIFXString@@@@8 100b6500     Importing:CIFXLoadManager.obj
 0003:00002510       ??_R2?$IFXArray@VIFXString@@@@8 100b6510     Importing:CIFXLoadManager.obj
 0003:00002518       ??_R1A@?0A@A@?$IFXArray@VIFXString@@@@8 100b6518     Importing:CIFXLoadManager.obj
 0003:00002530       ??_R4IFXReadBuffer@@6B0@@  100b6530     Importing:CIFXStdioReadBufferX.obj
 0003:00002548       ??_R0?AVIFXReadBuffer@@@8  100b6548     Importing:CIFXStdioReadBufferX.obj
 0003:00002568       ??_R3IFXReadBuffer@@8      100b6568     Importing:CIFXStdioReadBufferX.obj
 0003:00002578       ??_R2IFXReadBuffer@@8      100b6578     Importing:CIFXStdioReadBufferX.obj
 0003:00002580       ??_R1A@?0A@A@IFXReadBuffer@@8 100b6580     Importing:CIFXStdioReadBufferX.obj
 0003:00002598       ??_R4IFXReadBuffer@@6BIFXUnknown@@@ 100b6598     Importing:CIFXStdioReadBufferX.obj
 0003:000025b0       ??_8IFXReadBuffer@@7B@     100b65b0     Importing:CIFXStdioReadBufferX.obj
 0003:000025b8       ??_R4IFXReadBufferX@@6B0@@ 100b65b8     Importing:CIFXStdioReadBufferX.obj
 0003:000025d0       ??_R0?AVIFXReadBufferX@@@8 100b65d0     Importing:CIFXStdioReadBufferX.obj
 0003:000025f0       ??_R3IFXReadBufferX@@8     100b65f0     Importing:CIFXStdioReadBufferX.obj
 0003:00002600       ??_R2IFXReadBufferX@@8     100b6600     Importing:CIFXStdioReadBufferX.obj
 0003:00002608       ??_R1A@?0A@A@IFXReadBufferX@@8 100b6608     Importing:CIFXStdioReadBufferX.obj
 0003:00002620       ??_R4IFXReadBufferX@@6BIFXUnknown@@@ 100b6620     Importing:CIFXStdioReadBufferX.obj
 0003:00002638       ??_8IFXReadBufferX@@7B@    100b6638     Importing:CIFXStdioReadBufferX.obj
 0003:00002640       ??_R4IFXStdio@@6B0@@       100b6640     Importing:CIFXStdioReadBufferX.obj
 0003:00002658       ??_R0?AVIFXStdio@@@8       100b6658     Importing:CIFXStdioReadBufferX.obj
 0003:00002670       ??_R3IFXStdio@@8           100b6670     Importing:CIFXStdioReadBufferX.obj
 0003:00002680       ??_R2IFXStdio@@8           100b6680     Importing:CIFXStdioReadBufferX.obj
 0003:00002688       ??_R1A@?0A@A@IFXStdio@@8   100b6688     Importing:CIFXStdioReadBufferX.obj
 0003:000026a0       ??_R4IFXStdio@@6BIFXUnknown@@@ 100b66a0     Importing:CIFXStdioReadBufferX.obj
 0003:000026b8       ??_8IFXStdio@@7B@          100b66b8     Importing:CIFXStdioReadBufferX.obj
 0003:000026c0       ??_R4CIFXStdioReadBufferX@@6BIFXUnknown@@@ 100b66c0     Importing:CIFXStdioReadBufferX.obj
 0003:000026d8       ??_R0?AVCIFXStdioReadBufferX@@@8 100b66d8     Importing:CIFXStdioReadBufferX.obj
 0003:00002700       ??_R3CIFXStdioReadBufferX@@8 100b6700     Importing:CIFXStdioReadBufferX.obj
 0003:00002710       ??_R2CIFXStdioReadBufferX@@8 100b6710     Importing:CIFXStdioReadBufferX.obj
 0003:00002730       ??_R1A@?0A@A@CIFXStdioReadBufferX@@8 100b6730     Importing:CIFXStdioReadBufferX.obj
 0003:00002748       ??_R17?0A@A@IFXReadBufferX@@8 100b6748     Importing:CIFXStdioReadBufferX.obj
 0003:00002760       ??_R1BA@?0A@A@IFXStdio@@8  100b6760     Importing:CIFXStdioReadBufferX.obj
 0003:00002778       ??_R4CIFXStdioReadBufferX@@6BIFXReadBuffer@@@ 100b6778     Importing:CIFXStdioReadBufferX.obj
 0003:00002790       ??_R4CIFXStdioReadBufferX@@6BIFXReadBufferX@@@ 100b6790     Importing:CIFXStdioReadBufferX.obj
 0003:000027a8       ??_R4CIFXStdioReadBufferX@@6BIFXStdio@@@ 100b67a8     Importing:CIFXStdioReadBufferX.obj
 0003:000027c0       ??_8CIFXStdioReadBufferX@@7BIFXReadBuffer@@@ 100b67c0     Importing:CIFXStdioReadBufferX.obj
 0003:000027c8       ??_8CIFXStdioReadBufferX@@7BIFXReadBufferX@@@ 100b67c8     Importing:CIFXStdioReadBufferX.obj
 0003:000027d0       ??_8CIFXStdioReadBufferX@@7BIFXStdio@@@ 100b67d0     Importing:CIFXStdioReadBufferX.obj
 0003:000027d8       ??_R4IFXInet@@6B0@@        100b67d8     Importing:CIFXInternetReadBufferX.obj
 0003:000027f0       ??_R0?AVIFXInet@@@8        100b67f0     Importing:CIFXInternetReadBufferX.obj
 0003:00002808       ??_R3IFXInet@@8            100b6808     Importing:CIFXInternetReadBufferX.obj
 0003:00002818       ??_R2IFXInet@@8            100b6818     Importing:CIFXInternetReadBufferX.obj
 0003:00002820       ??_R1A@?0A@A@IFXInet@@8    100b6820     Importing:CIFXInternetReadBufferX.obj
 0003:00002838       ??_R4IFXInet@@6BIFXUnknown@@@ 100b6838     Importing:CIFXInternetReadBufferX.obj
 0003:00002850       ??_8IFXInet@@7B@           100b6850     Importing:CIFXInternetReadBufferX.obj
 0003:00002858       ??_R4CIFXInternetReadBufferX@@6BIFXUnknown@@@ 100b6858     Importing:CIFXInternetReadBufferX.obj
 0003:00002870       ??_R0?AVCIFXInternetReadBufferX@@@8 100b6870     Importing:CIFXInternetReadBufferX.obj
 0003:00002898       ??_R3CIFXInternetReadBufferX@@8 100b6898     Importing:CIFXInternetReadBufferX.obj
 0003:000028a8       ??_R2CIFXInternetReadBufferX@@8 100b68a8     Importing:CIFXInternetReadBufferX.obj
 0003:000028d8       ??_R1A@?0A@A@CIFXInternetReadBufferX@@8 100b68d8     Importing:CIFXInternetReadBufferX.obj
 0003:000028f0       ??_R1BI@?0A@A@IFXInet@@8   100b68f0     Importing:CIFXInternetReadBufferX.obj
 0003:00002908       ??_R1CA@?0A@A@IFXTask@@8   100b6908     Importing:CIFXInternetReadBufferX.obj
 0003:00002920       ??_R4CIFXInternetReadBufferX@@6BIFXReadBuffer@@@ 100b6920     Importing:CIFXInternetReadBufferX.obj
 0003:00002938       ??_R4CIFXInternetReadBufferX@@6BIFXReadBufferX@@@ 100b6938     Importing:CIFXInternetReadBufferX.obj
 0003:00002950       ??_R4CIFXInternetReadBufferX@@6BIFXStdio@@@ 100b6950     Importing:CIFXInternetReadBufferX.obj
 0003:00002968       ??_R4CIFXInternetReadBufferX@@6BIFXInet@@@ 100b6968     Importing:CIFXInternetReadBufferX.obj
 0003:00002980       ??_R4CIFXInternetReadBufferX@@6BIFXTask@@@ 100b6980     Importing:CIFXInternetReadBufferX.obj
 0003:00002998       ??_8CIFXInternetReadBufferX@@7BIFXReadBuffer@@@ 100b6998     Importing:CIFXInternetReadBufferX.obj
 0003:000029a0       ??_8CIFXInternetReadBufferX@@7BIFXReadBufferX@@@ 100b69a0     Importing:CIFXInternetReadBufferX.obj
 0003:000029a8       ??_8CIFXInternetReadBufferX@@7BIFXStdio@@@ 100b69a8     Importing:CIFXInternetReadBufferX.obj
 0003:000029b0       ??_8CIFXInternetReadBufferX@@7BIFXInet@@@ 100b69b0     Importing:CIFXInternetReadBufferX.obj
 0003:000029b8       ??_8CIFXInternetReadBufferX@@7BIFXTask@@@ 100b69b8     Importing:CIFXInternetReadBufferX.obj
 0003:000029c0       ??_R4CIFXPointSetDecoder@@6BIFXUnknown@@@ 100b69c0     Importing:CIFXPointSetDecoder.obj
 0003:000029d8       ??_R0?AVCIFXPointSetDecoder@@@8 100b69d8     Importing:CIFXPointSetDecoder.obj
 0003:00002a00       ??_R3CIFXPointSetDecoder@@8 100b6a00     Importing:CIFXPointSetDecoder.obj
 0003:00002a10       ??_R2CIFXPointSetDecoder@@8 100b6a10     Importing:CIFXPointSetDecoder.obj
 0003:00002a20       ??_R1A@?0A@A@CIFXPointSetDecoder@@8 100b6a20     Importing:CIFXPointSetDecoder.obj
 0003:00002a38       ??_R4CIFXPointSetDecoder@@6BIFXDecoderX@@@ 100b6a38     Importing:CIFXPointSetDecoder.obj
 0003:00002a50       ??_R4CIFXPointSetDecoder@@6BIFXModifierBaseDecoder@@@ 100b6a50     Importing:CIFXPointSetDecoder.obj
 0003:00002a68       ??_8CIFXPointSetDecoder@@7B0@@ 100b6a68     Importing:CIFXPointSetDecoder.obj
 0003:00002a74       ??_8CIFXPointSetDecoder@@7BIFXDecoderX@@@ 100b6a74     Importing:CIFXPointSetDecoder.obj
 0003:00002a80       ??_R4CIFXLineSetDecoder@@6BIFXUnknown@@@ 100b6a80     Importing:CIFXLineSetDecoder.obj
 0003:00002a98       ??_R0?AVCIFXLineSetDecoder@@@8 100b6a98     Importing:CIFXLineSetDecoder.obj
 0003:00002ac0       ??_R3CIFXLineSetDecoder@@8 100b6ac0     Importing:CIFXLineSetDecoder.obj
 0003:00002ad0       ??_R2CIFXLineSetDecoder@@8 100b6ad0     Importing:CIFXLineSetDecoder.obj
 0003:00002ae0       ??_R1A@?0A@A@CIFXLineSetDecoder@@8 100b6ae0     Importing:CIFXLineSetDecoder.obj
 0003:00002af8       ??_R4CIFXLineSetDecoder@@6BIFXDecoderX@@@ 100b6af8     Importing:CIFXLineSetDecoder.obj
 0003:00002b10       ??_R4CIFXLineSetDecoder@@6BIFXModifierBaseDecoder@@@ 100b6b10     Importing:CIFXLineSetDecoder.obj
 0003:00002b28       ??_8CIFXLineSetDecoder@@7B0@@ 100b6b28     Importing:CIFXLineSetDecoder.obj
 0003:00002b34       ??_8CIFXLineSetDecoder@@7BIFXDecoderX@@@ 100b6b34     Importing:CIFXLineSetDecoder.obj
 0003:00002b40       ??_R4?$IFXArray@I@@6B@     100b6b40     Importing:CIFXLineSetDecoder.obj
 0003:00002b58       ??_R0?AV?$IFXArray@I@@@8   100b6b58     Importing:CIFXLineSetDecoder.obj
 0003:00002b78       ??_R3?$IFXArray@I@@8       100b6b78     Importing:CIFXLineSetDecoder.obj
 0003:00002b88       ??_R2?$IFXArray@I@@8       100b6b88     Importing:CIFXLineSetDecoder.obj
 0003:00002b90       ??_R1A@?0A@A@?$IFXArray@I@@8 100b6b90     Importing:CIFXLineSetDecoder.obj
 0003:00002ba8       ??_R4CIFXBoneWeightsModifierDecoder@@6BIFXUnknown@@@ 100b6ba8     Importing:CIFXBoneWeightsModifierDecoder.obj
 0003:00002bc0       ??_R0?AVCIFXBoneWeightsModifierDecoder@@@8 100b6bc0     Importing:CIFXBoneWeightsModifierDecoder.obj
 0003:00002bf0       ??_R3CIFXBoneWeightsModifierDecoder@@8 100b6bf0     Importing:CIFXBoneWeightsModifierDecoder.obj
 0003:00002c00       ??_R2CIFXBoneWeightsModifierDecoder@@8 100b6c00     Importing:CIFXBoneWeightsModifierDecoder.obj
 0003:00002c10       ??_R1A@?0A@A@CIFXBoneWeightsModifierDecoder@@8 100b6c10     Importing:CIFXBoneWeightsModifierDecoder.obj
 0003:00002c28       ??_R4CIFXBoneWeightsModifierDecoder@@6BIFXDecoderX@@@ 100b6c28     Importing:CIFXBoneWeightsModifierDecoder.obj
 0003:00002c40       ??_R4CIFXBoneWeightsModifierDecoder@@6BIFXModifierBaseDecoder@@@ 100b6c40     Importing:CIFXBoneWeightsModifierDecoder.obj
 0003:00002c58       ??_8CIFXBoneWeightsModifierDecoder@@7B0@@ 100b6c58     Importing:CIFXBoneWeightsModifierDecoder.obj
 0003:00002c64       ??_8CIFXBoneWeightsModifierDecoder@@7BIFXDecoderX@@@ 100b6c64     Importing:CIFXBoneWeightsModifierDecoder.obj
 0003:00002c70       ??_R4CIFXCLODModifierDecoder@@6BIFXUnknown@@@ 100b6c70     Importing:CIFXCLODModifierDecoder.obj
 0003:00002c88       ??_R0?AVCIFXCLODModifierDecoder@@@8 100b6c88     Importing:CIFXCLODModifierDecoder.obj
 0003:00002cb0       ??_R3CIFXCLODModifierDecoder@@8 100b6cb0     Importing:CIFXCLODModifierDecoder.obj
 0003:00002cc0       ??_R2CIFXCLODModifierDecoder@@8 100b6cc0     Importing:CIFXCLODModifierDecoder.obj
 0003:00002cd0       ??_R1A@?0A@A@CIFXCLODModifierDecoder@@8 100b6cd0     Importing:CIFXCLODModifierDecoder.obj
 0003:00002ce8       ??_R4CIFXCLODModifierDecoder@@6BIFXDecoderX@@@ 100b6ce8     Importing:CIFXCLODModifierDecoder.obj
 0003:00002d00       ??_R4CIFXCLODModifierDecoder@@6BIFXModifierBaseDecoder@@@ 100b6d00     Importing:CIFXCLODModifierDecoder.obj
 0003:00002d18       ??_8CIFXCLODModifierDecoder@@7B0@@ 100b6d18     Importing:CIFXCLODModifierDecoder.obj
 0003:00002d24       ??_8CIFXCLODModifierDecoder@@7BIFXDecoderX@@@ 100b6d24     Importing:CIFXCLODModifierDecoder.obj
 0003:00002d30       ??_R4CIFXDummyModifierDecoder@@6BIFXUnknown@@@ 100b6d30     Importing:CIFXDummyModifierDecoder.obj
 0003:00002d48       ??_R0?AVCIFXDummyModifierDecoder@@@8 100b6d48     Importing:CIFXDummyModifierDecoder.obj
 0003:00002d70       ??_R3CIFXDummyModifierDecoder@@8 100b6d70     Importing:CIFXDummyModifierDecoder.obj
 0003:00002d80       ??_R2CIFXDummyModifierDecoder@@8 100b6d80     Importing:CIFXDummyModifierDecoder.obj
 0003:00002d90       ??_R1A@?0A@A@CIFXDummyModifierDecoder@@8 100b6d90     Importing:CIFXDummyModifierDecoder.obj
 0003:00002da8       ??_R4CIFXDummyModifierDecoder@@6BIFXDecoderX@@@ 100b6da8     Importing:CIFXDummyModifierDecoder.obj
 0003:00002dc0       ??_R4CIFXDummyModifierDecoder@@6BIFXModifierBaseDecoder@@@ 100b6dc0     Importing:CIFXDummyModifierDecoder.obj
 0003:00002dd8       ??_8CIFXDummyModifierDecoder@@7B0@@ 100b6dd8     Importing:CIFXDummyModifierDecoder.obj
 0003:00002de4       ??_8CIFXDummyModifierDecoder@@7BIFXDecoderX@@@ 100b6de4     Importing:CIFXDummyModifierDecoder.obj
 0003:00002df0       ??_R4IFXString@@6B@        100b6df0     Importing:IFXString.obj
 0003:00002e08       ??_R0?AVIFXString@@@8      100b6e08     Importing:IFXString.obj
 0003:00002e20       ??_R3IFXString@@8          100b6e20     Importing:IFXString.obj
 0003:00002e30       ??_R2IFXString@@8          100b6e30     Importing:IFXString.obj
 0003:00002e38       ??_R1A@?0A@A@IFXString@@8  100b6e38     Importing:IFXString.obj
 0003:00002e50       ??_R4IFXModifierBaseDecoder@@6B@ 100b6e50     Importing:IFXModifierBaseDecoder.obj
 0003:00002e68       ??_R3IFXModifierBaseDecoder@@8 100b6e68     Importing:IFXModifierBaseDecoder.obj
 0003:00002e78       ??_R2IFXModifierBaseDecoder@@8 100b6e78     Importing:IFXModifierBaseDecoder.obj
 0003:00002e80       ?_IFXMatrix4x4_Multiply@@3P6AXPAMPBM1@ZA 100b6e80     Importing:IFXMatrix4x4.obj
 0003:00002e84       ?_IFXMatrix4x4_MakeIdentity@@3P6AXPAM@ZA 100b6e84     Importing:IFXMatrix4x4.obj
 0003:00002e88       ?_IFXMatrix4x4_Scale@@3P6AXPAMPBM@ZA 100b6e88     Importing:IFXMatrix4x4.obj
 0003:00002e8c       ?_IFXMatrix4x4_Transpose@@3P6AXPAM@ZA 100b6e8c     Importing:IFXMatrix4x4.obj
 0003:00002e90       ?_IFXMatrix4x4_CalcDeterminant3x3@@3P6AMPBM@ZA 100b6e90     Importing:IFXMatrix4x4.obj
 0003:00002e94       ?_IFXMatrix4x4_CalcDeterminant@@3P6AMPBM@ZA 100b6e94     Importing:IFXMatrix4x4.obj
 0003:00002e98       ?_IFXMatrix4x4_Invert3x4@@3P6AHPAMPBM@ZA 100b6e98     Importing:IFXMatrix4x4.obj
 0003:00002e9c       ?_IFXMatrix4x4_Invert@@3P6AHPAMPBM@ZA 100b6e9c     Importing:IFXMatrix4x4.obj
 0003:00002ea0       ?_IFXMatrix4x4_Multiply3x4@@3P6AXPAMPBM1@ZA 100b6ea0     Importing:IFXMatrix4x4.obj
 0003:00002ea8       ??_R4CIFXNodeBaseDecoder@@6B@ 100b6ea8     Importing:CIFXNodeDecoder.obj
 0003:00002ec0       ??_R3CIFXNodeBaseDecoder@@8 100b6ec0     Importing:CIFXNodeDecoder.obj
 0003:00002ed0       ??_R2CIFXNodeBaseDecoder@@8 100b6ed0     Importing:CIFXNodeDecoder.obj
 0003:00002ed8       ??_R4IFXInternetConnectionX@@6B@ 100b6ed8     Importing:IFXInternetConnectionX.obj
 0003:00002ef0       ??_R0?AVIFXInternetConnectionX@@@8 100b6ef0     Importing:IFXInternetConnectionX.obj
 0003:00002f18       ??_R3IFXInternetConnectionX@@8 100b6f18     Importing:IFXInternetConnectionX.obj
 0003:00002f28       ??_R2IFXInternetConnectionX@@8 100b6f28     Importing:IFXInternetConnectionX.obj
 0003:00002f30       ??_R1A@?0A@A@IFXInternetConnectionX@@8 100b6f30     Importing:IFXInternetConnectionX.obj
 0003:00002f48       ??_R4IFXHTTPConnectionX@@6B@ 100b6f48     Importing:IFXInternetConnectionX.obj
 0003:00002f60       ??_R0?AVIFXHTTPConnectionX@@@8 100b6f60     Importing:IFXInternetConnectionX.obj
 0003:00002f88       ??_R3IFXHTTPConnectionX@@8 100b6f88     Importing:IFXInternetConnectionX.obj
 0003:00002f98       ??_R2IFXHTTPConnectionX@@8 100b6f98     Importing:IFXInternetConnectionX.obj
 0003:00002fa0       ??_R1A@?0A@A@IFXHTTPConnectionX@@8 100b6fa0     Importing:IFXInternetConnectionX.obj
 0003:00002fb8       ??_R4IFXFTPConnectionX@@6B@ 100b6fb8     Importing:IFXInternetConnectionX.obj
 0003:00002fd0       ??_R0?AVIFXFTPConnectionX@@@8 100b6fd0     Importing:IFXInternetConnectionX.obj
 0003:00002ff0       ??_R3IFXFTPConnectionX@@8  100b6ff0     Importing:IFXInternetConnectionX.obj
 0003:00003000       ??_R2IFXFTPConnectionX@@8  100b7000     Importing:IFXInternetConnectionX.obj
 0003:00003008       ??_R1A@?0A@A@IFXFTPConnectionX@@8 100b7008     Importing:IFXInternetConnectionX.obj
 0003:00003020       __LIB_VERSIONIMF           100b7020     libmmt:libm_error.omu
 0003:00003024       _pmatherrf                 100b7024     libmmt:libm_error.omu
 0003:00003028       _pmatherr                  100b7028     libmmt:libm_error.omu
 0003:0000302c       _pmatherrl                 100b702c     libmmt:libm_error.omu
 0003:00003030       __aexit_rtn                100b7030     LIBCMTD:dllcrt0.obj
 0003:00003040       ?__pMyUnhandledExceptionFilter@@3PAXA 100b7040     LIBCMTD:throw.obj
 0003:00003044       __fltused                  100b7044     LIBCMTD:fpinit.obj
 0003:00003048       __ldused                   100b7048     LIBCMTD:fpinit.obj
 0003:0000304c       __FPinit                   100b704c     LIBCMTD:fpinit.obj
 0003:00003050       __FPmtinit                 100b7050     LIBCMTD:fpinit.obj
 0003:00003054       __FPmtterm                 100b7054     LIBCMTD:fpinit.obj
 0003:00003060       __NLG_Destination          100b7060     LIBCMTD:exsup.obj
 0003:00003070       ??_R0?AVtype_info@@@8      100b7070     LIBCMTD:typinfo.obj
 0003:00003090       __iob                      100b7090     LIBCMTD:_file.obj
 0003:00003478       ___tlsindex                100b7478     LIBCMTD:tidtable.obj
 0003:0000347c       __crtDbgFlag               100b747c     LIBCMTD:dbgheap.obj
 0003:00003484       __crtBreakAlloc            100b7484     LIBCMTD:dbgheap.obj
 0003:000034a0       ___badioinfo               100b74a0     LIBCMTD:ioinit.obj
 0003:000034c4       __amblksiz                 100b74c4     LIBCMTD:heapinit.obj
 0003:000034c8       __XcptActTab               100b74c8     LIBCMTD:winxfltr.obj
 0003:00003540       __First_FPE_Indx           100b7540     LIBCMTD:winxfltr.obj
 0003:00003544       __Num_FPE                  100b7544     LIBCMTD:winxfltr.obj
 0003:00003548       __XcptActTabSize           100b7548     LIBCMTD:winxfltr.obj
 0003:0000354c       __XcptActTabCount          100b754c     LIBCMTD:winxfltr.obj
 0003:000035e8       __cfltcvt_tab              100b75e8     LIBCMTD:cmiscdat.obj
 0003:00003610       ___security_cookie         100b7610     LIBCMTD:seccook.obj
 0003:00003614       ?__pInconsistency@@3P6AXXZA 100b7614     LIBCMTD:hooks.obj
 0003:00003738       __crtAssertBusy            100b7738     LIBCMTD:dbgrpt.obj
 0003:0000373c       __CrtDbgMode               100b773c     LIBCMTD:dbgrpt.obj
 0003:00003748       __CrtDbgFile               100b7748     LIBCMTD:dbgrpt.obj
 0003:00003768       ___initiallocinfo          100b7768     LIBCMTD:setlocal.obj
 0003:000037bc       ___ptlocinfo               100b77bc     LIBCMTD:setlocal.obj
 0003:000038f8       ___lc_category             100b78f8     LIBCMTD:setlocal.obj
 0003:00003940       __pctype                   100b7940     LIBCMTD:ctype.obj
 0003:00003944       __pwctype                  100b7944     LIBCMTD:ctype.obj
 0003:00003a48       __pfnAllocHook             100b7a48     LIBCMTD:dbghook.obj
 0003:00003a50       ___mb_cur_max              100b7a50     LIBCMTD:nlsdata1.obj
 0003:00003a54       ___decimal_point           100b7a54     LIBCMTD:nlsdata1.obj
 0003:00003a58       ___decimal_point_length    100b7a58     LIBCMTD:nlsdata1.obj
 0003:00003a90       ___lc_time_curr            100b7a90     LIBCMTD:strftime.obj
 0003:00003a98       ___lc_time_c               100b7a98     LIBCMTD:strftime.obj
 0003:00003b50       ___lconv_static_decimal    100b7b50     LIBCMTD:lconv.obj
 0003:00003b54       ___lconv_c                 100b7b54     LIBCMTD:lconv.obj
 0003:00003b84       ___lconv                   100b7b84     LIBCMTD:lconv.obj
 0003:00003b88       ___lc_clike                100b7b88     LIBCMTD:nlsdata2.obj
 0003:00003b90       ___nullstring              100b7b90     LIBCMTD:output.obj
 0003:00003b94       ___wnullstring             100b7b94     LIBCMTD:output.obj
 0003:00003ba0       __timezone                 100b7ba0     LIBCMTD:timeset.obj
 0003:00003ba4       __daylight                 100b7ba4     LIBCMTD:timeset.obj
 0003:00003ba8       __dstbias                  100b7ba8     LIBCMTD:timeset.obj
 0003:00003c30       __tzname                   100b7c30     LIBCMTD:timeset.obj
 0003:00003c50       __lpdays                   100b7c50     LIBCMTD:days.obj
 0003:00003c84       __days                     100b7c84     LIBCMTD:days.obj
 0003:00003cc0       __pow10pos                 100b7cc0     LIBCMTD:constpow.obj
 0003:00003e20       __pow10neg                 100b7e20     LIBCMTD:constpow.obj
 0003:00004a80       ?m_DefaultBlockTypes@CIFXBTTHash@@0PAVIFXBTTHashEntry@IFXBTTHash@@A 100b8a80     Importing:CIFXBTTHash.obj
 0003:00004d20       ?g_countActiveObjects@@3IA 100b8d20     Importing:IFXCorePluginStatic.obj
 0003:00004d2c       __aenvptr                  100b8d2c     LIBCMTD:dllcrt0.obj
 0003:00004d30       __wenvptr                  100b8d30     LIBCMTD:dllcrt0.obj
 0003:00004d34       ___error_mode              100b8d34     LIBCMTD:dllcrt0.obj
 0003:00004d38       ___app_type                100b8d38     LIBCMTD:dllcrt0.obj
 0003:00004d3c       ___fastflag                100b8d3c     LIBCMTD:fpinit.obj
 0003:00004d40       __adjust_fdiv              100b8d40     LIBCMTD:fpinit.obj
 0003:00004d44       ___pPurecall               100b8d44     LIBCMTD:purevirt.obj
 0003:00004d48       __cflush                   100b8d48     LIBCMTD:_file.obj
 0003:00004d4c       __umaskval                 100b8d4c     LIBCMTD:crt0dat.obj
 0003:00004d50       __osplatform               100b8d50     LIBCMTD:crt0dat.obj
 0003:00004d54       __osver                    100b8d54     LIBCMTD:crt0dat.obj
 0003:00004d58       __winver                   100b8d58     LIBCMTD:crt0dat.obj
 0003:00004d5c       __winmajor                 100b8d5c     LIBCMTD:crt0dat.obj
 0003:00004d60       __winminor                 100b8d60     LIBCMTD:crt0dat.obj
 0003:00004d64       ___argc                    100b8d64     LIBCMTD:crt0dat.obj
 0003:00004d68       ___argv                    100b8d68     LIBCMTD:crt0dat.obj
 0003:00004d6c       ___wargv                   100b8d6c     LIBCMTD:crt0dat.obj
 0003:00004d70       __environ                  100b8d70     LIBCMTD:crt0dat.obj
 0003:00004d74       ___initenv                 100b8d74     LIBCMTD:crt0dat.obj
 0003:00004d78       __wenviron                 100b8d78     LIBCMTD:crt0dat.obj
 0003:00004d7c       ___winitenv                100b8d7c     LIBCMTD:crt0dat.obj
 0003:00004d80       __pgmptr                   100b8d80     LIBCMTD:crt0dat.obj
 0003:00004d84       __wpgmptr                  100b8d84     LIBCMTD:crt0dat.obj
 0003:00004d88       __exitflag                 100b8d88     LIBCMTD:crt0dat.obj
 0003:00004d8c       __C_Termination_Done       100b8d8c     LIBCMTD:crt0dat.obj
 0003:00004d90       __C_Exit_Done              100b8d90     LIBCMTD:crt0dat.obj
 0003:00004d98       _gpFlsAlloc                100b8d98     LIBCMTD:tidtable.obj
 0003:00004d9c       _gpFlsGetValue             100b8d9c     LIBCMTD:tidtable.obj
 0003:00004da0       _gpFlsSetValue             100b8da0     LIBCMTD:tidtable.obj
 0003:00004da4       _gpFlsFree                 100b8da4     LIBCMTD:tidtable.obj
 0003:00004ed4       __adbgmsg                  100b8ed4     LIBCMTD:crt0msg.obj
 0003:00005048       __stdbuf                   100b9048     LIBCMTD:_sftbuf.obj
 0003:00005054       __newmode                  100b9054     LIBCMTD:_newmode.obj
 0003:00005058       ?_pnhHeap@@3P6AHI@ZA       100b9058     LIBCMTD:handler.obj
 0003:000050d4       ___lconv_static_null       100b90d4     LIBCMTD:lconv.obj
 0003:000050d8       ___lc_time_intl            100b90d8     LIBCMTD:inittime.obj
 0003:000050dc       ___lconv_intl              100b90dc     LIBCMTD:initmon.obj
 0003:000050e0       ___lc_handle               100b90e0     LIBCMTD:nlsdata2.obj
 0003:000050f8       ___lc_codepage             100b90f8     LIBCMTD:nlsdata2.obj
 0003:000050fc       ___lc_collate_cp           100b90fc     LIBCMTD:nlsdata2.obj
 0003:00005104       ___lc_id                   100b9104     LIBCMTD:nlsdata3.obj
 0003:00005224       ___intel_cpu_indicator     100b9224     libirc:cpu_disp.obj
 0003:00005a40       ?g_QPCFrequency@@3T_LARGE_INTEGER@@A 100b9a40     Platform:IFXOSUtilities.obj
 0003:00005a48       ?g_bUseQPC@@3HA            100b9a48     Platform:IFXOSUtilities.obj
 0003:00005a4c       ?g_bInitialized@@3HA       100b9a4c     Platform:IFXOSUtilities.obj
 0003:00005a50       ?g_eax@@3IA                100b9a50     Platform:IFXOSUtilities.obj
 0003:00005a54       ?g_ebx@@3IA                100b9a54     Platform:IFXOSUtilities.obj
 0003:00005a58       ?g_ecx@@3IA                100b9a58     Platform:IFXOSUtilities.obj
 0003:00005a5c       ?g_edx@@3IA                100b9a5c     Platform:IFXOSUtilities.obj
 0003:00006280       __commode                  100ba280     LIBCMTD:ncommode.obj
 0003:00006284       __fmode                    100ba284     LIBCMTD:txtmode.obj
 0003:00006288       ??_B?1??Identity@IFXQuaternion@@SAABV1@XZ@51 100ba288     <common>
 0003:000062a0       ?identity@?1??Identity@IFXQuaternion@@SAABV2@XZ@4V2@B 100ba2a0     <common>
 0003:000062b0       ___ctype1                  100ba2b0     <common>
 0003:000062c0       ___ctype1_refcount         100ba2c0     <common>
 0003:000062c4       ___lconv_mon_refcount      100ba2c4     <common>
 0003:000062d4       ___lconv_intl_refcount     100ba2d4     <common>
 0003:000062d8       ___lconv_num_refcount      100ba2d8     <common>
 0003:000062e4       ___sbh_initialized         100ba2e4     <common>
 0003:000062f8       ___sbh_pHeaderDefer        100ba2f8     <common>
 0003:000062fc       ___sbh_cntHeaderList       100ba2fc     <common>
 0003:00006300       ___sbh_pHeaderList         100ba300     <common>
 0003:00006304       ___sbh_threshold           100ba304     <common>
 0003:00006308       ___sbh_pHeaderScan         100ba308     <common>
 0003:0000630c       ___sbh_sizeHeaderList      100ba30c     <common>
 0003:00006310       ___sbh_indGroupDefer       100ba310     <common>
 0003:00006314       ___mblcid                  100ba314     <common>
 0003:0000638c       ___ptmbcinfo               100ba38c     <common>
 0003:00006390       ___ismbcodepage            100ba390     <common>
 0003:000063a0       __mbctype                  100ba3a0     <common>
 0003:000064a4       ___mbcodepage              100ba4a4     <common>
 0003:000064b0       ___mbulinfo                100ba4b0     <common>
 0003:000064c0       __mbcasemap                100ba4c0     <common>
 0003:000065c0       ___setlc_active            100ba5c0     <common>
 0003:000065d0       ___unguarded_readlc_active 100ba5d0     <common>
 0003:000065d4       __pfnReportHook            100ba5d4     <common>
 0003:000065e4       __pReportHookList          100ba5e4     <common>
 0003:000065e8       __crtheap                  100ba5e8     <common>
 0003:000065f8       ___active_heap             100ba5f8     <common>
 0003:000065fc       __nhandle                  100ba5fc     <common>
 0003:00006640       ___pioinfo                 100ba640     <common>
 0003:00006740       __pfnDumpClient            100ba740     <common>
 0003:0000674c       ___env_initialized         100ba74c     <common>
 0003:0000675c       ___onexitend               100ba75c     <common>
 0003:00006760       ___onexitbegin             100ba760     <common>
 0003:00006764       ___mbctype_initialized     100ba764     <common>
 0003:00006768       ___piob                    100ba768     <common>
 0003:00006ac0       __bufin                    100baac0     <common>
 0003:00007ac0       __nstream                  100bbac0     <common>
 0003:00007ac4       __acmdln                   100bbac4     <common>
 0003:00007ad4       __pRawDllMain              100bbad4     <common>
 0004:00000000       __IMPORT_DESCRIPTOR_KERNEL32 100bc000     kernel32:KERNEL32.dll
 0004:00000014       __IMPORT_DESCRIPTOR_IFXCore 100bc014     IFXCore:IFXCore.dll
 0004:00000028       __IMPORT_DESCRIPTOR_USER32 100bc028     user32:USER32.dll
 0004:0000003c       __IMPORT_DESCRIPTOR_ADVAPI32 100bc03c     advapi32:ADVAPI32.dll
 0004:00000050       __IMPORT_DESCRIPTOR_WINMM  100bc050     winmm:WINMM.dll
 0004:00000064       __IMPORT_DESCRIPTOR_WS2_32 100bc064     ws2_32:WS2_32.dll
 0004:00000078       __NULL_IMPORT_DESCRIPTOR   100bc078     kernel32:KERNEL32.dll
 0004:000003d0       __imp__RegQueryValueExW@24 100bc3d0     advapi32:ADVAPI32.dll
 0004:000003d4       __imp__RegCloseKey@4       100bc3d4     advapi32:ADVAPI32.dll
 0004:000003d8       __imp__RegOpenKeyExW@20    100bc3d8     advapi32:ADVAPI32.dll
 0004:000003dc       \177ADVAPI32_NULL_THUNK_DATA 100bc3dc     advapi32:ADVAPI32.dll
 0004:00000408       __imp_@IFXSetMemoryFunctions@12 100bc408     IFXCore:IFXCore.dll
 0004:0000040c       __imp_@IFXReallocate@8     100bc40c     IFXCore:IFXCore.dll
 0004:00000410       __imp_@IFXAllocate@4       100bc410     IFXCore:IFXCore.dll
 0004:00000414       __imp_@IFXDeallocate@4     100bc414     IFXCore:IFXCore.dll
 0004:00000418       __imp_@IFXCreateComponent@12 100bc418     IFXCore:IFXCore.dll
 0004:0000041c       __imp_@IFXGetMemoryFunctions@12 100bc41c     IFXCore:IFXCore.dll
 0004:00000420       \177IFXCore_NULL_THUNK_DATA 100bc420     IFXCore:IFXCore.dll
 0004:00000450       __imp__GetVersionExA@4     100bc450     kernel32:KERNEL32.dll
 0004:00000454       __imp__RaiseException@16   100bc454     kernel32:KERNEL32.dll
 0004:00000458       __imp__RtlUnwind@16        100bc458     kernel32:KERNEL32.dll
 0004:0000045c       __imp__EnterCriticalSection@4 100bc45c     kernel32:KERNEL32.dll
 0004:00000460       __imp__LeaveCriticalSection@4 100bc460     kernel32:KERNEL32.dll
 0004:00000464       __imp__TerminateProcess@8  100bc464     kernel32:KERNEL32.dll
 0004:00000468       __imp__GetCurrentProcess@0 100bc468     kernel32:KERNEL32.dll
 0004:0000046c       __imp__ExitProcess@4       100bc46c     kernel32:KERNEL32.dll
 0004:00000470       __imp__GetProcAddress@8    100bc470     kernel32:KERNEL32.dll
 0004:00000474       __imp__GetModuleHandleA@4  100bc474     kernel32:KERNEL32.dll
 0004:00000478       __imp__TlsAlloc@0          100bc478     kernel32:KERNEL32.dll
 0004:0000047c       __imp__TlsFree@4           100bc47c     kernel32:KERNEL32.dll
 0004:00000480       __imp__TlsSetValue@8       100bc480     kernel32:KERNEL32.dll
 0004:00000484       __imp__TlsGetValue@4       100bc484     kernel32:KERNEL32.dll
 0004:00000488       __imp__SetLastError@4      100bc488     kernel32:KERNEL32.dll
 0004:0000048c       __imp__GetLastError@0      100bc48c     kernel32:KERNEL32.dll
 0004:00000490       __imp__GetCurrentThread@0  100bc490     kernel32:KERNEL32.dll
 0004:00000494       __imp__IsBadWritePtr@8     100bc494     kernel32:KERNEL32.dll
 0004:00000498       __imp__IsBadReadPtr@8      100bc498     kernel32:KERNEL32.dll
 0004:0000049c       __imp__HeapValidate@12     100bc49c     kernel32:KERNEL32.dll
 0004:000004a0       __imp__SetHandleCount@4    100bc4a0     kernel32:KERNEL32.dll
 0004:000004a4       __imp__GetStdHandle@4      100bc4a4     kernel32:KERNEL32.dll
 0004:000004a8       __imp__GetFileType@4       100bc4a8     kernel32:KERNEL32.dll
 0004:000004ac       __imp__GetStartupInfoA@4   100bc4ac     kernel32:KERNEL32.dll
 0004:000004b0       __imp__DeleteCriticalSection@4 100bc4b0     kernel32:KERNEL32.dll
 0004:000004b4       __imp__GetModuleFileNameA@12 100bc4b4     kernel32:KERNEL32.dll
 0004:000004b8       __imp__FreeEnvironmentStringsA@4 100bc4b8     kernel32:KERNEL32.dll
 0004:000004bc       __imp__GetEnvironmentStrings@0 100bc4bc     kernel32:KERNEL32.dll
 0004:000004c0       __imp__FreeEnvironmentStringsW@4 100bc4c0     kernel32:KERNEL32.dll
 0004:000004c4       __imp__WideCharToMultiByte@32 100bc4c4     kernel32:KERNEL32.dll
 0004:000004c8       __imp__GetEnvironmentStringsW@0 100bc4c8     kernel32:KERNEL32.dll
 0004:000004cc       __imp__HeapDestroy@4       100bc4cc     kernel32:KERNEL32.dll
 0004:000004d0       __imp__HeapCreate@12       100bc4d0     kernel32:KERNEL32.dll
 0004:000004d4       __imp__HeapFree@12         100bc4d4     kernel32:KERNEL32.dll
 0004:000004d8       __imp__VirtualFree@12      100bc4d8     kernel32:KERNEL32.dll
 0004:000004dc       __imp__UnhandledExceptionFilter@4 100bc4dc     kernel32:KERNEL32.dll
 0004:000004e0       __imp__WriteFile@20        100bc4e0     kernel32:KERNEL32.dll
 0004:000004e4       __imp__SetUnhandledExceptionFilter@4 100bc4e4     kernel32:KERNEL32.dll
 0004:000004e8       __imp__FatalAppExitA@8     100bc4e8     kernel32:KERNEL32.dll
 0004:000004ec       __imp__DebugBreak@0        100bc4ec     kernel32:KERNEL32.dll
 0004:000004f0       __imp__InterlockedDecrement@4 100bc4f0     kernel32:KERNEL32.dll
 0004:000004f4       __imp__OutputDebugStringA@4 100bc4f4     kernel32:KERNEL32.dll
 0004:000004f8       __imp__GetCommandLineA@0   100bc4f8     kernel32:KERNEL32.dll
 0004:000004fc       __imp__GetCurrentThreadId@0 100bc4fc     kernel32:KERNEL32.dll
 0004:00000500       __imp__SetFilePointer@16   100bc500     kernel32:KERNEL32.dll
 0004:00000504       __imp__ReadFile@20         100bc504     kernel32:KERNEL32.dll
 0004:00000508       __imp__CloseHandle@4       100bc508     kernel32:KERNEL32.dll
 0004:0000050c       __imp__MultiByteToWideChar@24 100bc50c     kernel32:KERNEL32.dll
 0004:00000510       __imp__LCMapStringA@24     100bc510     kernel32:KERNEL32.dll
 0004:00000514       __imp__LCMapStringW@24     100bc514     kernel32:KERNEL32.dll
 0004:00000518       __imp__GetACP@0            100bc518     kernel32:KERNEL32.dll
 0004:0000051c       __imp__GetOEMCP@0          100bc51c     kernel32:KERNEL32.dll
 0004:00000520       __imp__GetCPInfo@8         100bc520     kernel32:KERNEL32.dll
 0004:00000524       __imp__HeapAlloc@12        100bc524     kernel32:KERNEL32.dll
 0004:00000528       __imp__HeapReAlloc@16      100bc528     kernel32:KERNEL32.dll
 0004:0000052c       __imp__VirtualAlloc@16     100bc52c     kernel32:KERNEL32.dll
 0004:00000530       __imp__InitializeCriticalSection@4 100bc530     kernel32:KERNEL32.dll
 0004:00000534       __imp__VirtualQuery@12     100bc534     kernel32:KERNEL32.dll
 0004:00000538       __imp__InterlockedExchange@8 100bc538     kernel32:KERNEL32.dll
 0004:0000053c       __imp__IsBadCodePtr@4      100bc53c     kernel32:KERNEL32.dll
 0004:00000540       __imp__SetConsoleCtrlHandler@8 100bc540     kernel32:KERNEL32.dll
 0004:00000544       __imp__SetStdHandle@8      100bc544     kernel32:KERNEL32.dll
 0004:00000548       __imp__FlushFileBuffers@4  100bc548     kernel32:KERNEL32.dll
 0004:0000054c       __imp__GetTimeFormatA@24   100bc54c     kernel32:KERNEL32.dll
 0004:00000550       __imp__GetDateFormatA@24   100bc550     kernel32:KERNEL32.dll
 0004:00000554       __imp__GetStringTypeA@20   100bc554     kernel32:KERNEL32.dll
 0004:00000558       __imp__GetStringTypeW@16   100bc558     kernel32:KERNEL32.dll
 0004:0000055c       __imp__IsValidLocale@8     100bc55c     kernel32:KERNEL32.dll
 0004:00000560       __imp__IsValidCodePage@4   100bc560     kernel32:KERNEL32.dll
 0004:00000564       __imp__GetLocaleInfoA@16   100bc564     kernel32:KERNEL32.dll
 0004:00000568       __imp__EnumSystemLocalesA@8 100bc568     kernel32:KERNEL32.dll
 0004:0000056c       __imp__GetUserDefaultLCID@0 100bc56c     kernel32:KERNEL32.dll
 0004:00000570       __imp__VirtualProtect@16   100bc570     kernel32:KERNEL32.dll
 0004:00000574       __imp__GetSystemInfo@4     100bc574     kernel32:KERNEL32.dll
 0004:00000578       __imp__QueryPerformanceCounter@4 100bc578     kernel32:KERNEL32.dll
 0004:0000057c       __imp__GetTickCount@0      100bc57c     kernel32:KERNEL32.dll
 0004:00000580       __imp__GetCurrentProcessId@0 100bc580     kernel32:KERNEL32.dll
 0004:00000584       __imp__GetSystemTimeAsFileTime@4 100bc584     kernel32:KERNEL32.dll
 0004:00000588       __imp__GetTimeZoneInformation@4 100bc588     kernel32:KERNEL32.dll
 0004:0000058c       __imp__GetLocaleInfoW@16   100bc58c     kernel32:KERNEL32.dll
 0004:00000590       __imp__CompareStringA@24   100bc590     kernel32:KERNEL32.dll
 0004:00000594       __imp__CompareStringW@24   100bc594     kernel32:KERNEL32.dll
 0004:00000598       __imp__SetEnvironmentVariableA@8 100bc598     kernel32:KERNEL32.dll
 0004:0000059c       __imp__GetSystemDefaultLangID@0 100bc59c     kernel32:KERNEL32.dll
 0004:000005a0       __imp__QueryPerformanceFrequency@4 100bc5a0     kernel32:KERNEL32.dll
 0004:000005a4       __imp__Sleep@4             100bc5a4     kernel32:KERNEL32.dll
 0004:000005a8       __imp__OutputDebugStringW@4 100bc5a8     kernel32:KERNEL32.dll
 0004:000005ac       __imp__LoadLibraryW@4      100bc5ac     kernel32:KERNEL32.dll
 0004:000005b0       __imp__GetModuleHandleW@4  100bc5b0     kernel32:KERNEL32.dll
 0004:000005b4       __imp__GetModuleFileNameW@12 100bc5b4     kernel32:KERNEL32.dll
 0004:000005b8       __imp__FreeLibrary@4       100bc5b8     kernel32:KERNEL32.dll
 0004:000005bc       __imp__CreateFileW@28      100bc5bc     kernel32:KERNEL32.dll
 0004:000005c0       __imp__SetEndOfFile@4      100bc5c0     kernel32:KERNEL32.dll
 0004:000005c4       __imp__InterlockedIncrement@4 100bc5c4     kernel32:KERNEL32.dll
 0004:000005c8       __imp__LoadLibraryA@4      100bc5c8     kernel32:KERNEL32.dll
 0004:000005cc       __imp__DisableThreadLibraryCalls@4 100bc5cc     kernel32:KERNEL32.dll
 0004:000005d0       \177KERNEL32_NULL_THUNK_DATA 100bc5d0     kernel32:KERNEL32.dll
 0004:00000648       __imp__MessageBoxW@16      100bc648     user32:USER32.dll
 0004:0000064c       \177USER32_NULL_THUNK_DATA 100bc64c     user32:USER32.dll
 0004:00000678       __imp__timeEndPeriod@4     100bc678     winmm:WINMM.dll
 0004:0000067c       __imp__timeGetTime@0       100bc67c     winmm:WINMM.dll
 0004:00000680       __imp__timeBeginPeriod@4   100bc680     winmm:WINMM.dll
 0004:00000684       \177WINMM_NULL_THUNK_DATA  100bc684     winmm:WINMM.dll
 0004:000006b0       __imp__WSAStartup@8        100bc6b0     ws2_32:WS2_32.dll
 0004:000006b4       __imp__socket@12           100bc6b4     ws2_32:WS2_32.dll
 0004:000006b8       __imp__closesocket@4       100bc6b8     ws2_32:WS2_32.dll
 0004:000006bc       __imp__WSACleanup@0        100bc6bc     ws2_32:WS2_32.dll
 0004:000006c0       __imp__htons@4             100bc6c0     ws2_32:WS2_32.dll
 0004:000006c4       __imp__gethostbyname@4     100bc6c4     ws2_32:WS2_32.dll
 0004:000006c8       __imp__WSAGetLastError@0   100bc6c8     ws2_32:WS2_32.dll
 0004:000006cc       __imp__connect@12          100bc6cc     ws2_32:WS2_32.dll
 0004:000006d0       __imp__recv@16             100bc6d0     ws2_32:WS2_32.dll
 0004:000006d4       __imp__send@16             100bc6d4     ws2_32:WS2_32.dll
 0004:000006d8       __imp__setsockopt@20       100bc6d8     ws2_32:WS2_32.dll
 0004:000006dc       __imp__getsockopt@20       100bc6dc     ws2_32:WS2_32.dll
 0004:000006e0       \177WS2_32_NULL_THUNK_DATA 100bc6e0     ws2_32:WS2_32.dll
 0005:000017f4       ??_7IFXUnknown@@6B@        100bf7f4     Importing:CIFXAuthorCLODDecoder.obj
 0005:00001804       ??_7IFXException@@6B@      100bf804     Importing:CIFXAuthorCLODDecoder.obj
 0005:0000180c       ??_7IFXDecoderX@@6B0@@     100bf80c     Importing:CIFXAuthorCLODDecoder.obj
 0005:0000181c       ??_7IFXDecoderX@@6BIFXUnknown@@@ 100bf81c     Importing:CIFXAuthorCLODDecoder.obj
 0005:0000182c       ??_7CIFXAuthorCLODDecoder@@6BIFXUnknown@@@ 100bf82c     Importing:CIFXAuthorCLODDecoder.obj
 0005:0000183c       ??_7CIFXAuthorCLODDecoder@@6BIFXDecoderX@@@ 100bf83c     Importing:CIFXAuthorCLODDecoder.obj
 0005:0000184c       ??_7CIFXAuthorCLODDecoder@@6BIFXModifierBaseDecoder@@@ 100bf84c     Importing:CIFXAuthorCLODDecoder.obj
 0005:000019e4       ??_7CIFXGroupDecoder@@6BIFXUnknown@@@ 100bf9e4     Importing:CIFXGroupDecoder.obj
 0005:000019f4       ??_7CIFXGroupDecoder@@6BIFXDecoderX@@@ 100bf9f4     Importing:CIFXGroupDecoder.obj
 0005:00001a04       ??_7CIFXGroupDecoder@@6BCIFXNodeBaseDecoder@@@ 100bfa04     Importing:CIFXGroupDecoder.obj
 0005:000029a4       ??_7CIFXLightDecoder@@6BIFXUnknown@@@ 100c09a4     Importing:CIFXLightDecoder.obj
 0005:000029b4       ??_7CIFXLightDecoder@@6BIFXDecoderX@@@ 100c09b4     Importing:CIFXLightDecoder.obj
 0005:000029c4       ??_7CIFXLightDecoder@@6BCIFXNodeBaseDecoder@@@ 100c09c4     Importing:CIFXLightDecoder.obj
 0005:00003c64       ??_7CIFXLightResourceDecoder@@6BIFXUnknown@@@ 100c1c64     Importing:CIFXLightResourceDecoder.obj
 0005:00003c74       ??_7CIFXLightResourceDecoder@@6BIFXDecoderX@@@ 100c1c74     Importing:CIFXLightResourceDecoder.obj
 0005:00003c84       ??_7CIFXLightResourceDecoder@@6BCIFXNodeBaseDecoder@@@ 100c1c84     Importing:CIFXLightResourceDecoder.obj
 0005:00005d64       ??_7CIFXViewResourceDecoder@@6BIFXUnknown@@@ 100c3d64     Importing:CIFXViewResourceDecoder.obj
 0005:00005d74       ??_7CIFXViewResourceDecoder@@6BIFXDecoderX@@@ 100c3d74     Importing:CIFXViewResourceDecoder.obj
 0005:00005d84       ??_7CIFXViewResourceDecoder@@6BCIFXNodeBaseDecoder@@@ 100c3d84     Importing:CIFXViewResourceDecoder.obj
 0005:00007684       ??_7CIFXMaterialDecoder@@6B0@@ 100c5684     Importing:CIFXMaterialDecoder.obj
 0005:0000768c       ??_7CIFXMaterialDecoder@@6BIFXUnknown@@@ 100c568c     Importing:CIFXMaterialDecoder.obj
 0005:0000769c       ??_7CIFXMaterialDecoder@@6BIFXDecoderX@@@ 100c569c     Importing:CIFXMaterialDecoder.obj
 0005:00008004       ??_7CIFXModelDecoder@@6BIFXUnknown@@@ 100c6004     Importing:CIFXModelDecoder.obj
 0005:00008014       ??_7CIFXModelDecoder@@6BIFXDecoderX@@@ 100c6014     Importing:CIFXModelDecoder.obj
 0005:00008024       ??_7CIFXModelDecoder@@6BCIFXNodeBaseDecoder@@@ 100c6024     Importing:CIFXModelDecoder.obj
 0005:00009544       ??_7CIFXAnimationModifierDecoder@@6BIFXUnknown@@@ 100c7544     Importing:CIFXAnimationModifierDecoder.obj
 0005:00009554       ??_7CIFXAnimationModifierDecoder@@6BIFXDecoderX@@@ 100c7554     Importing:CIFXAnimationModifierDecoder.obj
 0005:00009564       ??_7CIFXAnimationModifierDecoder@@6BIFXModifierBaseDecoder@@@ 100c7564     Importing:CIFXAnimationModifierDecoder.obj
 0005:0000b724       ??_7CIFXMotionDecoder@@6B0@@ 100c9724     Importing:CIFXMotionDecoder.obj
 0005:0000b72c       ??_7CIFXMotionDecoder@@6BIFXUnknown@@@ 100c972c     Importing:CIFXMotionDecoder.obj
 0005:0000b73c       ??_7CIFXMotionDecoder@@6BIFXDecoderX@@@ 100c973c     Importing:CIFXMotionDecoder.obj
 0005:0000c944       ??_7CIFXGlyphGeneratorDecoder@@6BIFXUnknown@@@ 100ca944     Importing:CIFXGlyphModifierDecoder.obj
 0005:0000c954       ??_7CIFXGlyphGeneratorDecoder@@6BIFXDecoderX@@@ 100ca954     Importing:CIFXGlyphModifierDecoder.obj
 0005:0000c964       ??_7CIFXGlyphGeneratorDecoder@@6BIFXModifierBaseDecoder@@@ 100ca964     Importing:CIFXGlyphModifierDecoder.obj
 0005:0000f824       ??_7CIFXShaderLitTextureDecoder@@6B0@@ 100cd824     Importing:CIFXShaderLitTextureDecoder.obj
 0005:0000f82c       ??_7CIFXShaderLitTextureDecoder@@6BIFXUnknown@@@ 100cd82c     Importing:CIFXShaderLitTextureDecoder.obj
 0005:0000f83c       ??_7CIFXShaderLitTextureDecoder@@6BIFXDecoderX@@@ 100cd83c     Importing:CIFXShaderLitTextureDecoder.obj
 0005:00010684       ??_7CIFXTextureDecoder@@6B0@@ 100ce684     Importing:CIFXTextureDecoder.obj
 0005:0001068c       ??_7CIFXTextureDecoder@@6BIFXUnknown@@@ 100ce68c     Importing:CIFXTextureDecoder.obj
 0005:0001069c       ??_7CIFXTextureDecoder@@6BIFXDecoderX@@@ 100ce69c     Importing:CIFXTextureDecoder.obj
 0005:000112e4       ??_7CIFXSubdivisionModifierDecoder@@6BIFXUnknown@@@ 100cf2e4     Importing:CIFXSubdivisionModifierDecoder.obj
 0005:000112f4       ??_7CIFXSubdivisionModifierDecoder@@6BIFXDecoderX@@@ 100cf2f4     Importing:CIFXSubdivisionModifierDecoder.obj
 0005:00011304       ??_7CIFXSubdivisionModifierDecoder@@6BIFXModifierBaseDecoder@@@ 100cf304     Importing:CIFXSubdivisionModifierDecoder.obj
 0005:00012944       ??_7CIFXShadingModifierDecoder@@6BIFXUnknown@@@ 100d0944     Importing:CIFXShadingModifierDecoder.obj
 0005:00012954       ??_7CIFXShadingModifierDecoder@@6BIFXDecoderX@@@ 100d0954     Importing:CIFXShadingModifierDecoder.obj
 0005:00012964       ??_7CIFXShadingModifierDecoder@@6BIFXModifierBaseDecoder@@@ 100d0964     Importing:CIFXShadingModifierDecoder.obj
 0005:00012d44       ??_7IFXDecoderChainX@@6B@  100d0d44     Importing:CIFXDecoderChainX.obj
 0005:00012d68       ??_7CIFXDecoderChainX@@6B@ 100d0d68     Importing:CIFXDecoderChainX.obj
 0005:000145c4       ??_7IFXViewLayer@@6B@      100d25c4     Importing:CIFXViewDecoder.obj
 0005:000145cc       ??_7CIFXViewDecoder@@6BIFXUnknown@@@ 100d25cc     Importing:CIFXViewDecoder.obj
 0005:000145dc       ??_7CIFXViewDecoder@@6BIFXDecoderX@@@ 100d25dc     Importing:CIFXViewDecoder.obj
 0005:000145ec       ??_7CIFXViewDecoder@@6BCIFXNodeBaseDecoder@@@ 100d25ec     Importing:CIFXViewDecoder.obj
 0005:00015244       ??_7IFXBlockReaderX@@6B@   100d3244     Importing:CIFXBlockReaderX.obj
 0005:00015268       ??_7CIFXBlockReaderX@@6B@  100d3268     Importing:CIFXBlockReaderX.obj
 0005:000152fc       ??_7IFXBTTHash@@6B@        100d32fc     Importing:CIFXBTTHash.obj
 0005:00015320       ??_7CIFXBTTHash@@6B0@@     100d3320     Importing:CIFXBTTHash.obj
 0005:00015328       ??_7CIFXBTTHash@@6BIFXUnknown@@@ 100d3328     Importing:CIFXBTTHash.obj
 0005:0001ca54       ??_7IFXCoreArray@@6B@      100daa54     Importing:CIFXLoadManager.obj
 0005:0001ca84       ??_7IFXLoadManager@@6B0@@  100daa84     Importing:CIFXLoadManager.obj
 0005:0001cae4       ??_7IFXLoadManager@@6BIFXUnknown@@@ 100daae4     Importing:CIFXLoadManager.obj
 0005:0001cb44       ??_7IFXTask@@6B0@@         100dab44     Importing:CIFXLoadManager.obj
 0005:0001cb4c       ??_7IFXTask@@6BIFXUnknown@@@ 100dab4c     Importing:CIFXLoadManager.obj
 0005:0001cb64       ??_7CIFXLoadManager@@6BIFXUnknown@@@ 100dab64     Importing:CIFXLoadManager.obj
 0005:0001cbc4       ??_7CIFXLoadManager@@6BIFXLoadManager@@@ 100dabc4     Importing:CIFXLoadManager.obj
 0005:0001cc24       ??_7CIFXLoadManager@@6BIFXTask@@@ 100dac24     Importing:CIFXLoadManager.obj
 0005:0001cc84       ??_7?$IFXArray@VIFXExternalDecoderCont@CIFXLoadManager@@@@6B@ 100dac84     Importing:CIFXLoadManager.obj
 0005:0001ccb0       ??_7?$IFXArray@UIFXObjectFilter@@@@6B@ 100dacb0     Importing:CIFXLoadManager.obj
 0005:0001ccdc       ??_7?$IFXArray@PAVIFXLoadManager@@@@6B@ 100dacdc     Importing:CIFXLoadManager.obj
 0005:0001cd08       ??_7?$IFXArray@VIFXString@@@@6B@ 100dad08     Importing:CIFXLoadManager.obj
 0005:0001d284       ??_7IFXReadBuffer@@6B0@@   100db284     Importing:CIFXStdioReadBufferX.obj
 0005:0001d294       ??_7IFXReadBuffer@@6BIFXUnknown@@@ 100db294     Importing:CIFXStdioReadBufferX.obj
 0005:0001d2a4       ??_7IFXReadBufferX@@6B0@@  100db2a4     Importing:CIFXStdioReadBufferX.obj
 0005:0001d2b4       ??_7IFXReadBufferX@@6BIFXUnknown@@@ 100db2b4     Importing:CIFXStdioReadBufferX.obj
 0005:0001d2c4       ??_7IFXStdio@@6B0@@        100db2c4     Importing:CIFXStdioReadBufferX.obj
 0005:0001d2d0       ??_7IFXStdio@@6BIFXUnknown@@@ 100db2d0     Importing:CIFXStdioReadBufferX.obj
 0005:0001d2e0       ??_7CIFXStdioReadBufferX@@6BIFXUnknown@@@ 100db2e0     Importing:CIFXStdioReadBufferX.obj
 0005:0001d2f4       ??_7CIFXStdioReadBufferX@@6BIFXReadBuffer@@@ 100db2f4     Importing:CIFXStdioReadBufferX.obj
 0005:0001d308       ??_7CIFXStdioReadBufferX@@6BIFXReadBufferX@@@ 100db308     Importing:CIFXStdioReadBufferX.obj
 0005:0001d31c       ??_7CIFXStdioReadBufferX@@6BIFXStdio@@@ 100db31c     Importing:CIFXStdioReadBufferX.obj
 0005:0001da64       ??_7IFXInet@@6B0@@         100dba64     Importing:CIFXInternetReadBufferX.obj
 0005:0001da84       ??_7IFXInet@@6BIFXUnknown@@@ 100dba84     Importing:CIFXInternetReadBufferX.obj
 0005:0001daa4       ??_7CIFXInternetReadBufferX@@6BIFXUnknown@@@ 100dbaa4     Importing:CIFXInternetReadBufferX.obj
 0005:0001dab8       ??_7CIFXInternetReadBufferX@@6BIFXReadBuffer@@@ 100dbab8     Importing:CIFXInternetReadBufferX.obj
 0005:0001dacc       ??_7CIFXInternetReadBufferX@@6BIFXReadBufferX@@@ 100dbacc     Importing:CIFXInternetReadBufferX.obj
 0005:0001dae0       ??_7CIFXInternetReadBufferX@@6BIFXStdio@@@ 100dbae0     Importing:CIFXInternetReadBufferX.obj
 0005:0001daf4       ??_7CIFXInternetReadBufferX@@6BIFXInet@@@ 100dbaf4     Importing:CIFXInternetReadBufferX.obj
 0005:0001db14       ??_7CIFXInternetReadBufferX@@6BIFXTask@@@ 100dbb14     Importing:CIFXInternetReadBufferX.obj
 0005:0001fbe4       ??_7CIFXPointSetDecoder@@6BIFXUnknown@@@ 100ddbe4     Importing:CIFXPointSetDecoder.obj
 0005:0001fbf4       ??_7CIFXPointSetDecoder@@6BIFXDecoderX@@@ 100ddbf4     Importing:CIFXPointSetDecoder.obj
 0005:0001fc04       ??_7CIFXPointSetDecoder@@6BIFXModifierBaseDecoder@@@ 100ddc04     Importing:CIFXPointSetDecoder.obj
 0005:00022884       ??_7CIFXLineSetDecoder@@6BIFXUnknown@@@ 100e0884     Importing:CIFXLineSetDecoder.obj
 0005:00022894       ??_7CIFXLineSetDecoder@@6BIFXDecoderX@@@ 100e0894     Importing:CIFXLineSetDecoder.obj
 0005:000228a4       ??_7CIFXLineSetDecoder@@6BIFXModifierBaseDecoder@@@ 100e08a4     Importing:CIFXLineSetDecoder.obj
 0005:000228ac       ??_7?$IFXArray@I@@6B@      100e08ac     Importing:CIFXLineSetDecoder.obj
 0005:00023344       ??_7CIFXBoneWeightsModifierDecoder@@6BIFXUnknown@@@ 100e1344     Importing:CIFXBoneWeightsModifierDecoder.obj
 0005:00023354       ??_7CIFXBoneWeightsModifierDecoder@@6BIFXDecoderX@@@ 100e1354     Importing:CIFXBoneWeightsModifierDecoder.obj
 0005:00023364       ??_7CIFXBoneWeightsModifierDecoder@@6BIFXModifierBaseDecoder@@@ 100e1364     Importing:CIFXBoneWeightsModifierDecoder.obj
 0005:00023d44       ??_7CIFXCLODModifierDecoder@@6BIFXUnknown@@@ 100e1d44     Importing:CIFXCLODModifierDecoder.obj
 0005:00023d54       ??_7CIFXCLODModifierDecoder@@6BIFXDecoderX@@@ 100e1d54     Importing:CIFXCLODModifierDecoder.obj
 0005:00023d64       ??_7CIFXCLODModifierDecoder@@6BIFXModifierBaseDecoder@@@ 100e1d64     Importing:CIFXCLODModifierDecoder.obj
 0005:000241a4       ??_7CIFXDummyModifierDecoder@@6BIFXUnknown@@@ 100e21a4     Importing:CIFXDummyModifierDecoder.obj
 0005:000241b4       ??_7CIFXDummyModifierDecoder@@6BIFXDecoderX@@@ 100e21b4     Importing:CIFXDummyModifierDecoder.obj
 0005:000241c4       ??_7CIFXDummyModifierDecoder@@6BIFXModifierBaseDecoder@@@ 100e21c4     Importing:CIFXDummyModifierDecoder.obj
 0005:000242a4       ??_7IFXString@@6B@         100e22a4     Importing:IFXString.obj
 0005:00025e44       ??_7IFXModifierBaseDecoder@@6B@ 100e3e44     Importing:IFXModifierBaseDecoder.obj
 0005:0002cbc4       ??_7CIFXNodeBaseDecoder@@6B@ 100eabc4     Importing:CIFXNodeDecoder.obj
 0005:0002e424       ??_7IFXInternetConnectionX@@6B@ 100ec424     Importing:IFXInternetConnectionX.obj
 0005:0002e43c       ??_7IFXHTTPConnectionX@@6B@ 100ec43c     Importing:IFXInternetConnectionX.obj
 0005:0002e454       ??_7IFXFTPConnectionX@@6B@ 100ec454     Importing:IFXInternetConnectionX.obj
 0006:00000000       ??_C@_05A@sqrtl?$AA@       100f7000     libmmt:libm_error.omu
 0006:00000008       ??_C@_0BG@A@?$ANsqrtl?3?5DOMAIN?5error?6?$AA@ 100f7008     libmmt:libm_error.omu
 0006:00000020       ??_C@_04A@sqrt?$AA@        100f7020     libmmt:libm_error.omu
 0006:00000028       ??_C@_0BF@A@?$ANsqrt?3?5DOMAIN?5error?6?$AA@ 100f7028     libmmt:libm_error.omu
 0006:00000040       ??_C@_05A@sqrtf?$AA@       100f7040     libmmt:libm_error.omu
 0006:00000048       ??_C@_0BG@A@?$ANsqrtf?3?5DOMAIN?5error?6?$AA@ 100f7048     libmmt:libm_error.omu
 0006:00000060       ??_C@_04A@logl?$AA@        100f7060     libmmt:libm_error.omu
 0006:00000068       ??_C@_0BD@A@?$ANlogl?3?5SING?5error?6?$AA@ 100f7068     libmmt:libm_error.omu
 0006:0000007c       ??_C@_03A@log?$AA@         100f707c     libmmt:libm_error.omu
 0006:00000080       ??_C@_0BC@A@?$ANlog?3?5SING?5error?6?$AA@ 100f7080     libmmt:libm_error.omu
 0006:00000094       ??_C@_04A@logf?$AA@        100f7094     libmmt:libm_error.omu
 0006:0000009c       ??_C@_0BD@A@?$ANlogf?3?5SING?5error?6?$AA@ 100f709c     libmmt:libm_error.omu
 0006:000000b0       ??_C@_0BF@A@?$ANlogl?3?5DOMAIN?5error?6?$AA@ 100f70b0     libmmt:libm_error.omu
 0006:000000c8       ??_C@_0BE@A@?$ANlog?3?5DOMAIN?5error?6?$AA@ 100f70c8     libmmt:libm_error.omu
 0006:000000dc       ??_C@_0BF@A@?$ANlogf?3?5DOMAIN?5error?6?$AA@ 100f70dc     libmmt:libm_error.omu
 0006:000000f4       ??_C@_06A@log1pl?$AA@      100f70f4     libmmt:libm_error.omu
 0006:000000fc       ??_C@_0BF@A@?$ANlog1pl?3?5SING?5error?6?$AA@ 100f70fc     libmmt:libm_error.omu
 0006:00000114       ??_C@_05A@log1p?$AA@       100f7114     libmmt:libm_error.omu
 0006:0000011c       ??_C@_0BE@A@?$ANlog1p?3?5SING?5error?6?$AA@ 100f711c     libmmt:libm_error.omu
 0006:00000130       ??_C@_06A@log1pf?$AA@      100f7130     libmmt:libm_error.omu
 0006:00000138       ??_C@_0BF@A@?$ANlog1pf?3?5SING?5error?6?$AA@ 100f7138     libmmt:libm_error.omu
 0006:00000150       ??_C@_0BH@A@?$ANlog1pl?3?5DOMAIN?5error?6?$AA@ 100f7150     libmmt:libm_error.omu
 0006:00000168       ??_C@_0BG@A@?$ANlog1p?3?5DOMAIN?5error?6?$AA@ 100f7168     libmmt:libm_error.omu
 0006:00000180       ??_C@_0BH@A@?$ANlog1pf?3?5DOMAIN?5error?6?$AA@ 100f7180     libmmt:libm_error.omu
 0006:00000198       ??_C@_06A@log10l?$AA@      100f7198     libmmt:libm_error.omu
 0006:000001a0       ??_C@_0BF@A@?$ANlog10l?3?5SING?5error?6?$AA@ 100f71a0     libmmt:libm_error.omu
 0006:000001b8       ??_C@_05A@log10?$AA@       100f71b8     libmmt:libm_error.omu
 0006:000001c0       ??_C@_0BE@A@?$ANlog10?3?5SING?5error?6?$AA@ 100f71c0     libmmt:libm_error.omu
 0006:000001d4       ??_C@_06A@log10f?$AA@      100f71d4     libmmt:libm_error.omu
 0006:000001dc       ??_C@_0BF@A@?$ANlog10f?3?5SING?5error?6?$AA@ 100f71dc     libmmt:libm_error.omu
 0006:000001f4       ??_C@_0BH@A@?$ANlog10l?3?5DOMAIN?5error?6?$AA@ 100f71f4     libmmt:libm_error.omu
 0006:0000020c       ??_C@_0BG@A@?$ANlog10?3?5DOMAIN?5error?6?$AA@ 100f720c     libmmt:libm_error.omu
 0006:00000224       ??_C@_0BH@A@?$ANlog10f?3?5DOMAIN?5error?6?$AA@ 100f7224     libmmt:libm_error.omu
 0006:0000023c       ??_C@_05A@log2l?$AA@       100f723c     libmmt:libm_error.omu
 0006:00000244       ??_C@_0BE@A@?$ANlog2l?3?5SING?5error?6?$AA@ 100f7244     libmmt:libm_error.omu
 0006:00000258       ??_C@_04A@log2?$AA@        100f7258     libmmt:libm_error.omu
 0006:00000260       ??_C@_0BD@A@?$ANlog2?3?5SING?5error?6?$AA@ 100f7260     libmmt:libm_error.omu
 0006:00000274       ??_C@_05A@log2f?$AA@       100f7274     libmmt:libm_error.omu
 0006:0000027c       ??_C@_0BE@A@?$ANlog2f?3?5SING?5error?6?$AA@ 100f727c     libmmt:libm_error.omu
 0006:00000290       ??_C@_0BG@A@?$ANlog2l?3?5DOMAIN?5error?6?$AA@ 100f7290     libmmt:libm_error.omu
 0006:000002a8       ??_C@_0BF@A@?$ANlog2?3?5DOMAIN?5error?6?$AA@ 100f72a8     libmmt:libm_error.omu
 0006:000002c0       ??_C@_0BG@A@?$ANlog2f?3?5DOMAIN?5error?6?$AA@ 100f72c0     libmmt:libm_error.omu
 0006:000002d8       ??_C@_04A@expl?$AA@        100f72d8     libmmt:libm_error.omu
 0006:000002e0       ??_C@_03A@exp?$AA@         100f72e0     libmmt:libm_error.omu
 0006:000002e4       ??_C@_04A@expf?$AA@        100f72e4     libmmt:libm_error.omu
 0006:000002ec       ??_C@_04A@powl?$AA@        100f72ec     libmmt:libm_error.omu
 0006:000002f4       ??_C@_0BK@A@?$ANpowl?$CI0?00?$CJ?3?5DOMAIN?5error?6?$AA@ 100f72f4     libmmt:libm_error.omu
 0006:00000310       ??_C@_03A@pow?$AA@         100f7310     libmmt:libm_error.omu
 0006:00000314       ??_C@_0BJ@A@?$ANpow?$CI0?00?$CJ?3?5DOMAIN?5error?6?$AA@ 100f7314     libmmt:libm_error.omu
 0006:00000330       ??_C@_04A@powf?$AA@        100f7330     libmmt:libm_error.omu
 0006:00000338       ??_C@_0BK@A@?$ANpowf?$CI0?00?$CJ?3?5DOMAIN?5error?6?$AA@ 100f7338     libmmt:libm_error.omu
 0006:00000354       ??_C@_0CB@A@?$ANpowl?$CI0?0negative?$CJ?3?5DOMAIN?5error?6?$AA@ 100f7354     libmmt:libm_error.omu
 0006:00000378       ??_C@_0CA@A@?$ANpow?$CI0?0negative?$CJ?3?5DOMAIN?5error?6?$AA@ 100f7378     libmmt:libm_error.omu
 0006:00000398       ??_C@_0CB@A@?$ANpowf?$CI0?0negative?$CJ?3?5DOMAIN?5error?6?$AA@ 100f7398     libmmt:libm_error.omu
 0006:000003bc       ??_C@_0CL@A@?$ANpowl?$CInegative?0non?9integer?$CJ?3?5DOMAIN?5error?6?$AA@ 100f73bc     libmmt:libm_error.omu
 0006:000003e8       ??_C@_0CK@A@?$ANpow?$CInegative?0non?9integer?$CJ?3?5DOMAIN?5error?6?$AA@ 100f73e8     libmmt:libm_error.omu
 0006:00000414       ??_C@_0CL@A@?$ANpowf?$CInegative?0non?9integer?$CJ?3?5DOMAIN?5error?6?$AA@ 100f7414     libmmt:libm_error.omu
 0006:00000440       ??_C@_06A@atan2l?$AA@      100f7440     libmmt:libm_error.omu
 0006:00000448       ??_C@_0BH@A@?$ANatan2l?3?5DOMAIN?5error?6?$AA@ 100f7448     libmmt:libm_error.omu
 0006:00000460       ??_C@_05A@atan2?$AA@       100f7460     libmmt:libm_error.omu
 0006:00000468       ??_C@_0BG@A@?$ANatan2?3?5DOMAIN?5error?6?$AA@ 100f7468     libmmt:libm_error.omu
 0006:00000480       ??_C@_06A@atan2f?$AA@      100f7480     libmmt:libm_error.omu
 0006:00000488       ??_C@_0BH@A@?$ANatan2f?3?5DOMAIN?5error?6?$AA@ 100f7488     libmmt:libm_error.omu
 0006:000004a0       ??_C@_07A@atan2dl?$AA@     100f74a0     libmmt:libm_error.omu
 0006:000004a8       ??_C@_0BI@A@?$ANatan2dl?3?5DOMAIN?5error?6?$AA@ 100f74a8     libmmt:libm_error.omu
 0006:000004c0       ??_C@_06A@atan2d?$AA@      100f74c0     libmmt:libm_error.omu
 0006:000004c8       ??_C@_0BH@A@?$ANatan2d?3?5DOMAIN?5error?6?$AA@ 100f74c8     libmmt:libm_error.omu
 0006:000004e0       ??_C@_07A@atan2df?$AA@     100f74e0     libmmt:libm_error.omu
 0006:000004e8       ??_C@_0BI@A@?$ANatan2df?3?5DOMAIN?5error?6?$AA@ 100f74e8     libmmt:libm_error.omu
 0006:00000500       ??_C@_06A@scalbl?$AA@      100f7500     libmmt:libm_error.omu
 0006:00000508       ??_C@_05A@scalb?$AA@       100f7508     libmmt:libm_error.omu
 0006:00000510       ??_C@_06A@scalbf?$AA@      100f7510     libmmt:libm_error.omu
 0006:00000518       ??_C@_06A@hypotl?$AA@      100f7518     libmmt:libm_error.omu
 0006:00000520       ??_C@_05A@hypot?$AA@       100f7520     libmmt:libm_error.omu
 0006:00000528       ??_C@_06A@hypotf?$AA@      100f7528     libmmt:libm_error.omu
 0006:00000530       ??_C@_05A@acosl?$AA@       100f7530     libmmt:libm_error.omu
 0006:00000538       ??_C@_0BG@A@?$ANacosl?3?5DOMAIN?5error?6?$AA@ 100f7538     libmmt:libm_error.omu
 0006:00000550       ??_C@_04A@acos?$AA@        100f7550     libmmt:libm_error.omu
 0006:00000558       ??_C@_0BF@A@?$ANacos?3?5DOMAIN?5error?6?$AA@ 100f7558     libmmt:libm_error.omu
 0006:00000570       ??_C@_05A@acosf?$AA@       100f7570     libmmt:libm_error.omu
 0006:00000578       ??_C@_0BG@A@?$ANacosf?3?5DOMAIN?5error?6?$AA@ 100f7578     libmmt:libm_error.omu
 0006:00000590       ??_C@_05A@asinl?$AA@       100f7590     libmmt:libm_error.omu
 0006:00000598       ??_C@_0BG@A@?$ANasinl?3?5DOMAIN?5error?6?$AA@ 100f7598     libmmt:libm_error.omu
 0006:000005b0       ??_C@_04A@asin?$AA@        100f75b0     libmmt:libm_error.omu
 0006:000005b8       ??_C@_0BF@A@?$ANasin?3?5DOMAIN?5error?6?$AA@ 100f75b8     libmmt:libm_error.omu
 0006:000005d0       ??_C@_05A@asinf?$AA@       100f75d0     libmmt:libm_error.omu
 0006:000005d8       ??_C@_0BG@A@?$ANasinf?3?5DOMAIN?5error?6?$AA@ 100f75d8     libmmt:libm_error.omu
 0006:000005f0       ??_C@_06A@acosdl?$AA@      100f75f0     libmmt:libm_error.omu
 0006:000005f8       ??_C@_0BH@A@?$ANacosdl?3?5DOMAIN?5error?6?$AA@ 100f75f8     libmmt:libm_error.omu
 0006:00000610       ??_C@_05A@acosd?$AA@       100f7610     libmmt:libm_error.omu
 0006:00000618       ??_C@_0BG@A@?$ANacosd?3?5DOMAIN?5error?6?$AA@ 100f7618     libmmt:libm_error.omu
 0006:00000630       ??_C@_06A@acosdf?$AA@      100f7630     libmmt:libm_error.omu
 0006:00000638       ??_C@_0BH@A@?$ANacosdf?3?5DOMAIN?5error?6?$AA@ 100f7638     libmmt:libm_error.omu
 0006:00000650       ??_C@_06A@asindl?$AA@      100f7650     libmmt:libm_error.omu
 0006:00000658       ??_C@_0BH@A@?$ANasindl?3?5DOMAIN?5error?6?$AA@ 100f7658     libmmt:libm_error.omu
 0006:00000670       ??_C@_05A@asind?$AA@       100f7670     libmmt:libm_error.omu
 0006:00000678       ??_C@_0BG@A@?$ANasind?3?5DOMAIN?5error?6?$AA@ 100f7678     libmmt:libm_error.omu
 0006:00000690       ??_C@_06A@asindf?$AA@      100f7690     libmmt:libm_error.omu
 0006:00000698       ??_C@_0BH@A@?$ANasindf?3?5DOMAIN?5error?6?$AA@ 100f7698     libmmt:libm_error.omu
 0006:000006b0       ??_C@_05A@coshl?$AA@       100f76b0     libmmt:libm_error.omu
 0006:000006b8       ??_C@_04A@cosh?$AA@        100f76b8     libmmt:libm_error.omu
 0006:000006c0       ??_C@_05A@coshf?$AA@       100f76c0     libmmt:libm_error.omu
 0006:000006c8       ??_C@_05A@sinhl?$AA@       100f76c8     libmmt:libm_error.omu
 0006:000006d0       ??_C@_04A@sinh?$AA@        100f76d0     libmmt:libm_error.omu
 0006:000006d8       ??_C@_05A@sinhf?$AA@       100f76d8     libmmt:libm_error.omu
 0006:000006e0       ??_C@_06A@acoshl?$AA@      100f76e0     libmmt:libm_error.omu
 0006:000006e8       ??_C@_0BH@A@?$ANacoshl?3?5DOMAIN?5error?6?$AA@ 100f76e8     libmmt:libm_error.omu
 0006:00000700       ??_C@_05A@acosh?$AA@       100f7700     libmmt:libm_error.omu
 0006:00000708       ??_C@_0BG@A@?$ANacosh?3?5DOMAIN?5error?6?$AA@ 100f7708     libmmt:libm_error.omu
 0006:00000720       ??_C@_06A@acoshf?$AA@      100f7720     libmmt:libm_error.omu
 0006:00000728       ??_C@_0BH@A@?$ANacoshf?3?5DOMAIN?5error?6?$AA@ 100f7728     libmmt:libm_error.omu
 0006:00000740       ??_C@_06A@atanhl?$AA@      100f7740     libmmt:libm_error.omu
 0006:00000748       ??_C@_0BH@A@?$ANatanhl?3?5DOMAIN?5error?6?$AA@ 100f7748     libmmt:libm_error.omu
 0006:00000760       ??_C@_05A@atanh?$AA@       100f7760     libmmt:libm_error.omu
 0006:00000768       ??_C@_0BG@A@?$ANatanh?3?5DOMAIN?5error?6?$AA@ 100f7768     libmmt:libm_error.omu
 0006:00000780       ??_C@_06A@atanhf?$AA@      100f7780     libmmt:libm_error.omu
 0006:00000788       ??_C@_0BH@A@?$ANatanhf?3?5DOMAIN?5error?6?$AA@ 100f7788     libmmt:libm_error.omu
 0006:000007a0       ??_C@_0BF@A@?$ANatanhl?3?5SING?5error?6?$AA@ 100f77a0     libmmt:libm_error.omu
 0006:000007b8       ??_C@_0BE@A@?$ANatanh?3?5SING?5error?6?$AA@ 100f77b8     libmmt:libm_error.omu
 0006:000007cc       ??_C@_0BF@A@?$ANatanhf?3?5SING?5error?6?$AA@ 100f77cc     libmmt:libm_error.omu
 0006:000007e4       ??_C@_06A@gammal?$AA@      100f77e4     libmmt:libm_error.omu
 0006:000007ec       ??_C@_05A@gamma?$AA@       100f77ec     libmmt:libm_error.omu
 0006:000007f4       ??_C@_06A@gammaf?$AA@      100f77f4     libmmt:libm_error.omu
 0006:000007fc       ??_C@_0BF@A@?$ANgammal?3?5SING?5error?6?$AA@ 100f77fc     libmmt:libm_error.omu
 0006:00000814       ??_C@_0BE@A@?$ANgamma?3?5SING?5error?6?$AA@ 100f7814     libmmt:libm_error.omu
 0006:00000828       ??_C@_0BF@A@?$ANgammaf?3?5SING?5error?6?$AA@ 100f7828     libmmt:libm_error.omu
 0006:00000840       ??_C@_07A@lgammal?$AA@     100f7840     libmmt:libm_error.omu
 0006:00000848       ??_C@_06A@lgamma?$AA@      100f7848     libmmt:libm_error.omu
 0006:00000850       ??_C@_07A@lgammaf?$AA@     100f7850     libmmt:libm_error.omu
 0006:00000858       ??_C@_0BG@A@?$ANlgammal?3?5SING?5error?6?$AA@ 100f7858     libmmt:libm_error.omu
 0006:00000870       ??_C@_0BF@A@?$ANlgamma?3?5SING?5error?6?$AA@ 100f7870     libmmt:libm_error.omu
 0006:00000888       ??_C@_0BG@A@?$ANlgammaf?3?5SING?5error?6?$AA@ 100f7888     libmmt:libm_error.omu
 0006:000008a0       ??_C@_07A@tgammal?$AA@     100f78a0     libmmt:libm_error.omu
 0006:000008a8       ??_C@_06A@tgamma?$AA@      100f78a8     libmmt:libm_error.omu
 0006:000008b0       ??_C@_07A@tgammaf?$AA@     100f78b0     libmmt:libm_error.omu
 0006:000008b8       ??_C@_0BI@A@?$ANtgammal?3?5DOMAIN?5error?6?$AA@ 100f78b8     libmmt:libm_error.omu
 0006:000008d0       ??_C@_0BH@A@?$ANtgamma?3?5DOMAIN?5error?6?$AA@ 100f78d0     libmmt:libm_error.omu
 0006:000008e8       ??_C@_0BI@A@?$ANtgammaf?3?5DOMAIN?5error?6?$AA@ 100f78e8     libmmt:libm_error.omu
 0006:00000900       ??_C@_03A@j0l?$AA@         100f7900     libmmt:libm_error.omu
 0006:00000904       ??_C@_0BD@A@?$ANj0l?3?5TLOSS?5error?6?$AA@ 100f7904     libmmt:libm_error.omu
 0006:00000918       ??_C@_02A@j0?$AA@          100f7918     libmmt:libm_error.omu
 0006:0000091c       ??_C@_0BC@A@?$ANj0?3?5TLOSS?5error?6?$AA@ 100f791c     libmmt:libm_error.omu
 0006:00000930       ??_C@_03A@j0f?$AA@         100f7930     libmmt:libm_error.omu
 0006:00000934       ??_C@_0BD@A@?$ANj0f?3?5TLOSS?5error?6?$AA@ 100f7934     libmmt:libm_error.omu
 0006:00000948       ??_C@_03A@j1l?$AA@         100f7948     libmmt:libm_error.omu
 0006:0000094c       ??_C@_0BD@A@?$ANj1l?3?5TLOSS?5error?6?$AA@ 100f794c     libmmt:libm_error.omu
 0006:00000960       ??_C@_02A@j1?$AA@          100f7960     libmmt:libm_error.omu
 0006:00000964       ??_C@_0BC@A@?$ANj1?3?5TLOSS?5error?6?$AA@ 100f7964     libmmt:libm_error.omu
 0006:00000978       ??_C@_03A@j1f?$AA@         100f7978     libmmt:libm_error.omu
 0006:0000097c       ??_C@_0BD@A@?$ANj1f?3?5TLOSS?5error?6?$AA@ 100f797c     libmmt:libm_error.omu
 0006:00000990       ??_C@_03A@jnl?$AA@         100f7990     libmmt:libm_error.omu
 0006:00000994       ??_C@_0BD@A@?$ANjnl?3?5TLOSS?5error?6?$AA@ 100f7994     libmmt:libm_error.omu
 0006:000009a8       ??_C@_02A@jn?$AA@          100f79a8     libmmt:libm_error.omu
 0006:000009ac       ??_C@_0BC@A@?$ANjn?3?5TLOSS?5error?6?$AA@ 100f79ac     libmmt:libm_error.omu
 0006:000009c0       ??_C@_03A@jnf?$AA@         100f79c0     libmmt:libm_error.omu
 0006:000009c4       ??_C@_0BD@A@?$ANjnf?3?5TLOSS?5error?6?$AA@ 100f79c4     libmmt:libm_error.omu
 0006:000009d8       ??_C@_03A@y0l?$AA@         100f79d8     libmmt:libm_error.omu
 0006:000009dc       ??_C@_0BD@A@?$ANy0l?3?5TLOSS?5error?6?$AA@ 100f79dc     libmmt:libm_error.omu
 0006:000009f0       ??_C@_02A@y0?$AA@          100f79f0     libmmt:libm_error.omu
 0006:000009f4       ??_C@_0BC@A@?$ANy0?3?5TLOSS?5error?6?$AA@ 100f79f4     libmmt:libm_error.omu
 0006:00000a08       ??_C@_03A@y0f?$AA@         100f7a08     libmmt:libm_error.omu
 0006:00000a0c       ??_C@_0BD@A@?$ANy0f?3?5TLOSS?5error?6?$AA@ 100f7a0c     libmmt:libm_error.omu
 0006:00000a20       ??_C@_0BE@A@?$ANy0l?3?5DOMAIN?5error?6?$AA@ 100f7a20     libmmt:libm_error.omu
 0006:00000a34       ??_C@_0BD@A@?$ANy0?3?5DOMAIN?5error?6?$AA@ 100f7a34     libmmt:libm_error.omu
 0006:00000a48       ??_C@_0BE@A@?$ANy0f?3?5DOMAIN?5error?6?$AA@ 100f7a48     libmmt:libm_error.omu
 0006:00000a5c       ??_C@_03A@y1l?$AA@         100f7a5c     libmmt:libm_error.omu
 0006:00000a60       ??_C@_0BD@A@?$ANy1l?3?5TLOSS?5error?6?$AA@ 100f7a60     libmmt:libm_error.omu
 0006:00000a74       ??_C@_02A@y1?$AA@          100f7a74     libmmt:libm_error.omu
 0006:00000a78       ??_C@_0BC@A@?$ANy1?3?5TLOSS?5error?6?$AA@ 100f7a78     libmmt:libm_error.omu
 0006:00000a8c       ??_C@_03A@y1f?$AA@         100f7a8c     libmmt:libm_error.omu
 0006:00000a90       ??_C@_0BD@A@?$ANy1f?3?5TLOSS?5error?6?$AA@ 100f7a90     libmmt:libm_error.omu
 0006:00000aa4       ??_C@_0BE@A@?$ANy1l?3?5DOMAIN?5error?6?$AA@ 100f7aa4     libmmt:libm_error.omu
 0006:00000ab8       ??_C@_0BD@A@?$ANy1?3?5DOMAIN?5error?6?$AA@ 100f7ab8     libmmt:libm_error.omu
 0006:00000acc       ??_C@_0BE@A@?$ANy1f?3?5DOMAIN?5error?6?$AA@ 100f7acc     libmmt:libm_error.omu
 0006:00000ae0       ??_C@_03A@ynl?$AA@         100f7ae0     libmmt:libm_error.omu
 0006:00000ae4       ??_C@_0BD@A@?$ANynl?3?5TLOSS?5error?6?$AA@ 100f7ae4     libmmt:libm_error.omu
 0006:00000af8       ??_C@_02A@yn?$AA@          100f7af8     libmmt:libm_error.omu
 0006:00000afc       ??_C@_0BC@A@?$ANyn?3?5TLOSS?5error?6?$AA@ 100f7afc     libmmt:libm_error.omu
 0006:00000b10       ??_C@_03A@ynf?$AA@         100f7b10     libmmt:libm_error.omu
 0006:00000b14       ??_C@_0BD@A@?$ANynf?3?5TLOSS?5error?6?$AA@ 100f7b14     libmmt:libm_error.omu
 0006:00000b28       ??_C@_0BE@A@?$ANynl?3?5DOMAIN?5error?6?$AA@ 100f7b28     libmmt:libm_error.omu
 0006:00000b3c       ??_C@_0BD@A@?$ANyn?3?5DOMAIN?5error?6?$AA@ 100f7b3c     libmmt:libm_error.omu
 0006:00000b50       ??_C@_0BE@A@?$ANynf?3?5DOMAIN?5error?6?$AA@ 100f7b50     libmmt:libm_error.omu
 0006:00000b64       ??_C@_05A@fmodl?$AA@       100f7b64     libmmt:libm_error.omu
 0006:00000b6c       ??_C@_0BG@A@?$ANfmodl?3?5DOMAIN?5error?6?$AA@ 100f7b6c     libmmt:libm_error.omu
 0006:00000b84       ??_C@_04A@fmod?$AA@        100f7b84     libmmt:libm_error.omu
 0006:00000b8c       ??_C@_0BF@A@?$ANfmod?3?5DOMAIN?5error?6?$AA@ 100f7b8c     libmmt:libm_error.omu
 0006:00000ba4       ??_C@_05A@fmodf?$AA@       100f7ba4     libmmt:libm_error.omu
 0006:00000bac       ??_C@_0BG@A@?$ANfmodf?3?5DOMAIN?5error?6?$AA@ 100f7bac     libmmt:libm_error.omu
 0006:00000bc4       ??_C@_0L@A@remainderl?$AA@ 100f7bc4     libmmt:libm_error.omu
 0006:00000bd0       ??_C@_0BL@A@?$ANremainderl?3?5DOMAIN?5error?6?$AA@ 100f7bd0     libmmt:libm_error.omu
 0006:00000bec       ??_C@_09A@remainder?$AA@   100f7bec     libmmt:libm_error.omu
 0006:00000bf8       ??_C@_0BK@A@?$ANremainder?3?5DOMAIN?5error?6?$AA@ 100f7bf8     libmmt:libm_error.omu
 0006:00000c14       ??_C@_0L@A@remainderf?$AA@ 100f7c14     libmmt:libm_error.omu
 0006:00000c20       ??_C@_0BL@A@?$ANremainderf?3?5DOMAIN?5error?6?$AA@ 100f7c20     libmmt:libm_error.omu

 entry point at        0001:0005b390

